ARM GAS  /tmp/cc8zDaXK.s 			page 1


   1              		.syntax unified
   2              		.cpu cortex-m4
   3              		.eabi_attribute 27, 3
   4              		.eabi_attribute 28, 1
   5              		.fpu fpv4-sp-d16
   6              		.eabi_attribute 20, 1
   7              		.eabi_attribute 21, 1
   8              		.eabi_attribute 23, 3
   9              		.eabi_attribute 24, 1
  10              		.eabi_attribute 25, 1
  11              		.eabi_attribute 26, 1
  12              		.eabi_attribute 30, 2
  13              		.eabi_attribute 34, 1
  14              		.eabi_attribute 18, 4
  15              		.thumb
  16              		.file	"adc_lld.c"
  17              		.text
  18              	.Ltext0:
  19              		.cfi_sections	.debug_frame
  20              		.section	.text.adc_lld_init,"ax",%progbits
  21              		.align	2
  22              		.p2align 4,,15
  23              		.global	adc_lld_init
  24              		.thumb
  25              		.thumb_func
  26              		.type	adc_lld_init, %function
  27              	adc_lld_init:
  28              	.LFB264:
  29              		.file 1 "../ChibiOS/os/hal/ports/STM32/STM32F3xx/adc_lld.c"
  30              		.loc 1 320 0
  31              		.cfi_startproc
  32              		@ args = 0, pretend = 0, frame = 0
  33              		@ frame_needed = 0, uses_anonymous_args = 0
  34 0000 38B5     		push	{r3, r4, r5, lr}
  35              		.cfi_def_cfa_offset 16
  36              		.cfi_offset 3, -16
  37              		.cfi_offset 4, -12
  38              		.cfi_offset 5, -8
  39              		.cfi_offset 14, -4
  40              		.loc 1 324 0
  41 0002 0A4C     		ldr	r4, .L3
  42 0004 2046     		mov	r0, r4
  43 0006 FFF7FEFF 		bl	adcObjectInit
  44              	.LVL0:
  45              		.loc 1 325 0
  46 000a 094B     		ldr	r3, .L3+4
  47 000c A362     		str	r3, [r4, #40]
  48              		.loc 1 326 0
  49 000e 4FF0A045 		mov	r5, #1342177280
  50              		.loc 1 331 0
  51 0012 42F28A53 		movw	r3, #9610
  52              		.loc 1 330 0
  53 0016 074A     		ldr	r2, .L3+8
  54              		.loc 1 326 0
  55 0018 E562     		str	r5, [r4, #44]
  56              		.loc 1 330 0
  57 001a 2263     		str	r2, [r4, #48]
ARM GAS  /tmp/cc8zDaXK.s 			page 2


  58              		.loc 1 331 0
  59 001c 6363     		str	r3, [r4, #52]
  60              		.loc 1 336 0
  61 001e 1220     		movs	r0, #18
  62 0020 0521     		movs	r1, #5
  63              		.loc 1 358 0
  64 0022 BDE83840 		pop	{r3, r4, r5, lr}
  65              		.cfi_restore 14
  66              		.cfi_restore 5
  67              		.cfi_restore 4
  68              		.cfi_restore 3
  69              		.cfi_def_cfa_offset 0
  70              		.loc 1 336 0
  71 0026 FFF7FEBF 		b	nvicEnableVector
  72              	.LVL1:
  73              	.L4:
  74 002a 00BF     		.align	2
  75              	.L3:
  76 002c 00000000 		.word	.LANCHOR0
  77 0030 00030050 		.word	1342178048
  78 0034 00000000 		.word	_stm32_dma_streams
  79              		.cfi_endproc
  80              	.LFE264:
  81              		.size	adc_lld_init, .-adc_lld_init
  82 0038 AFF30080 		.section	.text.adc_lld_start,"ax",%progbits
  82      AFF30080 
  83              		.align	2
  84              		.p2align 4,,15
  85              		.global	adc_lld_start
  86              		.thumb
  87              		.thumb_func
  88              		.type	adc_lld_start, %function
  89              	adc_lld_start:
  90              	.LFB265:
  91              		.loc 1 367 0
  92              		.cfi_startproc
  93              		@ args = 0, pretend = 0, frame = 0
  94              		@ frame_needed = 0, uses_anonymous_args = 0
  95              	.LVL2:
  96 0000 F8B5     		push	{r3, r4, r5, r6, r7, lr}
  97              		.cfi_def_cfa_offset 24
  98              		.cfi_offset 3, -24
  99              		.cfi_offset 4, -20
 100              		.cfi_offset 5, -16
 101              		.cfi_offset 6, -12
 102              		.cfi_offset 7, -8
 103              		.cfi_offset 14, -4
 104              		.loc 1 370 0
 105 0002 0378     		ldrb	r3, [r0]	@ zero_extendqisi2
 106 0004 012B     		cmp	r3, #1
 107 0006 00D0     		beq	.L16
 108 0008 F8BD     		pop	{r3, r4, r5, r6, r7, pc}
 109              	.L16:
 110              		.loc 1 372 0
 111 000a 194B     		ldr	r3, .L18
 112 000c 9842     		cmp	r0, r3
 113 000e 0446     		mov	r4, r0
ARM GAS  /tmp/cc8zDaXK.s 			page 3


 114 0010 22D0     		beq	.L17
 115              	.LVL3:
 116              	.L7:
 117              		.loc 1 399 0
 118 0012 226B     		ldr	r2, [r4, #48]
 119 0014 E36A     		ldr	r3, [r4, #44]
 120 0016 1068     		ldr	r0, [r2]
 121              		.loc 1 403 0
 122 0018 A56A     		ldr	r5, [r4, #40]
 123              		.loc 1 399 0
 124 001a 03F14007 		add	r7, r3, #64
 125              	.LBB210:
 126              	.LBB211:
 127              		.loc 1 88 0
 128 001e 4FF08052 		mov	r2, #268435456
 129              		.loc 1 87 0
 130 0022 0021     		movs	r1, #0
 131              	.LBE211:
 132              	.LBE210:
 133              		.loc 1 403 0
 134 0024 4FF48036 		mov	r6, #65536
 135              		.loc 1 399 0
 136 0028 8760     		str	r7, [r0, #8]
 137              		.loc 1 403 0
 138 002a AE60     		str	r6, [r5, #8]
 139              	.LVL4:
 140              	.LBB217:
 141              	.LBB216:
 142              	.LBB212:
 143              	.LBB213:
 144              		.file 2 "../ChibiOS/os/hal/osal/rt/osal.h"
 145              		.loc 2 505 0
 146 002c 4FF43470 		mov	r0, #720
 147              	.LBE213:
 148              	.LBE212:
 149              		.loc 1 87 0
 150 0030 9960     		str	r1, [r3, #8]
 151              		.loc 1 88 0
 152 0032 9A60     		str	r2, [r3, #8]
 153              	.LVL5:
 154              	.LBB215:
 155              	.LBB214:
 156              		.loc 2 505 0
 157 0034 FFF7FEFF 		bl	chSysPolledDelayX
 158              	.LVL6:
 159 0038 E36A     		ldr	r3, [r4, #44]
 160              	.LVL7:
 161              	.LBE214:
 162              	.LBE215:
 163              	.LBE216:
 164              	.LBE217:
 165              	.LBB218:
 166              	.LBB219:
 167              		.loc 1 151 0
 168 003a 9A68     		ldr	r2, [r3, #8]
 169 003c 42F00042 		orr	r2, r2, #-2147483648
 170 0040 9A60     		str	r2, [r3, #8]
ARM GAS  /tmp/cc8zDaXK.s 			page 4


 171              	.L8:
 172              		.loc 1 152 0
 173 0042 9A68     		ldr	r2, [r3, #8]
 174 0044 002A     		cmp	r2, #0
 175 0046 FCDB     		blt	.L8
 176              	.LVL8:
 177              	.LBE219:
 178              	.LBE218:
 179              	.LBB220:
 180              	.LBB221:
 181              		.loc 1 116 0
 182 0048 9A68     		ldr	r2, [r3, #8]
 183 004a 42F00102 		orr	r2, r2, #1
 184 004e 9A60     		str	r2, [r3, #8]
 185              	.L9:
 186              		.loc 1 117 0
 187 0050 1A68     		ldr	r2, [r3]
 188 0052 D207     		lsls	r2, r2, #31
 189 0054 FCD5     		bpl	.L9
 190 0056 F8BD     		pop	{r3, r4, r5, r6, r7, pc}
 191              	.LVL9:
 192              	.L17:
 193              	.LBE221:
 194              	.LBE220:
 195              	.LBB222:
 196              		.loc 1 374 0
 197 0058 064A     		ldr	r2, .L18+4
 198 005a 006B     		ldr	r0, [r0, #48]
 199              	.LVL10:
 200 005c 2346     		mov	r3, r4
 201 005e 0521     		movs	r1, #5
 202 0060 FFF7FEFF 		bl	dmaStreamAllocate
 203              	.LVL11:
 204              		.loc 1 379 0
 205 0064 044A     		ldr	r2, .L18+8
 206 0066 5369     		ldr	r3, [r2, #20]
 207 0068 43F08053 		orr	r3, r3, #268435456
 208 006c 5361     		str	r3, [r2, #20]
 209 006e D0E7     		b	.L7
 210              	.L19:
 211              		.align	2
 212              	.L18:
 213 0070 00000000 		.word	.LANCHOR0
 214 0074 00000000 		.word	adc_lld_serve_dma_interrupt
 215 0078 00100240 		.word	1073876992
 216              	.LBE222:
 217              		.cfi_endproc
 218              	.LFE265:
 219              		.size	adc_lld_start, .-adc_lld_start
 220 007c AFF30080 		.section	.text.adc_lld_stop,"ax",%progbits
 221              		.align	2
 222              		.p2align 4,,15
 223              		.global	adc_lld_stop
 224              		.thumb
 225              		.thumb_func
 226              		.type	adc_lld_stop, %function
 227              	adc_lld_stop:
ARM GAS  /tmp/cc8zDaXK.s 			page 5


 228              	.LFB266:
 229              		.loc 1 421 0
 230              		.cfi_startproc
 231              		@ args = 0, pretend = 0, frame = 0
 232              		@ frame_needed = 0, uses_anonymous_args = 0
 233              	.LVL12:
 234              		.loc 1 424 0
 235 0000 0378     		ldrb	r3, [r0]	@ zero_extendqisi2
 236 0002 022B     		cmp	r3, #2
 237 0004 00D0     		beq	.L32
 238 0006 7047     		bx	lr
 239              	.L32:
 240              		.loc 1 421 0
 241 0008 10B5     		push	{r4, lr}
 242              		.cfi_def_cfa_offset 8
 243              		.cfi_offset 4, -8
 244              		.cfi_offset 14, -4
 245 000a 0446     		mov	r4, r0
 246              		.loc 1 427 0
 247 000c 006B     		ldr	r0, [r0, #48]
 248              	.LVL13:
 249 000e FFF7FEFF 		bl	dmaStreamRelease
 250              	.LVL14:
 251 0012 E26A     		ldr	r2, [r4, #44]
 252              	.LVL15:
 253              	.LBB223:
 254              	.LBB224:
 255              		.loc 1 169 0
 256 0014 9368     		ldr	r3, [r2, #8]
 257 0016 5907     		lsls	r1, r3, #29
 258 0018 06D5     		bpl	.L26
 259              		.loc 1 170 0
 260 001a 9368     		ldr	r3, [r2, #8]
 261 001c 43F01003 		orr	r3, r3, #16
 262 0020 9360     		str	r3, [r2, #8]
 263              	.L25:
 264              		.loc 1 171 0
 265 0022 9368     		ldr	r3, [r2, #8]
 266 0024 DB06     		lsls	r3, r3, #27
 267 0026 FCD4     		bmi	.L25
 268              	.L26:
 269              	.LVL16:
 270              	.LBE224:
 271              	.LBE223:
 272              	.LBB225:
 273              	.LBB226:
 274              		.loc 1 133 0
 275 0028 9368     		ldr	r3, [r2, #8]
 276 002a 43F00203 		orr	r3, r3, #2
 277 002e 9360     		str	r3, [r2, #8]
 278              	.L24:
 279              		.loc 1 134 0
 280 0030 9368     		ldr	r3, [r2, #8]
 281 0032 13F00203 		ands	r3, r3, #2
 282 0036 FBD1     		bne	.L24
 283              	.LVL17:
 284              	.LBE226:
ARM GAS  /tmp/cc8zDaXK.s 			page 6


 285              	.LBE225:
 286              		.loc 1 437 0
 287 0038 0649     		ldr	r1, .L34
 288              	.LBB227:
 289              	.LBB228:
 290              		.loc 1 102 0
 291 003a 9360     		str	r3, [r2, #8]
 292              	.LBE228:
 293              	.LBE227:
 294              		.loc 1 437 0
 295 003c 8C42     		cmp	r4, r1
 296              	.LBB230:
 297              	.LBB229:
 298              		.loc 1 103 0
 299 003e 4FF00053 		mov	r3, #536870912
 300 0042 9360     		str	r3, [r2, #8]
 301              	.LBE229:
 302              	.LBE230:
 303              		.loc 1 437 0
 304 0044 00D0     		beq	.L33
 305              	.L20:
 306 0046 10BD     		pop	{r4, pc}
 307              	.LVL18:
 308              	.L33:
 309              		.loc 1 438 0
 310 0048 034A     		ldr	r2, .L34+4
 311 004a 5369     		ldr	r3, [r2, #20]
 312 004c 23F08053 		bic	r3, r3, #268435456
 313 0050 5361     		str	r3, [r2, #20]
 314 0052 F8E7     		b	.L20
 315              	.L35:
 316              		.align	2
 317              	.L34:
 318 0054 00000000 		.word	.LANCHOR0
 319 0058 00100240 		.word	1073876992
 320              		.cfi_endproc
 321              	.LFE266:
 322              		.size	adc_lld_stop, .-adc_lld_stop
 323 005c AFF30080 		.section	.text.adc_lld_start_conversion,"ax",%progbits
 324              		.align	2
 325              		.p2align 4,,15
 326              		.global	adc_lld_start_conversion
 327              		.thumb
 328              		.thumb_func
 329              		.type	adc_lld_start_conversion, %function
 330              	adc_lld_start_conversion:
 331              	.LFB267:
 332              		.loc 1 455 0
 333              		.cfi_startproc
 334              		@ args = 0, pretend = 0, frame = 8
 335              		@ frame_needed = 0, uses_anonymous_args = 0
 336              	.LVL19:
 337 0000 2DE9F04F 		push	{r4, r5, r6, r7, r8, r9, r10, fp, lr}
 338              		.cfi_def_cfa_offset 36
 339              		.cfi_offset 4, -36
 340              		.cfi_offset 5, -32
 341              		.cfi_offset 6, -28
ARM GAS  /tmp/cc8zDaXK.s 			page 7


 342              		.cfi_offset 7, -24
 343              		.cfi_offset 8, -20
 344              		.cfi_offset 9, -16
 345              		.cfi_offset 10, -12
 346              		.cfi_offset 11, -8
 347              		.cfi_offset 14, -4
 348              		.loc 1 464 0
 349 0004 D0F828E0 		ldr	lr, [r0, #40]
 350              		.loc 1 457 0
 351 0008 0269     		ldr	r2, [r0, #16]
 352              	.LVL20:
 353              		.loc 1 464 0
 354 000a DEF80830 		ldr	r3, [lr, #8]
 355 000e 5669     		ldr	r6, [r2, #20]
 356              		.loc 1 467 0
 357 0010 1178     		ldrb	r1, [r2]	@ zero_extendqisi2
 358              		.loc 1 466 0
 359 0012 D568     		ldr	r5, [r2, #12]
 360              		.loc 1 463 0
 361 0014 476B     		ldr	r7, [r0, #52]
 362              	.LVL21:
 363              		.loc 1 464 0
 364 0016 03F47033 		and	r3, r3, #245760
 365              		.loc 1 455 0
 366 001a 83B0     		sub	sp, sp, #12
 367              		.cfi_def_cfa_offset 48
 368              		.loc 1 464 0
 369 001c 1E43     		orrs	r6, r6, r3
 370              	.LVL22:
 371              		.loc 1 467 0
 372 001e 0029     		cmp	r1, #0
 373 0020 40D0     		beq	.L41
 374              	.LVL23:
 375              		.loc 1 474 0
 376 0022 C368     		ldr	r3, [r0, #12]
 377              		.loc 1 472 0
 378 0024 45F00301 		orr	r1, r5, #3
 379              		.loc 1 474 0
 380 0028 012B     		cmp	r3, #1
 381              		.loc 1 472 0
 382 002a 0191     		str	r1, [sp, #4]
 383              	.LVL24:
 384              		.loc 1 468 0
 385 002c 94BF     		ite	ls
 386 002e 47F02007 		orrls	r7, r7, #32
 387              	.LVL25:
 388              		.loc 1 477 0
 389 0032 47F02407 		orrhi	r7, r7, #36
 390              	.LVL26:
 391              	.L38:
 392              		.loc 1 482 0
 393 0036 016B     		ldr	r1, [r0, #48]
 394              		.loc 1 487 0
 395 0038 5488     		ldrh	r4, [r2, #2]
 396              		.loc 1 482 0
 397 003a 0968     		ldr	r1, [r1]
 398 003c 8568     		ldr	r5, [r0, #8]
ARM GAS  /tmp/cc8zDaXK.s 			page 8


 399 003e CD60     		str	r5, [r1, #12]
 400              		.loc 1 487 0
 401 0040 04FB03F3 		mul	r3, r4, r3
 402 0044 4B60     		str	r3, [r1, #4]
 403              		.loc 1 490 0
 404 0046 0F60     		str	r7, [r1]
 405              		.loc 1 491 0
 406 0048 0F68     		ldr	r7, [r1]
 407              	.LVL27:
 408              		.loc 1 500 0
 409 004a C36A     		ldr	r3, [r0, #44]
 410              		.loc 1 502 0
 411 004c D2F810B0 		ldr	fp, [r2, #16]
 412              		.loc 1 520 0
 413 0050 106A     		ldr	r0, [r2, #32]
 414              	.LVL28:
 415              		.loc 1 518 0
 416 0052 D2F818A0 		ldr	r10, [r2, #24]
 417              		.loc 1 519 0
 418 0056 D2F81C90 		ldr	r9, [r2, #28]
 419              		.loc 1 521 0
 420 005a D2F82480 		ldr	r8, [r2, #36]
 421              		.loc 1 522 0
 422 005e D2F828C0 		ldr	ip, [r2, #40]
 423              		.loc 1 523 0
 424 0062 D26A     		ldr	r2, [r2, #44]
 425              	.LVL29:
 426              		.loc 1 491 0
 427 0064 47F00107 		orr	r7, r7, #1
 428 0068 0F60     		str	r7, [r1]
 429              	.LVL30:
 430              		.loc 1 496 0
 431 006a CEF80860 		str	r6, [lr, #8]
 432              		.loc 1 500 0
 433 006e 1968     		ldr	r1, [r3]
 434 0070 1960     		str	r1, [r3]
 435              		.loc 1 520 0
 436 0072 013C     		subs	r4, r4, #1
 437              		.loc 1 501 0
 438 0074 9021     		movs	r1, #144
 439              		.loc 1 520 0
 440 0076 2043     		orrs	r0, r0, r4
 441              		.loc 1 501 0
 442 0078 5960     		str	r1, [r3, #4]
 443              		.loc 1 502 0
 444 007a C3F820B0 		str	fp, [r3, #32]
 445              		.loc 1 518 0
 446 007e C3F814A0 		str	r10, [r3, #20]
 447              		.loc 1 519 0
 448 0082 C3F81890 		str	r9, [r3, #24]
 449              		.loc 1 520 0
 450 0086 1863     		str	r0, [r3, #48]
 451              		.loc 1 521 0
 452 0088 C3F83480 		str	r8, [r3, #52]
 453              		.loc 1 522 0
 454 008c C3F838C0 		str	ip, [r3, #56]
 455              		.loc 1 523 0
ARM GAS  /tmp/cc8zDaXK.s 			page 9


 456 0090 DA63     		str	r2, [r3, #60]
 457              		.loc 1 527 0
 458 0092 019A     		ldr	r2, [sp, #4]
 459 0094 DA60     		str	r2, [r3, #12]
 460              		.loc 1 530 0
 461 0096 9A68     		ldr	r2, [r3, #8]
 462 0098 42F00402 		orr	r2, r2, #4
 463 009c 9A60     		str	r2, [r3, #8]
 464              		.loc 1 531 0
 465 009e 03B0     		add	sp, sp, #12
 466              		.cfi_remember_state
 467              		.cfi_def_cfa_offset 36
 468              		@ sp needed
 469 00a0 BDE8F08F 		pop	{r4, r5, r6, r7, r8, r9, r10, fp, pc}
 470              	.LVL31:
 471              	.L41:
 472              		.cfi_restore_state
 473              		.loc 1 466 0
 474 00a4 45F00103 		orr	r3, r5, #1
 475 00a8 0193     		str	r3, [sp, #4]
 476 00aa C368     		ldr	r3, [r0, #12]
 477 00ac C3E7     		b	.L38
 478              		.cfi_endproc
 479              	.LFE267:
 480              		.size	adc_lld_start_conversion, .-adc_lld_start_conversion
 481 00ae 00BF     		.section	.text.adc_lld_stop_conversion,"ax",%progbits
 482              		.align	2
 483              		.p2align 4,,15
 484              		.global	adc_lld_stop_conversion
 485              		.thumb
 486              		.thumb_func
 487              		.type	adc_lld_stop_conversion, %function
 488              	adc_lld_stop_conversion:
 489              	.LFB268:
 490              		.loc 1 540 0
 491              		.cfi_startproc
 492              		@ args = 0, pretend = 0, frame = 0
 493              		@ frame_needed = 0, uses_anonymous_args = 0
 494              		@ link register save eliminated.
 495              	.LVL32:
 496              		.loc 1 542 0
 497 0000 016B     		ldr	r1, [r0, #48]
 498 0002 C26A     		ldr	r2, [r0, #44]
 499              	.LVL33:
 500              		.loc 1 540 0
 501 0004 30B4     		push	{r4, r5}
 502              		.cfi_def_cfa_offset 8
 503              		.cfi_offset 4, -8
 504              		.cfi_offset 5, -4
 505              		.loc 1 542 0
 506 0006 91E83000 		ldmia	r1, {r4, r5}
 507 000a 2068     		ldr	r0, [r4]
 508              	.LVL34:
 509 000c 20F00F00 		bic	r0, r0, #15
 510 0010 2060     		str	r0, [r4]
 511 0012 097A     		ldrb	r1, [r1, #8]	@ zero_extendqisi2
 512 0014 0F23     		movs	r3, #15
ARM GAS  /tmp/cc8zDaXK.s 			page 10


 513 0016 8B40     		lsls	r3, r3, r1
 514 0018 2B60     		str	r3, [r5]
 515              	.LBB231:
 516              	.LBB232:
 517              		.loc 1 169 0
 518 001a 9368     		ldr	r3, [r2, #8]
 519 001c 5907     		lsls	r1, r3, #29
 520 001e 06D5     		bpl	.L42
 521              		.loc 1 170 0
 522 0020 9368     		ldr	r3, [r2, #8]
 523 0022 43F01003 		orr	r3, r3, #16
 524 0026 9360     		str	r3, [r2, #8]
 525              	.L44:
 526              		.loc 1 171 0
 527 0028 9368     		ldr	r3, [r2, #8]
 528 002a DB06     		lsls	r3, r3, #27
 529 002c FCD4     		bmi	.L44
 530              	.L42:
 531              	.LBE232:
 532              	.LBE231:
 533              		.loc 1 544 0
 534 002e 30BC     		pop	{r4, r5}
 535              		.cfi_restore 5
 536              		.cfi_restore 4
 537              		.cfi_def_cfa_offset 0
 538 0030 7047     		bx	lr
 539              		.cfi_endproc
 540              	.LFE268:
 541              		.size	adc_lld_stop_conversion, .-adc_lld_stop_conversion
 542 0032 00BFAFF3 		.section	.text.adc_lld_serve_dma_interrupt,"ax",%progbits
 542      0080AFF3 
 542      0080AFF3 
 542      0080
 543              		.align	2
 544              		.p2align 4,,15
 545              		.thumb
 546              		.thumb_func
 547              		.type	adc_lld_serve_dma_interrupt, %function
 548              	adc_lld_serve_dma_interrupt:
 549              	.LFB261:
 550              		.loc 1 182 0
 551              		.cfi_startproc
 552              		@ args = 0, pretend = 0, frame = 0
 553              		@ frame_needed = 0, uses_anonymous_args = 0
 554              	.LVL35:
 555 0000 70B5     		push	{r4, r5, r6, lr}
 556              		.cfi_def_cfa_offset 16
 557              		.cfi_offset 4, -16
 558              		.cfi_offset 5, -12
 559              		.cfi_offset 6, -8
 560              		.cfi_offset 14, -4
 561              		.loc 1 185 0
 562 0002 0E07     		lsls	r6, r1, #28
 563              		.loc 1 182 0
 564 0004 0446     		mov	r4, r0
 565              		.loc 1 185 0
 566 0006 19D4     		bmi	.L75
ARM GAS  /tmp/cc8zDaXK.s 			page 11


 567              		.loc 1 193 0
 568 0008 0369     		ldr	r3, [r0, #16]
 569 000a B3B1     		cbz	r3, .L48
 570              		.loc 1 194 0
 571 000c 8D07     		lsls	r5, r1, #30
 572 000e 12D5     		bpl	.L54
 573              		.loc 1 196 0
 574 0010 1A78     		ldrb	r2, [r3]	@ zero_extendqisi2
 575 0012 002A     		cmp	r2, #0
 576 0014 3DD0     		beq	.L55
 577              		.loc 1 196 0 is_stmt 0 discriminator 1
 578 0016 5D68     		ldr	r5, [r3, #4]
 579 0018 7DB1     		cbz	r5, .L48
 580              		.loc 1 196 0 discriminator 3
 581 001a C268     		ldr	r2, [r0, #12]
 582 001c 012A     		cmp	r2, #1
 583 001e 33D9     		bls	.L56
 584              	.LBB233:
 585              		.loc 1 196 0 discriminator 4
 586 0020 5B88     		ldrh	r3, [r3, #2]
 587 0022 8168     		ldr	r1, [r0, #8]
 588              	.LVL36:
 589 0024 5208     		lsrs	r2, r2, #1
 590              	.LVL37:
 591 0026 03FB02F3 		mul	r3, r3, r2
 592 002a 01EB4301 		add	r1, r1, r3, lsl #1
 593 002e 2B46     		mov	r3, r5
 594              	.LBE233:
 595              		.loc 1 204 0 is_stmt 1 discriminator 4
 596 0030 BDE87040 		pop	{r4, r5, r6, lr}
 597              		.cfi_remember_state
 598              		.cfi_restore 14
 599              		.cfi_restore 6
 600              		.cfi_restore 5
 601              		.cfi_restore 4
 602              		.cfi_def_cfa_offset 0
 603              	.LBB234:
 604              		.loc 1 196 0 discriminator 4
 605 0034 1847     		bx	r3	@ indirect register sibling call
 606              	.LVL38:
 607              	.L54:
 608              		.cfi_restore_state
 609              	.LBE234:
 610              		.loc 1 198 0
 611 0036 4A07     		lsls	r2, r1, #29
 612 0038 1DD4     		bmi	.L76
 613              	.L48:
 614 003a 70BD     		pop	{r4, r5, r6, pc}
 615              	.L75:
 616              		.loc 1 188 0
 617 003c FFF7FEFF 		bl	adc_lld_stop_conversion
 618              	.LVL39:
 619 0040 2369     		ldr	r3, [r4, #16]
 620 0042 9B68     		ldr	r3, [r3, #8]
 621 0044 4BB1     		cbz	r3, .L51
 622              		.loc 1 188 0 is_stmt 0 discriminator 1
 623 0046 0522     		movs	r2, #5
ARM GAS  /tmp/cc8zDaXK.s 			page 12


 624 0048 2270     		strb	r2, [r4]
 625 004a 2046     		mov	r0, r4
 626 004c 0021     		movs	r1, #0
 627 004e 9847     		blx	r3
 628              	.LVL40:
 629 0050 2378     		ldrb	r3, [r4]	@ zero_extendqisi2
 630 0052 052B     		cmp	r3, #5
 631 0054 04BF     		itt	eq
 632 0056 0223     		moveq	r3, #2
 633 0058 2370     		strbeq	r3, [r4]
 634              	.L51:
 635              		.loc 1 188 0 discriminator 5
 636 005a 0025     		movs	r5, #0
 637 005c 2561     		str	r5, [r4, #16]
 638              	.LVL41:
 639              	.LBB235:
 640              	.LBB236:
 641              	.LBB237:
 642              	.LBB238:
 643              	.LBB239:
 644              	.LBB240:
 645              		.file 3 "../ChibiOS/os/ext/CMSIS/include/core_cmFunc.h"
 646              		.loc 3 546 0 is_stmt 1 discriminator 5
 647 005e 2023     		movs	r3, #32
 648              	@ 546 "../ChibiOS/os/ext/CMSIS/include/core_cmFunc.h" 1
 649 0060 83F31188 		MSR basepri, r3
 650              	@ 0 "" 2
 651              	.LVL42:
 652              		.thumb
 653              	.LBE240:
 654              	.LBE239:
 655              	.LBE238:
 656              	.LBE237:
 657              	.LBE236:
 658              	.LBE235:
 659              	.LBB241:
 660              	.LBB242:
 661              		.loc 2 660 0 discriminator 5
 662 0064 4FF0FF31 		mov	r1, #-1
 663 0068 04F11400 		add	r0, r4, #20
 664              	.LVL43:
 665 006c FFF7FEFF 		bl	chThdResumeI
 666              	.LVL44:
 667              	.LBE242:
 668              	.LBE241:
 669              	.LBB243:
 670              	.LBB244:
 671              	.LBB245:
 672              	.LBB246:
 673              	.LBB247:
 674              	.LBB248:
 675              		.loc 3 546 0 discriminator 5
 676              	@ 546 "../ChibiOS/os/ext/CMSIS/include/core_cmFunc.h" 1
 677 0070 85F31188 		MSR basepri, r5
 678              	@ 0 "" 2
 679              		.thumb
 680 0074 70BD     		pop	{r4, r5, r6, pc}
ARM GAS  /tmp/cc8zDaXK.s 			page 13


 681              	.LVL45:
 682              	.L76:
 683              	.LBE248:
 684              	.LBE247:
 685              	.LBE246:
 686              	.LBE245:
 687              	.LBE244:
 688              	.LBE243:
 689              		.loc 1 200 0
 690 0076 5B68     		ldr	r3, [r3, #4]
 691 0078 002B     		cmp	r3, #0
 692 007a DED0     		beq	.L48
 693              		.loc 1 200 0 is_stmt 0 discriminator 1
 694 007c C268     		ldr	r2, [r0, #12]
 695 007e 8168     		ldr	r1, [r0, #8]
 696              	.LVL46:
 697 0080 5208     		lsrs	r2, r2, #1
 698              		.loc 1 204 0 is_stmt 1 discriminator 1
 699 0082 BDE87040 		pop	{r4, r5, r6, lr}
 700              		.cfi_remember_state
 701              		.cfi_restore 14
 702              		.cfi_restore 6
 703              		.cfi_restore 5
 704              		.cfi_restore 4
 705              		.cfi_def_cfa_offset 0
 706              		.loc 1 200 0 discriminator 1
 707 0086 1847     		bx	r3	@ indirect register sibling call
 708              	.LVL47:
 709              	.L56:
 710              		.cfi_restore_state
 711              		.loc 1 196 0 discriminator 5
 712 0088 2B46     		mov	r3, r5
 713 008a 8168     		ldr	r1, [r0, #8]
 714              	.LVL48:
 715              		.loc 1 204 0 discriminator 5
 716 008c BDE87040 		pop	{r4, r5, r6, lr}
 717              		.cfi_remember_state
 718              		.cfi_restore 14
 719              		.cfi_restore 6
 720              		.cfi_restore 5
 721              		.cfi_restore 4
 722              		.cfi_def_cfa_offset 0
 723              		.loc 1 196 0 discriminator 5
 724 0090 1847     		bx	r3	@ indirect register sibling call
 725              	.LVL49:
 726              	.L55:
 727              		.cfi_restore_state
 728              		.loc 1 196 0 is_stmt 0 discriminator 2
 729 0092 FFF7FEFF 		bl	adc_lld_stop_conversion
 730              	.LVL50:
 731 0096 2369     		ldr	r3, [r4, #16]
 732 0098 5B68     		ldr	r3, [r3, #4]
 733 009a A3B1     		cbz	r3, .L57
 734              		.loc 1 196 0 discriminator 6
 735 009c 0422     		movs	r2, #4
 736 009e 2270     		strb	r2, [r4]
 737 00a0 2046     		mov	r0, r4
ARM GAS  /tmp/cc8zDaXK.s 			page 14


 738 00a2 A168     		ldr	r1, [r4, #8]
 739 00a4 E268     		ldr	r2, [r4, #12]
 740 00a6 9847     		blx	r3
 741              	.LVL51:
 742 00a8 2378     		ldrb	r3, [r4]	@ zero_extendqisi2
 743 00aa 042B     		cmp	r3, #4
 744 00ac 0BD0     		beq	.L57
 745              	.L58:
 746              	.LVL52:
 747              	.LBB249:
 748              	.LBB250:
 749              	.LBB251:
 750              	.LBB252:
 751              	.LBB253:
 752              	.LBB254:
 753              		.loc 3 546 0 is_stmt 1 discriminator 9
 754 00ae 2023     		movs	r3, #32
 755              	@ 546 "../ChibiOS/os/ext/CMSIS/include/core_cmFunc.h" 1
 756 00b0 83F31188 		MSR basepri, r3
 757              	@ 0 "" 2
 758              	.LVL53:
 759              		.thumb
 760              	.LBE254:
 761              	.LBE253:
 762              	.LBE252:
 763              	.LBE251:
 764              	.LBE250:
 765              	.LBE249:
 766              	.LBB255:
 767              	.LBB256:
 768              		.loc 2 660 0 discriminator 9
 769 00b4 0021     		movs	r1, #0
 770 00b6 04F11400 		add	r0, r4, #20
 771              	.LVL54:
 772 00ba FFF7FEFF 		bl	chThdResumeI
 773              	.LVL55:
 774              	.LBE256:
 775              	.LBE255:
 776              	.LBB257:
 777              	.LBB258:
 778              	.LBB259:
 779              	.LBB260:
 780              	.LBB261:
 781              	.LBB262:
 782              		.loc 3 546 0 discriminator 9
 783 00be 0023     		movs	r3, #0
 784              	@ 546 "../ChibiOS/os/ext/CMSIS/include/core_cmFunc.h" 1
 785 00c0 83F31188 		MSR basepri, r3
 786              	@ 0 "" 2
 787              		.thumb
 788 00c4 70BD     		pop	{r4, r5, r6, pc}
 789              	.LVL56:
 790              	.L57:
 791              	.LBE262:
 792              	.LBE261:
 793              	.LBE260:
 794              	.LBE259:
ARM GAS  /tmp/cc8zDaXK.s 			page 15


 795              	.LBE258:
 796              	.LBE257:
 797              		.loc 1 196 0 discriminator 8
 798 00c6 0222     		movs	r2, #2
 799 00c8 0023     		movs	r3, #0
 800 00ca 2270     		strb	r2, [r4]
 801 00cc 2361     		str	r3, [r4, #16]
 802 00ce EEE7     		b	.L58
 803              		.cfi_endproc
 804              	.LFE261:
 805              		.size	adc_lld_serve_dma_interrupt, .-adc_lld_serve_dma_interrupt
 806              		.section	.text.Vector88,"ax",%progbits
 807              		.align	2
 808              		.p2align 4,,15
 809              		.global	Vector88
 810              		.thumb
 811              		.thumb_func
 812              		.type	Vector88, %function
 813              	Vector88:
 814              	.LFB263:
 815              		.loc 1 250 0
 816              		.cfi_startproc
 817              		@ args = 0, pretend = 0, frame = 0
 818              		@ frame_needed = 0, uses_anonymous_args = 0
 819 0000 70B5     		push	{r4, r5, r6, lr}
 820              		.cfi_def_cfa_offset 16
 821              		.cfi_offset 4, -16
 822              		.cfi_offset 5, -12
 823              		.cfi_offset 6, -8
 824              		.cfi_offset 14, -4
 825              	.LBB321:
 826              	.LBB322:
 827              		.loc 1 216 0
 828 0002 4A4D     		ldr	r5, .L116
 829              	.LBE322:
 830              	.LBE321:
 831              		.loc 1 261 0
 832 0004 4FF0A043 		mov	r3, #1342177280
 833              	.LBB382:
 834              	.LBB379:
 835              		.loc 1 216 0
 836 0008 2A69     		ldr	r2, [r5, #16]
 837              	.LBE379:
 838              	.LBE382:
 839              		.loc 1 261 0
 840 000a 1C68     		ldr	r4, [r3]
 841              	.LVL57:
 842              		.loc 1 262 0
 843 000c 1C60     		str	r4, [r3]
 844              	.LVL58:
 845              	.LBB383:
 846              	.LBB380:
 847              		.loc 1 216 0
 848 000e 3AB1     		cbz	r2, .L79
 849              		.loc 1 219 0
 850 0010 E006     		lsls	r0, r4, #27
 851 0012 09D4     		bmi	.L112
ARM GAS  /tmp/cc8zDaXK.s 			page 16


 852              	.L80:
 853              		.loc 1 225 0
 854 0014 2106     		lsls	r1, r4, #24
 855 0016 2AD4     		bmi	.L113
 856              	.L84:
 857              		.loc 1 229 0
 858 0018 E205     		lsls	r2, r4, #23
 859 001a 47D4     		bmi	.L114
 860              	.L88:
 861              		.loc 1 233 0
 862 001c A305     		lsls	r3, r4, #22
 863 001e 64D4     		bmi	.L115
 864              	.L79:
 865              	.LBE380:
 866              	.LBE383:
 867              		.loc 1 268 0
 868 0020 BDE87040 		pop	{r4, r5, r6, lr}
 869              		.cfi_remember_state
 870              		.cfi_restore 14
 871              		.cfi_restore 6
 872              		.cfi_restore 5
 873              		.cfi_restore 4
 874              		.cfi_def_cfa_offset 0
 875              	.LVL59:
 876              		.loc 1 267 0
 877 0024 FFF7FEBF 		b	_port_irq_epilogue
 878              	.LVL60:
 879              	.L112:
 880              		.cfi_restore_state
 881              	.LBB384:
 882              	.LBB381:
 883              		.loc 1 220 0
 884 0028 2B6B     		ldr	r3, [r5, #48]
 885 002a 1B68     		ldr	r3, [r3]
 886 002c 5B68     		ldr	r3, [r3, #4]
 887              		.loc 1 219 0
 888 002e 002B     		cmp	r3, #0
 889 0030 F0D0     		beq	.L80
 890              		.loc 1 223 0
 891 0032 2846     		mov	r0, r5
 892 0034 FFF7FEFF 		bl	adc_lld_stop_conversion
 893              	.LVL61:
 894 0038 2B69     		ldr	r3, [r5, #16]
 895 003a 9B68     		ldr	r3, [r3, #8]
 896 003c 4BB1     		cbz	r3, .L82
 897 003e 0522     		movs	r2, #5
 898 0040 2A70     		strb	r2, [r5]
 899 0042 2846     		mov	r0, r5
 900 0044 0121     		movs	r1, #1
 901 0046 9847     		blx	r3
 902              	.LVL62:
 903 0048 2B78     		ldrb	r3, [r5]	@ zero_extendqisi2
 904 004a 052B     		cmp	r3, #5
 905 004c 04BF     		itt	eq
 906 004e 0223     		moveq	r3, #2
 907 0050 2B70     		strbeq	r3, [r5]
 908              	.L82:
ARM GAS  /tmp/cc8zDaXK.s 			page 17


 909 0052 0026     		movs	r6, #0
 910 0054 2E61     		str	r6, [r5, #16]
 911              	.LVL63:
 912              	.LBB323:
 913              	.LBB324:
 914              	.LBB325:
 915              	.LBB326:
 916              	.LBB327:
 917              	.LBB328:
 918              		.loc 3 546 0
 919 0056 2023     		movs	r3, #32
 920              	@ 546 "../ChibiOS/os/ext/CMSIS/include/core_cmFunc.h" 1
 921 0058 83F31188 		MSR basepri, r3
 922              	@ 0 "" 2
 923              	.LVL64:
 924              		.thumb
 925              	.LBE328:
 926              	.LBE327:
 927              	.LBE326:
 928              	.LBE325:
 929              	.LBE324:
 930              	.LBE323:
 931              	.LBB329:
 932              	.LBB330:
 933              		.loc 2 660 0
 934 005c 3448     		ldr	r0, .L116+4
 935 005e 4FF0FF31 		mov	r1, #-1
 936 0062 FFF7FEFF 		bl	chThdResumeI
 937              	.LVL65:
 938              	.LBE330:
 939              	.LBE329:
 940              	.LBB331:
 941              	.LBB332:
 942              	.LBB333:
 943              	.LBB334:
 944              	.LBB335:
 945              	.LBB336:
 946              		.loc 3 546 0
 947              	@ 546 "../ChibiOS/os/ext/CMSIS/include/core_cmFunc.h" 1
 948 0066 86F31188 		MSR basepri, r6
 949              	@ 0 "" 2
 950              		.thumb
 951              	.LBE336:
 952              	.LBE335:
 953              	.LBE334:
 954              	.LBE333:
 955              	.LBE332:
 956              	.LBE331:
 957              		.loc 1 225 0
 958 006a 2106     		lsls	r1, r4, #24
 959 006c D4D5     		bpl	.L84
 960              	.LVL66:
 961              	.L113:
 962              		.loc 1 227 0
 963 006e 2F4E     		ldr	r6, .L116
 964 0070 3046     		mov	r0, r6
 965 0072 FFF7FEFF 		bl	adc_lld_stop_conversion
ARM GAS  /tmp/cc8zDaXK.s 			page 18


 966              	.LVL67:
 967 0076 2B69     		ldr	r3, [r5, #16]
 968 0078 9B68     		ldr	r3, [r3, #8]
 969 007a 4BB1     		cbz	r3, .L86
 970 007c 0522     		movs	r2, #5
 971 007e 3270     		strb	r2, [r6]
 972 0080 3046     		mov	r0, r6
 973 0082 0221     		movs	r1, #2
 974 0084 9847     		blx	r3
 975              	.LVL68:
 976 0086 3378     		ldrb	r3, [r6]	@ zero_extendqisi2
 977 0088 052B     		cmp	r3, #5
 978 008a 04BF     		itt	eq
 979 008c 0223     		moveq	r3, #2
 980 008e 3370     		strbeq	r3, [r6]
 981              	.L86:
 982 0090 0026     		movs	r6, #0
 983 0092 2E61     		str	r6, [r5, #16]
 984              	.LVL69:
 985              	.LBB337:
 986              	.LBB338:
 987              	.LBB339:
 988              	.LBB340:
 989              	.LBB341:
 990              	.LBB342:
 991              		.loc 3 546 0
 992 0094 2023     		movs	r3, #32
 993              	@ 546 "../ChibiOS/os/ext/CMSIS/include/core_cmFunc.h" 1
 994 0096 83F31188 		MSR basepri, r3
 995              	@ 0 "" 2
 996              	.LVL70:
 997              		.thumb
 998              	.LBE342:
 999              	.LBE341:
 1000              	.LBE340:
 1001              	.LBE339:
 1002              	.LBE338:
 1003              	.LBE337:
 1004              	.LBB343:
 1005              	.LBB344:
 1006              		.loc 2 660 0
 1007 009a 2548     		ldr	r0, .L116+4
 1008 009c 4FF0FF31 		mov	r1, #-1
 1009 00a0 FFF7FEFF 		bl	chThdResumeI
 1010              	.LVL71:
 1011              	.LBE344:
 1012              	.LBE343:
 1013              	.LBB345:
 1014              	.LBB346:
 1015              	.LBB347:
 1016              	.LBB348:
 1017              	.LBB349:
 1018              	.LBB350:
 1019              		.loc 3 546 0
 1020              	@ 546 "../ChibiOS/os/ext/CMSIS/include/core_cmFunc.h" 1
 1021 00a4 86F31188 		MSR basepri, r6
 1022              	@ 0 "" 2
ARM GAS  /tmp/cc8zDaXK.s 			page 19


 1023              		.thumb
 1024              	.LBE350:
 1025              	.LBE349:
 1026              	.LBE348:
 1027              	.LBE347:
 1028              	.LBE346:
 1029              	.LBE345:
 1030              		.loc 1 229 0
 1031 00a8 E205     		lsls	r2, r4, #23
 1032 00aa B7D5     		bpl	.L88
 1033              	.LVL72:
 1034              	.L114:
 1035              		.loc 1 231 0
 1036 00ac 1F4E     		ldr	r6, .L116
 1037 00ae 3046     		mov	r0, r6
 1038 00b0 FFF7FEFF 		bl	adc_lld_stop_conversion
 1039              	.LVL73:
 1040 00b4 2B69     		ldr	r3, [r5, #16]
 1041 00b6 9B68     		ldr	r3, [r3, #8]
 1042 00b8 4BB1     		cbz	r3, .L90
 1043 00ba 0522     		movs	r2, #5
 1044 00bc 3270     		strb	r2, [r6]
 1045 00be 3046     		mov	r0, r6
 1046 00c0 0321     		movs	r1, #3
 1047 00c2 9847     		blx	r3
 1048              	.LVL74:
 1049 00c4 3378     		ldrb	r3, [r6]	@ zero_extendqisi2
 1050 00c6 052B     		cmp	r3, #5
 1051 00c8 04BF     		itt	eq
 1052 00ca 0223     		moveq	r3, #2
 1053 00cc 3370     		strbeq	r3, [r6]
 1054              	.L90:
 1055 00ce 0026     		movs	r6, #0
 1056 00d0 2E61     		str	r6, [r5, #16]
 1057              	.LVL75:
 1058              	.LBB351:
 1059              	.LBB352:
 1060              	.LBB353:
 1061              	.LBB354:
 1062              	.LBB355:
 1063              	.LBB356:
 1064              		.loc 3 546 0
 1065 00d2 2023     		movs	r3, #32
 1066              	@ 546 "../ChibiOS/os/ext/CMSIS/include/core_cmFunc.h" 1
 1067 00d4 83F31188 		MSR basepri, r3
 1068              	@ 0 "" 2
 1069              	.LVL76:
 1070              		.thumb
 1071              	.LBE356:
 1072              	.LBE355:
 1073              	.LBE354:
 1074              	.LBE353:
 1075              	.LBE352:
 1076              	.LBE351:
 1077              	.LBB357:
 1078              	.LBB358:
 1079              		.loc 2 660 0
ARM GAS  /tmp/cc8zDaXK.s 			page 20


 1080 00d8 1548     		ldr	r0, .L116+4
 1081 00da 4FF0FF31 		mov	r1, #-1
 1082 00de FFF7FEFF 		bl	chThdResumeI
 1083              	.LVL77:
 1084              	.LBE358:
 1085              	.LBE357:
 1086              	.LBB359:
 1087              	.LBB360:
 1088              	.LBB361:
 1089              	.LBB362:
 1090              	.LBB363:
 1091              	.LBB364:
 1092              		.loc 3 546 0
 1093              	@ 546 "../ChibiOS/os/ext/CMSIS/include/core_cmFunc.h" 1
 1094 00e2 86F31188 		MSR basepri, r6
 1095              	@ 0 "" 2
 1096              		.thumb
 1097              	.LBE364:
 1098              	.LBE363:
 1099              	.LBE362:
 1100              	.LBE361:
 1101              	.LBE360:
 1102              	.LBE359:
 1103              		.loc 1 233 0
 1104 00e6 A305     		lsls	r3, r4, #22
 1105 00e8 9AD5     		bpl	.L79
 1106              	.LVL78:
 1107              	.L115:
 1108              		.loc 1 235 0
 1109 00ea 104C     		ldr	r4, .L116
 1110              	.LVL79:
 1111 00ec 2046     		mov	r0, r4
 1112 00ee FFF7FEFF 		bl	adc_lld_stop_conversion
 1113              	.LVL80:
 1114 00f2 2B69     		ldr	r3, [r5, #16]
 1115 00f4 9B68     		ldr	r3, [r3, #8]
 1116 00f6 4BB1     		cbz	r3, .L94
 1117 00f8 0522     		movs	r2, #5
 1118 00fa 2270     		strb	r2, [r4]
 1119 00fc 2046     		mov	r0, r4
 1120 00fe 0421     		movs	r1, #4
 1121 0100 9847     		blx	r3
 1122              	.LVL81:
 1123 0102 2378     		ldrb	r3, [r4]	@ zero_extendqisi2
 1124 0104 052B     		cmp	r3, #5
 1125 0106 04BF     		itt	eq
 1126 0108 0223     		moveq	r3, #2
 1127 010a 2370     		strbeq	r3, [r4]
 1128              	.L94:
 1129 010c 0024     		movs	r4, #0
 1130 010e 2C61     		str	r4, [r5, #16]
 1131              	.LVL82:
 1132              	.LBB365:
 1133              	.LBB366:
 1134              	.LBB367:
 1135              	.LBB368:
 1136              	.LBB369:
ARM GAS  /tmp/cc8zDaXK.s 			page 21


 1137              	.LBB370:
 1138              		.loc 3 546 0
 1139 0110 2023     		movs	r3, #32
 1140              	@ 546 "../ChibiOS/os/ext/CMSIS/include/core_cmFunc.h" 1
 1141 0112 83F31188 		MSR basepri, r3
 1142              	@ 0 "" 2
 1143              	.LVL83:
 1144              		.thumb
 1145              	.LBE370:
 1146              	.LBE369:
 1147              	.LBE368:
 1148              	.LBE367:
 1149              	.LBE366:
 1150              	.LBE365:
 1151              	.LBB371:
 1152              	.LBB372:
 1153              		.loc 2 660 0
 1154 0116 0648     		ldr	r0, .L116+4
 1155 0118 4FF0FF31 		mov	r1, #-1
 1156 011c FFF7FEFF 		bl	chThdResumeI
 1157              	.LVL84:
 1158              	.LBE372:
 1159              	.LBE371:
 1160              	.LBB373:
 1161              	.LBB374:
 1162              	.LBB375:
 1163              	.LBB376:
 1164              	.LBB377:
 1165              	.LBB378:
 1166              		.loc 3 546 0
 1167              	@ 546 "../ChibiOS/os/ext/CMSIS/include/core_cmFunc.h" 1
 1168 0120 84F31188 		MSR basepri, r4
 1169              	@ 0 "" 2
 1170              		.thumb
 1171              	.LBE378:
 1172              	.LBE377:
 1173              	.LBE376:
 1174              	.LBE375:
 1175              	.LBE374:
 1176              	.LBE373:
 1177              	.LBE381:
 1178              	.LBE384:
 1179              		.loc 1 268 0
 1180 0124 BDE87040 		pop	{r4, r5, r6, lr}
 1181              		.cfi_restore 4
 1182              		.cfi_restore 5
 1183              		.cfi_restore 6
 1184              		.cfi_restore 14
 1185              		.cfi_def_cfa_offset 0
 1186              		.loc 1 267 0
 1187 0128 FFF7FEBF 		b	_port_irq_epilogue
 1188              	.LVL85:
 1189              	.L117:
 1190              		.align	2
 1191              	.L116:
 1192 012c 00000000 		.word	.LANCHOR0
 1193 0130 14000000 		.word	.LANCHOR0+20
ARM GAS  /tmp/cc8zDaXK.s 			page 22


 1194              		.cfi_endproc
 1195              	.LFE263:
 1196              		.size	Vector88, .-Vector88
 1197              		.global	ADCD1
 1198 0134 AFF30080 		.section	.bss.ADCD1,"aw",%nobits
 1198      AFF30080 
 1198      AFF30080 
 1199              		.align	2
 1200              		.set	.LANCHOR0,. + 0
 1201              		.type	ADCD1, %object
 1202              		.size	ADCD1, 56
 1203              	ADCD1:
 1204 0000 00000000 		.space	56
 1204      00000000 
 1204      00000000 
 1204      00000000 
 1204      00000000 
 1205              		.text
 1206              	.Letext0:
 1207              		.file 4 "/l/arm2/gcc-arm-none-eabi-4_9-2014q4/lib/gcc/arm-none-eabi/4.9.3/include/stddef.h"
 1208              		.file 5 "/l/arm2/gcc-arm-none-eabi-4_9-2014q4/arm-none-eabi/include/machine/_default_types.h"
 1209              		.file 6 "/l/arm2/gcc-arm-none-eabi-4_9-2014q4/arm-none-eabi/include/stdint.h"
 1210              		.file 7 "../ChibiOS/os/rt/ports/ARMCMx/compilers/GCC/chtypes.h"
 1211              		.file 8 "../ChibiOS/os/rt/include/chsystypes.h"
 1212              		.file 9 "../ChibiOS/os/rt/include/chschd.h"
 1213              		.file 10 "../ChibiOS/os/ext/CMSIS/ST/stm32f303xc.h"
 1214              		.file 11 "../ChibiOS/os/rt/ports/ARMCMx/chcore.h"
 1215              		.file 12 "../ChibiOS/os/rt/ports/ARMCMx/chcore_v7m.h"
 1216              		.file 13 "../ChibiOS/os/rt/include/chtm.h"
 1217              		.file 14 "../ChibiOS/os/rt/include/chmtx.h"
 1218              		.file 15 "../ChibiOS/os/rt/include/chthreads.h"
 1219              		.file 16 "../ChibiOS/os/hal/ports/STM32/STM32F3xx/stm32_dma.h"
 1220              		.file 17 "../ChibiOS/os/hal/include/adc.h"
 1221              		.file 18 "../ChibiOS/os/hal/ports/STM32/STM32F3xx/adc_lld.h"
 1222              		.file 19 "../ChibiOS/os/rt/include/chsys.h"
 1223              		.file 20 "../ChibiOS/os/ext/CMSIS/include/core_cm4.h"
 1224              		.file 21 "../ChibiOS/os/hal/ports/common/ARMCMx/nvic.h"