ARM GAS  /tmp/cc6LVVAi.s 			page 1


   1              		.syntax unified
   2              		.cpu cortex-m4
   3              		.eabi_attribute 27, 3
   4              		.eabi_attribute 28, 1
   5              		.fpu fpv4-sp-d16
   6              		.eabi_attribute 20, 1
   7              		.eabi_attribute 21, 1
   8              		.eabi_attribute 23, 3
   9              		.eabi_attribute 24, 1
  10              		.eabi_attribute 25, 1
  11              		.eabi_attribute 26, 1
  12              		.eabi_attribute 30, 2
  13              		.eabi_attribute 34, 1
  14              		.eabi_attribute 18, 4
  15              		.thumb
  16              		.file	"chcond.c"
  17              		.text
  18              	.Ltext0:
  19              		.cfi_sections	.debug_frame
  20              		.section	.text.chCondObjectInit,"ax",%progbits
  21              		.align	2
  22              		.p2align 4,,15
  23              		.global	chCondObjectInit
  24              		.thumb
  25              		.thumb_func
  26              		.type	chCondObjectInit, %function
  27              	chCondObjectInit:
  28              	.LFB226:
  29              		.file 1 "../ChibiOS/os/rt/src/chcond.c"
  30              		.loc 1 75 0
  31              		.cfi_startproc
  32              		@ args = 0, pretend = 0, frame = 0
  33              		@ frame_needed = 0, uses_anonymous_args = 0
  34              		@ link register save eliminated.
  35              	.LVL0:
  36              	.LBB81:
  37              	.LBB82:
  38              		.file 2 "../ChibiOS/os/rt/include/chschd.h"
  39              		.loc 2 574 0
  40 0000 4060     		str	r0, [r0, #4]
  41 0002 0060     		str	r0, [r0]
  42 0004 7047     		bx	lr
  43              	.LBE82:
  44              	.LBE81:
  45              		.cfi_endproc
  46              	.LFE226:
  47              		.size	chCondObjectInit, .-chCondObjectInit
  48 0006 00BFAFF3 		.section	.text.chCondSignal,"ax",%progbits
  48      0080AFF3 
  48      0080
  49              		.align	2
  50              		.p2align 4,,15
  51              		.global	chCondSignal
  52              		.thumb
  53              		.thumb_func
  54              		.type	chCondSignal, %function
  55              	chCondSignal:
ARM GAS  /tmp/cc6LVVAi.s 			page 2


  56              	.LFB227:
  57              		.loc 1 89 0
  58              		.cfi_startproc
  59              		@ args = 0, pretend = 0, frame = 0
  60              		@ frame_needed = 0, uses_anonymous_args = 0
  61              	.LVL1:
  62 0000 08B5     		push	{r3, lr}
  63              		.cfi_def_cfa_offset 8
  64              		.cfi_offset 3, -8
  65              		.cfi_offset 14, -4
  66              	.LBB83:
  67              	.LBB84:
  68              	.LBB85:
  69              	.LBB86:
  70              		.file 3 "../ChibiOS/os/ext/CMSIS/include/core_cmFunc.h"
  71              		.loc 3 546 0
  72 0002 2023     		movs	r3, #32
  73              	@ 546 "../ChibiOS/os/ext/CMSIS/include/core_cmFunc.h" 1
  74 0004 83F31188 		MSR basepri, r3
  75              	@ 0 "" 2
  76              	.LVL2:
  77              		.thumb
  78              	.LBE86:
  79              	.LBE85:
  80              	.LBE84:
  81              	.LBE83:
  82              	.LBB87:
  83              	.LBB88:
  84              		.loc 2 600 0
  85 0008 0268     		ldr	r2, [r0]
  86              	.LBE88:
  87              	.LBE87:
  88              		.loc 1 94 0
  89 000a 8242     		cmp	r2, r0
  90 000c 07D0     		beq	.L3
  91              	.LBB89:
  92              	.LBB90:
  93              		.loc 2 641 0
  94 000e 1168     		ldr	r1, [r2]
  95 0010 0160     		str	r1, [r0]
  96 0012 0346     		mov	r3, r0
  97              	.LVL3:
  98 0014 4B60     		str	r3, [r1, #4]
  99              	.LBE90:
 100              	.LBE89:
 101              		.loc 1 95 0
 102 0016 1046     		mov	r0, r2
 103              	.LVL4:
 104 0018 0021     		movs	r1, #0
 105 001a FFF7FEFF 		bl	chSchWakeupS
 106              	.LVL5:
 107              	.L3:
 108              	.LBB91:
 109              	.LBB92:
 110              	.LBB93:
 111              	.LBB94:
 112              	.LBB95:
ARM GAS  /tmp/cc6LVVAi.s 			page 3


 113              		.loc 3 546 0
 114 001e 0023     		movs	r3, #0
 115              	@ 546 "../ChibiOS/os/ext/CMSIS/include/core_cmFunc.h" 1
 116 0020 83F31188 		MSR basepri, r3
 117              	@ 0 "" 2
 118              		.thumb
 119 0024 08BD     		pop	{r3, pc}
 120              	.LBE95:
 121              	.LBE94:
 122              	.LBE93:
 123              	.LBE92:
 124              	.LBE91:
 125              		.cfi_endproc
 126              	.LFE227:
 127              		.size	chCondSignal, .-chCondSignal
 128 0026 00BFAFF3 		.section	.text.chCondSignalI,"ax",%progbits
 128      0080AFF3 
 128      0080
 129              		.align	2
 130              		.p2align 4,,15
 131              		.global	chCondSignalI
 132              		.thumb
 133              		.thumb_func
 134              		.type	chCondSignalI, %function
 135              	chCondSignalI:
 136              	.LFB228:
 137              		.loc 1 111 0
 138              		.cfi_startproc
 139              		@ args = 0, pretend = 0, frame = 0
 140              		@ frame_needed = 0, uses_anonymous_args = 0
 141              		@ link register save eliminated.
 142              	.LVL6:
 143              	.LBB96:
 144              	.LBB97:
 145              		.loc 2 600 0
 146 0000 0368     		ldr	r3, [r0]
 147              	.LBE97:
 148              	.LBE96:
 149              		.loc 1 116 0
 150 0002 9842     		cmp	r0, r3
 151 0004 07D0     		beq	.L6
 152              	.LVL7:
 153              	.LBB98:
 154              	.LBB99:
 155              	.LBB100:
 156              		.loc 2 641 0
 157 0006 1A68     		ldr	r2, [r3]
 158 0008 0260     		str	r2, [r0]
 159              	.LBE100:
 160              	.LBE99:
 161              		.loc 1 118 0
 162 000a 0021     		movs	r1, #0
 163              	.LBB102:
 164              	.LBB101:
 165              		.loc 2 641 0
 166 000c 5060     		str	r0, [r2, #4]
 167              	.LBE101:
ARM GAS  /tmp/cc6LVVAi.s 			page 4


 168              	.LBE102:
 169              		.loc 1 119 0
 170 000e 1846     		mov	r0, r3
 171              	.LVL8:
 172              		.loc 1 118 0
 173 0010 1962     		str	r1, [r3, #32]
 174              		.loc 1 119 0
 175 0012 FFF7FEBF 		b	chSchReadyI
 176              	.LVL9:
 177              	.L6:
 178 0016 7047     		bx	lr
 179              	.LBE98:
 180              		.cfi_endproc
 181              	.LFE228:
 182              		.size	chCondSignalI, .-chCondSignalI
 183 0018 AFF30080 		.section	.text.chCondBroadcastI,"ax",%progbits
 183      AFF30080 
 184              		.align	2
 185              		.p2align 4,,15
 186              		.global	chCondBroadcastI
 187              		.thumb
 188              		.thumb_func
 189              		.type	chCondBroadcastI, %function
 190              	chCondBroadcastI:
 191              	.LFB230:
 192              		.loc 1 149 0
 193              		.cfi_startproc
 194              		@ args = 0, pretend = 0, frame = 0
 195              		@ frame_needed = 0, uses_anonymous_args = 0
 196              	.LVL10:
 197 0000 38B5     		push	{r3, r4, r5, lr}
 198              		.cfi_def_cfa_offset 16
 199              		.cfi_offset 3, -16
 200              		.cfi_offset 4, -12
 201              		.cfi_offset 5, -8
 202              		.cfi_offset 14, -4
 203              		.loc 1 149 0
 204 0002 0446     		mov	r4, r0
 205              		.loc 1 157 0
 206 0004 0068     		ldr	r0, [r0]
 207              	.LVL11:
 208 0006 A042     		cmp	r0, r4
 209 0008 0AD0     		beq	.L8
 210              		.loc 1 158 0
 211 000a 6FF00105 		mvn	r5, #1
 212              	.L10:
 213              	.LVL12:
 214              	.LBB103:
 215              	.LBB104:
 216              		.loc 2 641 0
 217 000e 0368     		ldr	r3, [r0]
 218 0010 2360     		str	r3, [r4]
 219 0012 5C60     		str	r4, [r3, #4]
 220              	.LBE104:
 221              	.LBE103:
 222              		.loc 1 158 0
 223 0014 FFF7FEFF 		bl	chSchReadyI
ARM GAS  /tmp/cc6LVVAi.s 			page 5


 224              	.LVL13:
 225 0018 0562     		str	r5, [r0, #32]
 226              		.loc 1 157 0
 227 001a 2068     		ldr	r0, [r4]
 228 001c A042     		cmp	r0, r4
 229 001e F6D1     		bne	.L10
 230              	.LVL14:
 231              	.L8:
 232 0020 38BD     		pop	{r3, r4, r5, pc}
 233              		.cfi_endproc
 234              	.LFE230:
 235              		.size	chCondBroadcastI, .-chCondBroadcastI
 236 0022 00BFAFF3 		.section	.text.chCondBroadcast,"ax",%progbits
 236      0080AFF3 
 236      0080AFF3 
 236      0080
 237              		.align	2
 238              		.p2align 4,,15
 239              		.global	chCondBroadcast
 240              		.thumb
 241              		.thumb_func
 242              		.type	chCondBroadcast, %function
 243              	chCondBroadcast:
 244              	.LFB229:
 245              		.loc 1 130 0
 246              		.cfi_startproc
 247              		@ args = 0, pretend = 0, frame = 0
 248              		@ frame_needed = 0, uses_anonymous_args = 0
 249              	.LVL15:
 250 0000 08B5     		push	{r3, lr}
 251              		.cfi_def_cfa_offset 8
 252              		.cfi_offset 3, -8
 253              		.cfi_offset 14, -4
 254              	.LBB105:
 255              	.LBB106:
 256              	.LBB107:
 257              	.LBB108:
 258              		.loc 3 546 0
 259 0002 2023     		movs	r3, #32
 260              	@ 546 "../ChibiOS/os/ext/CMSIS/include/core_cmFunc.h" 1
 261 0004 83F31188 		MSR basepri, r3
 262              	@ 0 "" 2
 263              		.thumb
 264              	.LBE108:
 265              	.LBE107:
 266              	.LBE106:
 267              	.LBE105:
 268              		.loc 1 133 0
 269 0008 FFF7FEFF 		bl	chCondBroadcastI
 270              	.LVL16:
 271              		.loc 1 134 0
 272 000c FFF7FEFF 		bl	chSchRescheduleS
 273              	.LVL17:
 274              	.LBB109:
 275              	.LBB110:
 276              	.LBB111:
 277              	.LBB112:
ARM GAS  /tmp/cc6LVVAi.s 			page 6


 278              	.LBB113:
 279              		.loc 3 546 0
 280 0010 0023     		movs	r3, #0
 281              	@ 546 "../ChibiOS/os/ext/CMSIS/include/core_cmFunc.h" 1
 282 0012 83F31188 		MSR basepri, r3
 283              	@ 0 "" 2
 284              		.thumb
 285 0016 08BD     		pop	{r3, pc}
 286              	.LBE113:
 287              	.LBE112:
 288              	.LBE111:
 289              	.LBE110:
 290              	.LBE109:
 291              		.cfi_endproc
 292              	.LFE229:
 293              		.size	chCondBroadcast, .-chCondBroadcast
 294 0018 AFF30080 		.section	.text.chCondWaitS,"ax",%progbits
 294      AFF30080 
 295              		.align	2
 296              		.p2align 4,,15
 297              		.global	chCondWaitS
 298              		.thumb
 299              		.thumb_func
 300              		.type	chCondWaitS, %function
 301              	chCondWaitS:
 302              	.LFB232:
 303              		.loc 1 205 0
 304              		.cfi_startproc
 305              		@ args = 0, pretend = 0, frame = 0
 306              		@ frame_needed = 0, uses_anonymous_args = 0
 307              	.LVL18:
 308              		.loc 1 206 0
 309 0000 0F4B     		ldr	r3, .L24
 310              		.loc 1 205 0
 311 0002 70B5     		push	{r4, r5, r6, lr}
 312              		.cfi_def_cfa_offset 16
 313              		.cfi_offset 4, -16
 314              		.cfi_offset 5, -12
 315              		.cfi_offset 6, -8
 316              		.cfi_offset 14, -4
 317              		.loc 1 206 0
 318 0004 9C69     		ldr	r4, [r3, #24]
 319              	.LVL19:
 320              	.LBB114:
 321              	.LBB115:
 322              		.file 4 "../ChibiOS/os/rt/include/chmtx.h"
 323              		.loc 4 146 0
 324 0006 A66B     		ldr	r6, [r4, #56]
 325              	.LBE115:
 326              	.LBE114:
 327              		.loc 1 205 0
 328 0008 0546     		mov	r5, r0
 329              		.loc 1 216 0
 330 000a 3046     		mov	r0, r6
 331              	.LVL20:
 332 000c FFF7FEFF 		bl	chMtxUnlockS
 333              	.LVL21:
ARM GAS  /tmp/cc6LVVAi.s 			page 7


 334              		.loc 1 220 0
 335 0010 2562     		str	r5, [r4, #32]
 336              	.LVL22:
 337              	.LBB116:
 338              	.LBB117:
 339              		.loc 2 622 0
 340 0012 2B46     		mov	r3, r5
 341 0014 03E0     		b	.L18
 342              	.LVL23:
 343              	.L23:
 344              		.loc 2 625 0
 345 0016 9968     		ldr	r1, [r3, #8]
 346 0018 A268     		ldr	r2, [r4, #8]
 347 001a 9142     		cmp	r1, r2
 348 001c 02D3     		bcc	.L19
 349              	.L18:
 350              		.loc 2 624 0
 351 001e 1B68     		ldr	r3, [r3]
 352              	.LVL24:
 353              		.loc 2 625 0
 354 0020 9D42     		cmp	r5, r3
 355 0022 F8D1     		bne	.L23
 356              	.L19:
 357              		.loc 2 627 0
 358 0024 5A68     		ldr	r2, [r3, #4]
 359 0026 6260     		str	r2, [r4, #4]
 360              		.loc 2 626 0
 361 0028 2360     		str	r3, [r4]
 362              	.LBE117:
 363              	.LBE116:
 364              		.loc 1 222 0
 365 002a 0720     		movs	r0, #7
 366              	.LBB119:
 367              	.LBB118:
 368              		.loc 2 628 0
 369 002c 5C60     		str	r4, [r3, #4]
 370 002e 1460     		str	r4, [r2]
 371              	.LBE118:
 372              	.LBE119:
 373              		.loc 1 222 0
 374 0030 FFF7FEFF 		bl	chSchGoSleepS
 375              	.LVL25:
 376              		.loc 1 223 0
 377 0034 246A     		ldr	r4, [r4, #32]
 378              	.LVL26:
 379              		.loc 1 224 0
 380 0036 3046     		mov	r0, r6
 381 0038 FFF7FEFF 		bl	chMtxLockS
 382              	.LVL27:
 383              		.loc 1 227 0
 384 003c 2046     		mov	r0, r4
 385 003e 70BD     		pop	{r4, r5, r6, pc}
 386              	.LVL28:
 387              	.L25:
 388              		.align	2
 389              	.L24:
 390 0040 00000000 		.word	ch
ARM GAS  /tmp/cc6LVVAi.s 			page 8


 391              		.cfi_endproc
 392              	.LFE232:
 393              		.size	chCondWaitS, .-chCondWaitS
 394 0044 AFF30080 		.section	.text.chCondWait,"ax",%progbits
 394      AFF30080 
 394      AFF30080 
 395              		.align	2
 396              		.p2align 4,,15
 397              		.global	chCondWait
 398              		.thumb
 399              		.thumb_func
 400              		.type	chCondWait, %function
 401              	chCondWait:
 402              	.LFB231:
 403              		.loc 1 179 0
 404              		.cfi_startproc
 405              		@ args = 0, pretend = 0, frame = 0
 406              		@ frame_needed = 0, uses_anonymous_args = 0
 407              	.LVL29:
 408 0000 08B5     		push	{r3, lr}
 409              		.cfi_def_cfa_offset 8
 410              		.cfi_offset 3, -8
 411              		.cfi_offset 14, -4
 412              	.LBB120:
 413              	.LBB121:
 414              	.LBB122:
 415              	.LBB123:
 416              		.loc 3 546 0
 417 0002 2023     		movs	r3, #32
 418              	@ 546 "../ChibiOS/os/ext/CMSIS/include/core_cmFunc.h" 1
 419 0004 83F31188 		MSR basepri, r3
 420              	@ 0 "" 2
 421              		.thumb
 422              	.LBE123:
 423              	.LBE122:
 424              	.LBE121:
 425              	.LBE120:
 426              		.loc 1 183 0
 427 0008 FFF7FEFF 		bl	chCondWaitS
 428              	.LVL30:
 429              	.LBB124:
 430              	.LBB125:
 431              	.LBB126:
 432              	.LBB127:
 433              	.LBB128:
 434              		.loc 3 546 0
 435 000c 0023     		movs	r3, #0
 436              	@ 546 "../ChibiOS/os/ext/CMSIS/include/core_cmFunc.h" 1
 437 000e 83F31188 		MSR basepri, r3
 438              	@ 0 "" 2
 439              		.thumb
 440              	.LBE128:
 441              	.LBE127:
 442              	.LBE126:
 443              	.LBE125:
 444              	.LBE124:
 445              		.loc 1 186 0
ARM GAS  /tmp/cc6LVVAi.s 			page 9


 446 0012 08BD     		pop	{r3, pc}
 447              		.cfi_endproc
 448              	.LFE231:
 449              		.size	chCondWait, .-chCondWait
 450 0014 AFF30080 		.section	.text.chCondWaitTimeoutS,"ax",%progbits
 450      AFF30080 
 450      AFF30080 
 451              		.align	2
 452              		.p2align 4,,15
 453              		.global	chCondWaitTimeoutS
 454              		.thumb
 455              		.thumb_func
 456              		.type	chCondWaitTimeoutS, %function
 457              	chCondWaitTimeoutS:
 458              	.LFB234:
 459              		.loc 1 296 0
 460              		.cfi_startproc
 461              		@ args = 0, pretend = 0, frame = 0
 462              		@ frame_needed = 0, uses_anonymous_args = 0
 463              	.LVL31:
 464 0000 F8B5     		push	{r3, r4, r5, r6, r7, lr}
 465              		.cfi_def_cfa_offset 24
 466              		.cfi_offset 3, -24
 467              		.cfi_offset 4, -20
 468              		.cfi_offset 5, -16
 469              		.cfi_offset 6, -12
 470              		.cfi_offset 7, -8
 471              		.cfi_offset 14, -4
 472              	.LBB129:
 473              	.LBB130:
 474              	.LBB131:
 475              	.LBB132:
 476              		.file 5 "../ChibiOS/os/rt/include/chthreads.h"
 477              		.loc 5 179 0
 478 0002 124C     		ldr	r4, .L36
 479              	.LBE132:
 480              	.LBE131:
 481              		.loc 4 146 0
 482 0004 A369     		ldr	r3, [r4, #24]
 483 0006 9E6B     		ldr	r6, [r3, #56]
 484              	.LBE130:
 485              	.LBE129:
 486              		.loc 1 296 0
 487 0008 0546     		mov	r5, r0
 488              		.loc 1 306 0
 489 000a 3046     		mov	r0, r6
 490              	.LVL32:
 491              		.loc 1 296 0
 492 000c 0F46     		mov	r7, r1
 493              		.loc 1 306 0
 494 000e FFF7FEFF 		bl	chMtxUnlockS
 495              	.LVL33:
 496              		.loc 1 310 0
 497 0012 A469     		ldr	r4, [r4, #24]
 498              	.LBB133:
 499              	.LBB134:
 500              		.loc 2 622 0
ARM GAS  /tmp/cc6LVVAi.s 			page 10


 501 0014 2B46     		mov	r3, r5
 502              	.LBE134:
 503              	.LBE133:
 504              		.loc 1 310 0
 505 0016 2562     		str	r5, [r4, #32]
 506              	.LVL34:
 507 0018 03E0     		b	.L32
 508              	.LVL35:
 509              	.L29:
 510              	.LBB138:
 511              	.LBB135:
 512              		.loc 2 625 0
 513 001a 9868     		ldr	r0, [r3, #8]
 514 001c A268     		ldr	r2, [r4, #8]
 515 001e 9042     		cmp	r0, r2
 516 0020 02D3     		bcc	.L33
 517              	.L32:
 518              		.loc 2 624 0
 519 0022 1B68     		ldr	r3, [r3]
 520              	.LVL36:
 521              		.loc 2 625 0
 522 0024 9D42     		cmp	r5, r3
 523 0026 F8D1     		bne	.L29
 524              	.L33:
 525              		.loc 2 627 0
 526 0028 5A68     		ldr	r2, [r3, #4]
 527 002a 6260     		str	r2, [r4, #4]
 528              		.loc 2 626 0
 529 002c 2360     		str	r3, [r4]
 530              	.LBE135:
 531              	.LBE138:
 532              		.loc 1 312 0
 533 002e 3946     		mov	r1, r7
 534              	.LBB139:
 535              	.LBB136:
 536              		.loc 2 628 0
 537 0030 5C60     		str	r4, [r3, #4]
 538              	.LBE136:
 539              	.LBE139:
 540              		.loc 1 312 0
 541 0032 0720     		movs	r0, #7
 542              	.LBB140:
 543              	.LBB137:
 544              		.loc 2 628 0
 545 0034 1460     		str	r4, [r2]
 546              	.LBE137:
 547              	.LBE140:
 548              		.loc 1 312 0
 549 0036 FFF7FEFF 		bl	chSchGoSleepTimeoutS
 550              	.LVL37:
 551              		.loc 1 313 0
 552 003a 431C     		adds	r3, r0, #1
 553              		.loc 1 312 0
 554 003c 0446     		mov	r4, r0
 555              	.LVL38:
 556              		.loc 1 313 0
 557 003e 02D0     		beq	.L31
ARM GAS  /tmp/cc6LVVAi.s 			page 11


 558              		.loc 1 314 0
 559 0040 3046     		mov	r0, r6
 560              	.LVL39:
 561 0042 FFF7FEFF 		bl	chMtxLockS
 562              	.LVL40:
 563              	.L31:
 564              		.loc 1 318 0
 565 0046 2046     		mov	r0, r4
 566 0048 F8BD     		pop	{r3, r4, r5, r6, r7, pc}
 567              	.LVL41:
 568              	.L37:
 569 004a 00BF     		.align	2
 570              	.L36:
 571 004c 00000000 		.word	ch
 572              		.cfi_endproc
 573              	.LFE234:
 574              		.size	chCondWaitTimeoutS, .-chCondWaitTimeoutS
 575              		.section	.text.chCondWaitTimeout,"ax",%progbits
 576              		.align	2
 577              		.p2align 4,,15
 578              		.global	chCondWaitTimeout
 579              		.thumb
 580              		.thumb_func
 581              		.type	chCondWaitTimeout, %function
 582              	chCondWaitTimeout:
 583              	.LFB233:
 584              		.loc 1 258 0
 585              		.cfi_startproc
 586              		@ args = 0, pretend = 0, frame = 0
 587              		@ frame_needed = 0, uses_anonymous_args = 0
 588              	.LVL42:
 589 0000 08B5     		push	{r3, lr}
 590              		.cfi_def_cfa_offset 8
 591              		.cfi_offset 3, -8
 592              		.cfi_offset 14, -4
 593              	.LBB141:
 594              	.LBB142:
 595              	.LBB143:
 596              	.LBB144:
 597              		.loc 3 546 0
 598 0002 2023     		movs	r3, #32
 599              	@ 546 "../ChibiOS/os/ext/CMSIS/include/core_cmFunc.h" 1
 600 0004 83F31188 		MSR basepri, r3
 601              	@ 0 "" 2
 602              		.thumb
 603              	.LBE144:
 604              	.LBE143:
 605              	.LBE142:
 606              	.LBE141:
 607              		.loc 1 262 0
 608 0008 FFF7FEFF 		bl	chCondWaitTimeoutS
 609              	.LVL43:
 610              	.LBB145:
 611              	.LBB146:
 612              	.LBB147:
 613              	.LBB148:
 614              	.LBB149:
ARM GAS  /tmp/cc6LVVAi.s 			page 12


 615              		.loc 3 546 0
 616 000c 0023     		movs	r3, #0
 617              	@ 546 "../ChibiOS/os/ext/CMSIS/include/core_cmFunc.h" 1
 618 000e 83F31188 		MSR basepri, r3
 619              	@ 0 "" 2
 620              		.thumb
 621              	.LBE149:
 622              	.LBE148:
 623              	.LBE147:
 624              	.LBE146:
 625              	.LBE145:
 626              		.loc 1 266 0
 627 0012 08BD     		pop	{r3, pc}
 628              		.cfi_endproc
 629              	.LFE233:
 630              		.size	chCondWaitTimeout, .-chCondWaitTimeout
 631 0014 AFF30080 		.text
 631      AFF30080 
 631      AFF30080 
 632              	.Letext0:
 633              		.file 6 "/l/arm2/gcc-arm-none-eabi-4_9-2014q4/arm-none-eabi/include/machine/_default_types.h"
 634              		.file 7 "/l/arm2/gcc-arm-none-eabi-4_9-2014q4/arm-none-eabi/include/stdint.h"
 635              		.file 8 "../ChibiOS/os/rt/ports/ARMCMx/compilers/GCC/chtypes.h"
 636              		.file 9 "../ChibiOS/os/rt/include/chsystypes.h"
 637              		.file 10 "../ChibiOS/os/rt/ports/ARMCMx/chcore.h"
 638              		.file 11 "../ChibiOS/os/rt/ports/ARMCMx/chcore_v7m.h"
 639              		.file 12 "../ChibiOS/os/rt/include/chtm.h"
 640              		.file 13 "../ChibiOS/os/rt/include/chcond.h"
 641              		.file 14 "../ChibiOS/os/rt/include/chsys.h"
 642              		.file 15 "../ChibiOS/os/ext/CMSIS/include/core_cm4.h"