ARM GAS  /tmp/ccMr92wq.s 			page 1


   1              		.syntax unified
   2              		.cpu cortex-m4
   3              		.eabi_attribute 27, 3
   4              		.eabi_attribute 28, 1
   5              		.fpu fpv4-sp-d16
   6              		.eabi_attribute 20, 1
   7              		.eabi_attribute 21, 1
   8              		.eabi_attribute 23, 3
   9              		.eabi_attribute 24, 1
  10              		.eabi_attribute 25, 1
  11              		.eabi_attribute 26, 1
  12              		.eabi_attribute 30, 2
  13              		.eabi_attribute 34, 1
  14              		.eabi_attribute 18, 4
  15              		.thumb
  16              		.file	"chevents.c"
  17              		.text
  18              	.Ltext0:
  19              		.cfi_sections	.debug_frame
  20              		.section	.text.chEvtRegisterMaskWithFlags,"ax",%progbits
  21              		.align	2
  22              		.p2align 4,,15
  23              		.global	chEvtRegisterMaskWithFlags
  24              		.thumb
  25              		.thumb_func
  26              		.type	chEvtRegisterMaskWithFlags, %function
  27              	chEvtRegisterMaskWithFlags:
  28              	.LFB226:
  29              		.file 1 "../ChibiOS/os/rt/src/chevents.c"
  30              		.loc 1 106 0
  31              		.cfi_startproc
  32              		@ args = 0, pretend = 0, frame = 0
  33              		@ frame_needed = 0, uses_anonymous_args = 0
  34              		@ link register save eliminated.
  35              	.LVL0:
  36 0000 30B4     		push	{r4, r5}
  37              		.cfi_def_cfa_offset 8
  38              		.cfi_offset 4, -8
  39              		.cfi_offset 5, -4
  40              	.LBB174:
  41              	.LBB175:
  42              	.LBB176:
  43              	.LBB177:
  44              		.file 2 "../ChibiOS/os/ext/CMSIS/include/core_cmFunc.h"
  45              		.loc 2 546 0
  46 0002 2024     		movs	r4, #32
  47              	@ 546 "../ChibiOS/os/ext/CMSIS/include/core_cmFunc.h" 1
  48 0004 84F31188 		MSR basepri, r4
  49              	@ 0 "" 2
  50              		.thumb
  51              	.LBE177:
  52              	.LBE176:
  53              	.LBE175:
  54              	.LBE174:
  55              		.loc 1 113 0
  56 0008 064D     		ldr	r5, .L3
  57              		.loc 1 111 0
ARM GAS  /tmp/ccMr92wq.s 			page 2


  58 000a 0468     		ldr	r4, [r0]
  59              		.loc 1 113 0
  60 000c AD69     		ldr	r5, [r5, #24]
  61              		.loc 1 111 0
  62 000e 0C60     		str	r4, [r1]
  63              		.loc 1 115 0
  64 0010 0024     		movs	r4, #0
  65              		.loc 1 112 0
  66 0012 0160     		str	r1, [r0]
  67              		.loc 1 113 0
  68 0014 4D60     		str	r5, [r1, #4]
  69              		.loc 1 114 0
  70 0016 8A60     		str	r2, [r1, #8]
  71              		.loc 1 116 0
  72 0018 0B61     		str	r3, [r1, #16]
  73              	.LVL1:
  74              		.loc 1 115 0
  75 001a CC60     		str	r4, [r1, #12]
  76              	.LBB178:
  77              	.LBB179:
  78              	.LBB180:
  79              	.LBB181:
  80              	.LBB182:
  81              		.loc 2 546 0
  82              	@ 546 "../ChibiOS/os/ext/CMSIS/include/core_cmFunc.h" 1
  83 001c 84F31188 		MSR basepri, r4
  84              	@ 0 "" 2
  85              		.thumb
  86              	.LBE182:
  87              	.LBE181:
  88              	.LBE180:
  89              	.LBE179:
  90              	.LBE178:
  91              		.loc 1 118 0
  92 0020 30BC     		pop	{r4, r5}
  93              		.cfi_restore 5
  94              		.cfi_restore 4
  95              		.cfi_def_cfa_offset 0
  96 0022 7047     		bx	lr
  97              	.L4:
  98              		.align	2
  99              	.L3:
 100 0024 00000000 		.word	ch
 101              		.cfi_endproc
 102              	.LFE226:
 103              		.size	chEvtRegisterMaskWithFlags, .-chEvtRegisterMaskWithFlags
 104 0028 AFF30080 		.section	.text.chEvtUnregister,"ax",%progbits
 104      AFF30080 
 105              		.align	2
 106              		.p2align 4,,15
 107              		.global	chEvtUnregister
 108              		.thumb
 109              		.thumb_func
 110              		.type	chEvtUnregister, %function
 111              	chEvtUnregister:
 112              	.LFB227:
 113              		.loc 1 133 0
ARM GAS  /tmp/ccMr92wq.s 			page 3


 114              		.cfi_startproc
 115              		@ args = 0, pretend = 0, frame = 0
 116              		@ frame_needed = 0, uses_anonymous_args = 0
 117              		@ link register save eliminated.
 118              	.LVL2:
 119              	.LBB183:
 120              	.LBB184:
 121              	.LBB185:
 122              	.LBB186:
 123              		.loc 2 546 0
 124 0000 2023     		movs	r3, #32
 125              	@ 546 "../ChibiOS/os/ext/CMSIS/include/core_cmFunc.h" 1
 126 0002 83F31188 		MSR basepri, r3
 127              	@ 0 "" 2
 128              		.thumb
 129              	.LBE186:
 130              	.LBE185:
 131              	.LBE184:
 132              	.LBE183:
 133              		.loc 1 138 0
 134 0006 0246     		mov	r2, r0
 135 0008 02E0     		b	.L6
 136              	.LVL3:
 137              	.L8:
 138              		.loc 1 141 0
 139 000a 8B42     		cmp	r3, r1
 140 000c 07D0     		beq	.L11
 141 000e 1A46     		mov	r2, r3
 142              	.LVL4:
 143              	.L6:
 144              		.loc 1 140 0
 145 0010 1368     		ldr	r3, [r2]
 146 0012 8342     		cmp	r3, r0
 147 0014 F9D1     		bne	.L8
 148              	.LVL5:
 149              	.LBB187:
 150              	.LBB188:
 151              	.LBB189:
 152              	.LBB190:
 153              	.LBB191:
 154              		.loc 2 546 0
 155 0016 0023     		movs	r3, #0
 156              	@ 546 "../ChibiOS/os/ext/CMSIS/include/core_cmFunc.h" 1
 157 0018 83F31188 		MSR basepri, r3
 158              	@ 0 "" 2
 159              		.thumb
 160 001c 7047     		bx	lr
 161              	.LVL6:
 162              	.L11:
 163              	.LBE191:
 164              	.LBE190:
 165              	.LBE189:
 166              	.LBE188:
 167              	.LBE187:
 168              		.loc 1 142 0
 169 001e 0B68     		ldr	r3, [r1]
 170 0020 1360     		str	r3, [r2]
ARM GAS  /tmp/ccMr92wq.s 			page 4


 171              	.LVL7:
 172              	.LBB196:
 173              	.LBB195:
 174              	.LBB194:
 175              	.LBB193:
 176              	.LBB192:
 177              		.loc 2 546 0
 178 0022 0023     		movs	r3, #0
 179              	@ 546 "../ChibiOS/os/ext/CMSIS/include/core_cmFunc.h" 1
 180 0024 83F31188 		MSR basepri, r3
 181              	@ 0 "" 2
 182              		.thumb
 183 0028 7047     		bx	lr
 184              	.LBE192:
 185              	.LBE193:
 186              	.LBE194:
 187              	.LBE195:
 188              	.LBE196:
 189              		.cfi_endproc
 190              	.LFE227:
 191              		.size	chEvtUnregister, .-chEvtUnregister
 192 002a 00BFAFF3 		.section	.text.chEvtGetAndClearEvents,"ax",%progbits
 192      0080
 193              		.align	2
 194              		.p2align 4,,15
 195              		.global	chEvtGetAndClearEvents
 196              		.thumb
 197              		.thumb_func
 198              		.type	chEvtGetAndClearEvents, %function
 199              	chEvtGetAndClearEvents:
 200              	.LFB228:
 201              		.loc 1 158 0
 202              		.cfi_startproc
 203              		@ args = 0, pretend = 0, frame = 0
 204              		@ frame_needed = 0, uses_anonymous_args = 0
 205              		@ link register save eliminated.
 206              	.LVL8:
 207              	.LBB197:
 208              	.LBB198:
 209              	.LBB199:
 210              	.LBB200:
 211              		.loc 2 546 0
 212 0000 2023     		movs	r3, #32
 213              	@ 546 "../ChibiOS/os/ext/CMSIS/include/core_cmFunc.h" 1
 214 0002 83F31188 		MSR basepri, r3
 215              	@ 0 "" 2
 216              		.thumb
 217              	.LBE200:
 218              	.LBE199:
 219              	.LBE198:
 220              	.LBE197:
 221              		.loc 1 162 0
 222 0006 054B     		ldr	r3, .L13
 223 0008 9A69     		ldr	r2, [r3, #24]
 224 000a 536B     		ldr	r3, [r2, #52]
 225              	.LVL9:
 226              		.loc 1 163 0
ARM GAS  /tmp/ccMr92wq.s 			page 5


 227 000c 23EA0001 		bic	r1, r3, r0
 228 0010 5163     		str	r1, [r2, #52]
 229              	.LVL10:
 230              	.LBB201:
 231              	.LBB202:
 232              	.LBB203:
 233              	.LBB204:
 234              	.LBB205:
 235              		.loc 2 546 0
 236 0012 0022     		movs	r2, #0
 237              	@ 546 "../ChibiOS/os/ext/CMSIS/include/core_cmFunc.h" 1
 238 0014 82F31188 		MSR basepri, r2
 239              	@ 0 "" 2
 240              		.thumb
 241              	.LBE205:
 242              	.LBE204:
 243              	.LBE203:
 244              	.LBE202:
 245              	.LBE201:
 246              		.loc 1 167 0
 247 0018 1840     		ands	r0, r0, r3
 248              	.LVL11:
 249 001a 7047     		bx	lr
 250              	.L14:
 251              		.align	2
 252              	.L13:
 253 001c 00000000 		.word	ch
 254              		.cfi_endproc
 255              	.LFE228:
 256              		.size	chEvtGetAndClearEvents, .-chEvtGetAndClearEvents
 257              		.section	.text.chEvtAddEvents,"ax",%progbits
 258              		.align	2
 259              		.p2align 4,,15
 260              		.global	chEvtAddEvents
 261              		.thumb
 262              		.thumb_func
 263              		.type	chEvtAddEvents, %function
 264              	chEvtAddEvents:
 265              	.LFB229:
 266              		.loc 1 178 0
 267              		.cfi_startproc
 268              		@ args = 0, pretend = 0, frame = 0
 269              		@ frame_needed = 0, uses_anonymous_args = 0
 270              		@ link register save eliminated.
 271              	.LVL12:
 272              	.LBB206:
 273              	.LBB207:
 274              	.LBB208:
 275              	.LBB209:
 276              		.loc 2 546 0
 277 0000 2023     		movs	r3, #32
 278              	@ 546 "../ChibiOS/os/ext/CMSIS/include/core_cmFunc.h" 1
 279 0002 83F31188 		MSR basepri, r3
 280              	@ 0 "" 2
 281              		.thumb
 282              	.LBE209:
 283              	.LBE208:
ARM GAS  /tmp/ccMr92wq.s 			page 6


 284              	.LBE207:
 285              	.LBE206:
 286              		.loc 1 181 0
 287 0006 044B     		ldr	r3, .L16
 288 0008 9A69     		ldr	r2, [r3, #24]
 289 000a 536B     		ldr	r3, [r2, #52]
 290 000c 1843     		orrs	r0, r0, r3
 291              	.LVL13:
 292 000e 5063     		str	r0, [r2, #52]
 293              	.LVL14:
 294              	.LBB210:
 295              	.LBB211:
 296              	.LBB212:
 297              	.LBB213:
 298              	.LBB214:
 299              		.loc 2 546 0
 300 0010 0023     		movs	r3, #0
 301              	@ 546 "../ChibiOS/os/ext/CMSIS/include/core_cmFunc.h" 1
 302 0012 83F31188 		MSR basepri, r3
 303              	@ 0 "" 2
 304              		.thumb
 305              	.LBE214:
 306              	.LBE213:
 307              	.LBE212:
 308              	.LBE211:
 309              	.LBE210:
 310              		.loc 1 185 0
 311 0016 7047     		bx	lr
 312              	.L17:
 313              		.align	2
 314              	.L16:
 315 0018 00000000 		.word	ch
 316              		.cfi_endproc
 317              	.LFE229:
 318              		.size	chEvtAddEvents, .-chEvtAddEvents
 319 001c AFF30080 		.section	.text.chEvtGetAndClearFlags,"ax",%progbits
 320              		.align	2
 321              		.p2align 4,,15
 322              		.global	chEvtGetAndClearFlags
 323              		.thumb
 324              		.thumb_func
 325              		.type	chEvtGetAndClearFlags, %function
 326              	chEvtGetAndClearFlags:
 327              	.LFB231:
 328              		.loc 1 233 0
 329              		.cfi_startproc
 330              		@ args = 0, pretend = 0, frame = 0
 331              		@ frame_needed = 0, uses_anonymous_args = 0
 332              		@ link register save eliminated.
 333              	.LVL15:
 334              		.loc 1 233 0
 335 0000 0246     		mov	r2, r0
 336              	.LBB215:
 337              	.LBB216:
 338              	.LBB217:
 339              	.LBB218:
 340              		.loc 2 546 0
ARM GAS  /tmp/ccMr92wq.s 			page 7


 341 0002 2023     		movs	r3, #32
 342              	@ 546 "../ChibiOS/os/ext/CMSIS/include/core_cmFunc.h" 1
 343 0004 83F31188 		MSR basepri, r3
 344              	@ 0 "" 2
 345              		.thumb
 346              	.LBE218:
 347              	.LBE217:
 348              	.LBE216:
 349              	.LBE215:
 350              		.loc 1 238 0
 351 0008 0023     		movs	r3, #0
 352              		.loc 1 237 0
 353 000a C068     		ldr	r0, [r0, #12]
 354              	.LVL16:
 355              		.loc 1 238 0
 356 000c D360     		str	r3, [r2, #12]
 357              	.LVL17:
 358              	.LBB219:
 359              	.LBB220:
 360              	.LBB221:
 361              	.LBB222:
 362              	.LBB223:
 363              		.loc 2 546 0
 364              	@ 546 "../ChibiOS/os/ext/CMSIS/include/core_cmFunc.h" 1
 365 000e 83F31188 		MSR basepri, r3
 366              	@ 0 "" 2
 367              		.thumb
 368              	.LBE223:
 369              	.LBE222:
 370              	.LBE221:
 371              	.LBE220:
 372              	.LBE219:
 373              		.loc 1 242 0
 374 0012 7047     		bx	lr
 375              		.cfi_endproc
 376              	.LFE231:
 377              		.size	chEvtGetAndClearFlags, .-chEvtGetAndClearFlags
 378 0014 AFF30080 		.section	.text.chEvtSignalI,"ax",%progbits
 378      AFF30080 
 378      AFF30080 
 379              		.align	2
 380              		.p2align 4,,15
 381              		.global	chEvtSignalI
 382              		.thumb
 383              		.thumb_func
 384              		.type	chEvtSignalI, %function
 385              	chEvtSignalI:
 386              	.LFB233:
 387              		.loc 1 274 0
 388              		.cfi_startproc
 389              		@ args = 0, pretend = 0, frame = 0
 390              		@ frame_needed = 0, uses_anonymous_args = 0
 391              		@ link register save eliminated.
 392              	.LVL18:
 393              		.loc 1 279 0
 394 0000 436B     		ldr	r3, [r0, #52]
 395              		.loc 1 281 0
ARM GAS  /tmp/ccMr92wq.s 			page 8


 396 0002 027F     		ldrb	r2, [r0, #28]	@ zero_extendqisi2
 397              		.loc 1 279 0
 398 0004 1943     		orrs	r1, r1, r3
 399              	.LVL19:
 400              		.loc 1 281 0
 401 0006 0A2A     		cmp	r2, #10
 402              		.loc 1 279 0
 403 0008 4163     		str	r1, [r0, #52]
 404              		.loc 1 281 0
 405 000a 0AD0     		beq	.L23
 406              		.loc 1 282 0
 407 000c 0B2A     		cmp	r2, #11
 408 000e 00D0     		beq	.L24
 409              	.L19:
 410 0010 7047     		bx	lr
 411              	.L24:
 412              		.loc 1 284 0
 413 0012 036A     		ldr	r3, [r0, #32]
 414 0014 1940     		ands	r1, r1, r3
 415              		.loc 1 283 0
 416 0016 8B42     		cmp	r3, r1
 417 0018 FAD1     		bne	.L19
 418              	.L21:
 419              		.loc 1 285 0
 420 001a 0023     		movs	r3, #0
 421 001c 0362     		str	r3, [r0, #32]
 422              		.loc 1 286 0
 423 001e FFF7FEBF 		b	chSchReadyI
 424              	.LVL20:
 425              	.L23:
 426              		.loc 1 282 0 discriminator 1
 427 0022 036A     		ldr	r3, [r0, #32]
 428              		.loc 1 281 0 discriminator 1
 429 0024 1942     		tst	r1, r3
 430 0026 F8D1     		bne	.L21
 431 0028 7047     		bx	lr
 432              		.cfi_endproc
 433              	.LFE233:
 434              		.size	chEvtSignalI, .-chEvtSignalI
 435 002a 00BFAFF3 		.section	.text.chEvtBroadcastFlagsI,"ax",%progbits
 435      0080
 436              		.align	2
 437              		.p2align 4,,15
 438              		.global	chEvtBroadcastFlagsI
 439              		.thumb
 440              		.thumb_func
 441              		.type	chEvtBroadcastFlagsI, %function
 442              	chEvtBroadcastFlagsI:
 443              	.LFB230:
 444              		.loc 1 204 0
 445              		.cfi_startproc
 446              		@ args = 0, pretend = 0, frame = 0
 447              		@ frame_needed = 0, uses_anonymous_args = 0
 448              	.LVL21:
 449 0000 70B5     		push	{r4, r5, r6, lr}
 450              		.cfi_def_cfa_offset 16
 451              		.cfi_offset 4, -16
ARM GAS  /tmp/ccMr92wq.s 			page 9


 452              		.cfi_offset 5, -12
 453              		.cfi_offset 6, -8
 454              		.cfi_offset 14, -4
 455              		.loc 1 210 0
 456 0002 0468     		ldr	r4, [r0]
 457              	.LVL22:
 458              		.loc 1 211 0
 459 0004 A042     		cmp	r0, r4
 460              		.loc 1 204 0
 461 0006 0646     		mov	r6, r0
 462 0008 0D46     		mov	r5, r1
 463              		.loc 1 211 0
 464 000a 0DD0     		beq	.L25
 465              	.LVL23:
 466              	.L29:
 467              		.loc 1 212 0
 468 000c E368     		ldr	r3, [r4, #12]
 469 000e 2B43     		orrs	r3, r3, r5
 470 0010 E360     		str	r3, [r4, #12]
 471              		.loc 1 215 0
 472 0012 15B1     		cbz	r5, .L27
 473              		.loc 1 215 0 is_stmt 0 discriminator 1
 474 0014 2269     		ldr	r2, [r4, #16]
 475 0016 1342     		tst	r3, r2
 476 0018 03D0     		beq	.L28
 477              	.L27:
 478              		.loc 1 216 0 is_stmt 1
 479 001a 6068     		ldr	r0, [r4, #4]
 480 001c A168     		ldr	r1, [r4, #8]
 481 001e FFF7FEFF 		bl	chEvtSignalI
 482              	.LVL24:
 483              	.L28:
 484              		.loc 1 218 0
 485 0022 2468     		ldr	r4, [r4]
 486              	.LVL25:
 487              		.loc 1 211 0
 488 0024 A642     		cmp	r6, r4
 489 0026 F1D1     		bne	.L29
 490              	.L25:
 491 0028 70BD     		pop	{r4, r5, r6, pc}
 492              		.cfi_endproc
 493              	.LFE230:
 494              		.size	chEvtBroadcastFlagsI, .-chEvtBroadcastFlagsI
 495 002a 00BFAFF3 		.section	.text.chEvtSignal,"ax",%progbits
 495      0080
 496              		.align	2
 497              		.p2align 4,,15
 498              		.global	chEvtSignal
 499              		.thumb
 500              		.thumb_func
 501              		.type	chEvtSignal, %function
 502              	chEvtSignal:
 503              	.LFB232:
 504              		.loc 1 252 0
 505              		.cfi_startproc
 506              		@ args = 0, pretend = 0, frame = 0
 507              		@ frame_needed = 0, uses_anonymous_args = 0
ARM GAS  /tmp/ccMr92wq.s 			page 10


 508              	.LVL26:
 509 0000 08B5     		push	{r3, lr}
 510              		.cfi_def_cfa_offset 8
 511              		.cfi_offset 3, -8
 512              		.cfi_offset 14, -4
 513              	.LBB224:
 514              	.LBB225:
 515              	.LBB226:
 516              	.LBB227:
 517              		.loc 2 546 0
 518 0002 2023     		movs	r3, #32
 519              	@ 546 "../ChibiOS/os/ext/CMSIS/include/core_cmFunc.h" 1
 520 0004 83F31188 		MSR basepri, r3
 521              	@ 0 "" 2
 522              		.thumb
 523              	.LBE227:
 524              	.LBE226:
 525              	.LBE225:
 526              	.LBE224:
 527              		.loc 1 257 0
 528 0008 FFF7FEFF 		bl	chEvtSignalI
 529              	.LVL27:
 530              		.loc 1 258 0
 531 000c FFF7FEFF 		bl	chSchRescheduleS
 532              	.LVL28:
 533              	.LBB228:
 534              	.LBB229:
 535              	.LBB230:
 536              	.LBB231:
 537              	.LBB232:
 538              		.loc 2 546 0
 539 0010 0023     		movs	r3, #0
 540              	@ 546 "../ChibiOS/os/ext/CMSIS/include/core_cmFunc.h" 1
 541 0012 83F31188 		MSR basepri, r3
 542              	@ 0 "" 2
 543              		.thumb
 544 0016 08BD     		pop	{r3, pc}
 545              	.LBE232:
 546              	.LBE231:
 547              	.LBE230:
 548              	.LBE229:
 549              	.LBE228:
 550              		.cfi_endproc
 551              	.LFE232:
 552              		.size	chEvtSignal, .-chEvtSignal
 553 0018 AFF30080 		.section	.text.chEvtBroadcastFlags,"ax",%progbits
 553      AFF30080 
 554              		.align	2
 555              		.p2align 4,,15
 556              		.global	chEvtBroadcastFlags
 557              		.thumb
 558              		.thumb_func
 559              		.type	chEvtBroadcastFlags, %function
 560              	chEvtBroadcastFlags:
 561              	.LFB234:
 562              		.loc 1 303 0
 563              		.cfi_startproc
ARM GAS  /tmp/ccMr92wq.s 			page 11


 564              		@ args = 0, pretend = 0, frame = 0
 565              		@ frame_needed = 0, uses_anonymous_args = 0
 566              	.LVL29:
 567 0000 08B5     		push	{r3, lr}
 568              		.cfi_def_cfa_offset 8
 569              		.cfi_offset 3, -8
 570              		.cfi_offset 14, -4
 571              	.LBB233:
 572              	.LBB234:
 573              	.LBB235:
 574              	.LBB236:
 575              		.loc 2 546 0
 576 0002 2023     		movs	r3, #32
 577              	@ 546 "../ChibiOS/os/ext/CMSIS/include/core_cmFunc.h" 1
 578 0004 83F31188 		MSR basepri, r3
 579              	@ 0 "" 2
 580              		.thumb
 581              	.LBE236:
 582              	.LBE235:
 583              	.LBE234:
 584              	.LBE233:
 585              		.loc 1 306 0
 586 0008 FFF7FEFF 		bl	chEvtBroadcastFlagsI
 587              	.LVL30:
 588              		.loc 1 307 0
 589 000c FFF7FEFF 		bl	chSchRescheduleS
 590              	.LVL31:
 591              	.LBB237:
 592              	.LBB238:
 593              	.LBB239:
 594              	.LBB240:
 595              	.LBB241:
 596              		.loc 2 546 0
 597 0010 0023     		movs	r3, #0
 598              	@ 546 "../ChibiOS/os/ext/CMSIS/include/core_cmFunc.h" 1
 599 0012 83F31188 		MSR basepri, r3
 600              	@ 0 "" 2
 601              		.thumb
 602 0016 08BD     		pop	{r3, pc}
 603              	.LBE241:
 604              	.LBE240:
 605              	.LBE239:
 606              	.LBE238:
 607              	.LBE237:
 608              		.cfi_endproc
 609              	.LFE234:
 610              		.size	chEvtBroadcastFlags, .-chEvtBroadcastFlags
 611 0018 AFF30080 		.section	.text.chEvtGetAndClearFlagsI,"ax",%progbits
 611      AFF30080 
 612              		.align	2
 613              		.p2align 4,,15
 614              		.global	chEvtGetAndClearFlagsI
 615              		.thumb
 616              		.thumb_func
 617              		.type	chEvtGetAndClearFlagsI, %function
 618              	chEvtGetAndClearFlagsI:
 619              	.LFB235:
ARM GAS  /tmp/ccMr92wq.s 			page 12


 620              		.loc 1 322 0
 621              		.cfi_startproc
 622              		@ args = 0, pretend = 0, frame = 0
 623              		@ frame_needed = 0, uses_anonymous_args = 0
 624              		@ link register save eliminated.
 625              	.LVL32:
 626              		.loc 1 322 0
 627 0000 0346     		mov	r3, r0
 628              		.loc 1 326 0
 629 0002 0022     		movs	r2, #0
 630              		.loc 1 325 0
 631 0004 C068     		ldr	r0, [r0, #12]
 632              	.LVL33:
 633              		.loc 1 326 0
 634 0006 DA60     		str	r2, [r3, #12]
 635              		.loc 1 329 0
 636 0008 7047     		bx	lr
 637              		.cfi_endproc
 638              	.LFE235:
 639              		.size	chEvtGetAndClearFlagsI, .-chEvtGetAndClearFlagsI
 640 000a 00BFAFF3 		.section	.text.chEvtDispatch,"ax",%progbits
 640      0080
 641              		.align	2
 642              		.p2align 4,,15
 643              		.global	chEvtDispatch
 644              		.thumb
 645              		.thumb_func
 646              		.type	chEvtDispatch, %function
 647              	chEvtDispatch:
 648              	.LFB236:
 649              		.loc 1 340 0
 650              		.cfi_startproc
 651              		@ args = 0, pretend = 0, frame = 0
 652              		@ frame_needed = 0, uses_anonymous_args = 0
 653              	.LVL34:
 654 0000 F8B5     		push	{r3, r4, r5, r6, r7, lr}
 655              		.cfi_def_cfa_offset 24
 656              		.cfi_offset 3, -24
 657              		.cfi_offset 4, -20
 658              		.cfi_offset 5, -16
 659              		.cfi_offset 6, -12
 660              		.cfi_offset 7, -8
 661              		.cfi_offset 14, -4
 662              		.loc 1 346 0
 663 0002 0D46     		mov	r5, r1
 664 0004 A9B1     		cbz	r1, .L44
 665 0006 0746     		mov	r7, r0
 666 0008 0024     		movs	r4, #0
 667              		.loc 1 347 0
 668 000a 0126     		movs	r6, #1
 669              	.LVL35:
 670              	.L46:
 671 000c 06FA04F3 		lsl	r3, r6, r4
 672 0010 2B42     		tst	r3, r5
 673 0012 04D1     		bne	.L51
 674              	.L47:
 675              		.loc 1 352 0
ARM GAS  /tmp/ccMr92wq.s 			page 13


 676 0014 0134     		adds	r4, r4, #1
 677              	.LVL36:
 678              		.loc 1 347 0
 679 0016 06FA04F3 		lsl	r3, r6, r4
 680 001a 2B42     		tst	r3, r5
 681 001c FAD0     		beq	.L47
 682              	.L51:
 683              		.loc 1 350 0
 684 001e 2046     		mov	r0, r4
 685              		.loc 1 349 0
 686 0020 25EA0305 		bic	r5, r5, r3
 687              	.LVL37:
 688              		.loc 1 350 0
 689 0024 57F82430 		ldr	r3, [r7, r4, lsl #2]
 690 0028 9847     		blx	r3
 691              	.LVL38:
 692              		.loc 1 352 0
 693 002a 0134     		adds	r4, r4, #1
 694              	.LVL39:
 695              		.loc 1 346 0
 696 002c 002D     		cmp	r5, #0
 697 002e EDD1     		bne	.L46
 698 0030 F8BD     		pop	{r3, r4, r5, r6, r7, pc}
 699              	.LVL40:
 700              	.L44:
 701 0032 F8BD     		pop	{r3, r4, r5, r6, r7, pc}
 702              		.cfi_endproc
 703              	.LFE236:
 704              		.size	chEvtDispatch, .-chEvtDispatch
 705 0034 AFF30080 		.section	.text.chEvtWaitOne,"ax",%progbits
 705      AFF30080 
 705      AFF30080 
 706              		.align	2
 707              		.p2align 4,,15
 708              		.global	chEvtWaitOne
 709              		.thumb
 710              		.thumb_func
 711              		.type	chEvtWaitOne, %function
 712              	chEvtWaitOne:
 713              	.LFB237:
 714              		.loc 1 373 0
 715              		.cfi_startproc
 716              		@ args = 0, pretend = 0, frame = 0
 717              		@ frame_needed = 0, uses_anonymous_args = 0
 718              	.LVL41:
 719 0000 38B5     		push	{r3, r4, r5, lr}
 720              		.cfi_def_cfa_offset 16
 721              		.cfi_offset 3, -16
 722              		.cfi_offset 4, -12
 723              		.cfi_offset 5, -8
 724              		.cfi_offset 14, -4
 725              		.loc 1 374 0
 726 0002 0D4B     		ldr	r3, .L55
 727 0004 9D69     		ldr	r5, [r3, #24]
 728              	.LVL42:
 729              	.LBB242:
 730              	.LBB243:
ARM GAS  /tmp/ccMr92wq.s 			page 14


 731              	.LBB244:
 732              	.LBB245:
 733              		.loc 2 546 0
 734 0006 2023     		movs	r3, #32
 735              	@ 546 "../ChibiOS/os/ext/CMSIS/include/core_cmFunc.h" 1
 736 0008 83F31188 		MSR basepri, r3
 737              	@ 0 "" 2
 738              		.thumb
 739              	.LBE245:
 740              	.LBE244:
 741              	.LBE243:
 742              	.LBE242:
 743              		.loc 1 378 0
 744 000c 6B6B     		ldr	r3, [r5, #52]
 745              	.LVL43:
 746 000e 10EA0302 		ands	r2, r0, r3
 747              	.LVL44:
 748 0012 07D1     		bne	.L53
 749 0014 0446     		mov	r4, r0
 750              		.loc 1 379 0
 751 0016 2862     		str	r0, [r5, #32]
 752              		.loc 1 380 0
 753 0018 0A20     		movs	r0, #10
 754              	.LVL45:
 755 001a FFF7FEFF 		bl	chSchGoSleepS
 756              	.LVL46:
 757              		.loc 1 381 0
 758 001e 6B6B     		ldr	r3, [r5, #52]
 759 0020 04EA0302 		and	r2, r4, r3
 760              	.LVL47:
 761              	.L53:
 762              		.loc 1 383 0
 763 0024 5042     		negs	r0, r2
 764 0026 1040     		ands	r0, r0, r2
 765              	.LVL48:
 766              		.loc 1 384 0
 767 0028 23EA0003 		bic	r3, r3, r0
 768 002c 6B63     		str	r3, [r5, #52]
 769              	.LVL49:
 770              	.LBB246:
 771              	.LBB247:
 772              	.LBB248:
 773              	.LBB249:
 774              	.LBB250:
 775              		.loc 2 546 0
 776 002e 0023     		movs	r3, #0
 777              	@ 546 "../ChibiOS/os/ext/CMSIS/include/core_cmFunc.h" 1
 778 0030 83F31188 		MSR basepri, r3
 779              	@ 0 "" 2
 780              		.thumb
 781              	.LBE250:
 782              	.LBE249:
 783              	.LBE248:
 784              	.LBE247:
 785              	.LBE246:
 786              		.loc 1 388 0
 787 0034 38BD     		pop	{r3, r4, r5, pc}
ARM GAS  /tmp/ccMr92wq.s 			page 15


 788              	.LVL50:
 789              	.L56:
 790 0036 00BF     		.align	2
 791              	.L55:
 792 0038 00000000 		.word	ch
 793              		.cfi_endproc
 794              	.LFE237:
 795              		.size	chEvtWaitOne, .-chEvtWaitOne
 796 003c AFF30080 		.section	.text.chEvtWaitAny,"ax",%progbits
 797              		.align	2
 798              		.p2align 4,,15
 799              		.global	chEvtWaitAny
 800              		.thumb
 801              		.thumb_func
 802              		.type	chEvtWaitAny, %function
 803              	chEvtWaitAny:
 804              	.LFB238:
 805              		.loc 1 402 0
 806              		.cfi_startproc
 807              		@ args = 0, pretend = 0, frame = 0
 808              		@ frame_needed = 0, uses_anonymous_args = 0
 809              	.LVL51:
 810 0000 38B5     		push	{r3, r4, r5, lr}
 811              		.cfi_def_cfa_offset 16
 812              		.cfi_offset 3, -16
 813              		.cfi_offset 4, -12
 814              		.cfi_offset 5, -8
 815              		.cfi_offset 14, -4
 816              		.loc 1 403 0
 817 0002 0C4B     		ldr	r3, .L60
 818 0004 9D69     		ldr	r5, [r3, #24]
 819              	.LVL52:
 820              	.LBB251:
 821              	.LBB252:
 822              	.LBB253:
 823              	.LBB254:
 824              		.loc 2 546 0
 825 0006 2023     		movs	r3, #32
 826              	@ 546 "../ChibiOS/os/ext/CMSIS/include/core_cmFunc.h" 1
 827 0008 83F31188 		MSR basepri, r3
 828              	@ 0 "" 2
 829              		.thumb
 830              	.LBE254:
 831              	.LBE253:
 832              	.LBE252:
 833              	.LBE251:
 834              		.loc 1 407 0
 835 000c 6B6B     		ldr	r3, [r5, #52]
 836              	.LVL53:
 837 000e 10EA0304 		ands	r4, r0, r3
 838              	.LVL54:
 839 0012 06D1     		bne	.L58
 840 0014 0446     		mov	r4, r0
 841              	.LVL55:
 842              		.loc 1 408 0
 843 0016 2862     		str	r0, [r5, #32]
 844              		.loc 1 409 0
ARM GAS  /tmp/ccMr92wq.s 			page 16


 845 0018 0A20     		movs	r0, #10
 846              	.LVL56:
 847 001a FFF7FEFF 		bl	chSchGoSleepS
 848              	.LVL57:
 849              		.loc 1 410 0
 850 001e 6B6B     		ldr	r3, [r5, #52]
 851 0020 1C40     		ands	r4, r4, r3
 852              	.LVL58:
 853              	.L58:
 854              		.loc 1 412 0
 855 0022 23EA0403 		bic	r3, r3, r4
 856 0026 6B63     		str	r3, [r5, #52]
 857              	.LVL59:
 858              	.LBB255:
 859              	.LBB256:
 860              	.LBB257:
 861              	.LBB258:
 862              	.LBB259:
 863              		.loc 2 546 0
 864 0028 0023     		movs	r3, #0
 865              	@ 546 "../ChibiOS/os/ext/CMSIS/include/core_cmFunc.h" 1
 866 002a 83F31188 		MSR basepri, r3
 867              	@ 0 "" 2
 868              		.thumb
 869              	.LBE259:
 870              	.LBE258:
 871              	.LBE257:
 872              	.LBE256:
 873              	.LBE255:
 874              		.loc 1 416 0
 875 002e 2046     		mov	r0, r4
 876 0030 38BD     		pop	{r3, r4, r5, pc}
 877              	.LVL60:
 878              	.L61:
 879 0032 00BF     		.align	2
 880              	.L60:
 881 0034 00000000 		.word	ch
 882              		.cfi_endproc
 883              	.LFE238:
 884              		.size	chEvtWaitAny, .-chEvtWaitAny
 885 0038 AFF30080 		.section	.text.chEvtWaitAll,"ax",%progbits
 885      AFF30080 
 886              		.align	2
 887              		.p2align 4,,15
 888              		.global	chEvtWaitAll
 889              		.thumb
 890              		.thumb_func
 891              		.type	chEvtWaitAll, %function
 892              	chEvtWaitAll:
 893              	.LFB239:
 894              		.loc 1 429 0
 895              		.cfi_startproc
 896              		@ args = 0, pretend = 0, frame = 0
 897              		@ frame_needed = 0, uses_anonymous_args = 0
 898              	.LVL61:
 899 0000 38B5     		push	{r3, r4, r5, lr}
 900              		.cfi_def_cfa_offset 16
ARM GAS  /tmp/ccMr92wq.s 			page 17


 901              		.cfi_offset 3, -16
 902              		.cfi_offset 4, -12
 903              		.cfi_offset 5, -8
 904              		.cfi_offset 14, -4
 905              		.loc 1 430 0
 906 0002 0C4B     		ldr	r3, .L65
 907              		.loc 1 429 0
 908 0004 0446     		mov	r4, r0
 909              		.loc 1 430 0
 910 0006 9D69     		ldr	r5, [r3, #24]
 911              	.LVL62:
 912              	.LBB260:
 913              	.LBB261:
 914              	.LBB262:
 915              	.LBB263:
 916              		.loc 2 546 0
 917 0008 2023     		movs	r3, #32
 918              	@ 546 "../ChibiOS/os/ext/CMSIS/include/core_cmFunc.h" 1
 919 000a 83F31188 		MSR basepri, r3
 920              	@ 0 "" 2
 921              		.thumb
 922              	.LBE263:
 923              	.LBE262:
 924              	.LBE261:
 925              	.LBE260:
 926              		.loc 1 433 0
 927 000e 6B6B     		ldr	r3, [r5, #52]
 928 0010 00EA0302 		and	r2, r0, r3
 929 0014 8242     		cmp	r2, r0
 930 0016 04D0     		beq	.L63
 931              		.loc 1 434 0
 932 0018 2862     		str	r0, [r5, #32]
 933              		.loc 1 435 0
 934 001a 0B20     		movs	r0, #11
 935              	.LVL63:
 936 001c FFF7FEFF 		bl	chSchGoSleepS
 937              	.LVL64:
 938 0020 6B6B     		ldr	r3, [r5, #52]
 939              	.L63:
 940              		.loc 1 437 0
 941 0022 23EA0403 		bic	r3, r3, r4
 942 0026 6B63     		str	r3, [r5, #52]
 943              	.LVL65:
 944              	.LBB264:
 945              	.LBB265:
 946              	.LBB266:
 947              	.LBB267:
 948              	.LBB268:
 949              		.loc 2 546 0
 950 0028 0023     		movs	r3, #0
 951              	@ 546 "../ChibiOS/os/ext/CMSIS/include/core_cmFunc.h" 1
 952 002a 83F31188 		MSR basepri, r3
 953              	@ 0 "" 2
 954              		.thumb
 955              	.LBE268:
 956              	.LBE267:
 957              	.LBE266:
ARM GAS  /tmp/ccMr92wq.s 			page 18


 958              	.LBE265:
 959              	.LBE264:
 960              		.loc 1 441 0
 961 002e 2046     		mov	r0, r4
 962 0030 38BD     		pop	{r3, r4, r5, pc}
 963              	.LVL66:
 964              	.L66:
 965 0032 00BF     		.align	2
 966              	.L65:
 967 0034 00000000 		.word	ch
 968              		.cfi_endproc
 969              	.LFE239:
 970              		.size	chEvtWaitAll, .-chEvtWaitAll
 971 0038 AFF30080 		.section	.text.chEvtWaitOneTimeout,"ax",%progbits
 971      AFF30080 
 972              		.align	2
 973              		.p2align 4,,15
 974              		.global	chEvtWaitOneTimeout
 975              		.thumb
 976              		.thumb_func
 977              		.type	chEvtWaitOneTimeout, %function
 978              	chEvtWaitOneTimeout:
 979              	.LFB240:
 980              		.loc 1 467 0
 981              		.cfi_startproc
 982              		@ args = 0, pretend = 0, frame = 0
 983              		@ frame_needed = 0, uses_anonymous_args = 0
 984              	.LVL67:
 985              		.loc 1 468 0
 986 0000 124B     		ldr	r3, .L74
 987              		.loc 1 467 0
 988 0002 70B5     		push	{r4, r5, r6, lr}
 989              		.cfi_def_cfa_offset 16
 990              		.cfi_offset 4, -16
 991              		.cfi_offset 5, -12
 992              		.cfi_offset 6, -8
 993              		.cfi_offset 14, -4
 994              	.LBB269:
 995              	.LBB270:
 996              	.LBB271:
 997              	.LBB272:
 998              		.loc 2 546 0
 999 0004 2022     		movs	r2, #32
 1000              	.LBE272:
 1001              	.LBE271:
 1002              	.LBE270:
 1003              	.LBE269:
 1004              		.loc 1 468 0
 1005 0006 9D69     		ldr	r5, [r3, #24]
 1006              	.LVL68:
 1007              	.LBB276:
 1008              	.LBB275:
 1009              	.LBB274:
 1010              	.LBB273:
 1011              		.loc 2 546 0
 1012              	@ 546 "../ChibiOS/os/ext/CMSIS/include/core_cmFunc.h" 1
 1013 0008 82F31188 		MSR basepri, r2
ARM GAS  /tmp/ccMr92wq.s 			page 19


 1014              	@ 0 "" 2
 1015              		.thumb
 1016              	.LBE273:
 1017              	.LBE274:
 1018              	.LBE275:
 1019              	.LBE276:
 1020              		.loc 1 472 0
 1021 000c 6A6B     		ldr	r2, [r5, #52]
 1022              	.LVL69:
 1023 000e 10EA0206 		ands	r6, r0, r2
 1024              	.LVL70:
 1025 0012 0ED1     		bne	.L68
 1026              		.loc 1 473 0
 1027 0014 19B9     		cbnz	r1, .L69
 1028              	.LVL71:
 1029              	.LBB277:
 1030              	.LBB278:
 1031              	.LBB279:
 1032              	.LBB280:
 1033              	.LBB281:
 1034              		.loc 2 546 0
 1035              	@ 546 "../ChibiOS/os/ext/CMSIS/include/core_cmFunc.h" 1
 1036 0016 81F31188 		MSR basepri, r1
 1037              	@ 0 "" 2
 1038              		.thumb
 1039              	.LBE281:
 1040              	.LBE280:
 1041              	.LBE279:
 1042              	.LBE278:
 1043              	.LBE277:
 1044              		.loc 1 475 0
 1045 001a 0846     		mov	r0, r1
 1046              	.LVL72:
 1047 001c 70BD     		pop	{r4, r5, r6, pc}
 1048              	.LVL73:
 1049              	.L69:
 1050              		.loc 1 477 0
 1051 001e 2862     		str	r0, [r5, #32]
 1052 0020 0446     		mov	r4, r0
 1053              		.loc 1 478 0
 1054 0022 0A20     		movs	r0, #10
 1055              	.LVL74:
 1056 0024 FFF7FEFF 		bl	chSchGoSleepTimeoutS
 1057              	.LVL75:
 1058 0028 0028     		cmp	r0, #0
 1059 002a 0BDB     		blt	.L73
 1060              		.loc 1 482 0
 1061 002c 6A6B     		ldr	r2, [r5, #52]
 1062 002e 04EA0206 		and	r6, r4, r2
 1063              	.LVL76:
 1064              	.L68:
 1065              		.loc 1 484 0
 1066 0032 7042     		negs	r0, r6
 1067 0034 3040     		ands	r0, r0, r6
 1068              	.LVL77:
 1069              		.loc 1 485 0
 1070 0036 22EA0002 		bic	r2, r2, r0
ARM GAS  /tmp/ccMr92wq.s 			page 20


 1071 003a 6A63     		str	r2, [r5, #52]
 1072              	.LVL78:
 1073              	.LBB282:
 1074              	.LBB283:
 1075              	.LBB284:
 1076              	.LBB285:
 1077              	.LBB286:
 1078              		.loc 2 546 0
 1079 003c 0023     		movs	r3, #0
 1080              	@ 546 "../ChibiOS/os/ext/CMSIS/include/core_cmFunc.h" 1
 1081 003e 83F31188 		MSR basepri, r3
 1082              	@ 0 "" 2
 1083              		.thumb
 1084              	.LBE286:
 1085              	.LBE285:
 1086              	.LBE284:
 1087              	.LBE283:
 1088              	.LBE282:
 1089              		.loc 1 489 0
 1090 0042 70BD     		pop	{r4, r5, r6, pc}
 1091              	.LVL79:
 1092              	.L73:
 1093              	.LBB287:
 1094              	.LBB288:
 1095              	.LBB289:
 1096              	.LBB290:
 1097              	.LBB291:
 1098              		.loc 2 546 0
 1099              	@ 546 "../ChibiOS/os/ext/CMSIS/include/core_cmFunc.h" 1
 1100 0044 86F31188 		MSR basepri, r6
 1101              	@ 0 "" 2
 1102              		.thumb
 1103              	.LBE291:
 1104              	.LBE290:
 1105              	.LBE289:
 1106              	.LBE288:
 1107              	.LBE287:
 1108              		.loc 1 480 0
 1109 0048 3046     		mov	r0, r6
 1110 004a 70BD     		pop	{r4, r5, r6, pc}
 1111              	.LVL80:
 1112              	.L75:
 1113              		.align	2
 1114              	.L74:
 1115 004c 00000000 		.word	ch
 1116              		.cfi_endproc
 1117              	.LFE240:
 1118              		.size	chEvtWaitOneTimeout, .-chEvtWaitOneTimeout
 1119              		.section	.text.chEvtWaitAnyTimeout,"ax",%progbits
 1120              		.align	2
 1121              		.p2align 4,,15
 1122              		.global	chEvtWaitAnyTimeout
 1123              		.thumb
 1124              		.thumb_func
 1125              		.type	chEvtWaitAnyTimeout, %function
 1126              	chEvtWaitAnyTimeout:
 1127              	.LFB241:
ARM GAS  /tmp/ccMr92wq.s 			page 21


 1128              		.loc 1 509 0
 1129              		.cfi_startproc
 1130              		@ args = 0, pretend = 0, frame = 0
 1131              		@ frame_needed = 0, uses_anonymous_args = 0
 1132              	.LVL81:
 1133              		.loc 1 510 0
 1134 0000 124B     		ldr	r3, .L83
 1135              		.loc 1 509 0
 1136 0002 70B5     		push	{r4, r5, r6, lr}
 1137              		.cfi_def_cfa_offset 16
 1138              		.cfi_offset 4, -16
 1139              		.cfi_offset 5, -12
 1140              		.cfi_offset 6, -8
 1141              		.cfi_offset 14, -4
 1142              		.loc 1 510 0
 1143 0004 9E69     		ldr	r6, [r3, #24]
 1144              	.LVL82:
 1145              	.LBB292:
 1146              	.LBB293:
 1147              	.LBB294:
 1148              	.LBB295:
 1149              		.loc 2 546 0
 1150 0006 2023     		movs	r3, #32
 1151              	@ 546 "../ChibiOS/os/ext/CMSIS/include/core_cmFunc.h" 1
 1152 0008 83F31188 		MSR basepri, r3
 1153              	@ 0 "" 2
 1154              		.thumb
 1155              	.LBE295:
 1156              	.LBE294:
 1157              	.LBE293:
 1158              	.LBE292:
 1159              		.loc 1 514 0
 1160 000c 736B     		ldr	r3, [r6, #52]
 1161              	.LVL83:
 1162 000e 10EA0304 		ands	r4, r0, r3
 1163              	.LVL84:
 1164 0012 0ED1     		bne	.L77
 1165              		.loc 1 515 0
 1166 0014 19B9     		cbnz	r1, .L78
 1167              	.LVL85:
 1168              	.LBB296:
 1169              	.LBB297:
 1170              	.LBB298:
 1171              	.LBB299:
 1172              	.LBB300:
 1173              		.loc 2 546 0
 1174              	@ 546 "../ChibiOS/os/ext/CMSIS/include/core_cmFunc.h" 1
 1175 0016 81F31188 		MSR basepri, r1
 1176              	@ 0 "" 2
 1177              		.thumb
 1178              	.LBE300:
 1179              	.LBE299:
 1180              	.LBE298:
 1181              	.LBE297:
 1182              	.LBE296:
 1183              		.loc 1 517 0
 1184 001a 0846     		mov	r0, r1
ARM GAS  /tmp/ccMr92wq.s 			page 22


 1185              	.LVL86:
 1186 001c 70BD     		pop	{r4, r5, r6, pc}
 1187              	.LVL87:
 1188              	.L78:
 1189              		.loc 1 519 0
 1190 001e 3062     		str	r0, [r6, #32]
 1191 0020 0546     		mov	r5, r0
 1192              		.loc 1 520 0
 1193 0022 0A20     		movs	r0, #10
 1194              	.LVL88:
 1195 0024 FFF7FEFF 		bl	chSchGoSleepTimeoutS
 1196              	.LVL89:
 1197 0028 0028     		cmp	r0, #0
 1198 002a 0ADB     		blt	.L82
 1199              		.loc 1 524 0
 1200 002c 736B     		ldr	r3, [r6, #52]
 1201 002e 05EA0304 		and	r4, r5, r3
 1202              	.LVL90:
 1203              	.L77:
 1204              		.loc 1 526 0
 1205 0032 23EA0403 		bic	r3, r3, r4
 1206 0036 7363     		str	r3, [r6, #52]
 1207              	.LVL91:
 1208              	.LBB301:
 1209              	.LBB302:
 1210              	.LBB303:
 1211              	.LBB304:
 1212              	.LBB305:
 1213              		.loc 2 546 0
 1214 0038 0023     		movs	r3, #0
 1215              	@ 546 "../ChibiOS/os/ext/CMSIS/include/core_cmFunc.h" 1
 1216 003a 83F31188 		MSR basepri, r3
 1217              	@ 0 "" 2
 1218              		.thumb
 1219              	.LBE305:
 1220              	.LBE304:
 1221              	.LBE303:
 1222              	.LBE302:
 1223              	.LBE301:
 1224              		.loc 1 529 0
 1225 003e 2046     		mov	r0, r4
 1226              		.loc 1 530 0
 1227 0040 70BD     		pop	{r4, r5, r6, pc}
 1228              	.LVL92:
 1229              	.L82:
 1230              	.LBB306:
 1231              	.LBB307:
 1232              	.LBB308:
 1233              	.LBB309:
 1234              	.LBB310:
 1235              		.loc 2 546 0
 1236              	@ 546 "../ChibiOS/os/ext/CMSIS/include/core_cmFunc.h" 1
 1237 0042 84F31188 		MSR basepri, r4
 1238              	@ 0 "" 2
 1239              		.thumb
 1240              	.LBE310:
 1241              	.LBE309:
ARM GAS  /tmp/ccMr92wq.s 			page 23


 1242              	.LBE308:
 1243              	.LBE307:
 1244              	.LBE306:
 1245              		.loc 1 522 0
 1246 0046 2046     		mov	r0, r4
 1247 0048 70BD     		pop	{r4, r5, r6, pc}
 1248              	.LVL93:
 1249              	.L84:
 1250 004a 00BF     		.align	2
 1251              	.L83:
 1252 004c 00000000 		.word	ch
 1253              		.cfi_endproc
 1254              	.LFE241:
 1255              		.size	chEvtWaitAnyTimeout, .-chEvtWaitAnyTimeout
 1256              		.section	.text.chEvtWaitAllTimeout,"ax",%progbits
 1257              		.align	2
 1258              		.p2align 4,,15
 1259              		.global	chEvtWaitAllTimeout
 1260              		.thumb
 1261              		.thumb_func
 1262              		.type	chEvtWaitAllTimeout, %function
 1263              	chEvtWaitAllTimeout:
 1264              	.LFB242:
 1265              		.loc 1 549 0
 1266              		.cfi_startproc
 1267              		@ args = 0, pretend = 0, frame = 0
 1268              		@ frame_needed = 0, uses_anonymous_args = 0
 1269              	.LVL94:
 1270 0000 38B5     		push	{r3, r4, r5, lr}
 1271              		.cfi_def_cfa_offset 16
 1272              		.cfi_offset 3, -16
 1273              		.cfi_offset 4, -12
 1274              		.cfi_offset 5, -8
 1275              		.cfi_offset 14, -4
 1276              		.loc 1 550 0
 1277 0002 104B     		ldr	r3, .L93
 1278              		.loc 1 549 0
 1279 0004 0446     		mov	r4, r0
 1280              		.loc 1 550 0
 1281 0006 9D69     		ldr	r5, [r3, #24]
 1282              	.LVL95:
 1283              	.LBB311:
 1284              	.LBB312:
 1285              	.LBB313:
 1286              	.LBB314:
 1287              		.loc 2 546 0
 1288 0008 2023     		movs	r3, #32
 1289              	@ 546 "../ChibiOS/os/ext/CMSIS/include/core_cmFunc.h" 1
 1290 000a 83F31188 		MSR basepri, r3
 1291              	@ 0 "" 2
 1292              		.thumb
 1293              	.LBE314:
 1294              	.LBE313:
 1295              	.LBE312:
 1296              	.LBE311:
 1297              		.loc 1 553 0
 1298 000e 6B6B     		ldr	r3, [r5, #52]
ARM GAS  /tmp/ccMr92wq.s 			page 24


 1299 0010 00EA0302 		and	r2, r0, r3
 1300 0014 8242     		cmp	r2, r0
 1301 0016 0BD0     		beq	.L86
 1302 0018 0846     		mov	r0, r1
 1303              	.LVL96:
 1304              		.loc 1 554 0
 1305 001a 11B9     		cbnz	r1, .L92
 1306              	.LVL97:
 1307              	.L91:
 1308              	.LBB315:
 1309              	.LBB316:
 1310              	.LBB317:
 1311              	.LBB318:
 1312              	.LBB319:
 1313              		.loc 2 546 0
 1314              	@ 546 "../ChibiOS/os/ext/CMSIS/include/core_cmFunc.h" 1
 1315 001c 80F31188 		MSR basepri, r0
 1316              	@ 0 "" 2
 1317              		.thumb
 1318              	.LBE319:
 1319              	.LBE318:
 1320              	.LBE317:
 1321              	.LBE316:
 1322              	.LBE315:
 1323              		.loc 1 561 0
 1324 0020 38BD     		pop	{r3, r4, r5, pc}
 1325              	.LVL98:
 1326              	.L92:
 1327              		.loc 1 558 0
 1328 0022 2C62     		str	r4, [r5, #32]
 1329              		.loc 1 559 0
 1330 0024 0B20     		movs	r0, #11
 1331              	.LVL99:
 1332 0026 FFF7FEFF 		bl	chSchGoSleepTimeoutS
 1333              	.LVL100:
 1334 002a 0028     		cmp	r0, #0
 1335 002c 08DB     		blt	.L89
 1336 002e 6B6B     		ldr	r3, [r5, #52]
 1337              	.L86:
 1338              		.loc 1 564 0
 1339 0030 23EA0403 		bic	r3, r3, r4
 1340 0034 6B63     		str	r3, [r5, #52]
 1341              	.LVL101:
 1342              	.LBB324:
 1343              	.LBB325:
 1344              	.LBB326:
 1345              	.LBB327:
 1346              	.LBB328:
 1347              		.loc 2 546 0
 1348 0036 0023     		movs	r3, #0
 1349              	@ 546 "../ChibiOS/os/ext/CMSIS/include/core_cmFunc.h" 1
 1350 0038 83F31188 		MSR basepri, r3
 1351              	@ 0 "" 2
 1352              		.thumb
 1353              	.LBE328:
 1354              	.LBE327:
 1355              	.LBE326:
ARM GAS  /tmp/ccMr92wq.s 			page 25


 1356              	.LBE325:
 1357              	.LBE324:
 1358              		.loc 1 567 0
 1359 003c 2046     		mov	r0, r4
 1360              		.loc 1 568 0
 1361 003e 38BD     		pop	{r3, r4, r5, pc}
 1362              	.LVL102:
 1363              	.L89:
 1364              	.LBB329:
 1365              	.LBB323:
 1366              	.LBB322:
 1367              	.LBB321:
 1368              	.LBB320:
 1369              		.loc 2 546 0
 1370 0040 0020     		movs	r0, #0
 1371 0042 EBE7     		b	.L91
 1372              	.L94:
 1373              		.align	2
 1374              	.L93:
 1375 0044 00000000 		.word	ch
 1376              	.LBE320:
 1377              	.LBE321:
 1378              	.LBE322:
 1379              	.LBE323:
 1380              	.LBE329:
 1381              		.cfi_endproc
 1382              	.LFE242:
 1383              		.size	chEvtWaitAllTimeout, .-chEvtWaitAllTimeout
 1384 0048 AFF30080 		.text
 1384      AFF30080 
 1385              	.Letext0:
 1386              		.file 3 "/l/arm2/gcc-arm-none-eabi-4_9-2014q4/arm-none-eabi/include/machine/_default_types.h"
 1387              		.file 4 "/l/arm2/gcc-arm-none-eabi-4_9-2014q4/arm-none-eabi/include/stdint.h"
 1388              		.file 5 "../ChibiOS/os/rt/ports/ARMCMx/compilers/GCC/chtypes.h"
 1389              		.file 6 "../ChibiOS/os/rt/include/chsystypes.h"
 1390              		.file 7 "../ChibiOS/os/rt/include/chschd.h"
 1391              		.file 8 "../ChibiOS/os/rt/ports/ARMCMx/chcore.h"
 1392              		.file 9 "../ChibiOS/os/rt/ports/ARMCMx/chcore_v7m.h"
 1393              		.file 10 "../ChibiOS/os/rt/include/chtm.h"
 1394              		.file 11 "../ChibiOS/os/rt/include/chmtx.h"
 1395              		.file 12 "../ChibiOS/os/rt/include/chevents.h"
 1396              		.file 13 "../ChibiOS/os/rt/include/chsys.h"
 1397              		.file 14 "../ChibiOS/os/ext/CMSIS/include/core_cm4.h"