ARM GAS  /tmp/ccELqvZ3.s 			page 1


   1              		.syntax unified
   2              		.cpu cortex-m4
   3              		.eabi_attribute 27, 3
   4              		.eabi_attribute 28, 1
   5              		.fpu fpv4-sp-d16
   6              		.eabi_attribute 20, 1
   7              		.eabi_attribute 21, 1
   8              		.eabi_attribute 23, 3
   9              		.eabi_attribute 24, 1
  10              		.eabi_attribute 25, 1
  11              		.eabi_attribute 26, 1
  12              		.eabi_attribute 30, 2
  13              		.eabi_attribute 34, 1
  14              		.eabi_attribute 18, 4
  15              		.thumb
  16              		.file	"chheap.c"
  17              		.text
  18              	.Ltext0:
  19              		.cfi_sections	.debug_frame
  20              		.section	.text._heap_init,"ax",%progbits
  21              		.align	2
  22              		.p2align 4,,15
  23              		.global	_heap_init
  24              		.thumb
  25              		.thumb_func
  26              		.type	_heap_init, %function
  27              	_heap_init:
  28              	.LFB226:
  29              		.file 1 "../ChibiOS/os/rt/src/chheap.c"
  30              		.loc 1 85 0
  31              		.cfi_startproc
  32              		@ args = 0, pretend = 0, frame = 0
  33              		@ frame_needed = 0, uses_anonymous_args = 0
  34              		@ link register save eliminated.
  35              		.loc 1 87 0
  36 0000 044B     		ldr	r3, .L2
  37 0002 054A     		ldr	r2, .L2+4
  38 0004 1A60     		str	r2, [r3]
  39              		.loc 1 91 0
  40 0006 03F11000 		add	r0, r3, #16
  41              		.loc 1 88 0
  42 000a 0022     		movs	r2, #0
  43 000c 9A60     		str	r2, [r3, #8]
  44              		.loc 1 89 0
  45 000e DA60     		str	r2, [r3, #12]
  46              		.loc 1 91 0
  47 0010 FFF7FEBF 		b	chMtxObjectInit
  48              	.LVL0:
  49              	.L3:
  50              		.align	2
  51              	.L2:
  52 0014 00000000 		.word	.LANCHOR0
  53 0018 00000000 		.word	chCoreAlloc
  54              		.cfi_endproc
  55              	.LFE226:
  56              		.size	_heap_init, .-_heap_init
  57 001c AFF30080 		.section	.text.chHeapObjectInit,"ax",%progbits
ARM GAS  /tmp/ccELqvZ3.s 			page 2


  58              		.align	2
  59              		.p2align 4,,15
  60              		.global	chHeapObjectInit
  61              		.thumb
  62              		.thumb_func
  63              		.type	chHeapObjectInit, %function
  64              	chHeapObjectInit:
  65              	.LFB227:
  66              		.loc 1 108 0
  67              		.cfi_startproc
  68              		@ args = 0, pretend = 0, frame = 0
  69              		@ frame_needed = 0, uses_anonymous_args = 0
  70              		@ link register save eliminated.
  71              	.LVL1:
  72              		.loc 1 113 0
  73 0000 0023     		movs	r3, #0
  74              		.loc 1 117 0
  75 0002 083A     		subs	r2, r2, #8
  76              	.LVL2:
  77              		.loc 1 114 0
  78 0004 8160     		str	r1, [r0, #8]
  79              		.loc 1 113 0
  80 0006 0360     		str	r3, [r0]
  81              	.LVL3:
  82              		.loc 1 115 0
  83 0008 C360     		str	r3, [r0, #12]
  84              		.loc 1 119 0
  85 000a 1030     		adds	r0, r0, #16
  86              	.LVL4:
  87              		.loc 1 117 0
  88 000c 4A60     		str	r2, [r1, #4]
  89              		.loc 1 116 0
  90 000e 0B60     		str	r3, [r1]
  91              		.loc 1 119 0
  92 0010 FFF7FEBF 		b	chMtxObjectInit
  93              	.LVL5:
  94              		.cfi_endproc
  95              	.LFE227:
  96              		.size	chHeapObjectInit, .-chHeapObjectInit
  97 0014 AFF30080 		.section	.text.chHeapAlloc,"ax",%progbits
  97      AFF30080 
  97      AFF30080 
  98              		.align	2
  99              		.p2align 4,,15
 100              		.global	chHeapAlloc
 101              		.thumb
 102              		.thumb_func
 103              		.type	chHeapAlloc, %function
 104              	chHeapAlloc:
 105              	.LFB228:
 106              		.loc 1 141 0
 107              		.cfi_startproc
 108              		@ args = 0, pretend = 0, frame = 0
 109              		@ frame_needed = 0, uses_anonymous_args = 0
 110              	.LVL6:
 111 0000 F8B5     		push	{r3, r4, r5, r6, r7, lr}
 112              		.cfi_def_cfa_offset 24
ARM GAS  /tmp/ccELqvZ3.s 			page 3


 113              		.cfi_offset 3, -24
 114              		.cfi_offset 4, -20
 115              		.cfi_offset 5, -16
 116              		.cfi_offset 6, -12
 117              		.cfi_offset 7, -8
 118              		.cfi_offset 14, -4
 119              		.loc 1 145 0
 120 0002 214E     		ldr	r6, .L21
 121 0004 0028     		cmp	r0, #0
 122 0006 18BF     		it	ne
 123 0008 0646     		movne	r6, r0
 124              	.LVL7:
 125              		.loc 1 150 0
 126 000a 06F11007 		add	r7, r6, #16
 127              		.loc 1 147 0
 128 000e 0731     		adds	r1, r1, #7
 129              	.LVL8:
 130              		.loc 1 150 0
 131 0010 3846     		mov	r0, r7
 132              		.loc 1 147 0
 133 0012 21F00705 		bic	r5, r1, #7
 134              	.LVL9:
 135              		.loc 1 148 0
 136 0016 06F10804 		add	r4, r6, #8
 137              	.LVL10:
 138              		.loc 1 150 0
 139 001a FFF7FEFF 		bl	chMtxLock
 140              	.LVL11:
 141              		.loc 1 151 0
 142 001e 03E0     		b	.L7
 143              	.LVL12:
 144              	.L11:
 145              		.loc 1 153 0
 146 0020 4368     		ldr	r3, [r0, #4]
 147 0022 9D42     		cmp	r5, r3
 148 0024 12D9     		bls	.L20
 149 0026 0446     		mov	r4, r0
 150              	.LVL13:
 151              	.L7:
 152              		.loc 1 151 0
 153 0028 2068     		ldr	r0, [r4]
 154              	.LVL14:
 155 002a 0028     		cmp	r0, #0
 156 002c F8D1     		bne	.L11
 157              		.loc 1 175 0
 158 002e 3846     		mov	r0, r7
 159              	.LVL15:
 160 0030 FFF7FEFF 		bl	chMtxUnlock
 161              	.LVL16:
 162              		.loc 1 179 0
 163 0034 3368     		ldr	r3, [r6]
 164 0036 2BB3     		cbz	r3, .L13
 165              		.loc 1 180 0
 166 0038 05F10800 		add	r0, r5, #8
 167 003c 9847     		blx	r3
 168              	.LVL17:
 169              		.loc 1 181 0
ARM GAS  /tmp/ccELqvZ3.s 			page 4


 170 003e 08B3     		cbz	r0, .L13
 171              		.loc 1 182 0
 172 0040 0660     		str	r6, [r0]
 173              		.loc 1 183 0
 174 0042 4560     		str	r5, [r0, #4]
 175              		.loc 1 184 0
 176 0044 00F10804 		add	r4, r0, #8
 177              	.LVL18:
 178              	.L10:
 179              		.loc 1 191 0
 180 0048 2046     		mov	r0, r4
 181 004a F8BD     		pop	{r3, r4, r5, r6, r7, pc}
 182              	.LVL19:
 183              	.L20:
 184              		.loc 1 154 0
 185 004c 05F10802 		add	r2, r5, #8
 186 0050 9A42     		cmp	r2, r3
 187 0052 09D9     		bls	.L8
 188              		.loc 1 158 0
 189 0054 0368     		ldr	r3, [r0]
 190 0056 2360     		str	r3, [r4]
 191              	.L9:
 192              		.loc 1 168 0
 193 0058 0446     		mov	r4, r0
 194              	.LVL20:
 195              		.loc 1 169 0
 196 005a 3846     		mov	r0, r7
 197              	.LVL21:
 198              		.loc 1 168 0
 199 005c 44F8086B 		str	r6, [r4], #8
 200              	.LVL22:
 201              		.loc 1 169 0
 202 0060 FFF7FEFF 		bl	chMtxUnlock
 203              	.LVL23:
 204              		.loc 1 191 0
 205 0064 2046     		mov	r0, r4
 206 0066 F8BD     		pop	{r3, r4, r5, r6, r7, pc}
 207              	.LVL24:
 208              	.L8:
 209 0068 6FF00701 		mvn	r1, #7
 210 006c 491B     		subs	r1, r1, r5
 211              		.loc 1 162 0
 212 006e 00EB020E 		add	lr, r0, r2
 213              	.LVL25:
 214              		.loc 1 164 0
 215 0072 0B44     		add	r3, r3, r1
 216              		.loc 1 163 0
 217 0074 0168     		ldr	r1, [r0]
 218 0076 8150     		str	r1, [r0, r2]
 219              		.loc 1 164 0
 220 0078 CEF80430 		str	r3, [lr, #4]
 221              		.loc 1 165 0
 222 007c C4F800E0 		str	lr, [r4]
 223              		.loc 1 166 0
 224 0080 4560     		str	r5, [r0, #4]
 225 0082 E9E7     		b	.L9
 226              	.LVL26:
ARM GAS  /tmp/ccELqvZ3.s 			page 5


 227              	.L13:
 228              		.loc 1 190 0
 229 0084 0024     		movs	r4, #0
 230              	.LVL27:
 231 0086 DFE7     		b	.L10
 232              	.L22:
 233              		.align	2
 234              	.L21:
 235 0088 00000000 		.word	.LANCHOR0
 236              		.cfi_endproc
 237              	.LFE228:
 238              		.size	chHeapAlloc, .-chHeapAlloc
 239 008c AFF30080 		.section	.text.chHeapFree,"ax",%progbits
 240              		.align	2
 241              		.p2align 4,,15
 242              		.global	chHeapFree
 243              		.thumb
 244              		.thumb_func
 245              		.type	chHeapFree, %function
 246              	chHeapFree:
 247              	.LFB229:
 248              		.loc 1 204 0
 249              		.cfi_startproc
 250              		@ args = 0, pretend = 0, frame = 0
 251              		@ frame_needed = 0, uses_anonymous_args = 0
 252              	.LVL28:
 253 0000 F8B5     		push	{r3, r4, r5, r6, r7, lr}
 254              		.cfi_def_cfa_offset 24
 255              		.cfi_offset 3, -24
 256              		.cfi_offset 4, -20
 257              		.cfi_offset 5, -16
 258              		.cfi_offset 6, -12
 259              		.cfi_offset 7, -8
 260              		.cfi_offset 14, -4
 261              		.loc 1 211 0
 262 0002 50F8085C 		ldr	r5, [r0, #-8]
 263              		.loc 1 214 0
 264 0006 05F11007 		add	r7, r5, #16
 265              		.loc 1 204 0
 266 000a 0646     		mov	r6, r0
 267              		.loc 1 210 0
 268 000c A0F10804 		sub	r4, r0, #8
 269              	.LVL29:
 270              		.loc 1 212 0
 271 0010 0835     		adds	r5, r5, #8
 272              	.LVL30:
 273              		.loc 1 214 0
 274 0012 3846     		mov	r0, r7
 275              	.LVL31:
 276 0014 FFF7FEFF 		bl	chMtxLock
 277              	.LVL32:
 278              		.loc 1 212 0
 279 0018 2B46     		mov	r3, r5
 280              	.LVL33:
 281              	.L30:
 282              		.loc 1 218 0
 283 001a AB42     		cmp	r3, r5
ARM GAS  /tmp/ccELqvZ3.s 			page 6


 284 001c 04D0     		beq	.L24
 285              	.L36:
 286              		.loc 1 218 0 is_stmt 0 discriminator 2
 287 001e A342     		cmp	r3, r4
 288 0020 02D3     		bcc	.L24
 289 0022 1B68     		ldr	r3, [r3]
 290              	.LVL34:
 291              		.loc 1 218 0
 292 0024 AB42     		cmp	r3, r5
 293 0026 FAD1     		bne	.L36
 294              	.L24:
 295              		.loc 1 219 0 is_stmt 1 discriminator 3
 296 0028 1A68     		ldr	r2, [r3]
 297              		.loc 1 218 0 discriminator 3
 298 002a 1AB1     		cbz	r2, .L26
 299              		.loc 1 219 0
 300 002c 9442     		cmp	r4, r2
 301 002e 01D3     		bcc	.L26
 302 0030 1346     		mov	r3, r2
 303              	.LVL35:
 304              		.loc 1 237 0
 305 0032 F2E7     		b	.L30
 306              	.LVL36:
 307              	.L26:
 308              		.loc 1 224 0
 309 0034 56F8041C 		ldr	r1, [r6, #-4]
 310              		.loc 1 221 0
 311 0038 46F8082C 		str	r2, [r6, #-8]
 312              		.loc 1 222 0
 313 003c 1C60     		str	r4, [r3]
 314              		.loc 1 224 0
 315 003e 01F10802 		add	r2, r1, #8
 316 0042 56F8085C 		ldr	r5, [r6, #-8]
 317              	.LVL37:
 318 0046 A018     		adds	r0, r4, r2
 319 0048 A842     		cmp	r0, r5
 320 004a 0AD0     		beq	.L37
 321              		.loc 1 229 0
 322 004c 5968     		ldr	r1, [r3, #4]
 323 004e 01F10802 		add	r2, r1, #8
 324 0052 1A44     		add	r2, r2, r3
 325 0054 9442     		cmp	r4, r2
 326 0056 12D0     		beq	.L38
 327              	.L29:
 328              		.loc 1 238 0
 329 0058 3846     		mov	r0, r7
 330              		.loc 1 241 0
 331 005a BDE8F840 		pop	{r3, r4, r5, r6, r7, lr}
 332              		.cfi_remember_state
 333              		.cfi_restore 14
 334              		.cfi_restore 7
 335              		.cfi_restore 6
 336              		.cfi_restore 5
 337              		.cfi_restore 4
 338              		.cfi_restore 3
 339              		.cfi_def_cfa_offset 0
 340              	.LVL38:
ARM GAS  /tmp/ccELqvZ3.s 			page 7


 341              		.loc 1 238 0
 342 005e FFF7FEBF 		b	chMtxUnlock
 343              	.LVL39:
 344              	.L37:
 345              		.cfi_restore_state
 346              		.loc 1 226 0
 347 0062 4068     		ldr	r0, [r0, #4]
 348              		.loc 1 227 0
 349 0064 A258     		ldr	r2, [r4, r2]
 350 0066 46F8082C 		str	r2, [r6, #-8]
 351              		.loc 1 226 0
 352 006a 0A18     		adds	r2, r1, r0
 353 006c 0832     		adds	r2, r2, #8
 354 006e 46F8042C 		str	r2, [r6, #-4]
 355              		.loc 1 229 0
 356 0072 5968     		ldr	r1, [r3, #4]
 357 0074 01F10802 		add	r2, r1, #8
 358 0078 1A44     		add	r2, r2, r3
 359 007a 9442     		cmp	r4, r2
 360 007c ECD1     		bne	.L29
 361              	.L38:
 362              		.loc 1 232 0
 363 007e 16E90500 		ldmdb	r6, {r0, r2}
 364              		.loc 1 231 0
 365 0082 0A44     		add	r2, r2, r1
 366 0084 0832     		adds	r2, r2, #8
 367              		.loc 1 232 0
 368 0086 1860     		str	r0, [r3]
 369              		.loc 1 231 0
 370 0088 5A60     		str	r2, [r3, #4]
 371              		.loc 1 238 0
 372 008a 3846     		mov	r0, r7
 373              		.loc 1 241 0
 374 008c BDE8F840 		pop	{r3, r4, r5, r6, r7, lr}
 375              		.cfi_restore 3
 376              		.cfi_restore 4
 377              		.cfi_restore 5
 378              		.cfi_restore 6
 379              		.cfi_restore 7
 380              		.cfi_restore 14
 381              		.cfi_def_cfa_offset 0
 382              	.LVL40:
 383              		.loc 1 238 0
 384 0090 FFF7FEBF 		b	chMtxUnlock
 385              	.LVL41:
 386              		.cfi_endproc
 387              	.LFE229:
 388              		.size	chHeapFree, .-chHeapFree
 389 0094 AFF30080 		.section	.text.chHeapStatus,"ax",%progbits
 389      AFF30080 
 389      AFF30080 
 390              		.align	2
 391              		.p2align 4,,15
 392              		.global	chHeapStatus
 393              		.thumb
 394              		.thumb_func
 395              		.type	chHeapStatus, %function
ARM GAS  /tmp/ccELqvZ3.s 			page 8


 396              	chHeapStatus:
 397              	.LFB230:
 398              		.loc 1 256 0
 399              		.cfi_startproc
 400              		@ args = 0, pretend = 0, frame = 0
 401              		@ frame_needed = 0, uses_anonymous_args = 0
 402              	.LVL42:
 403 0000 70B5     		push	{r4, r5, r6, lr}
 404              		.cfi_def_cfa_offset 16
 405              		.cfi_offset 4, -16
 406              		.cfi_offset 5, -12
 407              		.cfi_offset 6, -8
 408              		.cfi_offset 14, -4
 409              		.loc 1 261 0
 410 0002 0F4C     		ldr	r4, .L50
 411 0004 0028     		cmp	r0, #0
 412 0006 18BF     		it	ne
 413 0008 0446     		movne	r4, r0
 414              	.LVL43:
 415              		.loc 1 264 0
 416 000a 04F11005 		add	r5, r4, #16
 417 000e 2846     		mov	r0, r5
 418              		.loc 1 256 0
 419 0010 0E46     		mov	r6, r1
 420              		.loc 1 264 0
 421 0012 FFF7FEFF 		bl	chMtxLock
 422              	.LVL44:
 423              		.loc 1 266 0
 424 0016 A368     		ldr	r3, [r4, #8]
 425 0018 73B1     		cbz	r3, .L44
 426              		.loc 1 266 0 is_stmt 0 discriminator 3
 427 001a 0022     		movs	r2, #0
 428 001c 1446     		mov	r4, r2
 429              	.LVL45:
 430              	.L42:
 431              		.loc 1 267 0 is_stmt 1 discriminator 3
 432 001e 5868     		ldr	r0, [r3, #4]
 433              		.loc 1 266 0 discriminator 3
 434 0020 1B68     		ldr	r3, [r3]
 435 0022 0134     		adds	r4, r4, #1
 436              	.LVL46:
 437              		.loc 1 267 0 discriminator 3
 438 0024 0244     		add	r2, r2, r0
 439              	.LVL47:
 440              		.loc 1 266 0 discriminator 3
 441 0026 002B     		cmp	r3, #0
 442 0028 F9D1     		bne	.L42
 443              	.LVL48:
 444              	.L41:
 445              		.loc 1 269 0
 446 002a 06B1     		cbz	r6, .L43
 447              		.loc 1 270 0
 448 002c 3260     		str	r2, [r6]
 449              	.L43:
 450              		.loc 1 272 0
 451 002e 2846     		mov	r0, r5
 452 0030 FFF7FEFF 		bl	chMtxUnlock
ARM GAS  /tmp/ccELqvZ3.s 			page 9


 453              	.LVL49:
 454              		.loc 1 275 0
 455 0034 2046     		mov	r0, r4
 456 0036 70BD     		pop	{r4, r5, r6, pc}
 457              	.LVL50:
 458              	.L44:
 459              		.loc 1 265 0
 460 0038 1A46     		mov	r2, r3
 461              		.loc 1 266 0
 462 003a 1C46     		mov	r4, r3
 463              	.LVL51:
 464 003c F5E7     		b	.L41
 465              	.L51:
 466 003e 00BF     		.align	2
 467              	.L50:
 468 0040 00000000 		.word	.LANCHOR0
 469              		.cfi_endproc
 470              	.LFE230:
 471              		.size	chHeapStatus, .-chHeapStatus
 472 0044 AFF30080 		.section	.bss.default_heap,"aw",%nobits
 472      AFF30080 
 472      AFF30080 
 473              		.align	3
 474              		.set	.LANCHOR0,. + 0
 475              		.type	default_heap, %object
 476              		.size	default_heap, 32
 477              	default_heap:
 478 0000 00000000 		.space	32
 478      00000000 
 478      00000000 
 478      00000000 
 478      00000000 
 479              		.text
 480              	.Letext0:
 481              		.file 2 "/l/arm2/gcc-arm-none-eabi-4_9-2014q4/lib/gcc/arm-none-eabi/4.9.3/include/stddef.h"
 482              		.file 3 "/l/arm2/gcc-arm-none-eabi-4_9-2014q4/arm-none-eabi/include/machine/_default_types.h"
 483              		.file 4 "/l/arm2/gcc-arm-none-eabi-4_9-2014q4/arm-none-eabi/include/stdint.h"
 484              		.file 5 "../ChibiOS/os/rt/ports/ARMCMx/compilers/GCC/chtypes.h"
 485              		.file 6 "../ChibiOS/os/rt/include/chsystypes.h"
 486              		.file 7 "../ChibiOS/os/rt/include/chschd.h"
 487              		.file 8 "../ChibiOS/os/rt/ports/ARMCMx/chcore.h"
 488              		.file 9 "../ChibiOS/os/rt/ports/ARMCMx/chcore_v7m.h"
 489              		.file 10 "../ChibiOS/os/rt/include/chtm.h"
 490              		.file 11 "../ChibiOS/os/rt/include/chmtx.h"
 491              		.file 12 "../ChibiOS/os/rt/include/chmemcore.h"
 492              		.file 13 "../ChibiOS/os/rt/include/chheap.h"
 493              		.file 14 "../ChibiOS/os/ext/CMSIS/include/core_cm4.h"