ARM GAS  /tmp/ccELqvZ3.s 			page 1


   1              		.syntax unified
   2              		.cpu cortex-m4
   3              		.eabi_attribute 27, 3
   4              		.eabi_attribute 28, 1
   5              		.fpu fpv4-sp-d16
   6              		.eabi_attribute 20, 1
   7              		.eabi_attribute 21, 1
   8              		.eabi_attribute 23, 3
   9              		.eabi_attribute 24, 1
  10              		.eabi_attribute 25, 1
  11              		.eabi_attribute 26, 1
  12              		.eabi_attribute 30, 2
  13              		.eabi_attribute 34, 1
  14              		.eabi_attribute 18, 4
  15              		.thumb
  16              		.file	"chheap.c"
  17              		.text
  18              	.Ltext0:
  19              		.cfi_sections	.debug_frame
  20              		.section	.text._heap_init,"ax",%progbits
  21              		.align	2
  22              		.p2align 4,,15
  23              		.global	_heap_init
  24              		.thumb
  25              		.thumb_func
  26              		.type	_heap_init, %function
  27              	_heap_init:
  28              	.LFB226:
  29              		.file 1 "../ChibiOS/os/rt/src/chheap.c"
  30              		.loc 1 85 0
  31              		.cfi_startproc
  32              		@ args = 0, pretend = 0, frame = 0
  33              		@ frame_needed = 0, uses_anonymous_args = 0
  34              		@ link register save eliminated.
  35              		.loc 1 87 0
  36 0000 044B     		ldr	r3, .L2
  37 0002 054A     		ldr	r2, .L2+4
  38 0004 1A60     		str	r2, [r3]
  39              		.loc 1 91 0
  40 0006 03F11000 		add	r0, r3, #16
  41              		.loc 1 88 0
  42 000a 0022     		movs	r2, #0
  43 000c 9A60     		str	r2, [r3, #8]
  44              		.loc 1 89 0
  45 000e DA60     		str	r2, [r3, #12]
  46              		.loc 1 91 0
  47 0010 FFF7FEBF 		b	chMtxObjectInit
  48              	.LVL0:
  49              	.L3:
  50              		.align	2
  51              	.L2:
  52 0014 00000000 		.word	.LANCHOR0
  53 0018 00000000 		.word	chCoreAlloc
  54              		.cfi_endproc
  55              	.LFE226:
  56              		.size	_heap_init, .-_heap_init
  57 001c AFF30080 		.section	.text.chHeapObjectInit,"ax",%progbits
ARM GAS  /tmp/ccELqvZ3.s 			page 2


  58              		.align	2
  59              		.p2align 4,,15
  60              		.global	chHeapObjectInit
  61              		.thumb
  62              		.thumb_func
  63              		.type	chHeapObjectInit, %function
  64              	chHeapObjectInit:
  65              	.LFB227:
  66              		.loc 1 108 0
  67              		.cfi_startproc
  68              		@ args = 0, pretend = 0, frame = 0
  69              		@ frame_needed = 0, uses_anonymous_args = 0
  70              		@ link register save eliminated.
  71              	.LVL1:
  72              		.loc 1 113 0
  73 0000 0023     		movs	r3, #0
  74              		.loc 1 117 0
  75 0002 083A     		subs	r2, r2, #8
  76              	.LVL2:
  77              		.loc 1 114 0
  78 0004 8160     		str	r1, [r0, #8]
  79              		.loc 1 113 0
  80 0006 0360     		str	r3, [r0]
  81              	.LVL3:
  82              		.loc 1 115 0
  83 0008 C360     		str	r3, [r0, #12]
  84              		.loc 1 119 0
  85 000a 1030     		adds	r0, r0, #16
  86              	.LVL4:
  87              		.loc 1 117 0
  88 000c 4A60     		str	r2, [r1, #4]
  89              		.loc 1 116 0
  90 000e 0B60     		str	r3, [r1]
  91              		.loc 1 119 0
  92 0010 FFF7FEBF 		b	chMtxObjectInit
  93              	.LVL5:
  94              		.cfi_endproc
  95              	.LFE227:
  96              		.size	chHeapObjectInit, .-chHeapObjectInit
  97 0014 AFF30080 		.section	.text.chHeapAlloc,"ax",%progbits
  97      AFF30080 
  97      AFF30080 
  98              		.align	2
  99              		.p2align 4,,15
 100              		.global	chHeapAlloc
 101              		.thumb
 102              		.thumb_func
 103              		.type	chHeapAlloc, %function
 104              	chHeapAlloc:
 105              	.LFB228:
 106              		.loc 1 141 0
 107              		.cfi_startproc
 108              		@ args = 0, pretend = 0, frame = 0
 109              		@ frame_needed = 0, uses_anonymous_args = 0
 110              	.LVL6:
 111 0000 F8B5     		push	{r3, r4, r5, r6, r7, lr}
 112              		.cfi_def_cfa_offset 24
ARM GAS  /tmp/ccELqvZ3.s 			page 3


 113              		.cfi_offset 3, -24
 114              		.cfi_offset 4, -20
 115              		.cfi_offset 5, -16
 116              		.cfi_offset 6, -12
 117              		.cfi_offset 7, -8
 118              		.cfi_offset 14, -4
 119              		.loc 1 145 0
 120 0002 214E     		ldr	r6, .L21
 121 0004 0028     		cmp	r0, #0
 122 0006 18BF     		it	ne
 123 0008 0646     		movne	r6, r0
 124              	.LVL7:
 125              		.loc 1 150 0
 126 000a 06F11007 		add	r7, r6, #16
 127              		.loc 1 147 0
 128 000e 0731     		adds	r1, r1, #7
 129              	.LVL8:
 130              		.loc 1 150 0
 131 0010 3846     		mov	r0, r7
 132              		.loc 1 147 0
 133 0012 21F00705 		bic	r5, r1, #7
 134              	.LVL9:
 135              		.loc 1 148 0
 136 0016 06F10804 		add	r4, r6, #8
 137              	.LVL10:
 138              		.loc 1 150 0
 139 001a FFF7FEFF 		bl	chMtxLock
 140              	.LVL11:
 141              		.loc 1 151 0
 142 001e 03E0     		b	.L7
 143              	.LVL12:
 144              	.L11:
 145              		.loc 1 153 0
 146 0020 4368     		ldr	r3, [r0, #4]
 147 0022 9D42     		cmp	r5, r3
 148 0024 12D9     		bls	.L20
 149 0026 0446     		mov	r4, r0
 150              	.LVL13:
 151              	.L7:
 152              		.loc 1 151 0
 153 0028 2068     		ldr	r0, [r4]
 154              	.LVL14:
 155 002a 0028     		cmp	r0, #0
 156 002c F8D1     		bne	.L11
 157              		.loc 1 175 0
 158 002e 3846     		mov	r0, r7
 159              	.LVL15:
 160 0030 FFF7FEFF 		bl	chMtxUnlock
 161              	.LVL16:
 162              		.loc 1 179 0
 163 0034 3368     		ldr	r3, [r6]
 164 0036 2BB3     		cbz	r3, .L13
 165              		.loc 1 180 0
 166 0038 05F10800 		add	r0, r5, #8
 167 003c 9847     		blx	r3
 168              	.LVL17:
 169              		.loc 1 181 0
ARM GAS  /tmp/ccELqvZ3.s 			page 4


 170 003e 08B3     		cbz	r0, .L13
 171              		.loc 1 182 0
 172 0040 0660     		str	r6, [r0]
 173              		.loc 1 183 0
 174 0042 4560     		str	r5, [r0, #4]
 175              		.loc 1 184 0
 176 0044 00F10804 		add	r4, r0, #8
 177              	.LVL18:
 178              	.L10:
 179              		.loc 1 191 0
 180 0048 2046     		mov	r0, r4
 181 004a F8BD     		pop	{r3, r4, r5, r6, r7, pc}
 182              	.LVL19:
 183              	.L20:
 184              		.loc 1 154 0
 185 004c 05F10802 		add	r2, r5, #8
 186 0050 9A42     		cmp	r2, r3
 187 0052 09D9     		bls	.L8
 188              		.loc 1 158 0
 189 0054 0368     		ldr	r3, [r0]
 190 0056 2360     		str	r3, [r4]
 191              	.L9:
 192              		.loc 1 168 0
 193 0058 0446     		mov	r4, r0
 194              	.LVL20:
 195              		.loc 1 169 0
 196 005a 3846     		mov	r0, r7
 197              	.LVL21:
 198              		.loc 1 168 0
 199 005c 44F8086B 		str	r6, [r4], #8
 200              	.LVL22:
 201              		.loc 1 169 0
 202 0060 FFF7FEFF 		bl	chMtxUnlock
 203              	.LVL23:
 204              		.loc 1 191 0
 205 0064 2046     		mov	r0, r4
 206 0066 F8BD     		pop	{r3, r4, r5, r6, r7, pc}
 207              	.LVL24:
 208              	.L8:
 209 0068 6FF00701 		mvn	r1, #7
 210 006c 491B     		subs	r1, r1, r5
 211              		.loc 1 162 0
 212 006e 00EB020E 		add	lr, r0, r2
 213              	.LVL25:
 214              		.loc 1 164 0
 215 0072 0B44     		add	r3, r3, r1
 216              		.loc 1 163 0
 217 0074 0168     		ldr	r1, [r0]
 218 0076 8150     		str	r1, [r0, r2]
 219              		.loc 1 164 0
 220 0078 CEF80430 		str	r3, [lr, #4]
 221              		.loc 1 165 0
 222 007c C4F800E0 		str	lr, [r4]
 223              		.loc 1 166 0
 224 0080 4560     		str	r5, [r0, #4]
 225 0082 E9E7     		b	.L9
 226              	.LVL26:
ARM GAS  /tmp/ccELqvZ3.s 			page 5


 227              	.L13:
 228              		.loc 1 190 0
 229 0084 0024     		movs	r4, #0
 230              	.LVL27:
 231 0086 DFE7     		b	.L10
 232              	.L22:
 233              		.align	2
 234              	.L21:
 235 0088 00000000 		.word	.LANCHOR0
 236              		.cfi_endproc
 237              	.LFE228:
 238              		.size	chHeapAlloc, .-chHeapAlloc
 239 008c AFF30080 		.section	.text.chHeapFree,"ax",%progbits
 240              		.align	2
 241              		.p2align 4,,15
 242              		.global	chHeapFree
 243              		.thumb
 244              		.thumb_func
 245              		.type	chHeapFree, %function
 246              	chHeapFree:
 247              	.LFB229:
 248              		.loc 1 204 0
 249              		.cfi_startproc
 250              		@ args = 0, pretend = 0, frame = 0
 251              		@ frame_needed = 0, uses_anonymous_args = 0
 252              	.LVL28:
 253 0000 F8B5     		push	{r3, r4, r5, r6, r7, lr}
 254              		.cfi_def_cfa_offset 24
 255              		.cfi_offset 3, -24
 256              		.cfi_offset 4, -20
 257              		.cfi_offset 5, -16
 258              		.cfi_offset 6, -12
 259              		.cfi_offset 7, -8
 260              		.cfi_offset 14, -4
 261              		.loc 1 211 0
 262 0002 50F8085C 		ldr	r5, [r0, #-8]
 263              		.loc 1 214 0
 264 0006 05F11007 		add	r7, r5, #16
 265              		.loc 1 204 0
 266 000a 0646     		mov	r6, r0
 267              		.loc 1 210 0
 268 000c A0F10804 		sub	r4, r0, #8
 269              	.LVL29:
 270              		.loc 1 212 0
 271 0010 0835     		adds	r5, r5, #8
 272              	.LVL30:
 273              		.loc 1 214 0
 274 0012 3846     		mov	r0, r7
 275              	.LVL31:
 276 0014 FFF7FEFF 		bl	chMtxLock
 277              	.LVL32:
 278              		.loc 1 212 0
 279 0018 2B46     		mov	r3, r5
 280              	.LVL33:
 281              	.L30:
 282              		.loc 1 218 0
 283 001a AB42     		cmp	r3, r5
ARM GAS  /tmp/ccELqvZ3.s 			page 6


 284 001c 04D0     		beq	.L24
 285              	.L36:
 286              		.loc 1 218 0 is_stmt 0 discriminator 2
 287 001e A342     		cmp	r3, r4
 288 0020 02D3     		bcc	.L24
 289 0022 1B68     		ldr	r3, [r3]
 290              	.LVL34:
 291              		.loc 1 218 0
 292 0024 AB42     		cmp	r3, r5
 293 0026 FAD1     		bne	.L36
 294              	.L24:
 295              		.loc 1 219 0 is_stmt 1 discriminator 3
 296 0028 1A68     		ldr	r2, [r3]
 297              		.loc 1 218 0 discriminator 3
 298 002a 1AB1     		cbz	r2, .L26
 299              		.loc 1 219 0
 300 002c 9442     		cmp	r4, r2
 301 002e 01D3     		bcc	.L26
 302 0030 1346     		mov	r3, r2
 303              	.LVL35:
 304              		.loc 1 237 0
 305 0032 F2E7     		b	.L30
 306              	.LVL36:
 307              	.L26:
 308              		.loc 1 224 0
 309 0034 56F8041C 		ldr	r1, [r6, #-4]
 310              		.loc 1 221 0
 311 0038 46F8082C 		str	r2, [r6, #-8]
 312              		.loc 1 222 0
 313 003c 1C60     		str	r4, [r3]
 314              		.loc 1 224 0
 315 003e 01F10802 		add	r2, r1, #8
 316 0042 56F8085C 		ldr	r5, [r6, #-8]
 317              	.LVL37:
 318 0046 A018     		adds	r0, r4, r2
 319 0048 A842     		cmp	r0, r5
 320 004a 0AD0     		beq	.L37
 321              		.loc 1 229 0
 322 004c 5968     		ldr	r1, [r3, #4]
 323 004e 01F10802 		add	r2, r1, #8
 324 0052 1A44     		add	r2, r2, r3
 325 0054 9442     		cmp	r4, r2
 326 0056 12D0     		beq	.L38
 327              	.L29:
 328              		.loc 1 238 0
 329 0058 3846     		mov	r0, r7
 330              		.loc 1 241 0
 331 005a BDE8F840 		pop	{r3, r4, r5, r6, r7, lr}
 332              		.cfi_remember_state
 333              		.cfi_restore 14
 334              		.cfi_restore 7
 335              		.cfi_restore 6
 336              		.cfi_restore 5
 337              		.cfi_restore 4
 338              		.cfi_restore 3
 339              		.cfi_def_cfa_offset 0
 340              	.LVL38:
ARM GAS  /tmp/ccELqvZ3.s 			page 7


 341              		.loc 1 238 0
 342 005e FFF7FEBF 		b	chMtxUnlock
 343              	.LVL39:
 344              	.L37:
 345              		.cfi_restore_state
 346              		.loc 1 226 0
 347 0062 4068     		ldr	r0, [r0, #4]
 348              		.loc 1 227 0
 349 0064 A258     		ldr	r2, [r4, r2]
 350 0066 46F8082C 		str	r2, [r6, #-8]
 351              		.loc 1 226 0
 352 006a 0A18     		adds	r2, r1, r0
 353 006c 0832     		adds	r2, r2, #8
 354 006e 46F8042C 		str	r2, [r6, #-4]
 355              		.loc 1 229 0
 356 0072 5968     		ldr	r1, [r3, #4]
 357 0074 01F10802 		add	r2, r1, #8
 358 0078 1A44     		add	r2, r2, r3
 359 007a 9442     		cmp	r4, r2
 360 007c ECD1     		bne	.L29
 361              	.L38:
 362              		.loc 1 232 0
 363 007e 16E90500 		ldmdb	r6, {r0, r2}
 364              		.loc 1 231 0
 365 0082 0A44     		add	r2, r2, r1
 366 0084 0832     		adds	r2, r2, #8
 367              		.loc 1 232 0
 368 0086 1860     		str	r0, [r3]
 369              		.loc 1 231 0
 370 0088 5A60     		str	r2, [r3, #4]
 371              		.loc 1 238 0
 372 008a 3846     		mov	r0, r7
 373              		.loc 1 241 0
 374 008c BDE8F840 		pop	{r3, r4, r5, r6, r7, lr}
 375              		.cfi_restore 3
 376              		.cfi_restore 4
 377              		.cfi_restore 5
 378              		.cfi_restore 6
 379              		.cfi_restore 7
 380              		.cfi_restore 14
 381              		.cfi_def_cfa_offset 0
 382              	.LVL40:
 383              		.loc 1 238 0
 384 0090 FFF7FEBF 		b	chMtxUnlock
 385              	.LVL41:
 386              		.cfi_endproc
 387              	.LFE229:
 388              		.size	chHeapFree, .-chHeapFree
 389 0094 AFF30080 		.section	.text.chHeapStatus,"ax",%progbits
 389      AFF30080 
 389      AFF30080 
 390              		.align	2
 391              		.p2align 4,,15
 392              		.global	chHeapStatus
 393              		.thumb
 394              		.thumb_func
 395              		.type	chHeapStatus, %function
ARM GAS  /tmp/ccELqvZ3.s 			page 8


 396              	chHeapStatus:
 397              	.LFB230:
 398              		.loc 1 256 0
 399              		.cfi_startproc
 400              		@ args = 0, pretend = 0, frame = 0
 401              		@ frame_needed = 0, uses_anonymous_args = 0
 402              	.LVL42:
 403 0000 70B5     		push	{r4, r5, r6, lr}
 404              		.cfi_def_cfa_offset 16
 405              		.cfi_offset 4, -16
 406              		.cfi_offset 5, -12
 407              		.cfi_offset 6, -8
 408              		.cfi_offset 14, -4
 409              		.loc 1 261 0
 410 0002 0F4C     		ldr	r4, .L50
 411 0004 0028     		cmp	r0, #0
 412 0006 18BF     		it	ne
 413 0008 0446     		movne	r4, r0
 414              	.LVL43:
 415              		.loc 1 264 0
 416 000a 04F11005 		add	r5, r4, #16
 417 000e 2846     		mov	r0, r5
 418              		.loc 1 256 0
 419 0010 0E46     		mov	r6, r1
 420              		.loc 1 264 0
 421 0012 FFF7FEFF 		bl	chMtxLock
 422              	.LVL44:
 423              		.loc 1 266 0
 424 0016 A368     		ldr	r3, [r4, #8]
 425 0018 73B1     		cbz	r3, .L44
 426              		.loc 1 266 0 is_stmt 0 discriminator 3
 427 001a 0022     		movs	r2, #0
 428 001c 1446     		mov	r4, r2
 429              	.LVL45:
 430              	.L42:
 431              		.loc 1 267 0 is_stmt 1 discriminator 3
 432 001e 5868     		ldr	r0, [r3, #4]
 433              		.loc 1 266 0 discriminator 3
 434 0020 1B68     		ldr	r3, [r3]
 435 0022 0134     		adds	r4, r4, #1
 436              	.LVL46:
 437              		.loc 1 267 0 discriminator 3
 438 0024 0244     		add	r2, r2, r0
 439              	.LVL47:
 440              		.loc 1 266 0 discriminator 3
 441 0026 002B     		cmp	r3, #0
 442 0028 F9D1     		bne	.L42
 443              	.LVL48:
 444              	.L41:
 445              		.loc 1 269 0
 446 002a 06B1     		cbz	r6, .L43
 447              		.loc 1 270 0
 448 002c 3260     		str	r2, [r6]
 449              	.L43:
 450              		.loc 1 272 0
 451 002e 2846     		mov	r0, r5
 452 0030 FFF7FEFF 		bl	chMtxUnlock
ARM GAS  /tmp/ccELqvZ3.s 			page 9


 453              	.LVL49:
 454              		.loc 1 275 0
 455 0034 2046     		mov	r0, r4
 456 0036 70BD     		pop	{r4, r5, r6, pc}
 457              	.LVL50:
 458              	.L44:
 459              		.loc 1 265 0
 460 0038 1A46     		mov	r2, r3
 461              		.loc 1 266 0
 462 003a 1C46     		mov	r4, r3
 463              	.LVL51:
 464 003c F5E7     		b	.L41
 465              	.L51:
 466 003e 00BF     		.align	2
 467              	.L50:
 468 0040 00000000 		.word	.LANCHOR0
 469              		.cfi_endproc
 470              	.LFE230:
 471              		.size	chHeapStatus, .-chHeapStatus
 472 0044 AFF30080 		.section	.bss.default_heap,"aw",%nobits
 472      AFF30080 
 472      AFF30080 
 473              		.align	3
 474              		.set	.LANCHOR0,. + 0
 475              		.type	default_heap, %object
 476              		.size	default_heap, 32
 477              	default_heap:
 478 0000 00000000 		.space	32
 478      00000000 
 478      00000000 
 478      00000000 
 478      00000000 
 479              		.text
 480              	.Letext0:
 481              		.file 2 "/l/arm2/gcc-arm-none-eabi-4_9-2014q4/lib/gcc/arm-none-eabi/4.9.3/include/stddef.h"
 482              		.file 3 "/l/arm2/gcc-arm-none-eabi-4_9-2014q4/arm-none-eabi/include/machine/_default_types.h"
 483              		.file 4 "/l/arm2/gcc-arm-none-eabi-4_9-2014q4/arm-none-eabi/include/stdint.h"
 484              		.file 5 "../ChibiOS/os/rt/ports/ARMCMx/compilers/GCC/chtypes.h"
 485              		.file 6 "../ChibiOS/os/rt/include/chsystypes.h"
 486              		.file 7 "../ChibiOS/os/rt/include/chschd.h"
 487              		.file 8 "../ChibiOS/os/rt/ports/ARMCMx/chcore.h"
 488              		.file 9 "../ChibiOS/os/rt/ports/ARMCMx/chcore_v7m.h"
 489              		.file 10 "../ChibiOS/os/rt/include/chtm.h"
 490              		.file 11 "../ChibiOS/os/rt/include/chmtx.h"
 491              		.file 12 "../ChibiOS/os/rt/include/chmemcore.h"
 492              		.file 13 "../ChibiOS/os/rt/include/chheap.h"
 493              		.file 14 "../ChibiOS/os/ext/CMSIS/include/core_cm4.h"
 494              		.section	.debug_info,"",%progbits
 495              	.Ldebug_info0:
 496 0000 130A0000 		.4byte	0xa13
 497 0004 0400     		.2byte	0x4
 498 0006 00000000 		.4byte	.Ldebug_abbrev0
 499 000a 04       		.byte	0x4
 500 000b 01       		.uleb128 0x1
 501 000c 69030000 		.4byte	.LASF116
 502 0010 01       		.byte	0x1
 503 0011 84010000 		.4byte	.LASF117
ARM GAS  /tmp/ccELqvZ3.s 			page 10


 504 0015 D0040000 		.4byte	.LASF118
 505 0019 00000000 		.4byte	.Ldebug_ranges0+0
 506 001d 00000000 		.4byte	0
 507 0021 00000000 		.4byte	.Ldebug_line0
 508 0025 02       		.uleb128 0x2
 509 0026 04       		.byte	0x4
 510 0027 05       		.byte	0x5
 511 0028 696E7400 		.ascii	"int\000"
 512 002c 03       		.uleb128 0x3
 513 002d 0D000000 		.4byte	.LASF2
 514 0031 02       		.byte	0x2
 515 0032 D4       		.byte	0xd4
 516 0033 37000000 		.4byte	0x37
 517 0037 04       		.uleb128 0x4
 518 0038 04       		.byte	0x4
 519 0039 07       		.byte	0x7
 520 003a A2010000 		.4byte	.LASF0
 521 003e 04       		.uleb128 0x4
 522 003f 01       		.byte	0x1
 523 0040 06       		.byte	0x6
 524 0041 DD000000 		.4byte	.LASF1
 525 0045 03       		.uleb128 0x3
 526 0046 29000000 		.4byte	.LASF3
 527 004a 03       		.byte	0x3
 528 004b 1D       		.byte	0x1d
 529 004c 50000000 		.4byte	0x50
 530 0050 04       		.uleb128 0x4
 531 0051 01       		.byte	0x1
 532 0052 08       		.byte	0x8
 533 0053 1E030000 		.4byte	.LASF4
 534 0057 04       		.uleb128 0x4
 535 0058 02       		.byte	0x2
 536 0059 05       		.byte	0x5
 537 005a 42030000 		.4byte	.LASF5
 538 005e 04       		.uleb128 0x4
 539 005f 02       		.byte	0x2
 540 0060 07       		.byte	0x7
 541 0061 CB010000 		.4byte	.LASF6
 542 0065 03       		.uleb128 0x3
 543 0066 27020000 		.4byte	.LASF7
 544 006a 03       		.byte	0x3
 545 006b 3F       		.byte	0x3f
 546 006c 70000000 		.4byte	0x70
 547 0070 04       		.uleb128 0x4
 548 0071 04       		.byte	0x4
 549 0072 05       		.byte	0x5
 550 0073 1B010000 		.4byte	.LASF8
 551 0077 03       		.uleb128 0x3
 552 0078 51050000 		.4byte	.LASF9
 553 007c 03       		.byte	0x3
 554 007d 41       		.byte	0x41
 555 007e 82000000 		.4byte	0x82
 556 0082 04       		.uleb128 0x4
 557 0083 04       		.byte	0x4
 558 0084 07       		.byte	0x7
 559 0085 F2040000 		.4byte	.LASF10
 560 0089 04       		.uleb128 0x4
ARM GAS  /tmp/ccELqvZ3.s 			page 11


 561 008a 08       		.byte	0x8
 562 008b 05       		.byte	0x5
 563 008c 5C010000 		.4byte	.LASF11
 564 0090 03       		.uleb128 0x3
 565 0091 BE020000 		.4byte	.LASF12
 566 0095 03       		.byte	0x3
 567 0096 5B       		.byte	0x5b
 568 0097 9B000000 		.4byte	0x9b
 569 009b 04       		.uleb128 0x4
 570 009c 08       		.byte	0x8
 571 009d 07       		.byte	0x7
 572 009e 5B000000 		.4byte	.LASF13
 573 00a2 03       		.uleb128 0x3
 574 00a3 B2050000 		.4byte	.LASF14
 575 00a7 04       		.byte	0x4
 576 00a8 15       		.byte	0x15
 577 00a9 45000000 		.4byte	0x45
 578 00ad 03       		.uleb128 0x3
 579 00ae 16030000 		.4byte	.LASF15
 580 00b2 04       		.byte	0x4
 581 00b3 2C       		.byte	0x2c
 582 00b4 65000000 		.4byte	0x65
 583 00b8 03       		.uleb128 0x3
 584 00b9 AA040000 		.4byte	.LASF16
 585 00bd 04       		.byte	0x4
 586 00be 2D       		.byte	0x2d
 587 00bf 77000000 		.4byte	0x77
 588 00c3 03       		.uleb128 0x3
 589 00c4 20000000 		.4byte	.LASF17
 590 00c8 04       		.byte	0x4
 591 00c9 39       		.byte	0x39
 592 00ca 90000000 		.4byte	0x90
 593 00ce 05       		.uleb128 0x5
 594 00cf AD000000 		.4byte	0xad
 595 00d3 03       		.uleb128 0x3
 596 00d4 86050000 		.4byte	.LASF18
 597 00d8 05       		.byte	0x5
 598 00d9 45       		.byte	0x45
 599 00da B8000000 		.4byte	0xb8
 600 00de 03       		.uleb128 0x3
 601 00df 05020000 		.4byte	.LASF19
 602 00e3 05       		.byte	0x5
 603 00e4 48       		.byte	0x48
 604 00e5 A2000000 		.4byte	0xa2
 605 00e9 03       		.uleb128 0x3
 606 00ea 24010000 		.4byte	.LASF20
 607 00ee 05       		.byte	0x5
 608 00ef 49       		.byte	0x49
 609 00f0 A2000000 		.4byte	0xa2
 610 00f4 03       		.uleb128 0x3
 611 00f5 C9020000 		.4byte	.LASF21
 612 00f9 05       		.byte	0x5
 613 00fa 4A       		.byte	0x4a
 614 00fb A2000000 		.4byte	0xa2
 615 00ff 03       		.uleb128 0x3
 616 0100 E8020000 		.4byte	.LASF22
 617 0104 05       		.byte	0x5
ARM GAS  /tmp/ccELqvZ3.s 			page 12


 618 0105 4C       		.byte	0x4c
 619 0106 B8000000 		.4byte	0xb8
 620 010a 03       		.uleb128 0x3
 621 010b F3010000 		.4byte	.LASF23
 622 010f 05       		.byte	0x5
 623 0110 4D       		.byte	0x4d
 624 0111 AD000000 		.4byte	0xad
 625 0115 03       		.uleb128 0x3
 626 0116 1B020000 		.4byte	.LASF24
 627 011a 05       		.byte	0x5
 628 011b 4F       		.byte	0x4f
 629 011c B8000000 		.4byte	0xb8
 630 0120 03       		.uleb128 0x3
 631 0121 33050000 		.4byte	.LASF25
 632 0125 06       		.byte	0x6
 633 0126 33       		.byte	0x33
 634 0127 B8000000 		.4byte	0xb8
 635 012b 03       		.uleb128 0x3
 636 012c 16050000 		.4byte	.LASF26
 637 0130 06       		.byte	0x6
 638 0131 3F       		.byte	0x3f
 639 0132 36010000 		.4byte	0x136
 640 0136 06       		.uleb128 0x6
 641 0137 DE010000 		.4byte	.LASF45
 642 013b 44       		.byte	0x44
 643 013c 07       		.byte	0x7
 644 013d BE       		.byte	0xbe
 645 013e 23020000 		.4byte	0x223
 646 0142 07       		.uleb128 0x7
 647 0143 62030000 		.4byte	.LASF27
 648 0147 07       		.byte	0x7
 649 0148 BF       		.byte	0xbf
 650 0149 CD050000 		.4byte	0x5cd
 651 014d 00       		.byte	0
 652 014e 07       		.uleb128 0x7
 653 014f E1020000 		.4byte	.LASF28
 654 0153 07       		.byte	0x7
 655 0154 C1       		.byte	0xc1
 656 0155 CD050000 		.4byte	0x5cd
 657 0159 04       		.byte	0x4
 658 015a 07       		.uleb128 0x7
 659 015b C2000000 		.4byte	.LASF29
 660 015f 07       		.byte	0x7
 661 0160 C3       		.byte	0xc3
 662 0161 FF000000 		.4byte	0xff
 663 0165 08       		.byte	0x8
 664 0166 07       		.uleb128 0x7
 665 0167 FB050000 		.4byte	.LASF30
 666 016b 07       		.byte	0x7
 667 016c C4       		.byte	0xc4
 668 016d 4D040000 		.4byte	0x44d
 669 0171 0C       		.byte	0xc
 670 0172 07       		.uleb128 0x7
 671 0173 3B010000 		.4byte	.LASF31
 672 0177 07       		.byte	0x7
 673 0178 C6       		.byte	0xc6
 674 0179 CD050000 		.4byte	0x5cd
ARM GAS  /tmp/ccELqvZ3.s 			page 13


 675 017d 10       		.byte	0x10
 676 017e 07       		.uleb128 0x7
 677 017f 8D020000 		.4byte	.LASF32
 678 0183 07       		.byte	0x7
 679 0184 C7       		.byte	0xc7
 680 0185 CD050000 		.4byte	0x5cd
 681 0189 14       		.byte	0x14
 682 018a 07       		.uleb128 0x7
 683 018b D2050000 		.4byte	.LASF33
 684 018f 07       		.byte	0x7
 685 0190 CE       		.byte	0xce
 686 0191 0B060000 		.4byte	0x60b
 687 0195 18       		.byte	0x18
 688 0196 07       		.uleb128 0x7
 689 0197 4C030000 		.4byte	.LASF34
 690 019b 07       		.byte	0x7
 691 019c D9       		.byte	0xd9
 692 019d E9000000 		.4byte	0xe9
 693 01a1 1C       		.byte	0x1c
 694 01a2 07       		.uleb128 0x7
 695 01a3 82040000 		.4byte	.LASF35
 696 01a7 07       		.byte	0x7
 697 01a8 DD       		.byte	0xdd
 698 01a9 DE000000 		.4byte	0xde
 699 01ad 1D       		.byte	0x1d
 700 01ae 07       		.uleb128 0x7
 701 01af A5050000 		.4byte	.LASF36
 702 01b3 07       		.byte	0x7
 703 01b4 E2       		.byte	0xe2
 704 01b5 F4000000 		.4byte	0xf4
 705 01b9 1E       		.byte	0x1e
 706 01ba 08       		.uleb128 0x8
 707 01bb 705F7500 		.ascii	"p_u\000"
 708 01bf 07       		.byte	0x7
 709 01c0 1401     		.2byte	0x114
 710 01c2 D3050000 		.4byte	0x5d3
 711 01c6 20       		.byte	0x20
 712 01c7 09       		.uleb128 0x9
 713 01c8 4D020000 		.4byte	.LASF37
 714 01cc 07       		.byte	0x7
 715 01cd 1901     		.2byte	0x119
 716 01cf 23020000 		.4byte	0x223
 717 01d3 24       		.byte	0x24
 718 01d4 09       		.uleb128 0x9
 719 01d5 C0010000 		.4byte	.LASF38
 720 01d9 07       		.byte	0x7
 721 01da 1F01     		.2byte	0x11f
 722 01dc 47020000 		.4byte	0x247
 723 01e0 28       		.byte	0x28
 724 01e1 09       		.uleb128 0x9
 725 01e2 ED050000 		.4byte	.LASF39
 726 01e6 07       		.byte	0x7
 727 01e7 2301     		.2byte	0x123
 728 01e9 0A010000 		.4byte	0x10a
 729 01ed 30       		.byte	0x30
 730 01ee 09       		.uleb128 0x9
 731 01ef 9F040000 		.4byte	.LASF40
ARM GAS  /tmp/ccELqvZ3.s 			page 14


 732 01f3 07       		.byte	0x7
 733 01f4 2901     		.2byte	0x129
 734 01f6 15010000 		.4byte	0x115
 735 01fa 34       		.byte	0x34
 736 01fb 09       		.uleb128 0x9
 737 01fc 38030000 		.4byte	.LASF41
 738 0200 07       		.byte	0x7
 739 0201 3001     		.2byte	0x130
 740 0203 4E060000 		.4byte	0x64e
 741 0207 38       		.byte	0x38
 742 0208 09       		.uleb128 0x9
 743 0209 3D050000 		.4byte	.LASF42
 744 020d 07       		.byte	0x7
 745 020e 3401     		.2byte	0x134
 746 0210 FF000000 		.4byte	0xff
 747 0214 3C       		.byte	0x3c
 748 0215 09       		.uleb128 0x9
 749 0216 EF000000 		.4byte	.LASF43
 750 021a 07       		.byte	0x7
 751 021b 3A01     		.2byte	0x13a
 752 021d FA020000 		.4byte	0x2fa
 753 0221 40       		.byte	0x40
 754 0222 00       		.byte	0
 755 0223 03       		.uleb128 0x3
 756 0224 DE050000 		.4byte	.LASF44
 757 0228 06       		.byte	0x6
 758 0229 44       		.byte	0x44
 759 022a 2E020000 		.4byte	0x22e
 760 022e 06       		.uleb128 0x6
 761 022f BB040000 		.4byte	.LASF46
 762 0233 04       		.byte	0x4
 763 0234 07       		.byte	0x7
 764 0235 AC       		.byte	0xac
 765 0236 47020000 		.4byte	0x247
 766 023a 07       		.uleb128 0x7
 767 023b 62030000 		.4byte	.LASF27
 768 023f 07       		.byte	0x7
 769 0240 AD       		.byte	0xad
 770 0241 CD050000 		.4byte	0x5cd
 771 0245 00       		.byte	0
 772 0246 00       		.byte	0
 773 0247 03       		.uleb128 0x3
 774 0248 95050000 		.4byte	.LASF47
 775 024c 06       		.byte	0x6
 776 024d 4B       		.byte	0x4b
 777 024e 52020000 		.4byte	0x252
 778 0252 06       		.uleb128 0x6
 779 0253 B1000000 		.4byte	.LASF48
 780 0257 08       		.byte	0x8
 781 0258 07       		.byte	0x7
 782 0259 B3       		.byte	0xb3
 783 025a 77020000 		.4byte	0x277
 784 025e 07       		.uleb128 0x7
 785 025f 62030000 		.4byte	.LASF27
 786 0263 07       		.byte	0x7
 787 0264 B4       		.byte	0xb4
 788 0265 CD050000 		.4byte	0x5cd
ARM GAS  /tmp/ccELqvZ3.s 			page 15


 789 0269 00       		.byte	0
 790 026a 07       		.uleb128 0x7
 791 026b E1020000 		.4byte	.LASF28
 792 026f 07       		.byte	0x7
 793 0270 B5       		.byte	0xb5
 794 0271 CD050000 		.4byte	0x5cd
 795 0275 04       		.byte	0x4
 796 0276 00       		.byte	0
 797 0277 03       		.uleb128 0x3
 798 0278 00000000 		.4byte	.LASF49
 799 027c 06       		.byte	0x6
 800 027d 52       		.byte	0x52
 801 027e 82020000 		.4byte	0x282
 802 0282 0A       		.uleb128 0xa
 803 0283 0D020000 		.4byte	.LASF50
 804 0287 1C       		.byte	0x1c
 805 0288 07       		.byte	0x7
 806 0289 7201     		.2byte	0x172
 807 028b DE020000 		.4byte	0x2de
 808 028f 09       		.uleb128 0x9
 809 0290 B3040000 		.4byte	.LASF51
 810 0294 07       		.byte	0x7
 811 0295 7301     		.2byte	0x173
 812 0297 47020000 		.4byte	0x247
 813 029b 00       		.byte	0
 814 029c 09       		.uleb128 0x9
 815 029d 54030000 		.4byte	.LASF52
 816 02a1 07       		.byte	0x7
 817 02a2 7401     		.2byte	0x174
 818 02a4 FF000000 		.4byte	0xff
 819 02a8 08       		.byte	0x8
 820 02a9 09       		.uleb128 0x9
 821 02aa 95020000 		.4byte	.LASF53
 822 02ae 07       		.byte	0x7
 823 02af 7601     		.2byte	0x176
 824 02b1 4D040000 		.4byte	0x44d
 825 02b5 0C       		.byte	0xc
 826 02b6 09       		.uleb128 0x9
 827 02b7 43010000 		.4byte	.LASF54
 828 02bb 07       		.byte	0x7
 829 02bc 7901     		.2byte	0x179
 830 02be CD050000 		.4byte	0x5cd
 831 02c2 10       		.byte	0x10
 832 02c3 09       		.uleb128 0x9
 833 02c4 B6020000 		.4byte	.LASF55
 834 02c8 07       		.byte	0x7
 835 02c9 7A01     		.2byte	0x17a
 836 02cb CD050000 		.4byte	0x5cd
 837 02cf 14       		.byte	0x14
 838 02d0 09       		.uleb128 0x9
 839 02d1 AC020000 		.4byte	.LASF56
 840 02d5 07       		.byte	0x7
 841 02d6 7D01     		.2byte	0x17d
 842 02d8 CD050000 		.4byte	0x5cd
 843 02dc 18       		.byte	0x18
 844 02dd 00       		.byte	0
 845 02de 03       		.uleb128 0x3
ARM GAS  /tmp/ccELqvZ3.s 			page 16


 846 02df 48050000 		.4byte	.LASF57
 847 02e3 06       		.byte	0x6
 848 02e4 57       		.byte	0x57
 849 02e5 E9020000 		.4byte	0x2e9
 850 02e9 0B       		.uleb128 0xb
 851 02ea 04       		.byte	0x4
 852 02eb EF020000 		.4byte	0x2ef
 853 02ef 0C       		.uleb128 0xc
 854 02f0 FA020000 		.4byte	0x2fa
 855 02f4 0D       		.uleb128 0xd
 856 02f5 FA020000 		.4byte	0x2fa
 857 02f9 00       		.byte	0
 858 02fa 0E       		.uleb128 0xe
 859 02fb 04       		.byte	0x4
 860 02fc 03       		.uleb128 0x3
 861 02fd D1020000 		.4byte	.LASF58
 862 0301 06       		.byte	0x6
 863 0302 5C       		.byte	0x5c
 864 0303 07030000 		.4byte	0x307
 865 0307 0A       		.uleb128 0xa
 866 0308 75050000 		.4byte	.LASF59
 867 030c 14       		.byte	0x14
 868 030d 07       		.byte	0x7
 869 030e 4D01     		.2byte	0x14d
 870 0310 56030000 		.4byte	0x356
 871 0314 09       		.uleb128 0x9
 872 0315 AF010000 		.4byte	.LASF60
 873 0319 07       		.byte	0x7
 874 031a 4E01     		.2byte	0x14e
 875 031c 54060000 		.4byte	0x654
 876 0320 00       		.byte	0
 877 0321 09       		.uleb128 0x9
 878 0322 54010000 		.4byte	.LASF61
 879 0326 07       		.byte	0x7
 880 0327 4F01     		.2byte	0x14f
 881 0329 54060000 		.4byte	0x654
 882 032d 04       		.byte	0x4
 883 032e 09       		.uleb128 0x9
 884 032f B7010000 		.4byte	.LASF62
 885 0333 07       		.byte	0x7
 886 0334 5001     		.2byte	0x150
 887 0336 20010000 		.4byte	0x120
 888 033a 08       		.byte	0x8
 889 033b 09       		.uleb128 0x9
 890 033c 01060000 		.4byte	.LASF63
 891 0340 07       		.byte	0x7
 892 0341 5101     		.2byte	0x151
 893 0343 DE020000 		.4byte	0x2de
 894 0347 0C       		.byte	0xc
 895 0348 09       		.uleb128 0x9
 896 0349 8E050000 		.4byte	.LASF64
 897 034d 07       		.byte	0x7
 898 034e 5301     		.2byte	0x153
 899 0350 FA020000 		.4byte	0x2fa
 900 0354 10       		.byte	0x10
 901 0355 00       		.byte	0
 902 0356 03       		.uleb128 0x3
ARM GAS  /tmp/ccELqvZ3.s 			page 17


 903 0357 82000000 		.4byte	.LASF65
 904 035b 06       		.byte	0x6
 905 035c 61       		.byte	0x61
 906 035d 61030000 		.4byte	0x361
 907 0361 0A       		.uleb128 0xa
 908 0362 60020000 		.4byte	.LASF66
 909 0366 10       		.byte	0x10
 910 0367 07       		.byte	0x7
 911 0368 5D01     		.2byte	0x15d
 912 036a A3030000 		.4byte	0x3a3
 913 036e 09       		.uleb128 0x9
 914 036f AF010000 		.4byte	.LASF60
 915 0373 07       		.byte	0x7
 916 0374 5E01     		.2byte	0x15e
 917 0376 54060000 		.4byte	0x654
 918 037a 00       		.byte	0
 919 037b 09       		.uleb128 0x9
 920 037c 54010000 		.4byte	.LASF61
 921 0380 07       		.byte	0x7
 922 0381 6001     		.2byte	0x160
 923 0383 54060000 		.4byte	0x654
 924 0387 04       		.byte	0x4
 925 0388 09       		.uleb128 0x9
 926 0389 B7010000 		.4byte	.LASF62
 927 038d 07       		.byte	0x7
 928 038e 6201     		.2byte	0x162
 929 0390 20010000 		.4byte	0x120
 930 0394 08       		.byte	0x8
 931 0395 09       		.uleb128 0x9
 932 0396 77020000 		.4byte	.LASF67
 933 039a 07       		.byte	0x7
 934 039b 6A01     		.2byte	0x16a
 935 039d 20010000 		.4byte	0x120
 936 03a1 0C       		.byte	0xc
 937 03a2 00       		.byte	0
 938 03a3 03       		.uleb128 0x3
 939 03a4 3F000000 		.4byte	.LASF68
 940 03a8 06       		.byte	0x6
 941 03a9 66       		.byte	0x66
 942 03aa AE030000 		.4byte	0x3ae
 943 03ae 0A       		.uleb128 0xa
 944 03af 06030000 		.4byte	.LASF69
 945 03b3 04       		.byte	0x4
 946 03b4 07       		.byte	0x7
 947 03b5 8401     		.2byte	0x184
 948 03b7 C9030000 		.4byte	0x3c9
 949 03bb 09       		.uleb128 0x9
 950 03bc 5C050000 		.4byte	.LASF70
 951 03c0 07       		.byte	0x7
 952 03c1 8C01     		.2byte	0x18c
 953 03c3 5A060000 		.4byte	0x65a
 954 03c7 00       		.byte	0
 955 03c8 00       		.byte	0
 956 03c9 03       		.uleb128 0x3
 957 03ca F9010000 		.4byte	.LASF71
 958 03ce 06       		.byte	0x6
 959 03cf 6B       		.byte	0x6b
ARM GAS  /tmp/ccELqvZ3.s 			page 18


 960 03d0 D4030000 		.4byte	0x3d4
 961 03d4 0F       		.uleb128 0xf
 962 03d5 11010000 		.4byte	.LASF72
 963 03d9 D801     		.2byte	0x1d8
 964 03db 07       		.byte	0x7
 965 03dc A401     		.2byte	0x1a4
 966 03de 30040000 		.4byte	0x430
 967 03e2 09       		.uleb128 0x9
 968 03e3 AC050000 		.4byte	.LASF73
 969 03e7 07       		.byte	0x7
 970 03e8 A801     		.2byte	0x1a8
 971 03ea 77020000 		.4byte	0x277
 972 03ee 00       		.byte	0
 973 03ef 09       		.uleb128 0x9
 974 03f0 0A010000 		.4byte	.LASF74
 975 03f4 07       		.byte	0x7
 976 03f5 AC01     		.2byte	0x1ac
 977 03f7 56030000 		.4byte	0x356
 978 03fb 1C       		.byte	0x1c
 979 03fc 08       		.uleb128 0x8
 980 03fd 64626700 		.ascii	"dbg\000"
 981 0401 07       		.byte	0x7
 982 0402 B001     		.2byte	0x1b0
 983 0404 A3030000 		.4byte	0x3a3
 984 0408 2C       		.byte	0x2c
 985 0409 09       		.uleb128 0x9
 986 040a E8010000 		.4byte	.LASF75
 987 040e 07       		.byte	0x7
 988 040f B401     		.2byte	0x1b4
 989 0411 2B010000 		.4byte	0x12b
 990 0415 30       		.byte	0x30
 991 0416 08       		.uleb128 0x8
 992 0417 746D00   		.ascii	"tm\000"
 993 041a 07       		.byte	0x7
 994 041b B901     		.2byte	0x1b9
 995 041d C2050000 		.4byte	0x5c2
 996 0421 74       		.byte	0x74
 997 0422 09       		.uleb128 0x9
 998 0423 75010000 		.4byte	.LASF76
 999 0427 07       		.byte	0x7
 1000 0428 C501     		.2byte	0x1c5
 1001 042a 5F060000 		.4byte	0x65f
 1002 042e 78       		.byte	0x78
 1003 042f 00       		.byte	0
 1004 0430 04       		.uleb128 0x4
 1005 0431 04       		.byte	0x4
 1006 0432 07       		.byte	0x7
 1007 0433 57020000 		.4byte	.LASF77
 1008 0437 03       		.uleb128 0x3
 1009 0438 4B010000 		.4byte	.LASF78
 1010 043c 08       		.byte	0x8
 1011 043d 85       		.byte	0x85
 1012 043e FA020000 		.4byte	0x2fa
 1013 0442 03       		.uleb128 0x3
 1014 0443 31020000 		.4byte	.LASF79
 1015 0447 08       		.byte	0x8
 1016 0448 8D       		.byte	0x8d
ARM GAS  /tmp/ccELqvZ3.s 			page 19


 1017 0449 C3000000 		.4byte	0xc3
 1018 044d 06       		.uleb128 0x6
 1019 044e 6D050000 		.4byte	.LASF80
 1020 0452 04       		.byte	0x4
 1021 0453 08       		.byte	0x8
 1022 0454 A9       		.byte	0xa9
 1023 0455 66040000 		.4byte	0x466
 1024 0459 10       		.uleb128 0x10
 1025 045a 72313300 		.ascii	"r13\000"
 1026 045e 08       		.byte	0x8
 1027 045f AA       		.byte	0xaa
 1028 0460 A7050000 		.4byte	0x5a7
 1029 0464 00       		.byte	0
 1030 0465 00       		.byte	0
 1031 0466 06       		.uleb128 0x6
 1032 0467 33000000 		.4byte	.LASF81
 1033 046b 64       		.byte	0x64
 1034 046c 09       		.byte	0x9
 1035 046d F4       		.byte	0xf4
 1036 046e A7050000 		.4byte	0x5a7
 1037 0472 10       		.uleb128 0x10
 1038 0473 73313600 		.ascii	"s16\000"
 1039 0477 09       		.byte	0x9
 1040 0478 F6       		.byte	0xf6
 1041 0479 37040000 		.4byte	0x437
 1042 047d 00       		.byte	0
 1043 047e 10       		.uleb128 0x10
 1044 047f 73313700 		.ascii	"s17\000"
 1045 0483 09       		.byte	0x9
 1046 0484 F7       		.byte	0xf7
 1047 0485 37040000 		.4byte	0x437
 1048 0489 04       		.byte	0x4
 1049 048a 10       		.uleb128 0x10
 1050 048b 73313800 		.ascii	"s18\000"
 1051 048f 09       		.byte	0x9
 1052 0490 F8       		.byte	0xf8
 1053 0491 37040000 		.4byte	0x437
 1054 0495 08       		.byte	0x8
 1055 0496 10       		.uleb128 0x10
 1056 0497 73313900 		.ascii	"s19\000"
 1057 049b 09       		.byte	0x9
 1058 049c F9       		.byte	0xf9
 1059 049d 37040000 		.4byte	0x437
 1060 04a1 0C       		.byte	0xc
 1061 04a2 10       		.uleb128 0x10
 1062 04a3 73323000 		.ascii	"s20\000"
 1063 04a7 09       		.byte	0x9
 1064 04a8 FA       		.byte	0xfa
 1065 04a9 37040000 		.4byte	0x437
 1066 04ad 10       		.byte	0x10
 1067 04ae 10       		.uleb128 0x10
 1068 04af 73323100 		.ascii	"s21\000"
 1069 04b3 09       		.byte	0x9
 1070 04b4 FB       		.byte	0xfb
 1071 04b5 37040000 		.4byte	0x437
 1072 04b9 14       		.byte	0x14
 1073 04ba 10       		.uleb128 0x10
ARM GAS  /tmp/ccELqvZ3.s 			page 20


 1074 04bb 73323200 		.ascii	"s22\000"
 1075 04bf 09       		.byte	0x9
 1076 04c0 FC       		.byte	0xfc
 1077 04c1 37040000 		.4byte	0x437
 1078 04c5 18       		.byte	0x18
 1079 04c6 10       		.uleb128 0x10
 1080 04c7 73323300 		.ascii	"s23\000"
 1081 04cb 09       		.byte	0x9
 1082 04cc FD       		.byte	0xfd
 1083 04cd 37040000 		.4byte	0x437
 1084 04d1 1C       		.byte	0x1c
 1085 04d2 10       		.uleb128 0x10
 1086 04d3 73323400 		.ascii	"s24\000"
 1087 04d7 09       		.byte	0x9
 1088 04d8 FE       		.byte	0xfe
 1089 04d9 37040000 		.4byte	0x437
 1090 04dd 20       		.byte	0x20
 1091 04de 10       		.uleb128 0x10
 1092 04df 73323500 		.ascii	"s25\000"
 1093 04e3 09       		.byte	0x9
 1094 04e4 FF       		.byte	0xff
 1095 04e5 37040000 		.4byte	0x437
 1096 04e9 24       		.byte	0x24
 1097 04ea 08       		.uleb128 0x8
 1098 04eb 73323600 		.ascii	"s26\000"
 1099 04ef 09       		.byte	0x9
 1100 04f0 0001     		.2byte	0x100
 1101 04f2 37040000 		.4byte	0x437
 1102 04f6 28       		.byte	0x28
 1103 04f7 08       		.uleb128 0x8
 1104 04f8 73323700 		.ascii	"s27\000"
 1105 04fc 09       		.byte	0x9
 1106 04fd 0101     		.2byte	0x101
 1107 04ff 37040000 		.4byte	0x437
 1108 0503 2C       		.byte	0x2c
 1109 0504 08       		.uleb128 0x8
 1110 0505 73323800 		.ascii	"s28\000"
 1111 0509 09       		.byte	0x9
 1112 050a 0201     		.2byte	0x102
 1113 050c 37040000 		.4byte	0x437
 1114 0510 30       		.byte	0x30
 1115 0511 08       		.uleb128 0x8
 1116 0512 73323900 		.ascii	"s29\000"
 1117 0516 09       		.byte	0x9
 1118 0517 0301     		.2byte	0x103
 1119 0519 37040000 		.4byte	0x437
 1120 051d 34       		.byte	0x34
 1121 051e 08       		.uleb128 0x8
 1122 051f 73333000 		.ascii	"s30\000"
 1123 0523 09       		.byte	0x9
 1124 0524 0401     		.2byte	0x104
 1125 0526 37040000 		.4byte	0x437
 1126 052a 38       		.byte	0x38
 1127 052b 08       		.uleb128 0x8
 1128 052c 73333100 		.ascii	"s31\000"
 1129 0530 09       		.byte	0x9
 1130 0531 0501     		.2byte	0x105
ARM GAS  /tmp/ccELqvZ3.s 			page 21


 1131 0533 37040000 		.4byte	0x437
 1132 0537 3C       		.byte	0x3c
 1133 0538 08       		.uleb128 0x8
 1134 0539 723400   		.ascii	"r4\000"
 1135 053c 09       		.byte	0x9
 1136 053d 0701     		.2byte	0x107
 1137 053f 37040000 		.4byte	0x437
 1138 0543 40       		.byte	0x40
 1139 0544 08       		.uleb128 0x8
 1140 0545 723500   		.ascii	"r5\000"
 1141 0548 09       		.byte	0x9
 1142 0549 0801     		.2byte	0x108
 1143 054b 37040000 		.4byte	0x437
 1144 054f 44       		.byte	0x44
 1145 0550 08       		.uleb128 0x8
 1146 0551 723600   		.ascii	"r6\000"
 1147 0554 09       		.byte	0x9
 1148 0555 0901     		.2byte	0x109
 1149 0557 37040000 		.4byte	0x437
 1150 055b 48       		.byte	0x48
 1151 055c 08       		.uleb128 0x8
 1152 055d 723700   		.ascii	"r7\000"
 1153 0560 09       		.byte	0x9
 1154 0561 0A01     		.2byte	0x10a
 1155 0563 37040000 		.4byte	0x437
 1156 0567 4C       		.byte	0x4c
 1157 0568 08       		.uleb128 0x8
 1158 0569 723800   		.ascii	"r8\000"
 1159 056c 09       		.byte	0x9
 1160 056d 0B01     		.2byte	0x10b
 1161 056f 37040000 		.4byte	0x437
 1162 0573 50       		.byte	0x50
 1163 0574 08       		.uleb128 0x8
 1164 0575 723900   		.ascii	"r9\000"
 1165 0578 09       		.byte	0x9
 1166 0579 0C01     		.2byte	0x10c
 1167 057b 37040000 		.4byte	0x437
 1168 057f 54       		.byte	0x54
 1169 0580 08       		.uleb128 0x8
 1170 0581 72313000 		.ascii	"r10\000"
 1171 0585 09       		.byte	0x9
 1172 0586 0D01     		.2byte	0x10d
 1173 0588 37040000 		.4byte	0x437
 1174 058c 58       		.byte	0x58
 1175 058d 08       		.uleb128 0x8
 1176 058e 72313100 		.ascii	"r11\000"
 1177 0592 09       		.byte	0x9
 1178 0593 0E01     		.2byte	0x10e
 1179 0595 37040000 		.4byte	0x437
 1180 0599 5C       		.byte	0x5c
 1181 059a 08       		.uleb128 0x8
 1182 059b 6C7200   		.ascii	"lr\000"
 1183 059e 09       		.byte	0x9
 1184 059f 0F01     		.2byte	0x10f
 1185 05a1 37040000 		.4byte	0x437
 1186 05a5 60       		.byte	0x60
 1187 05a6 00       		.byte	0
ARM GAS  /tmp/ccELqvZ3.s 			page 22


 1188 05a7 0B       		.uleb128 0xb
 1189 05a8 04       		.byte	0x4
 1190 05a9 66040000 		.4byte	0x466
 1191 05ad 11       		.uleb128 0x11
 1192 05ae 04       		.byte	0x4
 1193 05af 0A       		.byte	0xa
 1194 05b0 38       		.byte	0x38
 1195 05b1 C2050000 		.4byte	0x5c2
 1196 05b5 07       		.uleb128 0x7
 1197 05b6 66050000 		.4byte	.LASF82
 1198 05ba 0A       		.byte	0xa
 1199 05bb 3C       		.byte	0x3c
 1200 05bc D3000000 		.4byte	0xd3
 1201 05c0 00       		.byte	0
 1202 05c1 00       		.byte	0
 1203 05c2 03       		.uleb128 0x3
 1204 05c3 9B020000 		.4byte	.LASF83
 1205 05c7 0A       		.byte	0xa
 1206 05c8 3D       		.byte	0x3d
 1207 05c9 AD050000 		.4byte	0x5ad
 1208 05cd 0B       		.uleb128 0xb
 1209 05ce 04       		.byte	0x4
 1210 05cf 2B010000 		.4byte	0x12b
 1211 05d3 12       		.uleb128 0x12
 1212 05d4 04       		.byte	0x4
 1213 05d5 07       		.byte	0x7
 1214 05d6 F6       		.byte	0xf6
 1215 05d7 0B060000 		.4byte	0x60b
 1216 05db 13       		.uleb128 0x13
 1217 05dc 19000000 		.4byte	.LASF84
 1218 05e0 07       		.byte	0x7
 1219 05e1 FD       		.byte	0xfd
 1220 05e2 0A010000 		.4byte	0x10a
 1221 05e6 14       		.uleb128 0x14
 1222 05e7 72000000 		.4byte	.LASF85
 1223 05eb 07       		.byte	0x7
 1224 05ec 0401     		.2byte	0x104
 1225 05ee 0A010000 		.4byte	0x10a
 1226 05f2 14       		.uleb128 0x14
 1227 05f3 C5050000 		.4byte	.LASF86
 1228 05f7 07       		.byte	0x7
 1229 05f8 0B01     		.2byte	0x10b
 1230 05fa FA020000 		.4byte	0x2fa
 1231 05fe 14       		.uleb128 0x14
 1232 05ff 5B030000 		.4byte	.LASF87
 1233 0603 07       		.byte	0x7
 1234 0604 1201     		.2byte	0x112
 1235 0606 15010000 		.4byte	0x115
 1236 060a 00       		.byte	0
 1237 060b 0B       		.uleb128 0xb
 1238 060c 04       		.byte	0x4
 1239 060d 11060000 		.4byte	0x611
 1240 0611 15       		.uleb128 0x15
 1241 0612 16060000 		.4byte	0x616
 1242 0616 04       		.uleb128 0x4
 1243 0617 01       		.byte	0x1
 1244 0618 08       		.byte	0x8
ARM GAS  /tmp/ccELqvZ3.s 			page 23


 1245 0619 11050000 		.4byte	.LASF88
 1246 061d 06       		.uleb128 0x6
 1247 061e F0020000 		.4byte	.LASF89
 1248 0622 10       		.byte	0x10
 1249 0623 0B       		.byte	0xb
 1250 0624 39       		.byte	0x39
 1251 0625 4E060000 		.4byte	0x64e
 1252 0629 07       		.uleb128 0x7
 1253 062a F7000000 		.4byte	.LASF90
 1254 062e 0B       		.byte	0xb
 1255 062f 3A       		.byte	0x3a
 1256 0630 47020000 		.4byte	0x247
 1257 0634 00       		.byte	0
 1258 0635 07       		.uleb128 0x7
 1259 0636 F3050000 		.4byte	.LASF91
 1260 063a 0B       		.byte	0xb
 1261 063b 3C       		.byte	0x3c
 1262 063c CD050000 		.4byte	0x5cd
 1263 0640 08       		.byte	0x8
 1264 0641 07       		.uleb128 0x7
 1265 0642 2C050000 		.4byte	.LASF92
 1266 0646 0B       		.byte	0xb
 1267 0647 3E       		.byte	0x3e
 1268 0648 7A060000 		.4byte	0x67a
 1269 064c 0C       		.byte	0xc
 1270 064d 00       		.byte	0
 1271 064e 0B       		.uleb128 0xb
 1272 064f 04       		.byte	0x4
 1273 0650 1D060000 		.4byte	0x61d
 1274 0654 0B       		.uleb128 0xb
 1275 0655 04       		.byte	0x4
 1276 0656 FC020000 		.4byte	0x2fc
 1277 065a 05       		.uleb128 0x5
 1278 065b 0B060000 		.4byte	0x60b
 1279 065f 16       		.uleb128 0x16
 1280 0660 42040000 		.4byte	0x442
 1281 0664 6F060000 		.4byte	0x66f
 1282 0668 17       		.uleb128 0x17
 1283 0669 30040000 		.4byte	0x430
 1284 066d 2B       		.byte	0x2b
 1285 066e 00       		.byte	0
 1286 066f 03       		.uleb128 0x3
 1287 0670 C9000000 		.4byte	.LASF93
 1288 0674 0B       		.byte	0xb
 1289 0675 34       		.byte	0x34
 1290 0676 1D060000 		.4byte	0x61d
 1291 067a 0B       		.uleb128 0xb
 1292 067b 04       		.byte	0x4
 1293 067c 6F060000 		.4byte	0x66f
 1294 0680 03       		.uleb128 0x3
 1295 0681 4E000000 		.4byte	.LASF94
 1296 0685 0C       		.byte	0xc
 1297 0686 36       		.byte	0x36
 1298 0687 8B060000 		.4byte	0x68b
 1299 068b 0B       		.uleb128 0xb
 1300 068c 04       		.byte	0x4
 1301 068d 91060000 		.4byte	0x691
ARM GAS  /tmp/ccELqvZ3.s 			page 24


 1302 0691 18       		.uleb128 0x18
 1303 0692 FA020000 		.4byte	0x2fa
 1304 0696 A0060000 		.4byte	0x6a0
 1305 069a 0D       		.uleb128 0xd
 1306 069b 2C000000 		.4byte	0x2c
 1307 069f 00       		.byte	0
 1308 06a0 03       		.uleb128 0x3
 1309 06a1 2D010000 		.4byte	.LASF95
 1310 06a5 0D       		.byte	0xd
 1311 06a6 3C       		.byte	0x3c
 1312 06a7 AB060000 		.4byte	0x6ab
 1313 06ab 06       		.uleb128 0x6
 1314 06ac 09060000 		.4byte	.LASF96
 1315 06b0 20       		.byte	0x20
 1316 06b1 0D       		.byte	0xd
 1317 06b2 4F       		.byte	0x4f
 1318 06b3 DC060000 		.4byte	0x6dc
 1319 06b7 07       		.uleb128 0x7
 1320 06b8 BA050000 		.4byte	.LASF97
 1321 06bc 0D       		.byte	0xd
 1322 06bd 50       		.byte	0x50
 1323 06be 80060000 		.4byte	0x680
 1324 06c2 00       		.byte	0
 1325 06c3 07       		.uleb128 0x7
 1326 06c4 7B000000 		.4byte	.LASF98
 1327 06c8 0D       		.byte	0xd
 1328 06c9 52       		.byte	0x52
 1329 06ca FB060000 		.4byte	0x6fb
 1330 06ce 08       		.byte	0x8
 1331 06cf 07       		.uleb128 0x7
 1332 06d0 E9000000 		.4byte	.LASF99
 1333 06d4 0D       		.byte	0xd
 1334 06d5 54       		.byte	0x54
 1335 06d6 6F060000 		.4byte	0x66f
 1336 06da 10       		.byte	0x10
 1337 06db 00       		.byte	0
 1338 06dc 12       		.uleb128 0x12
 1339 06dd 04       		.byte	0x4
 1340 06de 0D       		.byte	0xd
 1341 06df 44       		.byte	0x44
 1342 06e0 FB060000 		.4byte	0x6fb
 1343 06e4 13       		.uleb128 0x13
 1344 06e5 14000000 		.4byte	.LASF100
 1345 06e9 0D       		.byte	0xd
 1346 06ea 45       		.byte	0x45
 1347 06eb 1C070000 		.4byte	0x71c
 1348 06ef 13       		.uleb128 0x13
 1349 06f0 CB040000 		.4byte	.LASF101
 1350 06f4 0D       		.byte	0xd
 1351 06f5 46       		.byte	0x46
 1352 06f6 22070000 		.4byte	0x722
 1353 06fa 00       		.byte	0
 1354 06fb 19       		.uleb128 0x19
 1355 06fc 2C030000 		.4byte	.LASF119
 1356 0700 08       		.byte	0x8
 1357 0701 0D       		.byte	0xd
 1358 0702 41       		.byte	0x41
ARM GAS  /tmp/ccELqvZ3.s 			page 25


 1359 0703 1C070000 		.4byte	0x71c
 1360 0707 13       		.uleb128 0x13
 1361 0708 AB000000 		.4byte	.LASF102
 1362 070c 0D       		.byte	0xd
 1363 070d 42       		.byte	0x42
 1364 070e 42040000 		.4byte	0x442
 1365 0712 1A       		.uleb128 0x1a
 1366 0713 6800     		.ascii	"h\000"
 1367 0715 0D       		.byte	0xd
 1368 0716 49       		.byte	0x49
 1369 0717 28070000 		.4byte	0x728
 1370 071b 00       		.byte	0
 1371 071c 0B       		.uleb128 0xb
 1372 071d 04       		.byte	0x4
 1373 071e FB060000 		.4byte	0x6fb
 1374 0722 0B       		.uleb128 0xb
 1375 0723 04       		.byte	0x4
 1376 0724 A0060000 		.4byte	0x6a0
 1377 0728 11       		.uleb128 0x11
 1378 0729 08       		.byte	0x8
 1379 072a 0D       		.byte	0xd
 1380 072b 43       		.byte	0x43
 1381 072c 47070000 		.4byte	0x747
 1382 0730 10       		.uleb128 0x10
 1383 0731 7500     		.ascii	"u\000"
 1384 0733 0D       		.byte	0xd
 1385 0734 47       		.byte	0x47
 1386 0735 DC060000 		.4byte	0x6dc
 1387 0739 00       		.byte	0
 1388 073a 07       		.uleb128 0x7
 1389 073b D9050000 		.4byte	.LASF103
 1390 073f 0D       		.byte	0xd
 1391 0740 48       		.byte	0x48
 1392 0741 2C000000 		.4byte	0x2c
 1393 0745 04       		.byte	0x4
 1394 0746 00       		.byte	0
 1395 0747 1B       		.uleb128 0x1b
 1396 0748 6A010000 		.4byte	.LASF104
 1397 074c 01       		.byte	0x1
 1398 074d 55       		.byte	0x55
 1399 074e 00000000 		.4byte	.LFB226
 1400 0752 1C000000 		.4byte	.LFE226-.LFB226
 1401 0756 01       		.uleb128 0x1
 1402 0757 9C       		.byte	0x9c
 1403 0758 70070000 		.4byte	0x770
 1404 075c 1C       		.uleb128 0x1c
 1405 075d 14000000 		.4byte	.LVL0
 1406 0761 E7090000 		.4byte	0x9e7
 1407 0765 1D       		.uleb128 0x1d
 1408 0766 01       		.uleb128 0x1
 1409 0767 50       		.byte	0x50
 1410 0768 05       		.uleb128 0x5
 1411 0769 03       		.byte	0x3
 1412 076a 10000000 		.4byte	.LANCHOR0+16
 1413 076e 00       		.byte	0
 1414 076f 00       		.byte	0
 1415 0770 1B       		.uleb128 0x1b
ARM GAS  /tmp/ccELqvZ3.s 			page 26


 1416 0771 3C020000 		.4byte	.LASF105
 1417 0775 01       		.byte	0x1
 1418 0776 6C       		.byte	0x6c
 1419 0777 00000000 		.4byte	.LFB227
 1420 077b 14000000 		.4byte	.LFE227-.LFB227
 1421 077f 01       		.uleb128 0x1
 1422 0780 9C       		.byte	0x9c
 1423 0781 DD070000 		.4byte	0x7dd
 1424 0785 1E       		.uleb128 0x1e
 1425 0786 A5000000 		.4byte	.LASF106
 1426 078a 01       		.byte	0x1
 1427 078b 6C       		.byte	0x6c
 1428 078c 22070000 		.4byte	0x722
 1429 0790 00000000 		.4byte	.LLST0
 1430 0794 1F       		.uleb128 0x1f
 1431 0795 62756600 		.ascii	"buf\000"
 1432 0799 01       		.byte	0x1
 1433 079a 6C       		.byte	0x6c
 1434 079b FA020000 		.4byte	0x2fa
 1435 079f 2E000000 		.4byte	.LLST1
 1436 07a3 1E       		.uleb128 0x1e
 1437 07a4 D9050000 		.4byte	.LASF103
 1438 07a8 01       		.byte	0x1
 1439 07a9 6C       		.byte	0x6c
 1440 07aa 2C000000 		.4byte	0x2c
 1441 07ae 4F000000 		.4byte	.LLST2
 1442 07b2 20       		.uleb128 0x20
 1443 07b3 687000   		.ascii	"hp\000"
 1444 07b6 01       		.byte	0x1
 1445 07b7 6D       		.byte	0x6d
 1446 07b8 1C070000 		.4byte	0x71c
 1447 07bc 7D000000 		.4byte	.LLST3
 1448 07c0 21       		.uleb128 0x21
 1449 07c1 8A040000 		.4byte	.LASF108
 1450 07c5 ED070000 		.4byte	0x7ed
 1451 07c9 1C       		.uleb128 0x1c
 1452 07ca 14000000 		.4byte	.LVL5
 1453 07ce E7090000 		.4byte	0x9e7
 1454 07d2 1D       		.uleb128 0x1d
 1455 07d3 01       		.uleb128 0x1
 1456 07d4 50       		.byte	0x50
 1457 07d5 05       		.uleb128 0x5
 1458 07d6 F3       		.byte	0xf3
 1459 07d7 01       		.uleb128 0x1
 1460 07d8 50       		.byte	0x50
 1461 07d9 23       		.byte	0x23
 1462 07da 10       		.uleb128 0x10
 1463 07db 00       		.byte	0
 1464 07dc 00       		.byte	0
 1465 07dd 16       		.uleb128 0x16
 1466 07de 16060000 		.4byte	0x616
 1467 07e2 ED070000 		.4byte	0x7ed
 1468 07e6 17       		.uleb128 0x17
 1469 07e7 30040000 		.4byte	0x430
 1470 07eb 10       		.byte	0x10
 1471 07ec 00       		.byte	0
 1472 07ed 15       		.uleb128 0x15
ARM GAS  /tmp/ccELqvZ3.s 			page 27


 1473 07ee DD070000 		.4byte	0x7dd
 1474 07f2 22       		.uleb128 0x22
 1475 07f3 93040000 		.4byte	.LASF109
 1476 07f7 01       		.byte	0x1
 1477 07f8 8D       		.byte	0x8d
 1478 07f9 FA020000 		.4byte	0x2fa
 1479 07fd 00000000 		.4byte	.LFB228
 1480 0801 8C000000 		.4byte	.LFE228-.LFB228
 1481 0805 01       		.uleb128 0x1
 1482 0806 9C       		.byte	0x9c
 1483 0807 9C080000 		.4byte	0x89c
 1484 080b 1E       		.uleb128 0x1e
 1485 080c A5000000 		.4byte	.LASF106
 1486 0810 01       		.byte	0x1
 1487 0811 8D       		.byte	0x8d
 1488 0812 22070000 		.4byte	0x722
 1489 0816 9E000000 		.4byte	.LLST4
 1490 081a 1E       		.uleb128 0x1e
 1491 081b D9050000 		.4byte	.LASF103
 1492 081f 01       		.byte	0x1
 1493 0820 8D       		.byte	0x8d
 1494 0821 2C000000 		.4byte	0x2c
 1495 0825 BC000000 		.4byte	.LLST5
 1496 0829 20       		.uleb128 0x20
 1497 082a 717000   		.ascii	"qp\000"
 1498 082d 01       		.byte	0x1
 1499 082e 8E       		.byte	0x8e
 1500 082f 1C070000 		.4byte	0x71c
 1501 0833 E7000000 		.4byte	.LLST6
 1502 0837 20       		.uleb128 0x20
 1503 0838 687000   		.ascii	"hp\000"
 1504 083b 01       		.byte	0x1
 1505 083c 8E       		.byte	0x8e
 1506 083d 1C070000 		.4byte	0x71c
 1507 0841 10010000 		.4byte	.LLST7
 1508 0845 20       		.uleb128 0x20
 1509 0846 667000   		.ascii	"fp\000"
 1510 0849 01       		.byte	0x1
 1511 084a 8E       		.byte	0x8e
 1512 084b 1C070000 		.4byte	0x71c
 1513 084f 73010000 		.4byte	.LLST8
 1514 0853 23       		.uleb128 0x23
 1515 0854 1E000000 		.4byte	.LVL11
 1516 0858 F8090000 		.4byte	0x9f8
 1517 085c 67080000 		.4byte	0x867
 1518 0860 1D       		.uleb128 0x1d
 1519 0861 01       		.uleb128 0x1
 1520 0862 50       		.byte	0x50
 1521 0863 02       		.uleb128 0x2
 1522 0864 77       		.byte	0x77
 1523 0865 00       		.sleb128 0
 1524 0866 00       		.byte	0
 1525 0867 23       		.uleb128 0x23
 1526 0868 34000000 		.4byte	.LVL16
 1527 086c 090A0000 		.4byte	0xa09
 1528 0870 7B080000 		.4byte	0x87b
 1529 0874 1D       		.uleb128 0x1d
ARM GAS  /tmp/ccELqvZ3.s 			page 28


 1530 0875 01       		.uleb128 0x1
 1531 0876 50       		.byte	0x50
 1532 0877 02       		.uleb128 0x2
 1533 0878 77       		.byte	0x77
 1534 0879 00       		.sleb128 0
 1535 087a 00       		.byte	0
 1536 087b 24       		.uleb128 0x24
 1537 087c 3E000000 		.4byte	.LVL17
 1538 0880 8B080000 		.4byte	0x88b
 1539 0884 1D       		.uleb128 0x1d
 1540 0885 01       		.uleb128 0x1
 1541 0886 50       		.byte	0x50
 1542 0887 02       		.uleb128 0x2
 1543 0888 75       		.byte	0x75
 1544 0889 08       		.sleb128 8
 1545 088a 00       		.byte	0
 1546 088b 25       		.uleb128 0x25
 1547 088c 64000000 		.4byte	.LVL23
 1548 0890 090A0000 		.4byte	0xa09
 1549 0894 1D       		.uleb128 0x1d
 1550 0895 01       		.uleb128 0x1
 1551 0896 50       		.byte	0x50
 1552 0897 02       		.uleb128 0x2
 1553 0898 77       		.byte	0x77
 1554 0899 00       		.sleb128 0
 1555 089a 00       		.byte	0
 1556 089b 00       		.byte	0
 1557 089c 1B       		.uleb128 0x1b
 1558 089d FF000000 		.4byte	.LASF107
 1559 08a1 01       		.byte	0x1
 1560 08a2 CC       		.byte	0xcc
 1561 08a3 00000000 		.4byte	.LFB229
 1562 08a7 94000000 		.4byte	.LFE229-.LFB229
 1563 08ab 01       		.uleb128 0x1
 1564 08ac 9C       		.byte	0x9c
 1565 08ad 19090000 		.4byte	0x919
 1566 08b1 1F       		.uleb128 0x1f
 1567 08b2 7000     		.ascii	"p\000"
 1568 08b4 01       		.byte	0x1
 1569 08b5 CC       		.byte	0xcc
 1570 08b6 FA020000 		.4byte	0x2fa
 1571 08ba 86010000 		.4byte	.LLST9
 1572 08be 20       		.uleb128 0x20
 1573 08bf 717000   		.ascii	"qp\000"
 1574 08c2 01       		.byte	0x1
 1575 08c3 CD       		.byte	0xcd
 1576 08c4 1C070000 		.4byte	0x71c
 1577 08c8 CB010000 		.4byte	.LLST10
 1578 08cc 20       		.uleb128 0x20
 1579 08cd 687000   		.ascii	"hp\000"
 1580 08d0 01       		.byte	0x1
 1581 08d1 CD       		.byte	0xcd
 1582 08d2 1C070000 		.4byte	0x71c
 1583 08d6 FF010000 		.4byte	.LLST11
 1584 08da 26       		.uleb128 0x26
 1585 08db A5000000 		.4byte	.LASF106
 1586 08df 01       		.byte	0x1
ARM GAS  /tmp/ccELqvZ3.s 			page 29


 1587 08e0 CE       		.byte	0xce
 1588 08e1 22070000 		.4byte	0x722
 1589 08e5 3D020000 		.4byte	.LLST12
 1590 08e9 21       		.uleb128 0x21
 1591 08ea 8A040000 		.4byte	.LASF108
 1592 08ee 29090000 		.4byte	0x929
 1593 08f2 23       		.uleb128 0x23
 1594 08f3 18000000 		.4byte	.LVL32
 1595 08f7 F8090000 		.4byte	0x9f8
 1596 08fb 06090000 		.4byte	0x906
 1597 08ff 1D       		.uleb128 0x1d
 1598 0900 01       		.uleb128 0x1
 1599 0901 50       		.byte	0x50
 1600 0902 02       		.uleb128 0x2
 1601 0903 77       		.byte	0x77
 1602 0904 00       		.sleb128 0
 1603 0905 00       		.byte	0
 1604 0906 27       		.uleb128 0x27
 1605 0907 62000000 		.4byte	.LVL39
 1606 090b 090A0000 		.4byte	0xa09
 1607 090f 27       		.uleb128 0x27
 1608 0910 94000000 		.4byte	.LVL41
 1609 0914 090A0000 		.4byte	0xa09
 1610 0918 00       		.byte	0
 1611 0919 16       		.uleb128 0x16
 1612 091a 16060000 		.4byte	0x616
 1613 091e 29090000 		.4byte	0x929
 1614 0922 17       		.uleb128 0x17
 1615 0923 30040000 		.4byte	0x430
 1616 0927 0A       		.byte	0xa
 1617 0928 00       		.byte	0
 1618 0929 15       		.uleb128 0x15
 1619 092a 19090000 		.4byte	0x919
 1620 092e 28       		.uleb128 0x28
 1621 092f 1F050000 		.4byte	.LASF110
 1622 0933 01       		.byte	0x1
 1623 0934 0001     		.2byte	0x100
 1624 0936 2C000000 		.4byte	0x2c
 1625 093a 00000000 		.4byte	.LFB230
 1626 093e 44000000 		.4byte	.LFE230-.LFB230
 1627 0942 01       		.uleb128 0x1
 1628 0943 9C       		.byte	0x9c
 1629 0944 B9090000 		.4byte	0x9b9
 1630 0948 29       		.uleb128 0x29
 1631 0949 A5000000 		.4byte	.LASF106
 1632 094d 01       		.byte	0x1
 1633 094e 0001     		.2byte	0x100
 1634 0950 22070000 		.4byte	0x722
 1635 0954 9D020000 		.4byte	.LLST13
 1636 0958 29       		.uleb128 0x29
 1637 0959 CC050000 		.4byte	.LASF111
 1638 095d 01       		.byte	0x1
 1639 095e 0001     		.2byte	0x100
 1640 0960 B9090000 		.4byte	0x9b9
 1641 0964 E0020000 		.4byte	.LLST14
 1642 0968 2A       		.uleb128 0x2a
 1643 0969 717000   		.ascii	"qp\000"
ARM GAS  /tmp/ccELqvZ3.s 			page 30


 1644 096c 01       		.byte	0x1
 1645 096d 0101     		.2byte	0x101
 1646 096f 1C070000 		.4byte	0x71c
 1647 0973 FE020000 		.4byte	.LLST15
 1648 0977 2A       		.uleb128 0x2a
 1649 0978 6E00     		.ascii	"n\000"
 1650 097a 01       		.byte	0x1
 1651 097b 0201     		.2byte	0x102
 1652 097d 2C000000 		.4byte	0x2c
 1653 0981 3A030000 		.4byte	.LLST16
 1654 0985 2A       		.uleb128 0x2a
 1655 0986 737A00   		.ascii	"sz\000"
 1656 0989 01       		.byte	0x1
 1657 098a 0201     		.2byte	0x102
 1658 098c 2C000000 		.4byte	0x2c
 1659 0990 7D030000 		.4byte	.LLST17
 1660 0994 23       		.uleb128 0x23
 1661 0995 16000000 		.4byte	.LVL44
 1662 0999 F8090000 		.4byte	0x9f8
 1663 099d A8090000 		.4byte	0x9a8
 1664 09a1 1D       		.uleb128 0x1d
 1665 09a2 01       		.uleb128 0x1
 1666 09a3 50       		.byte	0x50
 1667 09a4 02       		.uleb128 0x2
 1668 09a5 75       		.byte	0x75
 1669 09a6 00       		.sleb128 0
 1670 09a7 00       		.byte	0
 1671 09a8 25       		.uleb128 0x25
 1672 09a9 34000000 		.4byte	.LVL49
 1673 09ad 090A0000 		.4byte	0xa09
 1674 09b1 1D       		.uleb128 0x1d
 1675 09b2 01       		.uleb128 0x1
 1676 09b3 50       		.byte	0x50
 1677 09b4 02       		.uleb128 0x2
 1678 09b5 75       		.byte	0x75
 1679 09b6 00       		.sleb128 0
 1680 09b7 00       		.byte	0
 1681 09b8 00       		.byte	0
 1682 09b9 0B       		.uleb128 0xb
 1683 09ba 04       		.byte	0x4
 1684 09bb 2C000000 		.4byte	0x2c
 1685 09bf 2B       		.uleb128 0x2b
 1686 09c0 04050000 		.4byte	.LASF112
 1687 09c4 01       		.byte	0x1
 1688 09c5 46       		.byte	0x46
 1689 09c6 A0060000 		.4byte	0x6a0
 1690 09ca 05       		.uleb128 0x5
 1691 09cb 03       		.byte	0x3
 1692 09cc 00000000 		.4byte	default_heap
 1693 09d0 2C       		.uleb128 0x2c
 1694 09d1 98000000 		.4byte	.LASF113
 1695 09d5 0E       		.byte	0xe
 1696 09d6 A706     		.2byte	0x6a7
 1697 09d8 CE000000 		.4byte	0xce
 1698 09dc 2D       		.uleb128 0x2d
 1699 09dd 636800   		.ascii	"ch\000"
 1700 09e0 07       		.byte	0x7
ARM GAS  /tmp/ccELqvZ3.s 			page 31


 1701 09e1 EB01     		.2byte	0x1eb
 1702 09e3 C9030000 		.4byte	0x3c9
 1703 09e7 2E       		.uleb128 0x2e
 1704 09e8 F6020000 		.4byte	.LASF114
 1705 09ec 0B       		.byte	0xb
 1706 09ed 67       		.byte	0x67
 1707 09ee F8090000 		.4byte	0x9f8
 1708 09f2 0D       		.uleb128 0xd
 1709 09f3 7A060000 		.4byte	0x67a
 1710 09f7 00       		.byte	0
 1711 09f8 2E       		.uleb128 0x2e
 1712 09f9 83020000 		.4byte	.LASF115
 1713 09fd 0B       		.byte	0xb
 1714 09fe 68       		.byte	0x68
 1715 09ff 090A0000 		.4byte	0xa09
 1716 0a03 0D       		.uleb128 0xd
 1717 0a04 7A060000 		.4byte	0x67a
 1718 0a08 00       		.byte	0
 1719 0a09 2F       		.uleb128 0x2f
 1720 0a0a D1000000 		.4byte	.LASF120
 1721 0a0e 0B       		.byte	0xb
 1722 0a0f 6C       		.byte	0x6c
 1723 0a10 0D       		.uleb128 0xd
 1724 0a11 7A060000 		.4byte	0x67a
 1725 0a15 00       		.byte	0
 1726 0a16 00       		.byte	0
 1727              		.section	.debug_abbrev,"",%progbits
 1728              	.Ldebug_abbrev0:
 1729 0000 01       		.uleb128 0x1
 1730 0001 11       		.uleb128 0x11
 1731 0002 01       		.byte	0x1
 1732 0003 25       		.uleb128 0x25
 1733 0004 0E       		.uleb128 0xe
 1734 0005 13       		.uleb128 0x13
 1735 0006 0B       		.uleb128 0xb
 1736 0007 03       		.uleb128 0x3
 1737 0008 0E       		.uleb128 0xe
 1738 0009 1B       		.uleb128 0x1b
 1739 000a 0E       		.uleb128 0xe
 1740 000b 55       		.uleb128 0x55
 1741 000c 17       		.uleb128 0x17
 1742 000d 11       		.uleb128 0x11
 1743 000e 01       		.uleb128 0x1
 1744 000f 10       		.uleb128 0x10
 1745 0010 17       		.uleb128 0x17
 1746 0011 00       		.byte	0
 1747 0012 00       		.byte	0
 1748 0013 02       		.uleb128 0x2
 1749 0014 24       		.uleb128 0x24
 1750 0015 00       		.byte	0
 1751 0016 0B       		.uleb128 0xb
 1752 0017 0B       		.uleb128 0xb
 1753 0018 3E       		.uleb128 0x3e
 1754 0019 0B       		.uleb128 0xb
 1755 001a 03       		.uleb128 0x3
 1756 001b 08       		.uleb128 0x8
 1757 001c 00       		.byte	0
ARM GAS  /tmp/ccELqvZ3.s 			page 32


 1758 001d 00       		.byte	0
 1759 001e 03       		.uleb128 0x3
 1760 001f 16       		.uleb128 0x16
 1761 0020 00       		.byte	0
 1762 0021 03       		.uleb128 0x3
 1763 0022 0E       		.uleb128 0xe
 1764 0023 3A       		.uleb128 0x3a
 1765 0024 0B       		.uleb128 0xb
 1766 0025 3B       		.uleb128 0x3b
 1767 0026 0B       		.uleb128 0xb
 1768 0027 49       		.uleb128 0x49
 1769 0028 13       		.uleb128 0x13
 1770 0029 00       		.byte	0
 1771 002a 00       		.byte	0
 1772 002b 04       		.uleb128 0x4
 1773 002c 24       		.uleb128 0x24
 1774 002d 00       		.byte	0
 1775 002e 0B       		.uleb128 0xb
 1776 002f 0B       		.uleb128 0xb
 1777 0030 3E       		.uleb128 0x3e
 1778 0031 0B       		.uleb128 0xb
 1779 0032 03       		.uleb128 0x3
 1780 0033 0E       		.uleb128 0xe
 1781 0034 00       		.byte	0
 1782 0035 00       		.byte	0
 1783 0036 05       		.uleb128 0x5
 1784 0037 35       		.uleb128 0x35
 1785 0038 00       		.byte	0
 1786 0039 49       		.uleb128 0x49
 1787 003a 13       		.uleb128 0x13
 1788 003b 00       		.byte	0
 1789 003c 00       		.byte	0
 1790 003d 06       		.uleb128 0x6
 1791 003e 13       		.uleb128 0x13
 1792 003f 01       		.byte	0x1
 1793 0040 03       		.uleb128 0x3
 1794 0041 0E       		.uleb128 0xe
 1795 0042 0B       		.uleb128 0xb
 1796 0043 0B       		.uleb128 0xb
 1797 0044 3A       		.uleb128 0x3a
 1798 0045 0B       		.uleb128 0xb
 1799 0046 3B       		.uleb128 0x3b
 1800 0047 0B       		.uleb128 0xb
 1801 0048 01       		.uleb128 0x1
 1802 0049 13       		.uleb128 0x13
 1803 004a 00       		.byte	0
 1804 004b 00       		.byte	0
 1805 004c 07       		.uleb128 0x7
 1806 004d 0D       		.uleb128 0xd
 1807 004e 00       		.byte	0
 1808 004f 03       		.uleb128 0x3
 1809 0050 0E       		.uleb128 0xe
 1810 0051 3A       		.uleb128 0x3a
 1811 0052 0B       		.uleb128 0xb
 1812 0053 3B       		.uleb128 0x3b
 1813 0054 0B       		.uleb128 0xb
 1814 0055 49       		.uleb128 0x49
ARM GAS  /tmp/ccELqvZ3.s 			page 33


 1815 0056 13       		.uleb128 0x13
 1816 0057 38       		.uleb128 0x38
 1817 0058 0B       		.uleb128 0xb
 1818 0059 00       		.byte	0
 1819 005a 00       		.byte	0
 1820 005b 08       		.uleb128 0x8
 1821 005c 0D       		.uleb128 0xd
 1822 005d 00       		.byte	0
 1823 005e 03       		.uleb128 0x3
 1824 005f 08       		.uleb128 0x8
 1825 0060 3A       		.uleb128 0x3a
 1826 0061 0B       		.uleb128 0xb
 1827 0062 3B       		.uleb128 0x3b
 1828 0063 05       		.uleb128 0x5
 1829 0064 49       		.uleb128 0x49
 1830 0065 13       		.uleb128 0x13
 1831 0066 38       		.uleb128 0x38
 1832 0067 0B       		.uleb128 0xb
 1833 0068 00       		.byte	0
 1834 0069 00       		.byte	0
 1835 006a 09       		.uleb128 0x9
 1836 006b 0D       		.uleb128 0xd
 1837 006c 00       		.byte	0
 1838 006d 03       		.uleb128 0x3
 1839 006e 0E       		.uleb128 0xe
 1840 006f 3A       		.uleb128 0x3a
 1841 0070 0B       		.uleb128 0xb
 1842 0071 3B       		.uleb128 0x3b
 1843 0072 05       		.uleb128 0x5
 1844 0073 49       		.uleb128 0x49
 1845 0074 13       		.uleb128 0x13
 1846 0075 38       		.uleb128 0x38
 1847 0076 0B       		.uleb128 0xb
 1848 0077 00       		.byte	0
 1849 0078 00       		.byte	0
 1850 0079 0A       		.uleb128 0xa
 1851 007a 13       		.uleb128 0x13
 1852 007b 01       		.byte	0x1
 1853 007c 03       		.uleb128 0x3
 1854 007d 0E       		.uleb128 0xe
 1855 007e 0B       		.uleb128 0xb
 1856 007f 0B       		.uleb128 0xb
 1857 0080 3A       		.uleb128 0x3a
 1858 0081 0B       		.uleb128 0xb
 1859 0082 3B       		.uleb128 0x3b
 1860 0083 05       		.uleb128 0x5
 1861 0084 01       		.uleb128 0x1
 1862 0085 13       		.uleb128 0x13
 1863 0086 00       		.byte	0
 1864 0087 00       		.byte	0
 1865 0088 0B       		.uleb128 0xb
 1866 0089 0F       		.uleb128 0xf
 1867 008a 00       		.byte	0
 1868 008b 0B       		.uleb128 0xb
 1869 008c 0B       		.uleb128 0xb
 1870 008d 49       		.uleb128 0x49
 1871 008e 13       		.uleb128 0x13
ARM GAS  /tmp/ccELqvZ3.s 			page 34


 1872 008f 00       		.byte	0
 1873 0090 00       		.byte	0
 1874 0091 0C       		.uleb128 0xc
 1875 0092 15       		.uleb128 0x15
 1876 0093 01       		.byte	0x1
 1877 0094 27       		.uleb128 0x27
 1878 0095 19       		.uleb128 0x19
 1879 0096 01       		.uleb128 0x1
 1880 0097 13       		.uleb128 0x13
 1881 0098 00       		.byte	0
 1882 0099 00       		.byte	0
 1883 009a 0D       		.uleb128 0xd
 1884 009b 05       		.uleb128 0x5
 1885 009c 00       		.byte	0
 1886 009d 49       		.uleb128 0x49
 1887 009e 13       		.uleb128 0x13
 1888 009f 00       		.byte	0
 1889 00a0 00       		.byte	0
 1890 00a1 0E       		.uleb128 0xe
 1891 00a2 0F       		.uleb128 0xf
 1892 00a3 00       		.byte	0
 1893 00a4 0B       		.uleb128 0xb
 1894 00a5 0B       		.uleb128 0xb
 1895 00a6 00       		.byte	0
 1896 00a7 00       		.byte	0
 1897 00a8 0F       		.uleb128 0xf
 1898 00a9 13       		.uleb128 0x13
 1899 00aa 01       		.byte	0x1
 1900 00ab 03       		.uleb128 0x3
 1901 00ac 0E       		.uleb128 0xe
 1902 00ad 0B       		.uleb128 0xb
 1903 00ae 05       		.uleb128 0x5
 1904 00af 3A       		.uleb128 0x3a
 1905 00b0 0B       		.uleb128 0xb
 1906 00b1 3B       		.uleb128 0x3b
 1907 00b2 05       		.uleb128 0x5
 1908 00b3 01       		.uleb128 0x1
 1909 00b4 13       		.uleb128 0x13
 1910 00b5 00       		.byte	0
 1911 00b6 00       		.byte	0
 1912 00b7 10       		.uleb128 0x10
 1913 00b8 0D       		.uleb128 0xd
 1914 00b9 00       		.byte	0
 1915 00ba 03       		.uleb128 0x3
 1916 00bb 08       		.uleb128 0x8
 1917 00bc 3A       		.uleb128 0x3a
 1918 00bd 0B       		.uleb128 0xb
 1919 00be 3B       		.uleb128 0x3b
 1920 00bf 0B       		.uleb128 0xb
 1921 00c0 49       		.uleb128 0x49
 1922 00c1 13       		.uleb128 0x13
 1923 00c2 38       		.uleb128 0x38
 1924 00c3 0B       		.uleb128 0xb
 1925 00c4 00       		.byte	0
 1926 00c5 00       		.byte	0
 1927 00c6 11       		.uleb128 0x11
 1928 00c7 13       		.uleb128 0x13
ARM GAS  /tmp/ccELqvZ3.s 			page 35


 1929 00c8 01       		.byte	0x1
 1930 00c9 0B       		.uleb128 0xb
 1931 00ca 0B       		.uleb128 0xb
 1932 00cb 3A       		.uleb128 0x3a
 1933 00cc 0B       		.uleb128 0xb
 1934 00cd 3B       		.uleb128 0x3b
 1935 00ce 0B       		.uleb128 0xb
 1936 00cf 01       		.uleb128 0x1
 1937 00d0 13       		.uleb128 0x13
 1938 00d1 00       		.byte	0
 1939 00d2 00       		.byte	0
 1940 00d3 12       		.uleb128 0x12
 1941 00d4 17       		.uleb128 0x17
 1942 00d5 01       		.byte	0x1
 1943 00d6 0B       		.uleb128 0xb
 1944 00d7 0B       		.uleb128 0xb
 1945 00d8 3A       		.uleb128 0x3a
 1946 00d9 0B       		.uleb128 0xb
 1947 00da 3B       		.uleb128 0x3b
 1948 00db 0B       		.uleb128 0xb
 1949 00dc 01       		.uleb128 0x1
 1950 00dd 13       		.uleb128 0x13
 1951 00de 00       		.byte	0
 1952 00df 00       		.byte	0
 1953 00e0 13       		.uleb128 0x13
 1954 00e1 0D       		.uleb128 0xd
 1955 00e2 00       		.byte	0
 1956 00e3 03       		.uleb128 0x3
 1957 00e4 0E       		.uleb128 0xe
 1958 00e5 3A       		.uleb128 0x3a
 1959 00e6 0B       		.uleb128 0xb
 1960 00e7 3B       		.uleb128 0x3b
 1961 00e8 0B       		.uleb128 0xb
 1962 00e9 49       		.uleb128 0x49
 1963 00ea 13       		.uleb128 0x13
 1964 00eb 00       		.byte	0
 1965 00ec 00       		.byte	0
 1966 00ed 14       		.uleb128 0x14
 1967 00ee 0D       		.uleb128 0xd
 1968 00ef 00       		.byte	0
 1969 00f0 03       		.uleb128 0x3
 1970 00f1 0E       		.uleb128 0xe
 1971 00f2 3A       		.uleb128 0x3a
 1972 00f3 0B       		.uleb128 0xb
 1973 00f4 3B       		.uleb128 0x3b
 1974 00f5 05       		.uleb128 0x5
 1975 00f6 49       		.uleb128 0x49
 1976 00f7 13       		.uleb128 0x13
 1977 00f8 00       		.byte	0
 1978 00f9 00       		.byte	0
 1979 00fa 15       		.uleb128 0x15
 1980 00fb 26       		.uleb128 0x26
 1981 00fc 00       		.byte	0
 1982 00fd 49       		.uleb128 0x49
 1983 00fe 13       		.uleb128 0x13
 1984 00ff 00       		.byte	0
 1985 0100 00       		.byte	0
ARM GAS  /tmp/ccELqvZ3.s 			page 36


 1986 0101 16       		.uleb128 0x16
 1987 0102 01       		.uleb128 0x1
 1988 0103 01       		.byte	0x1
 1989 0104 49       		.uleb128 0x49
 1990 0105 13       		.uleb128 0x13
 1991 0106 01       		.uleb128 0x1
 1992 0107 13       		.uleb128 0x13
 1993 0108 00       		.byte	0
 1994 0109 00       		.byte	0
 1995 010a 17       		.uleb128 0x17
 1996 010b 21       		.uleb128 0x21
 1997 010c 00       		.byte	0
 1998 010d 49       		.uleb128 0x49
 1999 010e 13       		.uleb128 0x13
 2000 010f 2F       		.uleb128 0x2f
 2001 0110 0B       		.uleb128 0xb
 2002 0111 00       		.byte	0
 2003 0112 00       		.byte	0
 2004 0113 18       		.uleb128 0x18
 2005 0114 15       		.uleb128 0x15
 2006 0115 01       		.byte	0x1
 2007 0116 27       		.uleb128 0x27
 2008 0117 19       		.uleb128 0x19
 2009 0118 49       		.uleb128 0x49
 2010 0119 13       		.uleb128 0x13
 2011 011a 01       		.uleb128 0x1
 2012 011b 13       		.uleb128 0x13
 2013 011c 00       		.byte	0
 2014 011d 00       		.byte	0
 2015 011e 19       		.uleb128 0x19
 2016 011f 17       		.uleb128 0x17
 2017 0120 01       		.byte	0x1
 2018 0121 03       		.uleb128 0x3
 2019 0122 0E       		.uleb128 0xe
 2020 0123 0B       		.uleb128 0xb
 2021 0124 0B       		.uleb128 0xb
 2022 0125 3A       		.uleb128 0x3a
 2023 0126 0B       		.uleb128 0xb
 2024 0127 3B       		.uleb128 0x3b
 2025 0128 0B       		.uleb128 0xb
 2026 0129 01       		.uleb128 0x1
 2027 012a 13       		.uleb128 0x13
 2028 012b 00       		.byte	0
 2029 012c 00       		.byte	0
 2030 012d 1A       		.uleb128 0x1a
 2031 012e 0D       		.uleb128 0xd
 2032 012f 00       		.byte	0
 2033 0130 03       		.uleb128 0x3
 2034 0131 08       		.uleb128 0x8
 2035 0132 3A       		.uleb128 0x3a
 2036 0133 0B       		.uleb128 0xb
 2037 0134 3B       		.uleb128 0x3b
 2038 0135 0B       		.uleb128 0xb
 2039 0136 49       		.uleb128 0x49
 2040 0137 13       		.uleb128 0x13
 2041 0138 00       		.byte	0
 2042 0139 00       		.byte	0
ARM GAS  /tmp/ccELqvZ3.s 			page 37


 2043 013a 1B       		.uleb128 0x1b
 2044 013b 2E       		.uleb128 0x2e
 2045 013c 01       		.byte	0x1
 2046 013d 3F       		.uleb128 0x3f
 2047 013e 19       		.uleb128 0x19
 2048 013f 03       		.uleb128 0x3
 2049 0140 0E       		.uleb128 0xe
 2050 0141 3A       		.uleb128 0x3a
 2051 0142 0B       		.uleb128 0xb
 2052 0143 3B       		.uleb128 0x3b
 2053 0144 0B       		.uleb128 0xb
 2054 0145 27       		.uleb128 0x27
 2055 0146 19       		.uleb128 0x19
 2056 0147 11       		.uleb128 0x11
 2057 0148 01       		.uleb128 0x1
 2058 0149 12       		.uleb128 0x12
 2059 014a 06       		.uleb128 0x6
 2060 014b 40       		.uleb128 0x40
 2061 014c 18       		.uleb128 0x18
 2062 014d 9742     		.uleb128 0x2117
 2063 014f 19       		.uleb128 0x19
 2064 0150 01       		.uleb128 0x1
 2065 0151 13       		.uleb128 0x13
 2066 0152 00       		.byte	0
 2067 0153 00       		.byte	0
 2068 0154 1C       		.uleb128 0x1c
 2069 0155 898201   		.uleb128 0x4109
 2070 0158 01       		.byte	0x1
 2071 0159 11       		.uleb128 0x11
 2072 015a 01       		.uleb128 0x1
 2073 015b 9542     		.uleb128 0x2115
 2074 015d 19       		.uleb128 0x19
 2075 015e 31       		.uleb128 0x31
 2076 015f 13       		.uleb128 0x13
 2077 0160 00       		.byte	0
 2078 0161 00       		.byte	0
 2079 0162 1D       		.uleb128 0x1d
 2080 0163 8A8201   		.uleb128 0x410a
 2081 0166 00       		.byte	0
 2082 0167 02       		.uleb128 0x2
 2083 0168 18       		.uleb128 0x18
 2084 0169 9142     		.uleb128 0x2111
 2085 016b 18       		.uleb128 0x18
 2086 016c 00       		.byte	0
 2087 016d 00       		.byte	0
 2088 016e 1E       		.uleb128 0x1e
 2089 016f 05       		.uleb128 0x5
 2090 0170 00       		.byte	0
 2091 0171 03       		.uleb128 0x3
 2092 0172 0E       		.uleb128 0xe
 2093 0173 3A       		.uleb128 0x3a
 2094 0174 0B       		.uleb128 0xb
 2095 0175 3B       		.uleb128 0x3b
 2096 0176 0B       		.uleb128 0xb
 2097 0177 49       		.uleb128 0x49
 2098 0178 13       		.uleb128 0x13
 2099 0179 02       		.uleb128 0x2
ARM GAS  /tmp/ccELqvZ3.s 			page 38


 2100 017a 17       		.uleb128 0x17
 2101 017b 00       		.byte	0
 2102 017c 00       		.byte	0
 2103 017d 1F       		.uleb128 0x1f
 2104 017e 05       		.uleb128 0x5
 2105 017f 00       		.byte	0
 2106 0180 03       		.uleb128 0x3
 2107 0181 08       		.uleb128 0x8
 2108 0182 3A       		.uleb128 0x3a
 2109 0183 0B       		.uleb128 0xb
 2110 0184 3B       		.uleb128 0x3b
 2111 0185 0B       		.uleb128 0xb
 2112 0186 49       		.uleb128 0x49
 2113 0187 13       		.uleb128 0x13
 2114 0188 02       		.uleb128 0x2
 2115 0189 17       		.uleb128 0x17
 2116 018a 00       		.byte	0
 2117 018b 00       		.byte	0
 2118 018c 20       		.uleb128 0x20
 2119 018d 34       		.uleb128 0x34
 2120 018e 00       		.byte	0
 2121 018f 03       		.uleb128 0x3
 2122 0190 08       		.uleb128 0x8
 2123 0191 3A       		.uleb128 0x3a
 2124 0192 0B       		.uleb128 0xb
 2125 0193 3B       		.uleb128 0x3b
 2126 0194 0B       		.uleb128 0xb
 2127 0195 49       		.uleb128 0x49
 2128 0196 13       		.uleb128 0x13
 2129 0197 02       		.uleb128 0x2
 2130 0198 17       		.uleb128 0x17
 2131 0199 00       		.byte	0
 2132 019a 00       		.byte	0
 2133 019b 21       		.uleb128 0x21
 2134 019c 34       		.uleb128 0x34
 2135 019d 00       		.byte	0
 2136 019e 03       		.uleb128 0x3
 2137 019f 0E       		.uleb128 0xe
 2138 01a0 49       		.uleb128 0x49
 2139 01a1 13       		.uleb128 0x13
 2140 01a2 34       		.uleb128 0x34
 2141 01a3 19       		.uleb128 0x19
 2142 01a4 00       		.byte	0
 2143 01a5 00       		.byte	0
 2144 01a6 22       		.uleb128 0x22
 2145 01a7 2E       		.uleb128 0x2e
 2146 01a8 01       		.byte	0x1
 2147 01a9 3F       		.uleb128 0x3f
 2148 01aa 19       		.uleb128 0x19
 2149 01ab 03       		.uleb128 0x3
 2150 01ac 0E       		.uleb128 0xe
 2151 01ad 3A       		.uleb128 0x3a
 2152 01ae 0B       		.uleb128 0xb
 2153 01af 3B       		.uleb128 0x3b
 2154 01b0 0B       		.uleb128 0xb
 2155 01b1 27       		.uleb128 0x27
 2156 01b2 19       		.uleb128 0x19
ARM GAS  /tmp/ccELqvZ3.s 			page 39


 2157 01b3 49       		.uleb128 0x49
 2158 01b4 13       		.uleb128 0x13
 2159 01b5 11       		.uleb128 0x11
 2160 01b6 01       		.uleb128 0x1
 2161 01b7 12       		.uleb128 0x12
 2162 01b8 06       		.uleb128 0x6
 2163 01b9 40       		.uleb128 0x40
 2164 01ba 18       		.uleb128 0x18
 2165 01bb 9742     		.uleb128 0x2117
 2166 01bd 19       		.uleb128 0x19
 2167 01be 01       		.uleb128 0x1
 2168 01bf 13       		.uleb128 0x13
 2169 01c0 00       		.byte	0
 2170 01c1 00       		.byte	0
 2171 01c2 23       		.uleb128 0x23
 2172 01c3 898201   		.uleb128 0x4109
 2173 01c6 01       		.byte	0x1
 2174 01c7 11       		.uleb128 0x11
 2175 01c8 01       		.uleb128 0x1
 2176 01c9 31       		.uleb128 0x31
 2177 01ca 13       		.uleb128 0x13
 2178 01cb 01       		.uleb128 0x1
 2179 01cc 13       		.uleb128 0x13
 2180 01cd 00       		.byte	0
 2181 01ce 00       		.byte	0
 2182 01cf 24       		.uleb128 0x24
 2183 01d0 898201   		.uleb128 0x4109
 2184 01d3 01       		.byte	0x1
 2185 01d4 11       		.uleb128 0x11
 2186 01d5 01       		.uleb128 0x1
 2187 01d6 01       		.uleb128 0x1
 2188 01d7 13       		.uleb128 0x13
 2189 01d8 00       		.byte	0
 2190 01d9 00       		.byte	0
 2191 01da 25       		.uleb128 0x25
 2192 01db 898201   		.uleb128 0x4109
 2193 01de 01       		.byte	0x1
 2194 01df 11       		.uleb128 0x11
 2195 01e0 01       		.uleb128 0x1
 2196 01e1 31       		.uleb128 0x31
 2197 01e2 13       		.uleb128 0x13
 2198 01e3 00       		.byte	0
 2199 01e4 00       		.byte	0
 2200 01e5 26       		.uleb128 0x26
 2201 01e6 34       		.uleb128 0x34
 2202 01e7 00       		.byte	0
 2203 01e8 03       		.uleb128 0x3
 2204 01e9 0E       		.uleb128 0xe
 2205 01ea 3A       		.uleb128 0x3a
 2206 01eb 0B       		.uleb128 0xb
 2207 01ec 3B       		.uleb128 0x3b
 2208 01ed 0B       		.uleb128 0xb
 2209 01ee 49       		.uleb128 0x49
 2210 01ef 13       		.uleb128 0x13
 2211 01f0 02       		.uleb128 0x2
 2212 01f1 17       		.uleb128 0x17
 2213 01f2 00       		.byte	0
ARM GAS  /tmp/ccELqvZ3.s 			page 40


 2214 01f3 00       		.byte	0
 2215 01f4 27       		.uleb128 0x27
 2216 01f5 898201   		.uleb128 0x4109
 2217 01f8 00       		.byte	0
 2218 01f9 11       		.uleb128 0x11
 2219 01fa 01       		.uleb128 0x1
 2220 01fb 9542     		.uleb128 0x2115
 2221 01fd 19       		.uleb128 0x19
 2222 01fe 31       		.uleb128 0x31
 2223 01ff 13       		.uleb128 0x13
 2224 0200 00       		.byte	0
 2225 0201 00       		.byte	0
 2226 0202 28       		.uleb128 0x28
 2227 0203 2E       		.uleb128 0x2e
 2228 0204 01       		.byte	0x1
 2229 0205 3F       		.uleb128 0x3f
 2230 0206 19       		.uleb128 0x19
 2231 0207 03       		.uleb128 0x3
 2232 0208 0E       		.uleb128 0xe
 2233 0209 3A       		.uleb128 0x3a
 2234 020a 0B       		.uleb128 0xb
 2235 020b 3B       		.uleb128 0x3b
 2236 020c 05       		.uleb128 0x5
 2237 020d 27       		.uleb128 0x27
 2238 020e 19       		.uleb128 0x19
 2239 020f 49       		.uleb128 0x49
 2240 0210 13       		.uleb128 0x13
 2241 0211 11       		.uleb128 0x11
 2242 0212 01       		.uleb128 0x1
 2243 0213 12       		.uleb128 0x12
 2244 0214 06       		.uleb128 0x6
 2245 0215 40       		.uleb128 0x40
 2246 0216 18       		.uleb128 0x18
 2247 0217 9742     		.uleb128 0x2117
 2248 0219 19       		.uleb128 0x19
 2249 021a 01       		.uleb128 0x1
 2250 021b 13       		.uleb128 0x13
 2251 021c 00       		.byte	0
 2252 021d 00       		.byte	0
 2253 021e 29       		.uleb128 0x29
 2254 021f 05       		.uleb128 0x5
 2255 0220 00       		.byte	0
 2256 0221 03       		.uleb128 0x3
 2257 0222 0E       		.uleb128 0xe
 2258 0223 3A       		.uleb128 0x3a
 2259 0224 0B       		.uleb128 0xb
 2260 0225 3B       		.uleb128 0x3b
 2261 0226 05       		.uleb128 0x5
 2262 0227 49       		.uleb128 0x49
 2263 0228 13       		.uleb128 0x13
 2264 0229 02       		.uleb128 0x2
 2265 022a 17       		.uleb128 0x17
 2266 022b 00       		.byte	0
 2267 022c 00       		.byte	0
 2268 022d 2A       		.uleb128 0x2a
 2269 022e 34       		.uleb128 0x34
 2270 022f 00       		.byte	0
ARM GAS  /tmp/ccELqvZ3.s 			page 41


 2271 0230 03       		.uleb128 0x3
 2272 0231 08       		.uleb128 0x8
 2273 0232 3A       		.uleb128 0x3a
 2274 0233 0B       		.uleb128 0xb
 2275 0234 3B       		.uleb128 0x3b
 2276 0235 05       		.uleb128 0x5
 2277 0236 49       		.uleb128 0x49
 2278 0237 13       		.uleb128 0x13
 2279 0238 02       		.uleb128 0x2
 2280 0239 17       		.uleb128 0x17
 2281 023a 00       		.byte	0
 2282 023b 00       		.byte	0
 2283 023c 2B       		.uleb128 0x2b
 2284 023d 34       		.uleb128 0x34
 2285 023e 00       		.byte	0
 2286 023f 03       		.uleb128 0x3
 2287 0240 0E       		.uleb128 0xe
 2288 0241 3A       		.uleb128 0x3a
 2289 0242 0B       		.uleb128 0xb
 2290 0243 3B       		.uleb128 0x3b
 2291 0244 0B       		.uleb128 0xb
 2292 0245 49       		.uleb128 0x49
 2293 0246 13       		.uleb128 0x13
 2294 0247 02       		.uleb128 0x2
 2295 0248 18       		.uleb128 0x18
 2296 0249 00       		.byte	0
 2297 024a 00       		.byte	0
 2298 024b 2C       		.uleb128 0x2c
 2299 024c 34       		.uleb128 0x34
 2300 024d 00       		.byte	0
 2301 024e 03       		.uleb128 0x3
 2302 024f 0E       		.uleb128 0xe
 2303 0250 3A       		.uleb128 0x3a
 2304 0251 0B       		.uleb128 0xb
 2305 0252 3B       		.uleb128 0x3b
 2306 0253 05       		.uleb128 0x5
 2307 0254 49       		.uleb128 0x49
 2308 0255 13       		.uleb128 0x13
 2309 0256 3F       		.uleb128 0x3f
 2310 0257 19       		.uleb128 0x19
 2311 0258 3C       		.uleb128 0x3c
 2312 0259 19       		.uleb128 0x19
 2313 025a 00       		.byte	0
 2314 025b 00       		.byte	0
 2315 025c 2D       		.uleb128 0x2d
 2316 025d 34       		.uleb128 0x34
 2317 025e 00       		.byte	0
 2318 025f 03       		.uleb128 0x3
 2319 0260 08       		.uleb128 0x8
 2320 0261 3A       		.uleb128 0x3a
 2321 0262 0B       		.uleb128 0xb
 2322 0263 3B       		.uleb128 0x3b
 2323 0264 05       		.uleb128 0x5
 2324 0265 49       		.uleb128 0x49
 2325 0266 13       		.uleb128 0x13
 2326 0267 3F       		.uleb128 0x3f
 2327 0268 19       		.uleb128 0x19
ARM GAS  /tmp/ccELqvZ3.s 			page 42


 2328 0269 3C       		.uleb128 0x3c
 2329 026a 19       		.uleb128 0x19
 2330 026b 00       		.byte	0
 2331 026c 00       		.byte	0
 2332 026d 2E       		.uleb128 0x2e
 2333 026e 2E       		.uleb128 0x2e
 2334 026f 01       		.byte	0x1
 2335 0270 3F       		.uleb128 0x3f
 2336 0271 19       		.uleb128 0x19
 2337 0272 03       		.uleb128 0x3
 2338 0273 0E       		.uleb128 0xe
 2339 0274 3A       		.uleb128 0x3a
 2340 0275 0B       		.uleb128 0xb
 2341 0276 3B       		.uleb128 0x3b
 2342 0277 0B       		.uleb128 0xb
 2343 0278 27       		.uleb128 0x27
 2344 0279 19       		.uleb128 0x19
 2345 027a 3C       		.uleb128 0x3c
 2346 027b 19       		.uleb128 0x19
 2347 027c 01       		.uleb128 0x1
 2348 027d 13       		.uleb128 0x13
 2349 027e 00       		.byte	0
 2350 027f 00       		.byte	0
 2351 0280 2F       		.uleb128 0x2f
 2352 0281 2E       		.uleb128 0x2e
 2353 0282 01       		.byte	0x1
 2354 0283 3F       		.uleb128 0x3f
 2355 0284 19       		.uleb128 0x19
 2356 0285 03       		.uleb128 0x3
 2357 0286 0E       		.uleb128 0xe
 2358 0287 3A       		.uleb128 0x3a
 2359 0288 0B       		.uleb128 0xb
 2360 0289 3B       		.uleb128 0x3b
 2361 028a 0B       		.uleb128 0xb
 2362 028b 27       		.uleb128 0x27
 2363 028c 19       		.uleb128 0x19
 2364 028d 3C       		.uleb128 0x3c
 2365 028e 19       		.uleb128 0x19
 2366 028f 00       		.byte	0
 2367 0290 00       		.byte	0
 2368 0291 00       		.byte	0
 2369              		.section	.debug_loc,"",%progbits
 2370              	.Ldebug_loc0:
 2371              	.LLST0:
 2372 0000 00000000 		.4byte	.LVL1
 2373 0004 0C000000 		.4byte	.LVL4
 2374 0008 0100     		.2byte	0x1
 2375 000a 50       		.byte	0x50
 2376 000b 0C000000 		.4byte	.LVL4
 2377 000f 13000000 		.4byte	.LVL5-1
 2378 0013 0300     		.2byte	0x3
 2379 0015 70       		.byte	0x70
 2380 0016 70       		.sleb128 -16
 2381 0017 9F       		.byte	0x9f
 2382 0018 13000000 		.4byte	.LVL5-1
 2383 001c 14000000 		.4byte	.LFE227
 2384 0020 0400     		.2byte	0x4
ARM GAS  /tmp/ccELqvZ3.s 			page 43


 2385 0022 F3       		.byte	0xf3
 2386 0023 01       		.uleb128 0x1
 2387 0024 50       		.byte	0x50
 2388 0025 9F       		.byte	0x9f
 2389 0026 00000000 		.4byte	0
 2390 002a 00000000 		.4byte	0
 2391              	.LLST1:
 2392 002e 00000000 		.4byte	.LVL1
 2393 0032 13000000 		.4byte	.LVL5-1
 2394 0036 0100     		.2byte	0x1
 2395 0038 51       		.byte	0x51
 2396 0039 13000000 		.4byte	.LVL5-1
 2397 003d 14000000 		.4byte	.LFE227
 2398 0041 0400     		.2byte	0x4
 2399 0043 F3       		.byte	0xf3
 2400 0044 01       		.uleb128 0x1
 2401 0045 51       		.byte	0x51
 2402 0046 9F       		.byte	0x9f
 2403 0047 00000000 		.4byte	0
 2404 004b 00000000 		.4byte	0
 2405              	.LLST2:
 2406 004f 00000000 		.4byte	.LVL1
 2407 0053 04000000 		.4byte	.LVL2
 2408 0057 0100     		.2byte	0x1
 2409 0059 52       		.byte	0x52
 2410 005a 04000000 		.4byte	.LVL2
 2411 005e 13000000 		.4byte	.LVL5-1
 2412 0062 0300     		.2byte	0x3
 2413 0064 72       		.byte	0x72
 2414 0065 08       		.sleb128 8
 2415 0066 9F       		.byte	0x9f
 2416 0067 13000000 		.4byte	.LVL5-1
 2417 006b 14000000 		.4byte	.LFE227
 2418 006f 0400     		.2byte	0x4
 2419 0071 F3       		.byte	0xf3
 2420 0072 01       		.uleb128 0x1
 2421 0073 52       		.byte	0x52
 2422 0074 9F       		.byte	0x9f
 2423 0075 00000000 		.4byte	0
 2424 0079 00000000 		.4byte	0
 2425              	.LLST3:
 2426 007d 08000000 		.4byte	.LVL3
 2427 0081 13000000 		.4byte	.LVL5-1
 2428 0085 0100     		.2byte	0x1
 2429 0087 51       		.byte	0x51
 2430 0088 13000000 		.4byte	.LVL5-1
 2431 008c 14000000 		.4byte	.LFE227
 2432 0090 0400     		.2byte	0x4
 2433 0092 F3       		.byte	0xf3
 2434 0093 01       		.uleb128 0x1
 2435 0094 51       		.byte	0x51
 2436 0095 9F       		.byte	0x9f
 2437 0096 00000000 		.4byte	0
 2438 009a 00000000 		.4byte	0
 2439              	.LLST4:
 2440 009e 00000000 		.4byte	.LVL6
 2441 00a2 0A000000 		.4byte	.LVL7
ARM GAS  /tmp/ccELqvZ3.s 			page 44


 2442 00a6 0100     		.2byte	0x1
 2443 00a8 50       		.byte	0x50
 2444 00a9 0A000000 		.4byte	.LVL7
 2445 00ad 8C000000 		.4byte	.LFE228
 2446 00b1 0100     		.2byte	0x1
 2447 00b3 56       		.byte	0x56
 2448 00b4 00000000 		.4byte	0
 2449 00b8 00000000 		.4byte	0
 2450              	.LLST5:
 2451 00bc 00000000 		.4byte	.LVL6
 2452 00c0 10000000 		.4byte	.LVL8
 2453 00c4 0100     		.2byte	0x1
 2454 00c6 51       		.byte	0x51
 2455 00c7 10000000 		.4byte	.LVL8
 2456 00cb 16000000 		.4byte	.LVL9
 2457 00cf 0300     		.2byte	0x3
 2458 00d1 71       		.byte	0x71
 2459 00d2 79       		.sleb128 -7
 2460 00d3 9F       		.byte	0x9f
 2461 00d4 16000000 		.4byte	.LVL9
 2462 00d8 8C000000 		.4byte	.LFE228
 2463 00dc 0100     		.2byte	0x1
 2464 00de 55       		.byte	0x55
 2465 00df 00000000 		.4byte	0
 2466 00e3 00000000 		.4byte	0
 2467              	.LLST6:
 2468 00e7 1A000000 		.4byte	.LVL10
 2469 00eb 48000000 		.4byte	.LVL18
 2470 00ef 0100     		.2byte	0x1
 2471 00f1 54       		.byte	0x54
 2472 00f2 4C000000 		.4byte	.LVL19
 2473 00f6 5A000000 		.4byte	.LVL20
 2474 00fa 0100     		.2byte	0x1
 2475 00fc 54       		.byte	0x54
 2476 00fd 68000000 		.4byte	.LVL24
 2477 0101 86000000 		.4byte	.LVL27
 2478 0105 0100     		.2byte	0x1
 2479 0107 54       		.byte	0x54
 2480 0108 00000000 		.4byte	0
 2481 010c 00000000 		.4byte	0
 2482              	.LLST7:
 2483 0110 20000000 		.4byte	.LVL12
 2484 0114 28000000 		.4byte	.LVL13
 2485 0118 0100     		.2byte	0x1
 2486 011a 50       		.byte	0x50
 2487 011b 2A000000 		.4byte	.LVL14
 2488 011f 30000000 		.4byte	.LVL15
 2489 0123 0100     		.2byte	0x1
 2490 0125 50       		.byte	0x50
 2491 0126 30000000 		.4byte	.LVL15
 2492 012a 33000000 		.4byte	.LVL16-1
 2493 012e 0200     		.2byte	0x2
 2494 0130 74       		.byte	0x74
 2495 0131 00       		.sleb128 0
 2496 0132 3E000000 		.4byte	.LVL17
 2497 0136 48000000 		.4byte	.LVL18
 2498 013a 0100     		.2byte	0x1
ARM GAS  /tmp/ccELqvZ3.s 			page 45


 2499 013c 50       		.byte	0x50
 2500 013d 4C000000 		.4byte	.LVL19
 2501 0141 5C000000 		.4byte	.LVL21
 2502 0145 0100     		.2byte	0x1
 2503 0147 50       		.byte	0x50
 2504 0148 5C000000 		.4byte	.LVL21
 2505 014c 60000000 		.4byte	.LVL22
 2506 0150 0100     		.2byte	0x1
 2507 0152 54       		.byte	0x54
 2508 0153 60000000 		.4byte	.LVL22
 2509 0157 68000000 		.4byte	.LVL24
 2510 015b 0300     		.2byte	0x3
 2511 015d 74       		.byte	0x74
 2512 015e 78       		.sleb128 -8
 2513 015f 9F       		.byte	0x9f
 2514 0160 68000000 		.4byte	.LVL24
 2515 0164 84000000 		.4byte	.LVL26
 2516 0168 0100     		.2byte	0x1
 2517 016a 50       		.byte	0x50
 2518 016b 00000000 		.4byte	0
 2519 016f 00000000 		.4byte	0
 2520              	.LLST8:
 2521 0173 72000000 		.4byte	.LVL25
 2522 0177 84000000 		.4byte	.LVL26
 2523 017b 0100     		.2byte	0x1
 2524 017d 5E       		.byte	0x5e
 2525 017e 00000000 		.4byte	0
 2526 0182 00000000 		.4byte	0
 2527              	.LLST9:
 2528 0186 00000000 		.4byte	.LVL28
 2529 018a 14000000 		.4byte	.LVL31
 2530 018e 0100     		.2byte	0x1
 2531 0190 50       		.byte	0x50
 2532 0191 14000000 		.4byte	.LVL31
 2533 0195 5E000000 		.4byte	.LVL38
 2534 0199 0100     		.2byte	0x1
 2535 019b 56       		.byte	0x56
 2536 019c 5E000000 		.4byte	.LVL38
 2537 01a0 62000000 		.4byte	.LVL39
 2538 01a4 0400     		.2byte	0x4
 2539 01a6 F3       		.byte	0xf3
 2540 01a7 01       		.uleb128 0x1
 2541 01a8 50       		.byte	0x50
 2542 01a9 9F       		.byte	0x9f
 2543 01aa 62000000 		.4byte	.LVL39
 2544 01ae 90000000 		.4byte	.LVL40
 2545 01b2 0100     		.2byte	0x1
 2546 01b4 56       		.byte	0x56
 2547 01b5 90000000 		.4byte	.LVL40
 2548 01b9 94000000 		.4byte	.LFE229
 2549 01bd 0400     		.2byte	0x4
 2550 01bf F3       		.byte	0xf3
 2551 01c0 01       		.uleb128 0x1
 2552 01c1 50       		.byte	0x50
 2553 01c2 9F       		.byte	0x9f
 2554 01c3 00000000 		.4byte	0
 2555 01c7 00000000 		.4byte	0
ARM GAS  /tmp/ccELqvZ3.s 			page 46


 2556              	.LLST10:
 2557 01cb 12000000 		.4byte	.LVL30
 2558 01cf 1A000000 		.4byte	.LVL33
 2559 01d3 0100     		.2byte	0x1
 2560 01d5 55       		.byte	0x55
 2561 01d6 1A000000 		.4byte	.LVL33
 2562 01da 32000000 		.4byte	.LVL35
 2563 01de 0100     		.2byte	0x1
 2564 01e0 53       		.byte	0x53
 2565 01e1 34000000 		.4byte	.LVL36
 2566 01e5 5E000000 		.4byte	.LVL38
 2567 01e9 0100     		.2byte	0x1
 2568 01eb 53       		.byte	0x53
 2569 01ec 62000000 		.4byte	.LVL39
 2570 01f0 90000000 		.4byte	.LVL40
 2571 01f4 0100     		.2byte	0x1
 2572 01f6 53       		.byte	0x53
 2573 01f7 00000000 		.4byte	0
 2574 01fb 00000000 		.4byte	0
 2575              	.LLST11:
 2576 01ff 10000000 		.4byte	.LVL29
 2577 0203 5E000000 		.4byte	.LVL38
 2578 0207 0100     		.2byte	0x1
 2579 0209 54       		.byte	0x54
 2580 020a 5E000000 		.4byte	.LVL38
 2581 020e 62000000 		.4byte	.LVL39
 2582 0212 0600     		.2byte	0x6
 2583 0214 F3       		.byte	0xf3
 2584 0215 01       		.uleb128 0x1
 2585 0216 50       		.byte	0x50
 2586 0217 38       		.byte	0x38
 2587 0218 1C       		.byte	0x1c
 2588 0219 9F       		.byte	0x9f
 2589 021a 62000000 		.4byte	.LVL39
 2590 021e 90000000 		.4byte	.LVL40
 2591 0222 0100     		.2byte	0x1
 2592 0224 54       		.byte	0x54
 2593 0225 90000000 		.4byte	.LVL40
 2594 0229 94000000 		.4byte	.LFE229
 2595 022d 0600     		.2byte	0x6
 2596 022f F3       		.byte	0xf3
 2597 0230 01       		.uleb128 0x1
 2598 0231 50       		.byte	0x50
 2599 0232 38       		.byte	0x38
 2600 0233 1C       		.byte	0x1c
 2601 0234 9F       		.byte	0x9f
 2602 0235 00000000 		.4byte	0
 2603 0239 00000000 		.4byte	0
 2604              	.LLST12:
 2605 023d 10000000 		.4byte	.LVL29
 2606 0241 12000000 		.4byte	.LVL30
 2607 0245 0100     		.2byte	0x1
 2608 0247 55       		.byte	0x55
 2609 0248 12000000 		.4byte	.LVL30
 2610 024c 17000000 		.4byte	.LVL32-1
 2611 0250 0200     		.2byte	0x2
 2612 0252 74       		.byte	0x74
ARM GAS  /tmp/ccELqvZ3.s 			page 47


 2613 0253 00       		.sleb128 0
 2614 0254 17000000 		.4byte	.LVL32-1
 2615 0258 46000000 		.4byte	.LVL37
 2616 025c 0300     		.2byte	0x3
 2617 025e 75       		.byte	0x75
 2618 025f 78       		.sleb128 -8
 2619 0260 9F       		.byte	0x9f
 2620 0261 46000000 		.4byte	.LVL37
 2621 0265 5E000000 		.4byte	.LVL38
 2622 0269 0300     		.2byte	0x3
 2623 026b 77       		.byte	0x77
 2624 026c 70       		.sleb128 -16
 2625 026d 9F       		.byte	0x9f
 2626 026e 5E000000 		.4byte	.LVL38
 2627 0272 61000000 		.4byte	.LVL39-1
 2628 0276 0300     		.2byte	0x3
 2629 0278 70       		.byte	0x70
 2630 0279 70       		.sleb128 -16
 2631 027a 9F       		.byte	0x9f
 2632 027b 62000000 		.4byte	.LVL39
 2633 027f 90000000 		.4byte	.LVL40
 2634 0283 0300     		.2byte	0x3
 2635 0285 77       		.byte	0x77
 2636 0286 70       		.sleb128 -16
 2637 0287 9F       		.byte	0x9f
 2638 0288 90000000 		.4byte	.LVL40
 2639 028c 93000000 		.4byte	.LVL41-1
 2640 0290 0300     		.2byte	0x3
 2641 0292 70       		.byte	0x70
 2642 0293 70       		.sleb128 -16
 2643 0294 9F       		.byte	0x9f
 2644 0295 00000000 		.4byte	0
 2645 0299 00000000 		.4byte	0
 2646              	.LLST13:
 2647 029d 00000000 		.4byte	.LVL42
 2648 02a1 0A000000 		.4byte	.LVL43
 2649 02a5 0100     		.2byte	0x1
 2650 02a7 50       		.byte	0x50
 2651 02a8 0A000000 		.4byte	.LVL43
 2652 02ac 1E000000 		.4byte	.LVL45
 2653 02b0 0100     		.2byte	0x1
 2654 02b2 54       		.byte	0x54
 2655 02b3 1E000000 		.4byte	.LVL45
 2656 02b7 38000000 		.4byte	.LVL50
 2657 02bb 0300     		.2byte	0x3
 2658 02bd 75       		.byte	0x75
 2659 02be 70       		.sleb128 -16
 2660 02bf 9F       		.byte	0x9f
 2661 02c0 38000000 		.4byte	.LVL50
 2662 02c4 3C000000 		.4byte	.LVL51
 2663 02c8 0100     		.2byte	0x1
 2664 02ca 54       		.byte	0x54
 2665 02cb 3C000000 		.4byte	.LVL51
 2666 02cf 44000000 		.4byte	.LFE230
 2667 02d3 0300     		.2byte	0x3
 2668 02d5 75       		.byte	0x75
 2669 02d6 70       		.sleb128 -16
ARM GAS  /tmp/ccELqvZ3.s 			page 48


 2670 02d7 9F       		.byte	0x9f
 2671 02d8 00000000 		.4byte	0
 2672 02dc 00000000 		.4byte	0
 2673              	.LLST14:
 2674 02e0 00000000 		.4byte	.LVL42
 2675 02e4 15000000 		.4byte	.LVL44-1
 2676 02e8 0100     		.2byte	0x1
 2677 02ea 51       		.byte	0x51
 2678 02eb 15000000 		.4byte	.LVL44-1
 2679 02ef 44000000 		.4byte	.LFE230
 2680 02f3 0100     		.2byte	0x1
 2681 02f5 56       		.byte	0x56
 2682 02f6 00000000 		.4byte	0
 2683 02fa 00000000 		.4byte	0
 2684              	.LLST15:
 2685 02fe 16000000 		.4byte	.LVL44
 2686 0302 1E000000 		.4byte	.LVL45
 2687 0306 0300     		.2byte	0x3
 2688 0308 74       		.byte	0x74
 2689 0309 08       		.sleb128 8
 2690 030a 9F       		.byte	0x9f
 2691 030b 1E000000 		.4byte	.LVL45
 2692 030f 26000000 		.4byte	.LVL47
 2693 0313 0300     		.2byte	0x3
 2694 0315 75       		.byte	0x75
 2695 0316 78       		.sleb128 -8
 2696 0317 9F       		.byte	0x9f
 2697 0318 38000000 		.4byte	.LVL50
 2698 031c 3C000000 		.4byte	.LVL51
 2699 0320 0300     		.2byte	0x3
 2700 0322 74       		.byte	0x74
 2701 0323 08       		.sleb128 8
 2702 0324 9F       		.byte	0x9f
 2703 0325 3C000000 		.4byte	.LVL51
 2704 0329 44000000 		.4byte	.LFE230
 2705 032d 0300     		.2byte	0x3
 2706 032f 75       		.byte	0x75
 2707 0330 78       		.sleb128 -8
 2708 0331 9F       		.byte	0x9f
 2709 0332 00000000 		.4byte	0
 2710 0336 00000000 		.4byte	0
 2711              	.LLST16:
 2712 033a 16000000 		.4byte	.LVL44
 2713 033e 1E000000 		.4byte	.LVL45
 2714 0342 0200     		.2byte	0x2
 2715 0344 30       		.byte	0x30
 2716 0345 9F       		.byte	0x9f
 2717 0346 1E000000 		.4byte	.LVL45
 2718 034a 24000000 		.4byte	.LVL46
 2719 034e 0100     		.2byte	0x1
 2720 0350 54       		.byte	0x54
 2721 0351 24000000 		.4byte	.LVL46
 2722 0355 26000000 		.4byte	.LVL47
 2723 0359 0300     		.2byte	0x3
 2724 035b 74       		.byte	0x74
 2725 035c 7F       		.sleb128 -1
 2726 035d 9F       		.byte	0x9f
ARM GAS  /tmp/ccELqvZ3.s 			page 49


 2727 035e 26000000 		.4byte	.LVL47
 2728 0362 2A000000 		.4byte	.LVL48
 2729 0366 0100     		.2byte	0x1
 2730 0368 54       		.byte	0x54
 2731 0369 38000000 		.4byte	.LVL50
 2732 036d 44000000 		.4byte	.LFE230
 2733 0371 0200     		.2byte	0x2
 2734 0373 30       		.byte	0x30
 2735 0374 9F       		.byte	0x9f
 2736 0375 00000000 		.4byte	0
 2737 0379 00000000 		.4byte	0
 2738              	.LLST17:
 2739 037d 16000000 		.4byte	.LVL44
 2740 0381 1E000000 		.4byte	.LVL45
 2741 0385 0200     		.2byte	0x2
 2742 0387 30       		.byte	0x30
 2743 0388 9F       		.byte	0x9f
 2744 0389 1E000000 		.4byte	.LVL45
 2745 038d 2A000000 		.4byte	.LVL48
 2746 0391 0100     		.2byte	0x1
 2747 0393 52       		.byte	0x52
 2748 0394 38000000 		.4byte	.LVL50
 2749 0398 44000000 		.4byte	.LFE230
 2750 039c 0200     		.2byte	0x2
 2751 039e 30       		.byte	0x30
 2752 039f 9F       		.byte	0x9f
 2753 03a0 00000000 		.4byte	0
 2754 03a4 00000000 		.4byte	0
 2755              		.section	.debug_aranges,"",%progbits
 2756 0000 3C000000 		.4byte	0x3c
 2757 0004 0200     		.2byte	0x2
 2758 0006 00000000 		.4byte	.Ldebug_info0
 2759 000a 04       		.byte	0x4
 2760 000b 00       		.byte	0
 2761 000c 0000     		.2byte	0
 2762 000e 0000     		.2byte	0
 2763 0010 00000000 		.4byte	.LFB226
 2764 0014 1C000000 		.4byte	.LFE226-.LFB226
 2765 0018 00000000 		.4byte	.LFB227
 2766 001c 14000000 		.4byte	.LFE227-.LFB227
 2767 0020 00000000 		.4byte	.LFB228
 2768 0024 8C000000 		.4byte	.LFE228-.LFB228
 2769 0028 00000000 		.4byte	.LFB229
 2770 002c 94000000 		.4byte	.LFE229-.LFB229
 2771 0030 00000000 		.4byte	.LFB230
 2772 0034 44000000 		.4byte	.LFE230-.LFB230
 2773 0038 00000000 		.4byte	0
 2774 003c 00000000 		.4byte	0
 2775              		.section	.debug_ranges,"",%progbits
 2776              	.Ldebug_ranges0:
 2777 0000 00000000 		.4byte	.LFB226
 2778 0004 1C000000 		.4byte	.LFE226
 2779 0008 00000000 		.4byte	.LFB227
 2780 000c 14000000 		.4byte	.LFE227
 2781 0010 00000000 		.4byte	.LFB228
 2782 0014 8C000000 		.4byte	.LFE228
 2783 0018 00000000 		.4byte	.LFB229
ARM GAS  /tmp/ccELqvZ3.s 			page 50


 2784 001c 94000000 		.4byte	.LFE229
 2785 0020 00000000 		.4byte	.LFB230
 2786 0024 44000000 		.4byte	.LFE230
 2787 0028 00000000 		.4byte	0
 2788 002c 00000000 		.4byte	0
 2789              		.section	.debug_line,"",%progbits
 2790              	.Ldebug_line0:
 2791 0000 20030000 		.section	.debug_str,"MS",%progbits,1
 2791      02002D02 
 2791      00000201 
 2791      FB0E0D00 
 2791      01010101 
 2792              	.LASF49:
 2793 0000 72656164 		.ascii	"ready_list_t\000"
 2793      795F6C69 
 2793      73745F74 
 2793      00
 2794              	.LASF2:
 2795 000d 73697A65 		.ascii	"size_t\000"
 2795      5F7400
 2796              	.LASF100:
 2797 0014 6E657874 		.ascii	"next\000"
 2797      00
 2798              	.LASF84:
 2799 0019 7264796D 		.ascii	"rdymsg\000"
 2799      736700
 2800              	.LASF17:
 2801 0020 75696E74 		.ascii	"uint64_t\000"
 2801      36345F74 
 2801      00
 2802              	.LASF3:
 2803 0029 5F5F7569 		.ascii	"__uint8_t\000"
 2803      6E74385F 
 2803      7400
 2804              	.LASF81:
 2805 0033 706F7274 		.ascii	"port_intctx\000"
 2805      5F696E74 
 2805      63747800 
 2806              	.LASF68:
 2807 003f 73797374 		.ascii	"system_debug_t\000"
 2807      656D5F64 
 2807      65627567 
 2807      5F7400
 2808              	.LASF94:
 2809 004e 6D656D67 		.ascii	"memgetfunc_t\000"
 2809      65746675 
 2809      6E635F74 
 2809      00
 2810              	.LASF13:
 2811 005b 6C6F6E67 		.ascii	"long long unsigned int\000"
 2811      206C6F6E 
 2811      6720756E 
 2811      7369676E 
 2811      65642069 
 2812              	.LASF85:
 2813 0072 65786974 		.ascii	"exitcode\000"
 2813      636F6465 
ARM GAS  /tmp/ccELqvZ3.s 			page 51


 2813      00
 2814              	.LASF98:
 2815 007b 685F6672 		.ascii	"h_free\000"
 2815      656500
 2816              	.LASF65:
 2817 0082 76697274 		.ascii	"virtual_timers_list_t\000"
 2817      75616C5F 
 2817      74696D65 
 2817      72735F6C 
 2817      6973745F 
 2818              	.LASF113:
 2819 0098 49544D5F 		.ascii	"ITM_RxBuffer\000"
 2819      52784275 
 2819      66666572 
 2819      00
 2820              	.LASF106:
 2821 00a5 68656170 		.ascii	"heapp\000"
 2821      7000
 2822              	.LASF102:
 2823 00ab 616C6967 		.ascii	"align\000"
 2823      6E00
 2824              	.LASF48:
 2825 00b1 63685F74 		.ascii	"ch_threads_queue\000"
 2825      68726561 
 2825      64735F71 
 2825      75657565 
 2825      00
 2826              	.LASF29:
 2827 00c2 705F7072 		.ascii	"p_prio\000"
 2827      696F00
 2828              	.LASF93:
 2829 00c9 6D757465 		.ascii	"mutex_t\000"
 2829      785F7400 
 2830              	.LASF120:
 2831 00d1 63684D74 		.ascii	"chMtxUnlock\000"
 2831      78556E6C 
 2831      6F636B00 
 2832              	.LASF1:
 2833 00dd 7369676E 		.ascii	"signed char\000"
 2833      65642063 
 2833      68617200 
 2834              	.LASF99:
 2835 00e9 685F6D74 		.ascii	"h_mtx\000"
 2835      7800
 2836              	.LASF43:
 2837 00ef 705F6D70 		.ascii	"p_mpool\000"
 2837      6F6F6C00 
 2838              	.LASF90:
 2839 00f7 6D5F7175 		.ascii	"m_queue\000"
 2839      65756500 
 2840              	.LASF107:
 2841 00ff 63684865 		.ascii	"chHeapFree\000"
 2841      61704672 
 2841      656500
 2842              	.LASF74:
 2843 010a 76746C69 		.ascii	"vtlist\000"
 2843      737400
ARM GAS  /tmp/ccELqvZ3.s 			page 52


 2844              	.LASF72:
 2845 0111 63685F73 		.ascii	"ch_system\000"
 2845      79737465 
 2845      6D00
 2846              	.LASF8:
 2847 011b 6C6F6E67 		.ascii	"long int\000"
 2847      20696E74 
 2847      00
 2848              	.LASF20:
 2849 0124 74737461 		.ascii	"tstate_t\000"
 2849      74655F74 
 2849      00
 2850              	.LASF95:
 2851 012d 6D656D6F 		.ascii	"memory_heap_t\000"
 2851      72795F68 
 2851      6561705F 
 2851      7400
 2852              	.LASF31:
 2853 013b 705F6E65 		.ascii	"p_newer\000"
 2853      77657200 
 2854              	.LASF54:
 2855 0143 725F6E65 		.ascii	"r_newer\000"
 2855      77657200 
 2856              	.LASF78:
 2857 014b 72656761 		.ascii	"regarm_t\000"
 2857      726D5F74 
 2857      00
 2858              	.LASF61:
 2859 0154 76745F70 		.ascii	"vt_prev\000"
 2859      72657600 
 2860              	.LASF11:
 2861 015c 6C6F6E67 		.ascii	"long long int\000"
 2861      206C6F6E 
 2861      6720696E 
 2861      7400
 2862              	.LASF104:
 2863 016a 5F686561 		.ascii	"_heap_init\000"
 2863      705F696E 
 2863      697400
 2864              	.LASF76:
 2865 0175 69646C65 		.ascii	"idle_thread_wa\000"
 2865      5F746872 
 2865      6561645F 
 2865      776100
 2866              	.LASF117:
 2867 0184 2E2E2F43 		.ascii	"../ChibiOS/os/rt/src/chheap.c\000"
 2867      68696269 
 2867      4F532F6F 
 2867      732F7274 
 2867      2F737263 
 2868              	.LASF0:
 2869 01a2 756E7369 		.ascii	"unsigned int\000"
 2869      676E6564 
 2869      20696E74 
 2869      00
 2870              	.LASF60:
 2871 01af 76745F6E 		.ascii	"vt_next\000"
ARM GAS  /tmp/ccELqvZ3.s 			page 53


 2871      65787400 
 2872              	.LASF62:
 2873 01b7 76745F64 		.ascii	"vt_delta\000"
 2873      656C7461 
 2873      00
 2874              	.LASF38:
 2875 01c0 705F6D73 		.ascii	"p_msgqueue\000"
 2875      67717565 
 2875      756500
 2876              	.LASF6:
 2877 01cb 73686F72 		.ascii	"short unsigned int\000"
 2877      7420756E 
 2877      7369676E 
 2877      65642069 
 2877      6E7400
 2878              	.LASF45:
 2879 01de 63685F74 		.ascii	"ch_thread\000"
 2879      68726561 
 2879      6400
 2880              	.LASF75:
 2881 01e8 6D61696E 		.ascii	"mainthread\000"
 2881      74687265 
 2881      616400
 2882              	.LASF23:
 2883 01f3 6D73675F 		.ascii	"msg_t\000"
 2883      7400
 2884              	.LASF71:
 2885 01f9 63685F73 		.ascii	"ch_system_t\000"
 2885      79737465 
 2885      6D5F7400 
 2886              	.LASF19:
 2887 0205 746D6F64 		.ascii	"tmode_t\000"
 2887      655F7400 
 2888              	.LASF50:
 2889 020d 63685F72 		.ascii	"ch_ready_list\000"
 2889      65616479 
 2889      5F6C6973 
 2889      7400
 2890              	.LASF24:
 2891 021b 6576656E 		.ascii	"eventmask_t\000"
 2891      746D6173 
 2891      6B5F7400 
 2892              	.LASF7:
 2893 0227 5F5F696E 		.ascii	"__int32_t\000"
 2893      7433325F 
 2893      7400
 2894              	.LASF79:
 2895 0231 73746B61 		.ascii	"stkalign_t\000"
 2895      6C69676E 
 2895      5F7400
 2896              	.LASF105:
 2897 023c 63684865 		.ascii	"chHeapObjectInit\000"
 2897      61704F62 
 2897      6A656374 
 2897      496E6974 
 2897      00
 2898              	.LASF37:
ARM GAS  /tmp/ccELqvZ3.s 			page 54


 2899 024d 705F7761 		.ascii	"p_waiting\000"
 2899      6974696E 
 2899      6700
 2900              	.LASF77:
 2901 0257 73697A65 		.ascii	"sizetype\000"
 2901      74797065 
 2901      00
 2902              	.LASF66:
 2903 0260 63685F76 		.ascii	"ch_virtual_timers_list\000"
 2903      69727475 
 2903      616C5F74 
 2903      696D6572 
 2903      735F6C69 
 2904              	.LASF67:
 2905 0277 76745F6C 		.ascii	"vt_lasttime\000"
 2905      61737474 
 2905      696D6500 
 2906              	.LASF115:
 2907 0283 63684D74 		.ascii	"chMtxLock\000"
 2907      784C6F63 
 2907      6B00
 2908              	.LASF32:
 2909 028d 705F6F6C 		.ascii	"p_older\000"
 2909      64657200 
 2910              	.LASF53:
 2911 0295 725F6374 		.ascii	"r_ctx\000"
 2911      7800
 2912              	.LASF83:
 2913 029b 746D5F63 		.ascii	"tm_calibration_t\000"
 2913      616C6962 
 2913      72617469 
 2913      6F6E5F74 
 2913      00
 2914              	.LASF56:
 2915 02ac 725F6375 		.ascii	"r_current\000"
 2915      7272656E 
 2915      7400
 2916              	.LASF55:
 2917 02b6 725F6F6C 		.ascii	"r_older\000"
 2917      64657200 
 2918              	.LASF12:
 2919 02be 5F5F7569 		.ascii	"__uint64_t\000"
 2919      6E743634 
 2919      5F7400
 2920              	.LASF21:
 2921 02c9 74726566 		.ascii	"trefs_t\000"
 2921      735F7400 
 2922              	.LASF58:
 2923 02d1 76697274 		.ascii	"virtual_timer_t\000"
 2923      75616C5F 
 2923      74696D65 
 2923      725F7400 
 2924              	.LASF28:
 2925 02e1 705F7072 		.ascii	"p_prev\000"
 2925      657600
 2926              	.LASF22:
 2927 02e8 74707269 		.ascii	"tprio_t\000"
ARM GAS  /tmp/ccELqvZ3.s 			page 55


 2927      6F5F7400 
 2928              	.LASF89:
 2929 02f0 6D757465 		.ascii	"mutex\000"
 2929      7800
 2930              	.LASF114:
 2931 02f6 63684D74 		.ascii	"chMtxObjectInit\000"
 2931      784F626A 
 2931      65637449 
 2931      6E697400 
 2932              	.LASF69:
 2933 0306 63685F73 		.ascii	"ch_system_debug\000"
 2933      79737465 
 2933      6D5F6465 
 2933      62756700 
 2934              	.LASF15:
 2935 0316 696E7433 		.ascii	"int32_t\000"
 2935      325F7400 
 2936              	.LASF4:
 2937 031e 756E7369 		.ascii	"unsigned char\000"
 2937      676E6564 
 2937      20636861 
 2937      7200
 2938              	.LASF119:
 2939 032c 68656170 		.ascii	"heap_header\000"
 2939      5F686561 
 2939      64657200 
 2940              	.LASF41:
 2941 0338 705F6D74 		.ascii	"p_mtxlist\000"
 2941      786C6973 
 2941      7400
 2942              	.LASF5:
 2943 0342 73686F72 		.ascii	"short int\000"
 2943      7420696E 
 2943      7400
 2944              	.LASF34:
 2945 034c 705F7374 		.ascii	"p_state\000"
 2945      61746500 
 2946              	.LASF52:
 2947 0354 725F7072 		.ascii	"r_prio\000"
 2947      696F00
 2948              	.LASF87:
 2949 035b 65776D61 		.ascii	"ewmask\000"
 2949      736B00
 2950              	.LASF27:
 2951 0362 705F6E65 		.ascii	"p_next\000"
 2951      787400
 2952              	.LASF116:
 2953 0369 474E5520 		.ascii	"GNU C 4.9.3 20141119 (release) [ARM/embedded-4_9-br"
 2953      4320342E 
 2953      392E3320 
 2953      32303134 
 2953      31313139 
 2954 039c 616E6368 		.ascii	"anch revision 218278] -mcpu=cortex-m4 -mfloat-abi=h"
 2954      20726576 
 2954      6973696F 
 2954      6E203231 
 2954      38323738 
ARM GAS  /tmp/ccELqvZ3.s 			page 56


 2955 03cf 61726420 		.ascii	"ard -mfpu=fpv4-sp-d16 -mno-thumb-interwork -mthumb "
 2955      2D6D6670 
 2955      753D6670 
 2955      76342D73 
 2955      702D6431 
 2956 0402 2D676764 		.ascii	"-ggdb -O2 -fomit-frame-pointer -falign-functions=16"
 2956      62202D4F 
 2956      32202D66 
 2956      6F6D6974 
 2956      2D667261 
 2957 0435 202D6666 		.ascii	" -ffunction-sections -fdata-sections -fno-common -f"
 2957      756E6374 
 2957      696F6E2D 
 2957      73656374 
 2957      696F6E73 
 2958 0468 73696E67 		.ascii	"single-precision-constant\000"
 2958      6C652D70 
 2958      72656369 
 2958      73696F6E 
 2958      2D636F6E 
 2959              	.LASF35:
 2960 0482 705F666C 		.ascii	"p_flags\000"
 2960      61677300 
 2961              	.LASF108:
 2962 048a 5F5F6675 		.ascii	"__func__\000"
 2962      6E635F5F 
 2962      00
 2963              	.LASF109:
 2964 0493 63684865 		.ascii	"chHeapAlloc\000"
 2964      6170416C 
 2964      6C6F6300 
 2965              	.LASF40:
 2966 049f 705F6570 		.ascii	"p_epending\000"
 2966      656E6469 
 2966      6E6700
 2967              	.LASF16:
 2968 04aa 75696E74 		.ascii	"uint32_t\000"
 2968      33325F74 
 2968      00
 2969              	.LASF51:
 2970 04b3 725F7175 		.ascii	"r_queue\000"
 2970      65756500 
 2971              	.LASF46:
 2972 04bb 63685F74 		.ascii	"ch_threads_list\000"
 2972      68726561 
 2972      64735F6C 
 2972      69737400 
 2973              	.LASF101:
 2974 04cb 68656170 		.ascii	"heap\000"
 2974      00
 2975              	.LASF118:
 2976 04d0 2F686F6D 		.ascii	"/home/bhimebau/forge/annsynth/src\000"
 2976      652F6268 
 2976      696D6562 
 2976      61752F66 
 2976      6F726765 
 2977              	.LASF10:
ARM GAS  /tmp/ccELqvZ3.s 			page 57


 2978 04f2 6C6F6E67 		.ascii	"long unsigned int\000"
 2978      20756E73 
 2978      69676E65 
 2978      6420696E 
 2978      7400
 2979              	.LASF112:
 2980 0504 64656661 		.ascii	"default_heap\000"
 2980      756C745F 
 2980      68656170 
 2980      00
 2981              	.LASF88:
 2982 0511 63686172 		.ascii	"char\000"
 2982      00
 2983              	.LASF26:
 2984 0516 74687265 		.ascii	"thread_t\000"
 2984      61645F74 
 2984      00
 2985              	.LASF110:
 2986 051f 63684865 		.ascii	"chHeapStatus\000"
 2986      61705374 
 2986      61747573 
 2986      00
 2987              	.LASF92:
 2988 052c 6D5F6E65 		.ascii	"m_next\000"
 2988      787400
 2989              	.LASF25:
 2990 0533 73797374 		.ascii	"systime_t\000"
 2990      696D655F 
 2990      7400
 2991              	.LASF42:
 2992 053d 705F7265 		.ascii	"p_realprio\000"
 2992      616C7072 
 2992      696F00
 2993              	.LASF57:
 2994 0548 76746675 		.ascii	"vtfunc_t\000"
 2994      6E635F74 
 2994      00
 2995              	.LASF9:
 2996 0551 5F5F7569 		.ascii	"__uint32_t\000"
 2996      6E743332 
 2996      5F7400
 2997              	.LASF70:
 2998 055c 70616E69 		.ascii	"panic_msg\000"
 2998      635F6D73 
 2998      6700
 2999              	.LASF82:
 3000 0566 6F666673 		.ascii	"offset\000"
 3000      657400
 3001              	.LASF80:
 3002 056d 636F6E74 		.ascii	"context\000"
 3002      65787400 
 3003              	.LASF59:
 3004 0575 63685F76 		.ascii	"ch_virtual_timer\000"
 3004      69727475 
 3004      616C5F74 
 3004      696D6572 
 3004      00
ARM GAS  /tmp/ccELqvZ3.s 			page 58


 3005              	.LASF18:
 3006 0586 7274636E 		.ascii	"rtcnt_t\000"
 3006      745F7400 
 3007              	.LASF64:
 3008 058e 76745F70 		.ascii	"vt_par\000"
 3008      617200
 3009              	.LASF47:
 3010 0595 74687265 		.ascii	"threads_queue_t\000"
 3010      6164735F 
 3010      71756575 
 3010      655F7400 
 3011              	.LASF36:
 3012 05a5 705F7265 		.ascii	"p_refs\000"
 3012      667300
 3013              	.LASF73:
 3014 05ac 726C6973 		.ascii	"rlist\000"
 3014      7400
 3015              	.LASF14:
 3016 05b2 75696E74 		.ascii	"uint8_t\000"
 3016      385F7400 
 3017              	.LASF97:
 3018 05ba 685F7072 		.ascii	"h_provider\000"
 3018      6F766964 
 3018      657200
 3019              	.LASF86:
 3020 05c5 77746F62 		.ascii	"wtobjp\000"
 3020      6A7000
 3021              	.LASF111:
 3022 05cc 73697A65 		.ascii	"sizep\000"
 3022      7000
 3023              	.LASF33:
 3024 05d2 705F6E61 		.ascii	"p_name\000"
 3024      6D6500
 3025              	.LASF103:
 3026 05d9 73697A65 		.ascii	"size\000"
 3026      00
 3027              	.LASF44:
 3028 05de 74687265 		.ascii	"threads_list_t\000"
 3028      6164735F 
 3028      6C697374 
 3028      5F7400
 3029              	.LASF39:
 3030 05ed 705F6D73 		.ascii	"p_msg\000"
 3030      6700
 3031              	.LASF91:
 3032 05f3 6D5F6F77 		.ascii	"m_owner\000"
 3032      6E657200 
 3033              	.LASF30:
 3034 05fb 705F6374 		.ascii	"p_ctx\000"
 3034      7800
 3035              	.LASF63:
 3036 0601 76745F66 		.ascii	"vt_func\000"
 3036      756E6300 
 3037              	.LASF96:
 3038 0609 6D656D6F 		.ascii	"memory_heap\000"
 3038      72795F68 
 3038      65617000 
ARM GAS  /tmp/ccELqvZ3.s 			page 59


 3039              		.ident	"GCC: (GNU Tools for ARM Embedded Processors) 4.9.3 20141119 (release) [ARM/embedded-4_9-br
ARM GAS  /tmp/ccELqvZ3.s 			page 60


DEFINED SYMBOLS
                            *ABS*:00000000 chheap.c
     /tmp/ccELqvZ3.s:21     .text._heap_init:00000000 $t
     /tmp/ccELqvZ3.s:27     .text._heap_init:00000000 _heap_init
     /tmp/ccELqvZ3.s:52     .text._heap_init:00000014 $d
     /tmp/ccELqvZ3.s:58     .text.chHeapObjectInit:00000000 $t
     /tmp/ccELqvZ3.s:64     .text.chHeapObjectInit:00000000 chHeapObjectInit
     /tmp/ccELqvZ3.s:98     .text.chHeapAlloc:00000000 $t
     /tmp/ccELqvZ3.s:104    .text.chHeapAlloc:00000000 chHeapAlloc
     /tmp/ccELqvZ3.s:235    .text.chHeapAlloc:00000088 $d
     /tmp/ccELqvZ3.s:240    .text.chHeapFree:00000000 $t
     /tmp/ccELqvZ3.s:246    .text.chHeapFree:00000000 chHeapFree
     /tmp/ccELqvZ3.s:390    .text.chHeapStatus:00000000 $t
     /tmp/ccELqvZ3.s:396    .text.chHeapStatus:00000000 chHeapStatus
     /tmp/ccELqvZ3.s:468    .text.chHeapStatus:00000040 $d
     /tmp/ccELqvZ3.s:473    .bss.default_heap:00000000 $d
     /tmp/ccELqvZ3.s:477    .bss.default_heap:00000000 default_heap
                     .debug_frame:00000010 $d
     /tmp/ccELqvZ3.s:57     .text._heap_init:0000001c $t
     /tmp/ccELqvZ3.s:239    .text.chHeapAlloc:0000008c $t
     /tmp/ccELqvZ3.s:472    .text.chHeapStatus:00000044 $t

UNDEFINED SYMBOLS
chMtxObjectInit
chCoreAlloc
chMtxLock
chMtxUnlock
