ARM GAS  /tmp/cc8yTeLc.s 			page 1


   1              		.syntax unified
   2              		.cpu cortex-m4
   3              		.eabi_attribute 27, 3
   4              		.eabi_attribute 28, 1
   5              		.fpu fpv4-sp-d16
   6              		.eabi_attribute 20, 1
   7              		.eabi_attribute 21, 1
   8              		.eabi_attribute 23, 3
   9              		.eabi_attribute 24, 1
  10              		.eabi_attribute 25, 1
  11              		.eabi_attribute 26, 1
  12              		.eabi_attribute 30, 2
  13              		.eabi_attribute 34, 1
  14              		.eabi_attribute 18, 4
  15              		.thumb
  16              		.file	"chmempools.c"
  17              		.text
  18              	.Ltext0:
  19              		.cfi_sections	.debug_frame
  20              		.section	.text.chPoolObjectInit,"ax",%progbits
  21              		.align	2
  22              		.p2align 4,,15
  23              		.global	chPoolObjectInit
  24              		.thumb
  25              		.thumb_func
  26              		.type	chPoolObjectInit, %function
  27              	chPoolObjectInit:
  28              	.LFB226:
  29              		.file 1 "../ChibiOS/os/rt/src/chmempools.c"
  30              		.loc 1 75 0
  31              		.cfi_startproc
  32              		@ args = 0, pretend = 0, frame = 0
  33              		@ frame_needed = 0, uses_anonymous_args = 0
  34              		@ link register save eliminated.
  35              	.LVL0:
  36              		.loc 1 79 0
  37 0000 0023     		movs	r3, #0
  38              		.loc 1 80 0
  39 0002 4160     		str	r1, [r0, #4]
  40              		.loc 1 81 0
  41 0004 8260     		str	r2, [r0, #8]
  42              		.loc 1 79 0
  43 0006 0360     		str	r3, [r0]
  44 0008 7047     		bx	lr
  45              		.cfi_endproc
  46              	.LFE226:
  47              		.size	chPoolObjectInit, .-chPoolObjectInit
  48 000a 00BFAFF3 		.section	.text.chPoolLoadArray,"ax",%progbits
  48      0080
  49              		.align	2
  50              		.p2align 4,,15
  51              		.global	chPoolLoadArray
  52              		.thumb
  53              		.thumb_func
  54              		.type	chPoolLoadArray, %function
  55              	chPoolLoadArray:
  56              	.LFB227:
ARM GAS  /tmp/cc8yTeLc.s 			page 2


  57              		.loc 1 97 0
  58              		.cfi_startproc
  59              		@ args = 0, pretend = 0, frame = 0
  60              		@ frame_needed = 0, uses_anonymous_args = 0
  61              		@ link register save eliminated.
  62              	.LVL1:
  63              		.loc 1 101 0
  64 0000 72B1     		cbz	r2, .L9
  65              		.loc 1 97 0
  66 0002 30B4     		push	{r4, r5}
  67              		.cfi_def_cfa_offset 8
  68              		.cfi_offset 4, -8
  69              		.cfi_offset 5, -4
  70              	.LBB77:
  71              	.LBB78:
  72              	.LBB79:
  73              	.LBB80:
  74              	.LBB81:
  75              	.LBB82:
  76              		.file 2 "../ChibiOS/os/ext/CMSIS/include/core_cmFunc.h"
  77              		.loc 2 546 0
  78 0004 2025     		movs	r5, #32
  79              	.LBE82:
  80              	.LBE81:
  81              	.LBE80:
  82              	.LBE79:
  83              	.LBB86:
  84              	.LBB87:
  85              	.LBB88:
  86              	.LBB89:
  87              	.LBB90:
  88 0006 0024     		movs	r4, #0
  89              	.LVL2:
  90              	.L4:
  91              	.LBE90:
  92              	.LBE89:
  93              	.LBE88:
  94              	.LBE87:
  95              	.LBE86:
  96              	.LBB95:
  97              	.LBB85:
  98              	.LBB84:
  99              	.LBB83:
 100              	@ 546 "../ChibiOS/os/ext/CMSIS/include/core_cmFunc.h" 1
 101 0008 85F31188 		MSR basepri, r5
 102              	@ 0 "" 2
 103              	.LVL3:
 104              		.thumb
 105              	.LBE83:
 106              	.LBE84:
 107              	.LBE85:
 108              	.LBE95:
 109              	.LBB96:
 110              	.LBB97:
 111              		.loc 1 172 0
 112 000c 0368     		ldr	r3, [r0]
 113 000e 0B60     		str	r3, [r1]
ARM GAS  /tmp/cc8yTeLc.s 			page 3


 114              		.loc 1 173 0
 115 0010 0160     		str	r1, [r0]
 116              	.LVL4:
 117              	.LBE97:
 118              	.LBE96:
 119              	.LBB98:
 120              	.LBB94:
 121              	.LBB93:
 122              	.LBB92:
 123              	.LBB91:
 124              		.loc 2 546 0
 125              	@ 546 "../ChibiOS/os/ext/CMSIS/include/core_cmFunc.h" 1
 126 0012 84F31188 		MSR basepri, r4
 127              	@ 0 "" 2
 128              		.thumb
 129              	.LBE91:
 130              	.LBE92:
 131              	.LBE93:
 132              	.LBE94:
 133              	.LBE98:
 134              	.LBE78:
 135              	.LBE77:
 136              		.loc 1 103 0
 137 0016 4368     		ldr	r3, [r0, #4]
 138              		.loc 1 101 0
 139 0018 013A     		subs	r2, r2, #1
 140              	.LVL5:
 141              		.loc 1 103 0
 142 001a 1944     		add	r1, r1, r3
 143              	.LVL6:
 144              		.loc 1 101 0
 145 001c F4D1     		bne	.L4
 146              		.loc 1 106 0
 147 001e 30BC     		pop	{r4, r5}
 148              		.cfi_restore 5
 149              		.cfi_restore 4
 150              		.cfi_def_cfa_offset 0
 151              	.LVL7:
 152              	.L9:
 153 0020 7047     		bx	lr
 154              		.cfi_endproc
 155              	.LFE227:
 156              		.size	chPoolLoadArray, .-chPoolLoadArray
 157 0022 00BFAFF3 		.section	.text.chPoolAllocI,"ax",%progbits
 157      0080AFF3 
 157      0080AFF3 
 157      0080
 158              		.align	2
 159              		.p2align 4,,15
 160              		.global	chPoolAllocI
 161              		.thumb
 162              		.thumb_func
 163              		.type	chPoolAllocI, %function
 164              	chPoolAllocI:
 165              	.LFB228:
 166              		.loc 1 118 0
 167              		.cfi_startproc
ARM GAS  /tmp/cc8yTeLc.s 			page 4


 168              		@ args = 0, pretend = 0, frame = 0
 169              		@ frame_needed = 0, uses_anonymous_args = 0
 170              		@ link register save eliminated.
 171              	.LVL8:
 172              		.loc 1 124 0
 173 0000 0368     		ldr	r3, [r0]
 174              	.LVL9:
 175 0002 1BB1     		cbz	r3, .L12
 176              		.loc 1 125 0
 177 0004 1A68     		ldr	r2, [r3]
 178 0006 0260     		str	r2, [r0]
 179              	.L13:
 180              		.loc 1 132 0
 181 0008 1846     		mov	r0, r3
 182              	.LVL10:
 183 000a 7047     		bx	lr
 184              	.LVL11:
 185              	.L12:
 186              		.loc 1 127 0
 187 000c 8268     		ldr	r2, [r0, #8]
 188 000e 002A     		cmp	r2, #0
 189 0010 FAD0     		beq	.L13
 190              		.loc 1 128 0
 191 0012 4068     		ldr	r0, [r0, #4]
 192              	.LVL12:
 193 0014 1047     		bx	r2
 194              	.LVL13:
 195              		.cfi_endproc
 196              	.LFE228:
 197              		.size	chPoolAllocI, .-chPoolAllocI
 198 0016 00BFAFF3 		.section	.text.chPoolAlloc,"ax",%progbits
 198      0080AFF3 
 198      0080
 199              		.align	2
 200              		.p2align 4,,15
 201              		.global	chPoolAlloc
 202              		.thumb
 203              		.thumb_func
 204              		.type	chPoolAlloc, %function
 205              	chPoolAlloc:
 206              	.LFB229:
 207              		.loc 1 144 0
 208              		.cfi_startproc
 209              		@ args = 0, pretend = 0, frame = 0
 210              		@ frame_needed = 0, uses_anonymous_args = 0
 211              	.LVL14:
 212 0000 08B5     		push	{r3, lr}
 213              		.cfi_def_cfa_offset 8
 214              		.cfi_offset 3, -8
 215              		.cfi_offset 14, -4
 216              	.LBB99:
 217              	.LBB100:
 218              	.LBB101:
 219              	.LBB102:
 220              		.loc 2 546 0
 221 0002 2022     		movs	r2, #32
 222              	.LBE102:
ARM GAS  /tmp/cc8yTeLc.s 			page 5


 223              	.LBE101:
 224              	.LBE100:
 225              	.LBE99:
 226              		.loc 1 144 0
 227 0004 0346     		mov	r3, r0
 228              	.LBB106:
 229              	.LBB105:
 230              	.LBB104:
 231              	.LBB103:
 232              		.loc 2 546 0
 233              	@ 546 "../ChibiOS/os/ext/CMSIS/include/core_cmFunc.h" 1
 234 0006 82F31188 		MSR basepri, r2
 235              	@ 0 "" 2
 236              	.LVL15:
 237              		.thumb
 238              	.LBE103:
 239              	.LBE104:
 240              	.LBE105:
 241              	.LBE106:
 242              	.LBB107:
 243              	.LBB108:
 244              		.loc 1 124 0
 245 000a 0068     		ldr	r0, [r0]
 246              	.LVL16:
 247 000c 28B1     		cbz	r0, .L18
 248              		.loc 1 125 0
 249 000e 0268     		ldr	r2, [r0]
 250 0010 1A60     		str	r2, [r3]
 251              	.L19:
 252              	.LVL17:
 253              	.LBE108:
 254              	.LBE107:
 255              	.LBB110:
 256              	.LBB111:
 257              	.LBB112:
 258              	.LBB113:
 259              	.LBB114:
 260              		.loc 2 546 0
 261 0012 0023     		movs	r3, #0
 262              	.LVL18:
 263              	@ 546 "../ChibiOS/os/ext/CMSIS/include/core_cmFunc.h" 1
 264 0014 83F31188 		MSR basepri, r3
 265              	@ 0 "" 2
 266              		.thumb
 267              	.LBE114:
 268              	.LBE113:
 269              	.LBE112:
 270              	.LBE111:
 271              	.LBE110:
 272              		.loc 1 152 0
 273 0018 08BD     		pop	{r3, pc}
 274              	.LVL19:
 275              	.L18:
 276              	.LBB119:
 277              	.LBB109:
 278              		.loc 1 127 0
 279 001a 9A68     		ldr	r2, [r3, #8]
ARM GAS  /tmp/cc8yTeLc.s 			page 6


 280 001c 002A     		cmp	r2, #0
 281 001e F8D0     		beq	.L19
 282              		.loc 1 128 0
 283 0020 5868     		ldr	r0, [r3, #4]
 284              	.LVL20:
 285 0022 9047     		blx	r2
 286              	.LVL21:
 287              	.LBE109:
 288              	.LBE119:
 289              	.LBB120:
 290              	.LBB118:
 291              	.LBB117:
 292              	.LBB116:
 293              	.LBB115:
 294              		.loc 2 546 0
 295 0024 0023     		movs	r3, #0
 296              	@ 546 "../ChibiOS/os/ext/CMSIS/include/core_cmFunc.h" 1
 297 0026 83F31188 		MSR basepri, r3
 298              	@ 0 "" 2
 299              		.thumb
 300              	.LBE115:
 301              	.LBE116:
 302              	.LBE117:
 303              	.LBE118:
 304              	.LBE120:
 305              		.loc 1 152 0
 306 002a 08BD     		pop	{r3, pc}
 307              		.cfi_endproc
 308              	.LFE229:
 309              		.size	chPoolAlloc, .-chPoolAlloc
 310 002c AFF30080 		.section	.text.chPoolFreeI,"ax",%progbits
 311              		.align	2
 312              		.p2align 4,,15
 313              		.global	chPoolFreeI
 314              		.thumb
 315              		.thumb_func
 316              		.type	chPoolFreeI, %function
 317              	chPoolFreeI:
 318              	.LFB230:
 319              		.loc 1 166 0
 320              		.cfi_startproc
 321              		@ args = 0, pretend = 0, frame = 0
 322              		@ frame_needed = 0, uses_anonymous_args = 0
 323              		@ link register save eliminated.
 324              	.LVL22:
 325              		.loc 1 172 0
 326 0000 0368     		ldr	r3, [r0]
 327 0002 0B60     		str	r3, [r1]
 328              		.loc 1 173 0
 329 0004 0160     		str	r1, [r0]
 330 0006 7047     		bx	lr
 331              		.cfi_endproc
 332              	.LFE230:
 333              		.size	chPoolFreeI, .-chPoolFreeI
 334 0008 AFF30080 		.section	.text.chPoolFree,"ax",%progbits
 334      AFF30080 
 335              		.align	2
ARM GAS  /tmp/cc8yTeLc.s 			page 7


 336              		.p2align 4,,15
 337              		.global	chPoolFree
 338              		.thumb
 339              		.thumb_func
 340              		.type	chPoolFree, %function
 341              	chPoolFree:
 342              	.LFB231:
 343              		.loc 1 188 0
 344              		.cfi_startproc
 345              		@ args = 0, pretend = 0, frame = 0
 346              		@ frame_needed = 0, uses_anonymous_args = 0
 347              		@ link register save eliminated.
 348              	.LVL23:
 349              	.LBB121:
 350              	.LBB122:
 351              	.LBB123:
 352              	.LBB124:
 353              		.loc 2 546 0
 354 0000 2023     		movs	r3, #32
 355              	@ 546 "../ChibiOS/os/ext/CMSIS/include/core_cmFunc.h" 1
 356 0002 83F31188 		MSR basepri, r3
 357              	@ 0 "" 2
 358              	.LVL24:
 359              		.thumb
 360              	.LBE124:
 361              	.LBE123:
 362              	.LBE122:
 363              	.LBE121:
 364              	.LBB125:
 365              	.LBB126:
 366              		.loc 1 172 0
 367 0006 0368     		ldr	r3, [r0]
 368 0008 0B60     		str	r3, [r1]
 369              	.LBE126:
 370              	.LBE125:
 371              	.LBB128:
 372              	.LBB129:
 373              	.LBB130:
 374              	.LBB131:
 375              	.LBB132:
 376              		.loc 2 546 0
 377 000a 0023     		movs	r3, #0
 378              	.LBE132:
 379              	.LBE131:
 380              	.LBE130:
 381              	.LBE129:
 382              	.LBE128:
 383              	.LBB137:
 384              	.LBB127:
 385              		.loc 1 173 0
 386 000c 0160     		str	r1, [r0]
 387              	.LVL25:
 388              	.LBE127:
 389              	.LBE137:
 390              	.LBB138:
 391              	.LBB136:
 392              	.LBB135:
ARM GAS  /tmp/cc8yTeLc.s 			page 8


 393              	.LBB134:
 394              	.LBB133:
 395              		.loc 2 546 0
 396              	@ 546 "../ChibiOS/os/ext/CMSIS/include/core_cmFunc.h" 1
 397 000e 83F31188 		MSR basepri, r3
 398              	@ 0 "" 2
 399              		.thumb
 400 0012 7047     		bx	lr
 401              	.LBE133:
 402              	.LBE134:
 403              	.LBE135:
 404              	.LBE136:
 405              	.LBE138:
 406              		.cfi_endproc
 407              	.LFE231:
 408              		.size	chPoolFree, .-chPoolFree
 409 0014 AFF30080 		.text
 409      AFF30080 
 409      AFF30080 
 410              	.Letext0:
 411              		.file 3 "/l/arm2/gcc-arm-none-eabi-4_9-2014q4/lib/gcc/arm-none-eabi/4.9.3/include/stddef.h"
 412              		.file 4 "/l/arm2/gcc-arm-none-eabi-4_9-2014q4/arm-none-eabi/include/machine/_default_types.h"
 413              		.file 5 "/l/arm2/gcc-arm-none-eabi-4_9-2014q4/arm-none-eabi/include/stdint.h"
 414              		.file 6 "../ChibiOS/os/rt/ports/ARMCMx/compilers/GCC/chtypes.h"
 415              		.file 7 "../ChibiOS/os/rt/include/chsystypes.h"
 416              		.file 8 "../ChibiOS/os/rt/include/chschd.h"
 417              		.file 9 "../ChibiOS/os/rt/ports/ARMCMx/chcore.h"
 418              		.file 10 "../ChibiOS/os/rt/ports/ARMCMx/chcore_v7m.h"
 419              		.file 11 "../ChibiOS/os/rt/include/chtm.h"
 420              		.file 12 "../ChibiOS/os/rt/include/chmtx.h"
 421              		.file 13 "../ChibiOS/os/rt/include/chmemcore.h"
 422              		.file 14 "../ChibiOS/os/rt/include/chmempools.h"
 423              		.file 15 "../ChibiOS/os/rt/include/chsys.h"
 424              		.file 16 "../ChibiOS/os/ext/CMSIS/include/core_cm4.h"