ARM GAS  /tmp/ccNFGvrg.s 			page 1


   1              		.syntax unified
   2              		.cpu cortex-m4
   3              		.eabi_attribute 27, 3
   4              		.eabi_attribute 28, 1
   5              		.fpu fpv4-sp-d16
   6              		.eabi_attribute 20, 1
   7              		.eabi_attribute 21, 1
   8              		.eabi_attribute 23, 3
   9              		.eabi_attribute 24, 1
  10              		.eabi_attribute 25, 1
  11              		.eabi_attribute 26, 1
  12              		.eabi_attribute 30, 2
  13              		.eabi_attribute 34, 1
  14              		.eabi_attribute 18, 4
  15              		.thumb
  16              		.file	"chmtx.c"
  17              		.text
  18              	.Ltext0:
  19              		.cfi_sections	.debug_frame
  20              		.section	.text.chMtxObjectInit,"ax",%progbits
  21              		.align	2
  22              		.p2align 4,,15
  23              		.global	chMtxObjectInit
  24              		.thumb
  25              		.thumb_func
  26              		.type	chMtxObjectInit, %function
  27              	chMtxObjectInit:
  28              	.LFB226:
  29              		.file 1 "../ChibiOS/os/rt/src/chmtx.c"
  30              		.loc 1 103 0
  31              		.cfi_startproc
  32              		@ args = 0, pretend = 0, frame = 0
  33              		@ frame_needed = 0, uses_anonymous_args = 0
  34              		@ link register save eliminated.
  35              	.LVL0:
  36              		.loc 1 108 0
  37 0000 0023     		movs	r3, #0
  38              	.LBB103:
  39              	.LBB104:
  40              		.file 2 "../ChibiOS/os/rt/include/chschd.h"
  41              		.loc 2 574 0
  42 0002 4060     		str	r0, [r0, #4]
  43 0004 0060     		str	r0, [r0]
  44              	.LBE104:
  45              	.LBE103:
  46              		.loc 1 108 0
  47 0006 8360     		str	r3, [r0, #8]
  48 0008 7047     		bx	lr
  49              		.cfi_endproc
  50              	.LFE226:
  51              		.size	chMtxObjectInit, .-chMtxObjectInit
  52 000a 00BFAFF3 		.section	.text.chMtxLockS,"ax",%progbits
  52      0080
  53              		.align	2
  54              		.p2align 4,,15
  55              		.global	chMtxLockS
  56              		.thumb
ARM GAS  /tmp/ccNFGvrg.s 			page 2


  57              		.thumb_func
  58              		.type	chMtxLockS, %function
  59              	chMtxLockS:
  60              	.LFB228:
  61              		.loc 1 139 0
  62              		.cfi_startproc
  63              		@ args = 0, pretend = 0, frame = 0
  64              		@ frame_needed = 0, uses_anonymous_args = 0
  65              	.LVL1:
  66              		.loc 1 140 0
  67 0000 304B     		ldr	r3, .L28
  68              		.loc 1 146 0
  69 0002 8268     		ldr	r2, [r0, #8]
  70              		.loc 1 139 0
  71 0004 70B5     		push	{r4, r5, r6, lr}
  72              		.cfi_def_cfa_offset 16
  73              		.cfi_offset 4, -16
  74              		.cfi_offset 5, -12
  75              		.cfi_offset 6, -8
  76              		.cfi_offset 14, -4
  77              		.loc 1 140 0
  78 0006 9C69     		ldr	r4, [r3, #24]
  79              	.LVL2:
  80              		.loc 1 146 0
  81 0008 002A     		cmp	r2, #0
  82 000a 55D0     		beq	.L3
  83              	.LBB105:
  84              		.loc 1 165 0
  85 000c A168     		ldr	r1, [r4, #8]
  86 000e 9368     		ldr	r3, [r2, #8]
  87 0010 9942     		cmp	r1, r3
  88 0012 0546     		mov	r5, r0
  89              	.LVL3:
  90 0014 06D9     		bls	.L5
  91              	.LVL4:
  92              	.L10:
  93              		.loc 1 170 0
  94 0016 137F     		ldrb	r3, [r2, #28]	@ zero_extendqisi2
  95              		.loc 1 167 0
  96 0018 9160     		str	r1, [r2, #8]
  97              		.loc 1 170 0
  98 001a 062B     		cmp	r3, #6
  99 001c 33D0     		beq	.L6
 100 001e 072B     		cmp	r3, #7
 101 0020 1DD0     		beq	.L7
 102 0022 9BB1     		cbz	r3, .L27
 103              	.LVL5:
 104              	.L5:
 105              	.LBB106:
 106              	.LBB107:
 107              		.loc 2 622 0
 108 0024 2B46     		mov	r3, r5
 109 0026 03E0     		b	.L18
 110              	.LVL6:
 111              	.L17:
 112              		.loc 2 625 0
 113 0028 9968     		ldr	r1, [r3, #8]
ARM GAS  /tmp/ccNFGvrg.s 			page 3


 114 002a A268     		ldr	r2, [r4, #8]
 115 002c 9142     		cmp	r1, r2
 116 002e 02D3     		bcc	.L19
 117              	.L18:
 118              		.loc 2 624 0
 119 0030 1B68     		ldr	r3, [r3]
 120              	.LVL7:
 121              		.loc 2 625 0
 122 0032 9D42     		cmp	r5, r3
 123 0034 F8D1     		bne	.L17
 124              	.L19:
 125              		.loc 2 627 0
 126 0036 5A68     		ldr	r2, [r3, #4]
 127 0038 6260     		str	r2, [r4, #4]
 128              		.loc 2 626 0
 129 003a 2360     		str	r3, [r4]
 130              		.loc 2 628 0
 131 003c 5C60     		str	r4, [r3, #4]
 132 003e 1460     		str	r4, [r2]
 133              	.LBE107:
 134              	.LBE106:
 135              		.loc 1 208 0
 136 0040 2562     		str	r5, [r4, #32]
 137              		.loc 1 209 0
 138 0042 0620     		movs	r0, #6
 139              	.LBE105:
 140              		.loc 1 231 0
 141 0044 BDE87040 		pop	{r4, r5, r6, lr}
 142              		.cfi_remember_state
 143              		.cfi_restore 14
 144              		.cfi_restore 6
 145              		.cfi_restore 5
 146              		.cfi_restore 4
 147              		.cfi_def_cfa_offset 0
 148              	.LVL8:
 149              	.LBB124:
 150              		.loc 1 209 0
 151 0048 FFF7FEBF 		b	chSchGoSleepS
 152              	.LVL9:
 153              	.L27:
 154              		.cfi_restore_state
 155              	.LBB108:
 156              	.LBB109:
 157              		.loc 2 656 0
 158 004c 92E80A00 		ldmia	r2, {r1, r3}
 159 0050 1960     		str	r1, [r3]
 160              		.loc 2 657 0
 161 0052 1168     		ldr	r1, [r2]
 162              	.LBE109:
 163              	.LBE108:
 164              		.loc 1 200 0
 165 0054 1046     		mov	r0, r2
 166              	.LBB111:
 167              	.LBB110:
 168              		.loc 2 657 0
 169 0056 4B60     		str	r3, [r1, #4]
 170              	.LBE110:
ARM GAS  /tmp/ccNFGvrg.s 			page 4


 171              	.LBE111:
 172              		.loc 1 200 0
 173 0058 FFF7FEFF 		bl	chSchReadyI
 174              	.LVL10:
 175              		.loc 1 201 0
 176 005c E2E7     		b	.L5
 177              	.LVL11:
 178              	.L7:
 179              	.LBB112:
 180              	.LBB113:
 181              		.loc 2 656 0
 182 005e 92E80900 		ldmia	r2, {r0, r3}
 183 0062 1860     		str	r0, [r3]
 184              	.LBE113:
 185              	.LBE112:
 186              		.loc 1 191 0
 187 0064 166A     		ldr	r6, [r2, #32]
 188              	.LVL12:
 189              	.LBB115:
 190              	.LBB114:
 191              		.loc 2 657 0
 192 0066 1068     		ldr	r0, [r2]
 193 0068 4360     		str	r3, [r0, #4]
 194              	.LBE114:
 195              	.LBE115:
 196              	.LBB116:
 197              	.LBB117:
 198              		.loc 2 622 0
 199 006a 3346     		mov	r3, r6
 200 006c 02E0     		b	.L15
 201              	.LVL13:
 202              	.L14:
 203              		.loc 2 625 0
 204 006e 9868     		ldr	r0, [r3, #8]
 205 0070 8842     		cmp	r0, r1
 206 0072 02D3     		bcc	.L16
 207              	.L15:
 208              		.loc 2 624 0
 209 0074 1B68     		ldr	r3, [r3]
 210              	.LVL14:
 211              		.loc 2 625 0
 212 0076 9E42     		cmp	r6, r3
 213 0078 F9D1     		bne	.L14
 214              	.L16:
 215              		.loc 2 627 0
 216 007a 5968     		ldr	r1, [r3, #4]
 217 007c 5160     		str	r1, [r2, #4]
 218              		.loc 2 626 0
 219 007e 1360     		str	r3, [r2]
 220              		.loc 2 628 0
 221 0080 5A60     		str	r2, [r3, #4]
 222 0082 0A60     		str	r2, [r1]
 223 0084 CEE7     		b	.L5
 224              	.LVL15:
 225              	.L6:
 226              	.LBE117:
 227              	.LBE116:
ARM GAS  /tmp/ccNFGvrg.s 			page 5


 228              	.LBB118:
 229              	.LBB119:
 230              		.loc 2 656 0
 231 0086 92E80900 		ldmia	r2, {r0, r3}
 232 008a 1860     		str	r0, [r3]
 233              	.LBE119:
 234              	.LBE118:
 235              		.loc 1 174 0
 236 008c 166A     		ldr	r6, [r2, #32]
 237              	.LVL16:
 238              	.LBB121:
 239              	.LBB120:
 240              		.loc 2 657 0
 241 008e 1068     		ldr	r0, [r2]
 242 0090 4360     		str	r3, [r0, #4]
 243              	.LBE120:
 244              	.LBE121:
 245              		.loc 1 174 0
 246 0092 3346     		mov	r3, r6
 247 0094 02E0     		b	.L12
 248              	.LVL17:
 249              	.L9:
 250              	.LBB122:
 251              	.LBB123:
 252              		.loc 2 625 0
 253 0096 9868     		ldr	r0, [r3, #8]
 254 0098 8842     		cmp	r0, r1
 255 009a 02D3     		bcc	.L13
 256              	.L12:
 257              		.loc 2 624 0
 258 009c 1B68     		ldr	r3, [r3]
 259              	.LVL18:
 260              		.loc 2 625 0
 261 009e 9E42     		cmp	r6, r3
 262 00a0 F9D1     		bne	.L9
 263              	.L13:
 264              		.loc 2 627 0
 265 00a2 5968     		ldr	r1, [r3, #4]
 266 00a4 5160     		str	r1, [r2, #4]
 267              		.loc 2 626 0
 268 00a6 1360     		str	r3, [r2]
 269              		.loc 2 628 0
 270 00a8 5A60     		str	r2, [r3, #4]
 271 00aa 0A60     		str	r2, [r1]
 272              	.LBE123:
 273              	.LBE122:
 274              		.loc 1 175 0
 275 00ac B268     		ldr	r2, [r6, #8]
 276              	.LVL19:
 277              		.loc 1 165 0
 278 00ae A168     		ldr	r1, [r4, #8]
 279 00b0 9368     		ldr	r3, [r2, #8]
 280              	.LVL20:
 281 00b2 8B42     		cmp	r3, r1
 282 00b4 AFD3     		bcc	.L10
 283 00b6 B5E7     		b	.L5
 284              	.LVL21:
ARM GAS  /tmp/ccNFGvrg.s 			page 6


 285              	.L3:
 286              	.LBE124:
 287              		.loc 1 228 0
 288 00b8 A36B     		ldr	r3, [r4, #56]
 289 00ba C360     		str	r3, [r0, #12]
 290              		.loc 1 227 0
 291 00bc 8460     		str	r4, [r0, #8]
 292              		.loc 1 229 0
 293 00be A063     		str	r0, [r4, #56]
 294 00c0 70BD     		pop	{r4, r5, r6, pc}
 295              	.LVL22:
 296              	.L29:
 297 00c2 00BF     		.align	2
 298              	.L28:
 299 00c4 00000000 		.word	ch
 300              		.cfi_endproc
 301              	.LFE228:
 302              		.size	chMtxLockS, .-chMtxLockS
 303 00c8 AFF30080 		.section	.text.chMtxLock,"ax",%progbits
 303      AFF30080 
 304              		.align	2
 305              		.p2align 4,,15
 306              		.global	chMtxLock
 307              		.thumb
 308              		.thumb_func
 309              		.type	chMtxLock, %function
 310              	chMtxLock:
 311              	.LFB227:
 312              		.loc 1 123 0
 313              		.cfi_startproc
 314              		@ args = 0, pretend = 0, frame = 0
 315              		@ frame_needed = 0, uses_anonymous_args = 0
 316              	.LVL23:
 317 0000 08B5     		push	{r3, lr}
 318              		.cfi_def_cfa_offset 8
 319              		.cfi_offset 3, -8
 320              		.cfi_offset 14, -4
 321              	.LBB125:
 322              	.LBB126:
 323              	.LBB127:
 324              	.LBB128:
 325              		.file 3 "../ChibiOS/os/ext/CMSIS/include/core_cmFunc.h"
 326              		.loc 3 546 0
 327 0002 2023     		movs	r3, #32
 328              	@ 546 "../ChibiOS/os/ext/CMSIS/include/core_cmFunc.h" 1
 329 0004 83F31188 		MSR basepri, r3
 330              	@ 0 "" 2
 331              		.thumb
 332              	.LBE128:
 333              	.LBE127:
 334              	.LBE126:
 335              	.LBE125:
 336              		.loc 1 126 0
 337 0008 FFF7FEFF 		bl	chMtxLockS
 338              	.LVL24:
 339              	.LBB129:
 340              	.LBB130:
ARM GAS  /tmp/ccNFGvrg.s 			page 7


 341              	.LBB131:
 342              	.LBB132:
 343              	.LBB133:
 344              		.loc 3 546 0
 345 000c 0023     		movs	r3, #0
 346              	@ 546 "../ChibiOS/os/ext/CMSIS/include/core_cmFunc.h" 1
 347 000e 83F31188 		MSR basepri, r3
 348              	@ 0 "" 2
 349              		.thumb
 350 0012 08BD     		pop	{r3, pc}
 351              	.LBE133:
 352              	.LBE132:
 353              	.LBE131:
 354              	.LBE130:
 355              	.LBE129:
 356              		.cfi_endproc
 357              	.LFE227:
 358              		.size	chMtxLock, .-chMtxLock
 359 0014 AFF30080 		.section	.text.chMtxTryLock,"ax",%progbits
 359      AFF30080 
 359      AFF30080 
 360              		.align	2
 361              		.p2align 4,,15
 362              		.global	chMtxTryLock
 363              		.thumb
 364              		.thumb_func
 365              		.type	chMtxTryLock, %function
 366              	chMtxTryLock:
 367              	.LFB229:
 368              		.loc 1 250 0
 369              		.cfi_startproc
 370              		@ args = 0, pretend = 0, frame = 0
 371              		@ frame_needed = 0, uses_anonymous_args = 0
 372              		@ link register save eliminated.
 373              	.LVL25:
 374              		.loc 1 250 0
 375 0000 0346     		mov	r3, r0
 376              	.LBB147:
 377              	.LBB148:
 378              	.LBB149:
 379              	.LBB150:
 380              		.loc 3 546 0
 381 0002 2022     		movs	r2, #32
 382              	@ 546 "../ChibiOS/os/ext/CMSIS/include/core_cmFunc.h" 1
 383 0004 82F31188 		MSR basepri, r2
 384              	@ 0 "" 2
 385              	.LVL26:
 386              		.thumb
 387              	.LBE150:
 388              	.LBE149:
 389              	.LBE148:
 390              	.LBE147:
 391              	.LBB151:
 392              	.LBB152:
 393              		.loc 1 282 0
 394 0008 8268     		ldr	r2, [r0, #8]
 395              		.loc 1 292 0
ARM GAS  /tmp/ccNFGvrg.s 			page 8


 396 000a 0020     		movs	r0, #0
 397              	.LVL27:
 398              		.loc 1 282 0
 399 000c 1AB1     		cbz	r2, .L35
 400              	.LVL28:
 401              	.LBE152:
 402              	.LBE151:
 403              	.LBB156:
 404              	.LBB157:
 405              	.LBB158:
 406              	.LBB159:
 407              	.LBB160:
 408              		.loc 3 546 0
 409 000e 0023     		movs	r3, #0
 410              	.LVL29:
 411              	@ 546 "../ChibiOS/os/ext/CMSIS/include/core_cmFunc.h" 1
 412 0010 83F31188 		MSR basepri, r3
 413              	@ 0 "" 2
 414              		.thumb
 415              	.LBE160:
 416              	.LBE159:
 417              	.LBE158:
 418              	.LBE157:
 419              	.LBE156:
 420              		.loc 1 258 0
 421 0014 7047     		bx	lr
 422              	.LVL30:
 423              	.L35:
 424              	.LBB165:
 425              	.LBB155:
 426              	.LBB153:
 427              	.LBB154:
 428              		.loc 1 300 0
 429 0016 054A     		ldr	r2, .L36
 430 0018 9269     		ldr	r2, [r2, #24]
 431 001a 9A60     		str	r2, [r3, #8]
 432              		.loc 1 301 0
 433 001c 916B     		ldr	r1, [r2, #56]
 434 001e D960     		str	r1, [r3, #12]
 435              		.loc 1 302 0
 436 0020 0120     		movs	r0, #1
 437 0022 9363     		str	r3, [r2, #56]
 438              	.LVL31:
 439              	.LBE154:
 440              	.LBE153:
 441              	.LBE155:
 442              	.LBE165:
 443              	.LBB166:
 444              	.LBB164:
 445              	.LBB163:
 446              	.LBB162:
 447              	.LBB161:
 448              		.loc 3 546 0
 449 0024 0023     		movs	r3, #0
 450              	.LVL32:
 451              	@ 546 "../ChibiOS/os/ext/CMSIS/include/core_cmFunc.h" 1
 452 0026 83F31188 		MSR basepri, r3
ARM GAS  /tmp/ccNFGvrg.s 			page 9


 453              	@ 0 "" 2
 454              		.thumb
 455              	.LBE161:
 456              	.LBE162:
 457              	.LBE163:
 458              	.LBE164:
 459              	.LBE166:
 460              		.loc 1 258 0
 461 002a 7047     		bx	lr
 462              	.L37:
 463              		.align	2
 464              	.L36:
 465 002c 00000000 		.word	ch
 466              		.cfi_endproc
 467              	.LFE229:
 468              		.size	chMtxTryLock, .-chMtxTryLock
 469              		.section	.text.chMtxTryLockS,"ax",%progbits
 470              		.align	2
 471              		.p2align 4,,15
 472              		.global	chMtxTryLockS
 473              		.thumb
 474              		.thumb_func
 475              		.type	chMtxTryLockS, %function
 476              	chMtxTryLockS:
 477              	.LFB230:
 478              		.loc 1 277 0
 479              		.cfi_startproc
 480              		@ args = 0, pretend = 0, frame = 0
 481              		@ frame_needed = 0, uses_anonymous_args = 0
 482              		@ link register save eliminated.
 483              	.LVL33:
 484              		.loc 1 282 0
 485 0000 8268     		ldr	r2, [r0, #8]
 486              		.loc 1 277 0
 487 0002 0346     		mov	r3, r0
 488              		.loc 1 282 0
 489 0004 0AB1     		cbz	r2, .L41
 490              		.loc 1 292 0
 491 0006 0020     		movs	r0, #0
 492              	.LVL34:
 493              		.loc 1 304 0
 494 0008 7047     		bx	lr
 495              	.LVL35:
 496              	.L41:
 497              	.LBB169:
 498              	.LBB170:
 499              		.loc 1 300 0
 500 000a 044A     		ldr	r2, .L42
 501 000c 9269     		ldr	r2, [r2, #24]
 502 000e 8260     		str	r2, [r0, #8]
 503              		.loc 1 301 0
 504 0010 916B     		ldr	r1, [r2, #56]
 505 0012 C160     		str	r1, [r0, #12]
 506              		.loc 1 302 0
 507 0014 0120     		movs	r0, #1
 508              	.LVL36:
 509 0016 9363     		str	r3, [r2, #56]
ARM GAS  /tmp/ccNFGvrg.s 			page 10


 510 0018 7047     		bx	lr
 511              	.L43:
 512 001a 00BF     		.align	2
 513              	.L42:
 514 001c 00000000 		.word	ch
 515              	.LBE170:
 516              	.LBE169:
 517              		.cfi_endproc
 518              	.LFE230:
 519              		.size	chMtxTryLockS, .-chMtxTryLockS
 520              		.section	.text.chMtxUnlock,"ax",%progbits
 521              		.align	2
 522              		.p2align 4,,15
 523              		.global	chMtxUnlock
 524              		.thumb
 525              		.thumb_func
 526              		.type	chMtxUnlock, %function
 527              	chMtxUnlock:
 528              	.LFB231:
 529              		.loc 1 318 0
 530              		.cfi_startproc
 531              		@ args = 0, pretend = 0, frame = 0
 532              		@ frame_needed = 0, uses_anonymous_args = 0
 533              	.LVL37:
 534              		.loc 1 319 0
 535 0000 164B     		ldr	r3, .L55
 536              		.loc 1 318 0
 537 0002 70B5     		push	{r4, r5, r6, lr}
 538              		.cfi_def_cfa_offset 16
 539              		.cfi_offset 4, -16
 540              		.cfi_offset 5, -12
 541              		.cfi_offset 6, -8
 542              		.cfi_offset 14, -4
 543              		.loc 1 319 0
 544 0004 9D69     		ldr	r5, [r3, #24]
 545              	.LVL38:
 546              	.LBB171:
 547              	.LBB172:
 548              	.LBB173:
 549              	.LBB174:
 550              		.loc 3 546 0
 551 0006 2023     		movs	r3, #32
 552              	@ 546 "../ChibiOS/os/ext/CMSIS/include/core_cmFunc.h" 1
 553 0008 83F31188 		MSR basepri, r3
 554              	@ 0 "" 2
 555              		.thumb
 556              	.LBE174:
 557              	.LBE173:
 558              	.LBE172:
 559              	.LBE171:
 560              	.LBB175:
 561              	.LBB176:
 562              	.LBB177:
 563              	.LBB178:
 564              		.loc 2 600 0
 565 000c 0468     		ldr	r4, [r0]
 566              	.LBE178:
ARM GAS  /tmp/ccNFGvrg.s 			page 11


 567              	.LBE177:
 568              	.LBE176:
 569              	.LBE175:
 570              		.loc 1 339 0
 571 000e C368     		ldr	r3, [r0, #12]
 572 0010 AB63     		str	r3, [r5, #56]
 573              	.LVL39:
 574              		.loc 1 342 0
 575 0012 A042     		cmp	r0, r4
 576 0014 1CD0     		beq	.L45
 577              	.LBB179:
 578              		.loc 1 347 0
 579 0016 E96B     		ldr	r1, [r5, #60]
 580              	.LVL40:
 581              		.loc 1 349 0
 582 0018 4BB1     		cbz	r3, .L46
 583              	.L48:
 584              	.LVL41:
 585              	.LBB180:
 586              	.LBB181:
 587              	.LBB182:
 588              	.LBB183:
 589              		.loc 2 600 0
 590 001a 1A68     		ldr	r2, [r3]
 591              	.LBE183:
 592              	.LBE182:
 593              	.LBE181:
 594              	.LBE180:
 595              		.loc 1 353 0
 596 001c 9342     		cmp	r3, r2
 597 001e 03D0     		beq	.L47
 598              		.loc 1 354 0 discriminator 1
 599 0020 9268     		ldr	r2, [r2, #8]
 600 0022 9142     		cmp	r1, r2
 601 0024 38BF     		it	cc
 602 0026 1146     		movcc	r1, r2
 603              	.LVL42:
 604              	.L47:
 605              		.loc 1 357 0
 606 0028 DB68     		ldr	r3, [r3, #12]
 607              	.LVL43:
 608              		.loc 1 349 0
 609 002a 002B     		cmp	r3, #0
 610 002c F5D1     		bne	.L48
 611              	.L46:
 612 002e 0346     		mov	r3, r0
 613              	.LVL44:
 614              	.LBB184:
 615              	.LBB185:
 616              		.loc 2 641 0
 617 0030 2268     		ldr	r2, [r4]
 618              	.LBE185:
 619              	.LBE184:
 620              		.loc 1 371 0
 621 0032 A66B     		ldr	r6, [r4, #56]
 622              		.loc 1 362 0
 623 0034 A960     		str	r1, [r5, #8]
ARM GAS  /tmp/ccNFGvrg.s 			page 12


 624              	.LVL45:
 625              		.loc 1 373 0
 626 0036 2046     		mov	r0, r4
 627              	.LVL46:
 628              	.LBB188:
 629              	.LBB186:
 630              		.loc 2 641 0
 631 0038 1A60     		str	r2, [r3]
 632              	.LBE186:
 633              	.LBE188:
 634              		.loc 1 373 0
 635 003a 0021     		movs	r1, #0
 636              	.LVL47:
 637              	.LBB189:
 638              	.LBB187:
 639              		.loc 2 641 0
 640 003c 5360     		str	r3, [r2, #4]
 641              	.LBE187:
 642              	.LBE189:
 643              		.loc 1 370 0
 644 003e 9C60     		str	r4, [r3, #8]
 645              		.loc 1 371 0
 646 0040 DE60     		str	r6, [r3, #12]
 647              		.loc 1 372 0
 648 0042 A363     		str	r3, [r4, #56]
 649              		.loc 1 373 0
 650 0044 FFF7FEFF 		bl	chSchWakeupS
 651              	.LVL48:
 652              	.LBE179:
 653              	.LBB190:
 654              	.LBB191:
 655              	.LBB192:
 656              	.LBB193:
 657              	.LBB194:
 658              		.loc 3 546 0
 659 0048 0023     		movs	r3, #0
 660              	@ 546 "../ChibiOS/os/ext/CMSIS/include/core_cmFunc.h" 1
 661 004a 83F31188 		MSR basepri, r3
 662              	@ 0 "" 2
 663              		.thumb
 664 004e 70BD     		pop	{r4, r5, r6, pc}
 665              	.LVL49:
 666              	.L45:
 667              	.LBE194:
 668              	.LBE193:
 669              	.LBE192:
 670              	.LBE191:
 671              	.LBE190:
 672              		.loc 1 376 0
 673 0050 0023     		movs	r3, #0
 674 0052 8360     		str	r3, [r0, #8]
 675              	.LVL50:
 676              	.LBB199:
 677              	.LBB198:
 678              	.LBB197:
 679              	.LBB196:
 680              	.LBB195:
ARM GAS  /tmp/ccNFGvrg.s 			page 13


 681              		.loc 3 546 0
 682 0054 0023     		movs	r3, #0
 683              	@ 546 "../ChibiOS/os/ext/CMSIS/include/core_cmFunc.h" 1
 684 0056 83F31188 		MSR basepri, r3
 685              	@ 0 "" 2
 686              		.thumb
 687 005a 70BD     		pop	{r4, r5, r6, pc}
 688              	.LVL51:
 689              	.L56:
 690              		.align	2
 691              	.L55:
 692 005c 00000000 		.word	ch
 693              	.LBE195:
 694              	.LBE196:
 695              	.LBE197:
 696              	.LBE198:
 697              	.LBE199:
 698              		.cfi_endproc
 699              	.LFE231:
 700              		.size	chMtxUnlock, .-chMtxUnlock
 701              		.section	.text.chMtxUnlockS,"ax",%progbits
 702              		.align	2
 703              		.p2align 4,,15
 704              		.global	chMtxUnlockS
 705              		.thumb
 706              		.thumb_func
 707              		.type	chMtxUnlockS, %function
 708              	chMtxUnlockS:
 709              	.LFB232:
 710              		.loc 1 399 0
 711              		.cfi_startproc
 712              		@ args = 0, pretend = 0, frame = 0
 713              		@ frame_needed = 0, uses_anonymous_args = 0
 714              		@ link register save eliminated.
 715              	.LVL52:
 716              		.loc 1 400 0
 717 0000 124B     		ldr	r3, .L67
 718              		.loc 1 399 0
 719 0002 30B4     		push	{r4, r5}
 720              		.cfi_def_cfa_offset 8
 721              		.cfi_offset 4, -8
 722              		.cfi_offset 5, -4
 723              		.loc 1 399 0
 724 0004 0446     		mov	r4, r0
 725              	.LBB200:
 726              	.LBB201:
 727              	.LBB202:
 728              	.LBB203:
 729              		.loc 2 600 0
 730 0006 0568     		ldr	r5, [r0]
 731              	.LBE203:
 732              	.LBE202:
 733              	.LBE201:
 734              	.LBE200:
 735              		.loc 1 400 0
 736 0008 9869     		ldr	r0, [r3, #24]
 737              	.LVL53:
ARM GAS  /tmp/ccNFGvrg.s 			page 14


 738              		.loc 1 419 0
 739 000a E368     		ldr	r3, [r4, #12]
 740 000c 8363     		str	r3, [r0, #56]
 741              	.LVL54:
 742              		.loc 1 422 0
 743 000e AC42     		cmp	r4, r5
 744 0010 17D0     		beq	.L58
 745              	.LBB204:
 746              		.loc 1 427 0
 747 0012 C16B     		ldr	r1, [r0, #60]
 748              	.LVL55:
 749              		.loc 1 429 0
 750 0014 4BB1     		cbz	r3, .L59
 751              	.L61:
 752              	.LVL56:
 753              	.LBB205:
 754              	.LBB206:
 755              	.LBB207:
 756              	.LBB208:
 757              		.loc 2 600 0
 758 0016 1A68     		ldr	r2, [r3]
 759              	.LBE208:
 760              	.LBE207:
 761              	.LBE206:
 762              	.LBE205:
 763              		.loc 1 433 0
 764 0018 9342     		cmp	r3, r2
 765 001a 03D0     		beq	.L60
 766              		.loc 1 434 0 discriminator 1
 767 001c 9268     		ldr	r2, [r2, #8]
 768 001e 9142     		cmp	r1, r2
 769 0020 38BF     		it	cc
 770 0022 1146     		movcc	r1, r2
 771              	.LVL57:
 772              	.L60:
 773              		.loc 1 437 0
 774 0024 DB68     		ldr	r3, [r3, #12]
 775              	.LVL58:
 776              		.loc 1 429 0
 777 0026 002B     		cmp	r3, #0
 778 0028 F5D1     		bne	.L61
 779              	.L59:
 780              	.LBB209:
 781              	.LBB210:
 782              		.loc 2 641 0
 783 002a 2B68     		ldr	r3, [r5]
 784              	.LVL59:
 785              	.LBE210:
 786              	.LBE209:
 787              		.loc 1 451 0
 788 002c AA6B     		ldr	r2, [r5, #56]
 789              		.loc 1 442 0
 790 002e 8160     		str	r1, [r0, #8]
 791              	.LVL60:
 792              	.LBB213:
 793              	.LBB211:
 794              		.loc 2 641 0
ARM GAS  /tmp/ccNFGvrg.s 			page 15


 795 0030 2360     		str	r3, [r4]
 796              	.LBE211:
 797              	.LBE213:
 798              		.loc 1 453 0
 799 0032 2846     		mov	r0, r5
 800              	.LVL61:
 801              	.LBB214:
 802              	.LBB212:
 803              		.loc 2 641 0
 804 0034 5C60     		str	r4, [r3, #4]
 805              	.LBE212:
 806              	.LBE214:
 807              		.loc 1 450 0
 808 0036 A560     		str	r5, [r4, #8]
 809              		.loc 1 451 0
 810 0038 E260     		str	r2, [r4, #12]
 811              		.loc 1 452 0
 812 003a AC63     		str	r4, [r5, #56]
 813              	.LBE204:
 814              		.loc 1 461 0
 815 003c 30BC     		pop	{r4, r5}
 816              		.cfi_remember_state
 817              		.cfi_restore 5
 818              		.cfi_restore 4
 819              		.cfi_def_cfa_offset 0
 820              	.LVL62:
 821              	.LBB215:
 822              		.loc 1 453 0
 823 003e FFF7FEBF 		b	chSchReadyI
 824              	.LVL63:
 825              	.L58:
 826              		.cfi_restore_state
 827              	.LBE215:
 828              		.loc 1 456 0
 829 0042 0023     		movs	r3, #0
 830 0044 A360     		str	r3, [r4, #8]
 831              		.loc 1 461 0
 832 0046 30BC     		pop	{r4, r5}
 833              		.cfi_restore 5
 834              		.cfi_restore 4
 835              		.cfi_def_cfa_offset 0
 836              	.LVL64:
 837 0048 7047     		bx	lr
 838              	.L68:
 839 004a 00BF     		.align	2
 840              	.L67:
 841 004c 00000000 		.word	ch
 842              		.cfi_endproc
 843              	.LFE232:
 844              		.size	chMtxUnlockS, .-chMtxUnlockS
 845              		.section	.text.chMtxUnlockAll,"ax",%progbits
 846              		.align	2
 847              		.p2align 4,,15
 848              		.global	chMtxUnlockAll
 849              		.thumb
 850              		.thumb_func
 851              		.type	chMtxUnlockAll, %function
ARM GAS  /tmp/ccNFGvrg.s 			page 16


 852              	chMtxUnlockAll:
 853              	.LFB233:
 854              		.loc 1 474 0
 855              		.cfi_startproc
 856              		@ args = 0, pretend = 0, frame = 0
 857              		@ frame_needed = 0, uses_anonymous_args = 0
 858              		.loc 1 475 0
 859 0000 134A     		ldr	r2, .L81
 860              		.loc 1 474 0
 861 0002 70B5     		push	{r4, r5, r6, lr}
 862              		.cfi_def_cfa_offset 16
 863              		.cfi_offset 4, -16
 864              		.cfi_offset 5, -12
 865              		.cfi_offset 6, -8
 866              		.cfi_offset 14, -4
 867              	.LBB216:
 868              	.LBB217:
 869              	.LBB218:
 870              	.LBB219:
 871              		.loc 3 546 0
 872 0004 2023     		movs	r3, #32
 873              	.LBE219:
 874              	.LBE218:
 875              	.LBE217:
 876              	.LBE216:
 877              		.loc 1 475 0
 878 0006 9469     		ldr	r4, [r2, #24]
 879              	.LVL65:
 880              	.LBB223:
 881              	.LBB222:
 882              	.LBB221:
 883              	.LBB220:
 884              		.loc 3 546 0
 885              	@ 546 "../ChibiOS/os/ext/CMSIS/include/core_cmFunc.h" 1
 886 0008 83F31188 		MSR basepri, r3
 887              	@ 0 "" 2
 888              		.thumb
 889              	.LBE220:
 890              	.LBE221:
 891              	.LBE222:
 892              	.LBE223:
 893              		.loc 1 478 0
 894 000c A36B     		ldr	r3, [r4, #56]
 895 000e D3B1     		cbz	r3, .L70
 896              	.LBB224:
 897              		.loc 1 496 0
 898 0010 0026     		movs	r6, #0
 899 0012 0AE0     		b	.L73
 900              	.LVL66:
 901              	.L80:
 902              	.LBB225:
 903              	.LBB226:
 904              	.LBB227:
 905              		.loc 2 641 0
 906 0014 1168     		ldr	r1, [r2]
 907              	.LBE227:
 908              	.LBE226:
ARM GAS  /tmp/ccNFGvrg.s 			page 17


 909              		.loc 1 488 0
 910 0016 956B     		ldr	r5, [r2, #56]
 911              	.LBB229:
 912              	.LBB228:
 913              		.loc 2 641 0
 914 0018 1960     		str	r1, [r3]
 915 001a 4B60     		str	r3, [r1, #4]
 916              	.LBE228:
 917              	.LBE229:
 918              		.loc 1 487 0
 919 001c 9A60     		str	r2, [r3, #8]
 920              		.loc 1 488 0
 921 001e DD60     		str	r5, [r3, #12]
 922              		.loc 1 489 0
 923 0020 9363     		str	r3, [r2, #56]
 924              		.loc 1 490 0
 925 0022 FFF7FEFF 		bl	chSchReadyI
 926              	.LVL67:
 927              	.LBE225:
 928              	.LBE224:
 929              		.loc 1 498 0
 930 0026 A36B     		ldr	r3, [r4, #56]
 931 0028 4BB1     		cbz	r3, .L79
 932              	.L73:
 933              	.LVL68:
 934              	.LBB235:
 935              	.LBB230:
 936              	.LBB231:
 937              	.LBB232:
 938              	.LBB233:
 939              		.loc 2 600 0
 940 002a 1A68     		ldr	r2, [r3]
 941              	.LVL69:
 942              	.LBE233:
 943              	.LBE232:
 944              	.LBE231:
 945              	.LBE230:
 946              		.loc 1 481 0
 947 002c D968     		ldr	r1, [r3, #12]
 948 002e A163     		str	r1, [r4, #56]
 949              	.LVL70:
 950              		.loc 1 482 0
 951 0030 9342     		cmp	r3, r2
 952              	.LBB234:
 953              		.loc 1 490 0
 954 0032 1046     		mov	r0, r2
 955              	.LBE234:
 956              		.loc 1 482 0
 957 0034 EED1     		bne	.L80
 958              		.loc 1 496 0
 959 0036 9E60     		str	r6, [r3, #8]
 960              	.LBE235:
 961              		.loc 1 498 0
 962 0038 A36B     		ldr	r3, [r4, #56]
 963              	.LVL71:
 964 003a 002B     		cmp	r3, #0
 965 003c F5D1     		bne	.L73
ARM GAS  /tmp/ccNFGvrg.s 			page 18


 966              	.LVL72:
 967              	.L79:
 968              		.loc 1 499 0
 969 003e E36B     		ldr	r3, [r4, #60]
 970 0040 A360     		str	r3, [r4, #8]
 971              		.loc 1 500 0
 972 0042 FFF7FEFF 		bl	chSchRescheduleS
 973              	.LVL73:
 974              	.L70:
 975              	.LBB236:
 976              	.LBB237:
 977              	.LBB238:
 978              	.LBB239:
 979              	.LBB240:
 980              		.loc 3 546 0
 981 0046 0023     		movs	r3, #0
 982              	@ 546 "../ChibiOS/os/ext/CMSIS/include/core_cmFunc.h" 1
 983 0048 83F31188 		MSR basepri, r3
 984              	@ 0 "" 2
 985              		.thumb
 986 004c 70BD     		pop	{r4, r5, r6, pc}
 987              	.LVL74:
 988              	.L82:
 989 004e 00BF     		.align	2
 990              	.L81:
 991 0050 00000000 		.word	ch
 992              	.LBE240:
 993              	.LBE239:
 994              	.LBE238:
 995              	.LBE237:
 996              	.LBE236:
 997              		.cfi_endproc
 998              	.LFE233:
 999              		.size	chMtxUnlockAll, .-chMtxUnlockAll
 1000 0054 AFF30080 		.text
 1000      AFF30080 
 1000      AFF30080 
 1001              	.Letext0:
 1002              		.file 4 "/l/arm2/gcc-arm-none-eabi-4_9-2014q4/arm-none-eabi/include/machine/_default_types.h"
 1003              		.file 5 "/l/arm2/gcc-arm-none-eabi-4_9-2014q4/arm-none-eabi/include/stdint.h"
 1004              		.file 6 "../ChibiOS/os/rt/ports/ARMCMx/compilers/GCC/chtypes.h"
 1005              		.file 7 "../ChibiOS/os/rt/include/chsystypes.h"
 1006              		.file 8 "../ChibiOS/os/rt/ports/ARMCMx/chcore.h"
 1007              		.file 9 "../ChibiOS/os/rt/ports/ARMCMx/chcore_v7m.h"
 1008              		.file 10 "../ChibiOS/os/rt/include/chtm.h"
 1009              		.file 11 "../ChibiOS/os/rt/include/chmtx.h"
 1010              		.file 12 "../ChibiOS/os/rt/include/chsys.h"
 1011              		.file 13 "../ChibiOS/os/ext/CMSIS/include/core_cm4.h"