ARM GAS  /tmp/ccNFGvrg.s 			page 1


   1              		.syntax unified
   2              		.cpu cortex-m4
   3              		.eabi_attribute 27, 3
   4              		.eabi_attribute 28, 1
   5              		.fpu fpv4-sp-d16
   6              		.eabi_attribute 20, 1
   7              		.eabi_attribute 21, 1
   8              		.eabi_attribute 23, 3
   9              		.eabi_attribute 24, 1
  10              		.eabi_attribute 25, 1
  11              		.eabi_attribute 26, 1
  12              		.eabi_attribute 30, 2
  13              		.eabi_attribute 34, 1
  14              		.eabi_attribute 18, 4
  15              		.thumb
  16              		.file	"chmtx.c"
  17              		.text
  18              	.Ltext0:
  19              		.cfi_sections	.debug_frame
  20              		.section	.text.chMtxObjectInit,"ax",%progbits
  21              		.align	2
  22              		.p2align 4,,15
  23              		.global	chMtxObjectInit
  24              		.thumb
  25              		.thumb_func
  26              		.type	chMtxObjectInit, %function
  27              	chMtxObjectInit:
  28              	.LFB226:
  29              		.file 1 "../ChibiOS/os/rt/src/chmtx.c"
  30              		.loc 1 103 0
  31              		.cfi_startproc
  32              		@ args = 0, pretend = 0, frame = 0
  33              		@ frame_needed = 0, uses_anonymous_args = 0
  34              		@ link register save eliminated.
  35              	.LVL0:
  36              		.loc 1 108 0
  37 0000 0023     		movs	r3, #0
  38              	.LBB103:
  39              	.LBB104:
  40              		.file 2 "../ChibiOS/os/rt/include/chschd.h"
  41              		.loc 2 574 0
  42 0002 4060     		str	r0, [r0, #4]
  43 0004 0060     		str	r0, [r0]
  44              	.LBE104:
  45              	.LBE103:
  46              		.loc 1 108 0
  47 0006 8360     		str	r3, [r0, #8]
  48 0008 7047     		bx	lr
  49              		.cfi_endproc
  50              	.LFE226:
  51              		.size	chMtxObjectInit, .-chMtxObjectInit
  52 000a 00BFAFF3 		.section	.text.chMtxLockS,"ax",%progbits
  52      0080
  53              		.align	2
  54              		.p2align 4,,15
  55              		.global	chMtxLockS
  56              		.thumb
ARM GAS  /tmp/ccNFGvrg.s 			page 2


  57              		.thumb_func
  58              		.type	chMtxLockS, %function
  59              	chMtxLockS:
  60              	.LFB228:
  61              		.loc 1 139 0
  62              		.cfi_startproc
  63              		@ args = 0, pretend = 0, frame = 0
  64              		@ frame_needed = 0, uses_anonymous_args = 0
  65              	.LVL1:
  66              		.loc 1 140 0
  67 0000 304B     		ldr	r3, .L28
  68              		.loc 1 146 0
  69 0002 8268     		ldr	r2, [r0, #8]
  70              		.loc 1 139 0
  71 0004 70B5     		push	{r4, r5, r6, lr}
  72              		.cfi_def_cfa_offset 16
  73              		.cfi_offset 4, -16
  74              		.cfi_offset 5, -12
  75              		.cfi_offset 6, -8
  76              		.cfi_offset 14, -4
  77              		.loc 1 140 0
  78 0006 9C69     		ldr	r4, [r3, #24]
  79              	.LVL2:
  80              		.loc 1 146 0
  81 0008 002A     		cmp	r2, #0
  82 000a 55D0     		beq	.L3
  83              	.LBB105:
  84              		.loc 1 165 0
  85 000c A168     		ldr	r1, [r4, #8]
  86 000e 9368     		ldr	r3, [r2, #8]
  87 0010 9942     		cmp	r1, r3
  88 0012 0546     		mov	r5, r0
  89              	.LVL3:
  90 0014 06D9     		bls	.L5
  91              	.LVL4:
  92              	.L10:
  93              		.loc 1 170 0
  94 0016 137F     		ldrb	r3, [r2, #28]	@ zero_extendqisi2
  95              		.loc 1 167 0
  96 0018 9160     		str	r1, [r2, #8]
  97              		.loc 1 170 0
  98 001a 062B     		cmp	r3, #6
  99 001c 33D0     		beq	.L6
 100 001e 072B     		cmp	r3, #7
 101 0020 1DD0     		beq	.L7
 102 0022 9BB1     		cbz	r3, .L27
 103              	.LVL5:
 104              	.L5:
 105              	.LBB106:
 106              	.LBB107:
 107              		.loc 2 622 0
 108 0024 2B46     		mov	r3, r5
 109 0026 03E0     		b	.L18
 110              	.LVL6:
 111              	.L17:
 112              		.loc 2 625 0
 113 0028 9968     		ldr	r1, [r3, #8]
ARM GAS  /tmp/ccNFGvrg.s 			page 3


 114 002a A268     		ldr	r2, [r4, #8]
 115 002c 9142     		cmp	r1, r2
 116 002e 02D3     		bcc	.L19
 117              	.L18:
 118              		.loc 2 624 0
 119 0030 1B68     		ldr	r3, [r3]
 120              	.LVL7:
 121              		.loc 2 625 0
 122 0032 9D42     		cmp	r5, r3
 123 0034 F8D1     		bne	.L17
 124              	.L19:
 125              		.loc 2 627 0
 126 0036 5A68     		ldr	r2, [r3, #4]
 127 0038 6260     		str	r2, [r4, #4]
 128              		.loc 2 626 0
 129 003a 2360     		str	r3, [r4]
 130              		.loc 2 628 0
 131 003c 5C60     		str	r4, [r3, #4]
 132 003e 1460     		str	r4, [r2]
 133              	.LBE107:
 134              	.LBE106:
 135              		.loc 1 208 0
 136 0040 2562     		str	r5, [r4, #32]
 137              		.loc 1 209 0
 138 0042 0620     		movs	r0, #6
 139              	.LBE105:
 140              		.loc 1 231 0
 141 0044 BDE87040 		pop	{r4, r5, r6, lr}
 142              		.cfi_remember_state
 143              		.cfi_restore 14
 144              		.cfi_restore 6
 145              		.cfi_restore 5
 146              		.cfi_restore 4
 147              		.cfi_def_cfa_offset 0
 148              	.LVL8:
 149              	.LBB124:
 150              		.loc 1 209 0
 151 0048 FFF7FEBF 		b	chSchGoSleepS
 152              	.LVL9:
 153              	.L27:
 154              		.cfi_restore_state
 155              	.LBB108:
 156              	.LBB109:
 157              		.loc 2 656 0
 158 004c 92E80A00 		ldmia	r2, {r1, r3}
 159 0050 1960     		str	r1, [r3]
 160              		.loc 2 657 0
 161 0052 1168     		ldr	r1, [r2]
 162              	.LBE109:
 163              	.LBE108:
 164              		.loc 1 200 0
 165 0054 1046     		mov	r0, r2
 166              	.LBB111:
 167              	.LBB110:
 168              		.loc 2 657 0
 169 0056 4B60     		str	r3, [r1, #4]
 170              	.LBE110:
ARM GAS  /tmp/ccNFGvrg.s 			page 4


 171              	.LBE111:
 172              		.loc 1 200 0
 173 0058 FFF7FEFF 		bl	chSchReadyI
 174              	.LVL10:
 175              		.loc 1 201 0
 176 005c E2E7     		b	.L5
 177              	.LVL11:
 178              	.L7:
 179              	.LBB112:
 180              	.LBB113:
 181              		.loc 2 656 0
 182 005e 92E80900 		ldmia	r2, {r0, r3}
 183 0062 1860     		str	r0, [r3]
 184              	.LBE113:
 185              	.LBE112:
 186              		.loc 1 191 0
 187 0064 166A     		ldr	r6, [r2, #32]
 188              	.LVL12:
 189              	.LBB115:
 190              	.LBB114:
 191              		.loc 2 657 0
 192 0066 1068     		ldr	r0, [r2]
 193 0068 4360     		str	r3, [r0, #4]
 194              	.LBE114:
 195              	.LBE115:
 196              	.LBB116:
 197              	.LBB117:
 198              		.loc 2 622 0
 199 006a 3346     		mov	r3, r6
 200 006c 02E0     		b	.L15
 201              	.LVL13:
 202              	.L14:
 203              		.loc 2 625 0
 204 006e 9868     		ldr	r0, [r3, #8]
 205 0070 8842     		cmp	r0, r1
 206 0072 02D3     		bcc	.L16
 207              	.L15:
 208              		.loc 2 624 0
 209 0074 1B68     		ldr	r3, [r3]
 210              	.LVL14:
 211              		.loc 2 625 0
 212 0076 9E42     		cmp	r6, r3
 213 0078 F9D1     		bne	.L14
 214              	.L16:
 215              		.loc 2 627 0
 216 007a 5968     		ldr	r1, [r3, #4]
 217 007c 5160     		str	r1, [r2, #4]
 218              		.loc 2 626 0
 219 007e 1360     		str	r3, [r2]
 220              		.loc 2 628 0
 221 0080 5A60     		str	r2, [r3, #4]
 222 0082 0A60     		str	r2, [r1]
 223 0084 CEE7     		b	.L5
 224              	.LVL15:
 225              	.L6:
 226              	.LBE117:
 227              	.LBE116:
ARM GAS  /tmp/ccNFGvrg.s 			page 5


 228              	.LBB118:
 229              	.LBB119:
 230              		.loc 2 656 0
 231 0086 92E80900 		ldmia	r2, {r0, r3}
 232 008a 1860     		str	r0, [r3]
 233              	.LBE119:
 234              	.LBE118:
 235              		.loc 1 174 0
 236 008c 166A     		ldr	r6, [r2, #32]
 237              	.LVL16:
 238              	.LBB121:
 239              	.LBB120:
 240              		.loc 2 657 0
 241 008e 1068     		ldr	r0, [r2]
 242 0090 4360     		str	r3, [r0, #4]
 243              	.LBE120:
 244              	.LBE121:
 245              		.loc 1 174 0
 246 0092 3346     		mov	r3, r6
 247 0094 02E0     		b	.L12
 248              	.LVL17:
 249              	.L9:
 250              	.LBB122:
 251              	.LBB123:
 252              		.loc 2 625 0
 253 0096 9868     		ldr	r0, [r3, #8]
 254 0098 8842     		cmp	r0, r1
 255 009a 02D3     		bcc	.L13
 256              	.L12:
 257              		.loc 2 624 0
 258 009c 1B68     		ldr	r3, [r3]
 259              	.LVL18:
 260              		.loc 2 625 0
 261 009e 9E42     		cmp	r6, r3
 262 00a0 F9D1     		bne	.L9
 263              	.L13:
 264              		.loc 2 627 0
 265 00a2 5968     		ldr	r1, [r3, #4]
 266 00a4 5160     		str	r1, [r2, #4]
 267              		.loc 2 626 0
 268 00a6 1360     		str	r3, [r2]
 269              		.loc 2 628 0
 270 00a8 5A60     		str	r2, [r3, #4]
 271 00aa 0A60     		str	r2, [r1]
 272              	.LBE123:
 273              	.LBE122:
 274              		.loc 1 175 0
 275 00ac B268     		ldr	r2, [r6, #8]
 276              	.LVL19:
 277              		.loc 1 165 0
 278 00ae A168     		ldr	r1, [r4, #8]
 279 00b0 9368     		ldr	r3, [r2, #8]
 280              	.LVL20:
 281 00b2 8B42     		cmp	r3, r1
 282 00b4 AFD3     		bcc	.L10
 283 00b6 B5E7     		b	.L5
 284              	.LVL21:
ARM GAS  /tmp/ccNFGvrg.s 			page 6


 285              	.L3:
 286              	.LBE124:
 287              		.loc 1 228 0
 288 00b8 A36B     		ldr	r3, [r4, #56]
 289 00ba C360     		str	r3, [r0, #12]
 290              		.loc 1 227 0
 291 00bc 8460     		str	r4, [r0, #8]
 292              		.loc 1 229 0
 293 00be A063     		str	r0, [r4, #56]
 294 00c0 70BD     		pop	{r4, r5, r6, pc}
 295              	.LVL22:
 296              	.L29:
 297 00c2 00BF     		.align	2
 298              	.L28:
 299 00c4 00000000 		.word	ch
 300              		.cfi_endproc
 301              	.LFE228:
 302              		.size	chMtxLockS, .-chMtxLockS
 303 00c8 AFF30080 		.section	.text.chMtxLock,"ax",%progbits
 303      AFF30080 
 304              		.align	2
 305              		.p2align 4,,15
 306              		.global	chMtxLock
 307              		.thumb
 308              		.thumb_func
 309              		.type	chMtxLock, %function
 310              	chMtxLock:
 311              	.LFB227:
 312              		.loc 1 123 0
 313              		.cfi_startproc
 314              		@ args = 0, pretend = 0, frame = 0
 315              		@ frame_needed = 0, uses_anonymous_args = 0
 316              	.LVL23:
 317 0000 08B5     		push	{r3, lr}
 318              		.cfi_def_cfa_offset 8
 319              		.cfi_offset 3, -8
 320              		.cfi_offset 14, -4
 321              	.LBB125:
 322              	.LBB126:
 323              	.LBB127:
 324              	.LBB128:
 325              		.file 3 "../ChibiOS/os/ext/CMSIS/include/core_cmFunc.h"
 326              		.loc 3 546 0
 327 0002 2023     		movs	r3, #32
 328              	@ 546 "../ChibiOS/os/ext/CMSIS/include/core_cmFunc.h" 1
 329 0004 83F31188 		MSR basepri, r3
 330              	@ 0 "" 2
 331              		.thumb
 332              	.LBE128:
 333              	.LBE127:
 334              	.LBE126:
 335              	.LBE125:
 336              		.loc 1 126 0
 337 0008 FFF7FEFF 		bl	chMtxLockS
 338              	.LVL24:
 339              	.LBB129:
 340              	.LBB130:
ARM GAS  /tmp/ccNFGvrg.s 			page 7


 341              	.LBB131:
 342              	.LBB132:
 343              	.LBB133:
 344              		.loc 3 546 0
 345 000c 0023     		movs	r3, #0
 346              	@ 546 "../ChibiOS/os/ext/CMSIS/include/core_cmFunc.h" 1
 347 000e 83F31188 		MSR basepri, r3
 348              	@ 0 "" 2
 349              		.thumb
 350 0012 08BD     		pop	{r3, pc}
 351              	.LBE133:
 352              	.LBE132:
 353              	.LBE131:
 354              	.LBE130:
 355              	.LBE129:
 356              		.cfi_endproc
 357              	.LFE227:
 358              		.size	chMtxLock, .-chMtxLock
 359 0014 AFF30080 		.section	.text.chMtxTryLock,"ax",%progbits
 359      AFF30080 
 359      AFF30080 
 360              		.align	2
 361              		.p2align 4,,15
 362              		.global	chMtxTryLock
 363              		.thumb
 364              		.thumb_func
 365              		.type	chMtxTryLock, %function
 366              	chMtxTryLock:
 367              	.LFB229:
 368              		.loc 1 250 0
 369              		.cfi_startproc
 370              		@ args = 0, pretend = 0, frame = 0
 371              		@ frame_needed = 0, uses_anonymous_args = 0
 372              		@ link register save eliminated.
 373              	.LVL25:
 374              		.loc 1 250 0
 375 0000 0346     		mov	r3, r0
 376              	.LBB147:
 377              	.LBB148:
 378              	.LBB149:
 379              	.LBB150:
 380              		.loc 3 546 0
 381 0002 2022     		movs	r2, #32
 382              	@ 546 "../ChibiOS/os/ext/CMSIS/include/core_cmFunc.h" 1
 383 0004 82F31188 		MSR basepri, r2
 384              	@ 0 "" 2
 385              	.LVL26:
 386              		.thumb
 387              	.LBE150:
 388              	.LBE149:
 389              	.LBE148:
 390              	.LBE147:
 391              	.LBB151:
 392              	.LBB152:
 393              		.loc 1 282 0
 394 0008 8268     		ldr	r2, [r0, #8]
 395              		.loc 1 292 0
ARM GAS  /tmp/ccNFGvrg.s 			page 8


 396 000a 0020     		movs	r0, #0
 397              	.LVL27:
 398              		.loc 1 282 0
 399 000c 1AB1     		cbz	r2, .L35
 400              	.LVL28:
 401              	.LBE152:
 402              	.LBE151:
 403              	.LBB156:
 404              	.LBB157:
 405              	.LBB158:
 406              	.LBB159:
 407              	.LBB160:
 408              		.loc 3 546 0
 409 000e 0023     		movs	r3, #0
 410              	.LVL29:
 411              	@ 546 "../ChibiOS/os/ext/CMSIS/include/core_cmFunc.h" 1
 412 0010 83F31188 		MSR basepri, r3
 413              	@ 0 "" 2
 414              		.thumb
 415              	.LBE160:
 416              	.LBE159:
 417              	.LBE158:
 418              	.LBE157:
 419              	.LBE156:
 420              		.loc 1 258 0
 421 0014 7047     		bx	lr
 422              	.LVL30:
 423              	.L35:
 424              	.LBB165:
 425              	.LBB155:
 426              	.LBB153:
 427              	.LBB154:
 428              		.loc 1 300 0
 429 0016 054A     		ldr	r2, .L36
 430 0018 9269     		ldr	r2, [r2, #24]
 431 001a 9A60     		str	r2, [r3, #8]
 432              		.loc 1 301 0
 433 001c 916B     		ldr	r1, [r2, #56]
 434 001e D960     		str	r1, [r3, #12]
 435              		.loc 1 302 0
 436 0020 0120     		movs	r0, #1
 437 0022 9363     		str	r3, [r2, #56]
 438              	.LVL31:
 439              	.LBE154:
 440              	.LBE153:
 441              	.LBE155:
 442              	.LBE165:
 443              	.LBB166:
 444              	.LBB164:
 445              	.LBB163:
 446              	.LBB162:
 447              	.LBB161:
 448              		.loc 3 546 0
 449 0024 0023     		movs	r3, #0
 450              	.LVL32:
 451              	@ 546 "../ChibiOS/os/ext/CMSIS/include/core_cmFunc.h" 1
 452 0026 83F31188 		MSR basepri, r3
ARM GAS  /tmp/ccNFGvrg.s 			page 9


 453              	@ 0 "" 2
 454              		.thumb
 455              	.LBE161:
 456              	.LBE162:
 457              	.LBE163:
 458              	.LBE164:
 459              	.LBE166:
 460              		.loc 1 258 0
 461 002a 7047     		bx	lr
 462              	.L37:
 463              		.align	2
 464              	.L36:
 465 002c 00000000 		.word	ch
 466              		.cfi_endproc
 467              	.LFE229:
 468              		.size	chMtxTryLock, .-chMtxTryLock
 469              		.section	.text.chMtxTryLockS,"ax",%progbits
 470              		.align	2
 471              		.p2align 4,,15
 472              		.global	chMtxTryLockS
 473              		.thumb
 474              		.thumb_func
 475              		.type	chMtxTryLockS, %function
 476              	chMtxTryLockS:
 477              	.LFB230:
 478              		.loc 1 277 0
 479              		.cfi_startproc
 480              		@ args = 0, pretend = 0, frame = 0
 481              		@ frame_needed = 0, uses_anonymous_args = 0
 482              		@ link register save eliminated.
 483              	.LVL33:
 484              		.loc 1 282 0
 485 0000 8268     		ldr	r2, [r0, #8]
 486              		.loc 1 277 0
 487 0002 0346     		mov	r3, r0
 488              		.loc 1 282 0
 489 0004 0AB1     		cbz	r2, .L41
 490              		.loc 1 292 0
 491 0006 0020     		movs	r0, #0
 492              	.LVL34:
 493              		.loc 1 304 0
 494 0008 7047     		bx	lr
 495              	.LVL35:
 496              	.L41:
 497              	.LBB169:
 498              	.LBB170:
 499              		.loc 1 300 0
 500 000a 044A     		ldr	r2, .L42
 501 000c 9269     		ldr	r2, [r2, #24]
 502 000e 8260     		str	r2, [r0, #8]
 503              		.loc 1 301 0
 504 0010 916B     		ldr	r1, [r2, #56]
 505 0012 C160     		str	r1, [r0, #12]
 506              		.loc 1 302 0
 507 0014 0120     		movs	r0, #1
 508              	.LVL36:
 509 0016 9363     		str	r3, [r2, #56]
ARM GAS  /tmp/ccNFGvrg.s 			page 10


 510 0018 7047     		bx	lr
 511              	.L43:
 512 001a 00BF     		.align	2
 513              	.L42:
 514 001c 00000000 		.word	ch
 515              	.LBE170:
 516              	.LBE169:
 517              		.cfi_endproc
 518              	.LFE230:
 519              		.size	chMtxTryLockS, .-chMtxTryLockS
 520              		.section	.text.chMtxUnlock,"ax",%progbits
 521              		.align	2
 522              		.p2align 4,,15
 523              		.global	chMtxUnlock
 524              		.thumb
 525              		.thumb_func
 526              		.type	chMtxUnlock, %function
 527              	chMtxUnlock:
 528              	.LFB231:
 529              		.loc 1 318 0
 530              		.cfi_startproc
 531              		@ args = 0, pretend = 0, frame = 0
 532              		@ frame_needed = 0, uses_anonymous_args = 0
 533              	.LVL37:
 534              		.loc 1 319 0
 535 0000 164B     		ldr	r3, .L55
 536              		.loc 1 318 0
 537 0002 70B5     		push	{r4, r5, r6, lr}
 538              		.cfi_def_cfa_offset 16
 539              		.cfi_offset 4, -16
 540              		.cfi_offset 5, -12
 541              		.cfi_offset 6, -8
 542              		.cfi_offset 14, -4
 543              		.loc 1 319 0
 544 0004 9D69     		ldr	r5, [r3, #24]
 545              	.LVL38:
 546              	.LBB171:
 547              	.LBB172:
 548              	.LBB173:
 549              	.LBB174:
 550              		.loc 3 546 0
 551 0006 2023     		movs	r3, #32
 552              	@ 546 "../ChibiOS/os/ext/CMSIS/include/core_cmFunc.h" 1
 553 0008 83F31188 		MSR basepri, r3
 554              	@ 0 "" 2
 555              		.thumb
 556              	.LBE174:
 557              	.LBE173:
 558              	.LBE172:
 559              	.LBE171:
 560              	.LBB175:
 561              	.LBB176:
 562              	.LBB177:
 563              	.LBB178:
 564              		.loc 2 600 0
 565 000c 0468     		ldr	r4, [r0]
 566              	.LBE178:
ARM GAS  /tmp/ccNFGvrg.s 			page 11


 567              	.LBE177:
 568              	.LBE176:
 569              	.LBE175:
 570              		.loc 1 339 0
 571 000e C368     		ldr	r3, [r0, #12]
 572 0010 AB63     		str	r3, [r5, #56]
 573              	.LVL39:
 574              		.loc 1 342 0
 575 0012 A042     		cmp	r0, r4
 576 0014 1CD0     		beq	.L45
 577              	.LBB179:
 578              		.loc 1 347 0
 579 0016 E96B     		ldr	r1, [r5, #60]
 580              	.LVL40:
 581              		.loc 1 349 0
 582 0018 4BB1     		cbz	r3, .L46
 583              	.L48:
 584              	.LVL41:
 585              	.LBB180:
 586              	.LBB181:
 587              	.LBB182:
 588              	.LBB183:
 589              		.loc 2 600 0
 590 001a 1A68     		ldr	r2, [r3]
 591              	.LBE183:
 592              	.LBE182:
 593              	.LBE181:
 594              	.LBE180:
 595              		.loc 1 353 0
 596 001c 9342     		cmp	r3, r2
 597 001e 03D0     		beq	.L47
 598              		.loc 1 354 0 discriminator 1
 599 0020 9268     		ldr	r2, [r2, #8]
 600 0022 9142     		cmp	r1, r2
 601 0024 38BF     		it	cc
 602 0026 1146     		movcc	r1, r2
 603              	.LVL42:
 604              	.L47:
 605              		.loc 1 357 0
 606 0028 DB68     		ldr	r3, [r3, #12]
 607              	.LVL43:
 608              		.loc 1 349 0
 609 002a 002B     		cmp	r3, #0
 610 002c F5D1     		bne	.L48
 611              	.L46:
 612 002e 0346     		mov	r3, r0
 613              	.LVL44:
 614              	.LBB184:
 615              	.LBB185:
 616              		.loc 2 641 0
 617 0030 2268     		ldr	r2, [r4]
 618              	.LBE185:
 619              	.LBE184:
 620              		.loc 1 371 0
 621 0032 A66B     		ldr	r6, [r4, #56]
 622              		.loc 1 362 0
 623 0034 A960     		str	r1, [r5, #8]
ARM GAS  /tmp/ccNFGvrg.s 			page 12


 624              	.LVL45:
 625              		.loc 1 373 0
 626 0036 2046     		mov	r0, r4
 627              	.LVL46:
 628              	.LBB188:
 629              	.LBB186:
 630              		.loc 2 641 0
 631 0038 1A60     		str	r2, [r3]
 632              	.LBE186:
 633              	.LBE188:
 634              		.loc 1 373 0
 635 003a 0021     		movs	r1, #0
 636              	.LVL47:
 637              	.LBB189:
 638              	.LBB187:
 639              		.loc 2 641 0
 640 003c 5360     		str	r3, [r2, #4]
 641              	.LBE187:
 642              	.LBE189:
 643              		.loc 1 370 0
 644 003e 9C60     		str	r4, [r3, #8]
 645              		.loc 1 371 0
 646 0040 DE60     		str	r6, [r3, #12]
 647              		.loc 1 372 0
 648 0042 A363     		str	r3, [r4, #56]
 649              		.loc 1 373 0
 650 0044 FFF7FEFF 		bl	chSchWakeupS
 651              	.LVL48:
 652              	.LBE179:
 653              	.LBB190:
 654              	.LBB191:
 655              	.LBB192:
 656              	.LBB193:
 657              	.LBB194:
 658              		.loc 3 546 0
 659 0048 0023     		movs	r3, #0
 660              	@ 546 "../ChibiOS/os/ext/CMSIS/include/core_cmFunc.h" 1
 661 004a 83F31188 		MSR basepri, r3
 662              	@ 0 "" 2
 663              		.thumb
 664 004e 70BD     		pop	{r4, r5, r6, pc}
 665              	.LVL49:
 666              	.L45:
 667              	.LBE194:
 668              	.LBE193:
 669              	.LBE192:
 670              	.LBE191:
 671              	.LBE190:
 672              		.loc 1 376 0
 673 0050 0023     		movs	r3, #0
 674 0052 8360     		str	r3, [r0, #8]
 675              	.LVL50:
 676              	.LBB199:
 677              	.LBB198:
 678              	.LBB197:
 679              	.LBB196:
 680              	.LBB195:
ARM GAS  /tmp/ccNFGvrg.s 			page 13


 681              		.loc 3 546 0
 682 0054 0023     		movs	r3, #0
 683              	@ 546 "../ChibiOS/os/ext/CMSIS/include/core_cmFunc.h" 1
 684 0056 83F31188 		MSR basepri, r3
 685              	@ 0 "" 2
 686              		.thumb
 687 005a 70BD     		pop	{r4, r5, r6, pc}
 688              	.LVL51:
 689              	.L56:
 690              		.align	2
 691              	.L55:
 692 005c 00000000 		.word	ch
 693              	.LBE195:
 694              	.LBE196:
 695              	.LBE197:
 696              	.LBE198:
 697              	.LBE199:
 698              		.cfi_endproc
 699              	.LFE231:
 700              		.size	chMtxUnlock, .-chMtxUnlock
 701              		.section	.text.chMtxUnlockS,"ax",%progbits
 702              		.align	2
 703              		.p2align 4,,15
 704              		.global	chMtxUnlockS
 705              		.thumb
 706              		.thumb_func
 707              		.type	chMtxUnlockS, %function
 708              	chMtxUnlockS:
 709              	.LFB232:
 710              		.loc 1 399 0
 711              		.cfi_startproc
 712              		@ args = 0, pretend = 0, frame = 0
 713              		@ frame_needed = 0, uses_anonymous_args = 0
 714              		@ link register save eliminated.
 715              	.LVL52:
 716              		.loc 1 400 0
 717 0000 124B     		ldr	r3, .L67
 718              		.loc 1 399 0
 719 0002 30B4     		push	{r4, r5}
 720              		.cfi_def_cfa_offset 8
 721              		.cfi_offset 4, -8
 722              		.cfi_offset 5, -4
 723              		.loc 1 399 0
 724 0004 0446     		mov	r4, r0
 725              	.LBB200:
 726              	.LBB201:
 727              	.LBB202:
 728              	.LBB203:
 729              		.loc 2 600 0
 730 0006 0568     		ldr	r5, [r0]
 731              	.LBE203:
 732              	.LBE202:
 733              	.LBE201:
 734              	.LBE200:
 735              		.loc 1 400 0
 736 0008 9869     		ldr	r0, [r3, #24]
 737              	.LVL53:
ARM GAS  /tmp/ccNFGvrg.s 			page 14


 738              		.loc 1 419 0
 739 000a E368     		ldr	r3, [r4, #12]
 740 000c 8363     		str	r3, [r0, #56]
 741              	.LVL54:
 742              		.loc 1 422 0
 743 000e AC42     		cmp	r4, r5
 744 0010 17D0     		beq	.L58
 745              	.LBB204:
 746              		.loc 1 427 0
 747 0012 C16B     		ldr	r1, [r0, #60]
 748              	.LVL55:
 749              		.loc 1 429 0
 750 0014 4BB1     		cbz	r3, .L59
 751              	.L61:
 752              	.LVL56:
 753              	.LBB205:
 754              	.LBB206:
 755              	.LBB207:
 756              	.LBB208:
 757              		.loc 2 600 0
 758 0016 1A68     		ldr	r2, [r3]
 759              	.LBE208:
 760              	.LBE207:
 761              	.LBE206:
 762              	.LBE205:
 763              		.loc 1 433 0
 764 0018 9342     		cmp	r3, r2
 765 001a 03D0     		beq	.L60
 766              		.loc 1 434 0 discriminator 1
 767 001c 9268     		ldr	r2, [r2, #8]
 768 001e 9142     		cmp	r1, r2
 769 0020 38BF     		it	cc
 770 0022 1146     		movcc	r1, r2
 771              	.LVL57:
 772              	.L60:
 773              		.loc 1 437 0
 774 0024 DB68     		ldr	r3, [r3, #12]
 775              	.LVL58:
 776              		.loc 1 429 0
 777 0026 002B     		cmp	r3, #0
 778 0028 F5D1     		bne	.L61
 779              	.L59:
 780              	.LBB209:
 781              	.LBB210:
 782              		.loc 2 641 0
 783 002a 2B68     		ldr	r3, [r5]
 784              	.LVL59:
 785              	.LBE210:
 786              	.LBE209:
 787              		.loc 1 451 0
 788 002c AA6B     		ldr	r2, [r5, #56]
 789              		.loc 1 442 0
 790 002e 8160     		str	r1, [r0, #8]
 791              	.LVL60:
 792              	.LBB213:
 793              	.LBB211:
 794              		.loc 2 641 0
ARM GAS  /tmp/ccNFGvrg.s 			page 15


 795 0030 2360     		str	r3, [r4]
 796              	.LBE211:
 797              	.LBE213:
 798              		.loc 1 453 0
 799 0032 2846     		mov	r0, r5
 800              	.LVL61:
 801              	.LBB214:
 802              	.LBB212:
 803              		.loc 2 641 0
 804 0034 5C60     		str	r4, [r3, #4]
 805              	.LBE212:
 806              	.LBE214:
 807              		.loc 1 450 0
 808 0036 A560     		str	r5, [r4, #8]
 809              		.loc 1 451 0
 810 0038 E260     		str	r2, [r4, #12]
 811              		.loc 1 452 0
 812 003a AC63     		str	r4, [r5, #56]
 813              	.LBE204:
 814              		.loc 1 461 0
 815 003c 30BC     		pop	{r4, r5}
 816              		.cfi_remember_state
 817              		.cfi_restore 5
 818              		.cfi_restore 4
 819              		.cfi_def_cfa_offset 0
 820              	.LVL62:
 821              	.LBB215:
 822              		.loc 1 453 0
 823 003e FFF7FEBF 		b	chSchReadyI
 824              	.LVL63:
 825              	.L58:
 826              		.cfi_restore_state
 827              	.LBE215:
 828              		.loc 1 456 0
 829 0042 0023     		movs	r3, #0
 830 0044 A360     		str	r3, [r4, #8]
 831              		.loc 1 461 0
 832 0046 30BC     		pop	{r4, r5}
 833              		.cfi_restore 5
 834              		.cfi_restore 4
 835              		.cfi_def_cfa_offset 0
 836              	.LVL64:
 837 0048 7047     		bx	lr
 838              	.L68:
 839 004a 00BF     		.align	2
 840              	.L67:
 841 004c 00000000 		.word	ch
 842              		.cfi_endproc
 843              	.LFE232:
 844              		.size	chMtxUnlockS, .-chMtxUnlockS
 845              		.section	.text.chMtxUnlockAll,"ax",%progbits
 846              		.align	2
 847              		.p2align 4,,15
 848              		.global	chMtxUnlockAll
 849              		.thumb
 850              		.thumb_func
 851              		.type	chMtxUnlockAll, %function
ARM GAS  /tmp/ccNFGvrg.s 			page 16


 852              	chMtxUnlockAll:
 853              	.LFB233:
 854              		.loc 1 474 0
 855              		.cfi_startproc
 856              		@ args = 0, pretend = 0, frame = 0
 857              		@ frame_needed = 0, uses_anonymous_args = 0
 858              		.loc 1 475 0
 859 0000 134A     		ldr	r2, .L81
 860              		.loc 1 474 0
 861 0002 70B5     		push	{r4, r5, r6, lr}
 862              		.cfi_def_cfa_offset 16
 863              		.cfi_offset 4, -16
 864              		.cfi_offset 5, -12
 865              		.cfi_offset 6, -8
 866              		.cfi_offset 14, -4
 867              	.LBB216:
 868              	.LBB217:
 869              	.LBB218:
 870              	.LBB219:
 871              		.loc 3 546 0
 872 0004 2023     		movs	r3, #32
 873              	.LBE219:
 874              	.LBE218:
 875              	.LBE217:
 876              	.LBE216:
 877              		.loc 1 475 0
 878 0006 9469     		ldr	r4, [r2, #24]
 879              	.LVL65:
 880              	.LBB223:
 881              	.LBB222:
 882              	.LBB221:
 883              	.LBB220:
 884              		.loc 3 546 0
 885              	@ 546 "../ChibiOS/os/ext/CMSIS/include/core_cmFunc.h" 1
 886 0008 83F31188 		MSR basepri, r3
 887              	@ 0 "" 2
 888              		.thumb
 889              	.LBE220:
 890              	.LBE221:
 891              	.LBE222:
 892              	.LBE223:
 893              		.loc 1 478 0
 894 000c A36B     		ldr	r3, [r4, #56]
 895 000e D3B1     		cbz	r3, .L70
 896              	.LBB224:
 897              		.loc 1 496 0
 898 0010 0026     		movs	r6, #0
 899 0012 0AE0     		b	.L73
 900              	.LVL66:
 901              	.L80:
 902              	.LBB225:
 903              	.LBB226:
 904              	.LBB227:
 905              		.loc 2 641 0
 906 0014 1168     		ldr	r1, [r2]
 907              	.LBE227:
 908              	.LBE226:
ARM GAS  /tmp/ccNFGvrg.s 			page 17


 909              		.loc 1 488 0
 910 0016 956B     		ldr	r5, [r2, #56]
 911              	.LBB229:
 912              	.LBB228:
 913              		.loc 2 641 0
 914 0018 1960     		str	r1, [r3]
 915 001a 4B60     		str	r3, [r1, #4]
 916              	.LBE228:
 917              	.LBE229:
 918              		.loc 1 487 0
 919 001c 9A60     		str	r2, [r3, #8]
 920              		.loc 1 488 0
 921 001e DD60     		str	r5, [r3, #12]
 922              		.loc 1 489 0
 923 0020 9363     		str	r3, [r2, #56]
 924              		.loc 1 490 0
 925 0022 FFF7FEFF 		bl	chSchReadyI
 926              	.LVL67:
 927              	.LBE225:
 928              	.LBE224:
 929              		.loc 1 498 0
 930 0026 A36B     		ldr	r3, [r4, #56]
 931 0028 4BB1     		cbz	r3, .L79
 932              	.L73:
 933              	.LVL68:
 934              	.LBB235:
 935              	.LBB230:
 936              	.LBB231:
 937              	.LBB232:
 938              	.LBB233:
 939              		.loc 2 600 0
 940 002a 1A68     		ldr	r2, [r3]
 941              	.LVL69:
 942              	.LBE233:
 943              	.LBE232:
 944              	.LBE231:
 945              	.LBE230:
 946              		.loc 1 481 0
 947 002c D968     		ldr	r1, [r3, #12]
 948 002e A163     		str	r1, [r4, #56]
 949              	.LVL70:
 950              		.loc 1 482 0
 951 0030 9342     		cmp	r3, r2
 952              	.LBB234:
 953              		.loc 1 490 0
 954 0032 1046     		mov	r0, r2
 955              	.LBE234:
 956              		.loc 1 482 0
 957 0034 EED1     		bne	.L80
 958              		.loc 1 496 0
 959 0036 9E60     		str	r6, [r3, #8]
 960              	.LBE235:
 961              		.loc 1 498 0
 962 0038 A36B     		ldr	r3, [r4, #56]
 963              	.LVL71:
 964 003a 002B     		cmp	r3, #0
 965 003c F5D1     		bne	.L73
ARM GAS  /tmp/ccNFGvrg.s 			page 18


 966              	.LVL72:
 967              	.L79:
 968              		.loc 1 499 0
 969 003e E36B     		ldr	r3, [r4, #60]
 970 0040 A360     		str	r3, [r4, #8]
 971              		.loc 1 500 0
 972 0042 FFF7FEFF 		bl	chSchRescheduleS
 973              	.LVL73:
 974              	.L70:
 975              	.LBB236:
 976              	.LBB237:
 977              	.LBB238:
 978              	.LBB239:
 979              	.LBB240:
 980              		.loc 3 546 0
 981 0046 0023     		movs	r3, #0
 982              	@ 546 "../ChibiOS/os/ext/CMSIS/include/core_cmFunc.h" 1
 983 0048 83F31188 		MSR basepri, r3
 984              	@ 0 "" 2
 985              		.thumb
 986 004c 70BD     		pop	{r4, r5, r6, pc}
 987              	.LVL74:
 988              	.L82:
 989 004e 00BF     		.align	2
 990              	.L81:
 991 0050 00000000 		.word	ch
 992              	.LBE240:
 993              	.LBE239:
 994              	.LBE238:
 995              	.LBE237:
 996              	.LBE236:
 997              		.cfi_endproc
 998              	.LFE233:
 999              		.size	chMtxUnlockAll, .-chMtxUnlockAll
 1000 0054 AFF30080 		.text
 1000      AFF30080 
 1000      AFF30080 
 1001              	.Letext0:
 1002              		.file 4 "/l/arm2/gcc-arm-none-eabi-4_9-2014q4/arm-none-eabi/include/machine/_default_types.h"
 1003              		.file 5 "/l/arm2/gcc-arm-none-eabi-4_9-2014q4/arm-none-eabi/include/stdint.h"
 1004              		.file 6 "../ChibiOS/os/rt/ports/ARMCMx/compilers/GCC/chtypes.h"
 1005              		.file 7 "../ChibiOS/os/rt/include/chsystypes.h"
 1006              		.file 8 "../ChibiOS/os/rt/ports/ARMCMx/chcore.h"
 1007              		.file 9 "../ChibiOS/os/rt/ports/ARMCMx/chcore_v7m.h"
 1008              		.file 10 "../ChibiOS/os/rt/include/chtm.h"
 1009              		.file 11 "../ChibiOS/os/rt/include/chmtx.h"
 1010              		.file 12 "../ChibiOS/os/rt/include/chsys.h"
 1011              		.file 13 "../ChibiOS/os/ext/CMSIS/include/core_cm4.h"
 1012              		.section	.debug_info,"",%progbits
 1013              	.Ldebug_info0:
 1014 0000 4B100000 		.4byte	0x104b
 1015 0004 0400     		.2byte	0x4
 1016 0006 00000000 		.4byte	.Ldebug_abbrev0
 1017 000a 04       		.byte	0x4
 1018 000b 01       		.uleb128 0x1
 1019 000c B1030000 		.4byte	.LASF119
 1020 0010 01       		.byte	0x1
ARM GAS  /tmp/ccNFGvrg.s 			page 19


 1021 0011 5E020000 		.4byte	.LASF120
 1022 0015 3C050000 		.4byte	.LASF121
 1023 0019 60010000 		.4byte	.Ldebug_ranges0+0x160
 1024 001d 00000000 		.4byte	0
 1025 0021 00000000 		.4byte	.Ldebug_line0
 1026 0025 02       		.uleb128 0x2
 1027 0026 04       		.byte	0x4
 1028 0027 05       		.byte	0x5
 1029 0028 696E7400 		.ascii	"int\000"
 1030 002c 03       		.uleb128 0x3
 1031 002d 04       		.byte	0x4
 1032 002e 07       		.byte	0x7
 1033 002f A9010000 		.4byte	.LASF0
 1034 0033 03       		.uleb128 0x3
 1035 0034 01       		.byte	0x1
 1036 0035 06       		.byte	0x6
 1037 0036 D1000000 		.4byte	.LASF1
 1038 003a 04       		.uleb128 0x4
 1039 003b 1D000000 		.4byte	.LASF5
 1040 003f 04       		.byte	0x4
 1041 0040 1D       		.byte	0x1d
 1042 0041 45000000 		.4byte	0x45
 1043 0045 03       		.uleb128 0x3
 1044 0046 01       		.byte	0x1
 1045 0047 08       		.byte	0x8
 1046 0048 72030000 		.4byte	.LASF2
 1047 004c 03       		.uleb128 0x3
 1048 004d 02       		.byte	0x2
 1049 004e 05       		.byte	0x5
 1050 004f 92030000 		.4byte	.LASF3
 1051 0053 03       		.uleb128 0x3
 1052 0054 02       		.byte	0x2
 1053 0055 07       		.byte	0x7
 1054 0056 D2010000 		.4byte	.LASF4
 1055 005a 04       		.uleb128 0x4
 1056 005b 54020000 		.4byte	.LASF6
 1057 005f 04       		.byte	0x4
 1058 0060 3F       		.byte	0x3f
 1059 0061 65000000 		.4byte	0x65
 1060 0065 03       		.uleb128 0x3
 1061 0066 04       		.byte	0x4
 1062 0067 05       		.byte	0x5
 1063 0068 0A010000 		.4byte	.LASF7
 1064 006c 04       		.uleb128 0x4
 1065 006d AE050000 		.4byte	.LASF8
 1066 0071 04       		.byte	0x4
 1067 0072 41       		.byte	0x41
 1068 0073 77000000 		.4byte	0x77
 1069 0077 03       		.uleb128 0x3
 1070 0078 04       		.byte	0x4
 1071 0079 07       		.byte	0x7
 1072 007a 5E050000 		.4byte	.LASF9
 1073 007e 03       		.uleb128 0x3
 1074 007f 08       		.byte	0x8
 1075 0080 05       		.byte	0x5
 1076 0081 79010000 		.4byte	.LASF10
 1077 0085 04       		.uleb128 0x4
ARM GAS  /tmp/ccNFGvrg.s 			page 20


 1078 0086 0C030000 		.4byte	.LASF11
 1079 008a 04       		.byte	0x4
 1080 008b 5B       		.byte	0x5b
 1081 008c 90000000 		.4byte	0x90
 1082 0090 03       		.uleb128 0x3
 1083 0091 08       		.byte	0x8
 1084 0092 07       		.byte	0x7
 1085 0093 57000000 		.4byte	.LASF12
 1086 0097 04       		.uleb128 0x4
 1087 0098 12060000 		.4byte	.LASF13
 1088 009c 05       		.byte	0x5
 1089 009d 15       		.byte	0x15
 1090 009e 3A000000 		.4byte	0x3a
 1091 00a2 04       		.uleb128 0x4
 1092 00a3 6A030000 		.4byte	.LASF14
 1093 00a7 05       		.byte	0x5
 1094 00a8 2C       		.byte	0x2c
 1095 00a9 5A000000 		.4byte	0x5a
 1096 00ad 04       		.uleb128 0x4
 1097 00ae 0F050000 		.4byte	.LASF15
 1098 00b2 05       		.byte	0x5
 1099 00b3 2D       		.byte	0x2d
 1100 00b4 6C000000 		.4byte	0x6c
 1101 00b8 04       		.uleb128 0x4
 1102 00b9 14000000 		.4byte	.LASF16
 1103 00bd 05       		.byte	0x5
 1104 00be 39       		.byte	0x39
 1105 00bf 85000000 		.4byte	0x85
 1106 00c3 05       		.uleb128 0x5
 1107 00c4 A2000000 		.4byte	0xa2
 1108 00c8 04       		.uleb128 0x4
 1109 00c9 E6050000 		.4byte	.LASF17
 1110 00cd 06       		.byte	0x6
 1111 00ce 45       		.byte	0x45
 1112 00cf AD000000 		.4byte	0xad
 1113 00d3 04       		.uleb128 0x4
 1114 00d4 25020000 		.4byte	.LASF18
 1115 00d8 06       		.byte	0x6
 1116 00d9 48       		.byte	0x48
 1117 00da 97000000 		.4byte	0x97
 1118 00de 04       		.uleb128 0x4
 1119 00df 21010000 		.4byte	.LASF19
 1120 00e3 06       		.byte	0x6
 1121 00e4 49       		.byte	0x49
 1122 00e5 97000000 		.4byte	0x97
 1123 00e9 04       		.uleb128 0x4
 1124 00ea 17030000 		.4byte	.LASF20
 1125 00ee 06       		.byte	0x6
 1126 00ef 4A       		.byte	0x4a
 1127 00f0 97000000 		.4byte	0x97
 1128 00f4 04       		.uleb128 0x4
 1129 00f5 36030000 		.4byte	.LASF21
 1130 00f9 06       		.byte	0x6
 1131 00fa 4C       		.byte	0x4c
 1132 00fb AD000000 		.4byte	0xad
 1133 00ff 04       		.uleb128 0x4
 1134 0100 FC010000 		.4byte	.LASF22
ARM GAS  /tmp/ccNFGvrg.s 			page 21


 1135 0104 06       		.byte	0x6
 1136 0105 4D       		.byte	0x4d
 1137 0106 A2000000 		.4byte	0xa2
 1138 010a 04       		.uleb128 0x4
 1139 010b 3B020000 		.4byte	.LASF23
 1140 010f 06       		.byte	0x6
 1141 0110 4F       		.byte	0x4f
 1142 0111 AD000000 		.4byte	0xad
 1143 0115 04       		.uleb128 0x4
 1144 0116 90050000 		.4byte	.LASF24
 1145 011a 07       		.byte	0x7
 1146 011b 33       		.byte	0x33
 1147 011c AD000000 		.4byte	0xad
 1148 0120 04       		.uleb128 0x4
 1149 0121 75050000 		.4byte	.LASF25
 1150 0125 07       		.byte	0x7
 1151 0126 3F       		.byte	0x3f
 1152 0127 2B010000 		.4byte	0x12b
 1153 012b 06       		.uleb128 0x6
 1154 012c E5010000 		.4byte	.LASF44
 1155 0130 44       		.byte	0x44
 1156 0131 02       		.byte	0x2
 1157 0132 BE       		.byte	0xbe
 1158 0133 18020000 		.4byte	0x218
 1159 0137 07       		.uleb128 0x7
 1160 0138 AA030000 		.4byte	.LASF26
 1161 013c 02       		.byte	0x2
 1162 013d BF       		.byte	0xbf
 1163 013e C2050000 		.4byte	0x5c2
 1164 0142 00       		.byte	0
 1165 0143 07       		.uleb128 0x7
 1166 0144 2F030000 		.4byte	.LASF27
 1167 0148 02       		.byte	0x2
 1168 0149 C1       		.byte	0xc1
 1169 014a C2050000 		.4byte	0x5c2
 1170 014e 04       		.byte	0x4
 1171 014f 07       		.uleb128 0x7
 1172 0150 B6000000 		.4byte	.LASF28
 1173 0154 02       		.byte	0x2
 1174 0155 C3       		.byte	0xc3
 1175 0156 F4000000 		.4byte	0xf4
 1176 015a 08       		.byte	0x8
 1177 015b 07       		.uleb128 0x7
 1178 015c 6E060000 		.4byte	.LASF29
 1179 0160 02       		.byte	0x2
 1180 0161 C4       		.byte	0xc4
 1181 0162 42040000 		.4byte	0x442
 1182 0166 0C       		.byte	0xc
 1183 0167 07       		.uleb128 0x7
 1184 0168 47010000 		.4byte	.LASF30
 1185 016c 02       		.byte	0x2
 1186 016d C6       		.byte	0xc6
 1187 016e C2050000 		.4byte	0x5c2
 1188 0172 10       		.byte	0x10
 1189 0173 07       		.uleb128 0x7
 1190 0174 D4020000 		.4byte	.LASF31
 1191 0178 02       		.byte	0x2
ARM GAS  /tmp/ccNFGvrg.s 			page 22


 1192 0179 C7       		.byte	0xc7
 1193 017a C2050000 		.4byte	0x5c2
 1194 017e 14       		.byte	0x14
 1195 017f 07       		.uleb128 0x7
 1196 0180 21060000 		.4byte	.LASF32
 1197 0184 02       		.byte	0x2
 1198 0185 CE       		.byte	0xce
 1199 0186 00060000 		.4byte	0x600
 1200 018a 18       		.byte	0x18
 1201 018b 07       		.uleb128 0x7
 1202 018c 80030000 		.4byte	.LASF33
 1203 0190 02       		.byte	0x2
 1204 0191 D9       		.byte	0xd9
 1205 0192 DE000000 		.4byte	0xde
 1206 0196 1C       		.byte	0x1c
 1207 0197 07       		.uleb128 0x7
 1208 0198 CA040000 		.4byte	.LASF34
 1209 019c 02       		.byte	0x2
 1210 019d DD       		.byte	0xdd
 1211 019e D3000000 		.4byte	0xd3
 1212 01a2 1D       		.byte	0x1d
 1213 01a3 07       		.uleb128 0x7
 1214 01a4 05060000 		.4byte	.LASF35
 1215 01a8 02       		.byte	0x2
 1216 01a9 E2       		.byte	0xe2
 1217 01aa E9000000 		.4byte	0xe9
 1218 01ae 1E       		.byte	0x1e
 1219 01af 08       		.uleb128 0x8
 1220 01b0 705F7500 		.ascii	"p_u\000"
 1221 01b4 02       		.byte	0x2
 1222 01b5 1401     		.2byte	0x114
 1223 01b7 C8050000 		.4byte	0x5c8
 1224 01bb 20       		.byte	0x20
 1225 01bc 09       		.uleb128 0x9
 1226 01bd 86020000 		.4byte	.LASF36
 1227 01c1 02       		.byte	0x2
 1228 01c2 1901     		.2byte	0x119
 1229 01c4 18020000 		.4byte	0x218
 1230 01c8 24       		.byte	0x24
 1231 01c9 09       		.uleb128 0x9
 1232 01ca C7010000 		.4byte	.LASF37
 1233 01ce 02       		.byte	0x2
 1234 01cf 1F01     		.2byte	0x11f
 1235 01d1 3C020000 		.4byte	0x23c
 1236 01d5 28       		.byte	0x28
 1237 01d6 09       		.uleb128 0x9
 1238 01d7 43060000 		.4byte	.LASF38
 1239 01db 02       		.byte	0x2
 1240 01dc 2301     		.2byte	0x123
 1241 01de FF000000 		.4byte	0xff
 1242 01e2 30       		.byte	0x30
 1243 01e3 09       		.uleb128 0x9
 1244 01e4 04050000 		.4byte	.LASF39
 1245 01e8 02       		.byte	0x2
 1246 01e9 2901     		.2byte	0x129
 1247 01eb 0A010000 		.4byte	0x10a
 1248 01ef 34       		.byte	0x34
ARM GAS  /tmp/ccNFGvrg.s 			page 23


 1249 01f0 09       		.uleb128 0x9
 1250 01f1 88030000 		.4byte	.LASF40
 1251 01f5 02       		.byte	0x2
 1252 01f6 3001     		.2byte	0x130
 1253 01f8 43060000 		.4byte	0x643
 1254 01fc 38       		.byte	0x38
 1255 01fd 09       		.uleb128 0x9
 1256 01fe 9A050000 		.4byte	.LASF41
 1257 0202 02       		.byte	0x2
 1258 0203 3401     		.2byte	0x134
 1259 0205 F4000000 		.4byte	0xf4
 1260 0209 3C       		.byte	0x3c
 1261 020a 09       		.uleb128 0x9
 1262 020b DD000000 		.4byte	.LASF42
 1263 020f 02       		.byte	0x2
 1264 0210 3A01     		.2byte	0x13a
 1265 0212 EF020000 		.4byte	0x2ef
 1266 0216 40       		.byte	0x40
 1267 0217 00       		.byte	0
 1268 0218 04       		.uleb128 0x4
 1269 0219 28060000 		.4byte	.LASF43
 1270 021d 07       		.byte	0x7
 1271 021e 44       		.byte	0x44
 1272 021f 23020000 		.4byte	0x223
 1273 0223 06       		.uleb128 0x6
 1274 0224 2C050000 		.4byte	.LASF45
 1275 0228 04       		.byte	0x4
 1276 0229 02       		.byte	0x2
 1277 022a AC       		.byte	0xac
 1278 022b 3C020000 		.4byte	0x23c
 1279 022f 07       		.uleb128 0x7
 1280 0230 AA030000 		.4byte	.LASF26
 1281 0234 02       		.byte	0x2
 1282 0235 AD       		.byte	0xad
 1283 0236 C2050000 		.4byte	0x5c2
 1284 023a 00       		.byte	0
 1285 023b 00       		.byte	0
 1286 023c 04       		.uleb128 0x4
 1287 023d F5050000 		.4byte	.LASF46
 1288 0241 07       		.byte	0x7
 1289 0242 4B       		.byte	0x4b
 1290 0243 47020000 		.4byte	0x247
 1291 0247 06       		.uleb128 0x6
 1292 0248 A5000000 		.4byte	.LASF47
 1293 024c 08       		.byte	0x8
 1294 024d 02       		.byte	0x2
 1295 024e B3       		.byte	0xb3
 1296 024f 6C020000 		.4byte	0x26c
 1297 0253 07       		.uleb128 0x7
 1298 0254 AA030000 		.4byte	.LASF26
 1299 0258 02       		.byte	0x2
 1300 0259 B4       		.byte	0xb4
 1301 025a C2050000 		.4byte	0x5c2
 1302 025e 00       		.byte	0
 1303 025f 07       		.uleb128 0x7
 1304 0260 2F030000 		.4byte	.LASF27
 1305 0264 02       		.byte	0x2
ARM GAS  /tmp/ccNFGvrg.s 			page 24


 1306 0265 B5       		.byte	0xb5
 1307 0266 C2050000 		.4byte	0x5c2
 1308 026a 04       		.byte	0x4
 1309 026b 00       		.byte	0
 1310 026c 04       		.uleb128 0x4
 1311 026d 00000000 		.4byte	.LASF48
 1312 0271 07       		.byte	0x7
 1313 0272 52       		.byte	0x52
 1314 0273 77020000 		.4byte	0x277
 1315 0277 0A       		.uleb128 0xa
 1316 0278 2D020000 		.4byte	.LASF49
 1317 027c 1C       		.byte	0x1c
 1318 027d 02       		.byte	0x2
 1319 027e 7201     		.2byte	0x172
 1320 0280 D3020000 		.4byte	0x2d3
 1321 0284 09       		.uleb128 0x9
 1322 0285 18050000 		.4byte	.LASF50
 1323 0289 02       		.byte	0x2
 1324 028a 7301     		.2byte	0x173
 1325 028c 3C020000 		.4byte	0x23c
 1326 0290 00       		.byte	0
 1327 0291 09       		.uleb128 0x9
 1328 0292 9C030000 		.4byte	.LASF51
 1329 0296 02       		.byte	0x2
 1330 0297 7401     		.2byte	0x174
 1331 0299 F4000000 		.4byte	0xf4
 1332 029d 08       		.byte	0x8
 1333 029e 09       		.uleb128 0x9
 1334 029f DC020000 		.4byte	.LASF52
 1335 02a3 02       		.byte	0x2
 1336 02a4 7601     		.2byte	0x176
 1337 02a6 42040000 		.4byte	0x442
 1338 02aa 0C       		.byte	0xc
 1339 02ab 09       		.uleb128 0x9
 1340 02ac 60010000 		.4byte	.LASF53
 1341 02b0 02       		.byte	0x2
 1342 02b1 7901     		.2byte	0x179
 1343 02b3 C2050000 		.4byte	0x5c2
 1344 02b7 10       		.byte	0x10
 1345 02b8 09       		.uleb128 0x9
 1346 02b9 04030000 		.4byte	.LASF54
 1347 02bd 02       		.byte	0x2
 1348 02be 7A01     		.2byte	0x17a
 1349 02c0 C2050000 		.4byte	0x5c2
 1350 02c4 14       		.byte	0x14
 1351 02c5 09       		.uleb128 0x9
 1352 02c6 FA020000 		.4byte	.LASF55
 1353 02ca 02       		.byte	0x2
 1354 02cb 7D01     		.2byte	0x17d
 1355 02cd C2050000 		.4byte	0x5c2
 1356 02d1 18       		.byte	0x18
 1357 02d2 00       		.byte	0
 1358 02d3 04       		.uleb128 0x4
 1359 02d4 A5050000 		.4byte	.LASF56
 1360 02d8 07       		.byte	0x7
 1361 02d9 57       		.byte	0x57
 1362 02da DE020000 		.4byte	0x2de
ARM GAS  /tmp/ccNFGvrg.s 			page 25


 1363 02de 0B       		.uleb128 0xb
 1364 02df 04       		.byte	0x4
 1365 02e0 E4020000 		.4byte	0x2e4
 1366 02e4 0C       		.uleb128 0xc
 1367 02e5 EF020000 		.4byte	0x2ef
 1368 02e9 0D       		.uleb128 0xd
 1369 02ea EF020000 		.4byte	0x2ef
 1370 02ee 00       		.byte	0
 1371 02ef 0E       		.uleb128 0xe
 1372 02f0 04       		.byte	0x4
 1373 02f1 04       		.uleb128 0x4
 1374 02f2 1F030000 		.4byte	.LASF57
 1375 02f6 07       		.byte	0x7
 1376 02f7 5C       		.byte	0x5c
 1377 02f8 FC020000 		.4byte	0x2fc
 1378 02fc 0A       		.uleb128 0xa
 1379 02fd E5040000 		.4byte	.LASF58
 1380 0301 14       		.byte	0x14
 1381 0302 02       		.byte	0x2
 1382 0303 4D01     		.2byte	0x14d
 1383 0305 4B030000 		.4byte	0x34b
 1384 0309 09       		.uleb128 0x9
 1385 030a B6010000 		.4byte	.LASF59
 1386 030e 02       		.byte	0x2
 1387 030f 4E01     		.2byte	0x14e
 1388 0311 49060000 		.4byte	0x649
 1389 0315 00       		.byte	0
 1390 0316 09       		.uleb128 0x9
 1391 0317 71010000 		.4byte	.LASF60
 1392 031b 02       		.byte	0x2
 1393 031c 4F01     		.2byte	0x14f
 1394 031e 49060000 		.4byte	0x649
 1395 0322 04       		.byte	0x4
 1396 0323 09       		.uleb128 0x9
 1397 0324 BE010000 		.4byte	.LASF61
 1398 0328 02       		.byte	0x2
 1399 0329 5001     		.2byte	0x150
 1400 032b 15010000 		.4byte	0x115
 1401 032f 08       		.byte	0x8
 1402 0330 09       		.uleb128 0x9
 1403 0331 74060000 		.4byte	.LASF62
 1404 0335 02       		.byte	0x2
 1405 0336 5101     		.2byte	0x151
 1406 0338 D3020000 		.4byte	0x2d3
 1407 033c 0C       		.byte	0xc
 1408 033d 09       		.uleb128 0x9
 1409 033e EE050000 		.4byte	.LASF63
 1410 0342 02       		.byte	0x2
 1411 0343 5301     		.2byte	0x153
 1412 0345 EF020000 		.4byte	0x2ef
 1413 0349 10       		.byte	0x10
 1414 034a 00       		.byte	0
 1415 034b 04       		.uleb128 0x4
 1416 034c 82000000 		.4byte	.LASF64
 1417 0350 07       		.byte	0x7
 1418 0351 61       		.byte	0x61
 1419 0352 56030000 		.4byte	0x356
ARM GAS  /tmp/ccNFGvrg.s 			page 26


 1420 0356 0A       		.uleb128 0xa
 1421 0357 99020000 		.4byte	.LASF65
 1422 035b 10       		.byte	0x10
 1423 035c 02       		.byte	0x2
 1424 035d 5D01     		.2byte	0x15d
 1425 035f 98030000 		.4byte	0x398
 1426 0363 09       		.uleb128 0x9
 1427 0364 B6010000 		.4byte	.LASF59
 1428 0368 02       		.byte	0x2
 1429 0369 5E01     		.2byte	0x15e
 1430 036b 49060000 		.4byte	0x649
 1431 036f 00       		.byte	0
 1432 0370 09       		.uleb128 0x9
 1433 0371 71010000 		.4byte	.LASF60
 1434 0375 02       		.byte	0x2
 1435 0376 6001     		.2byte	0x160
 1436 0378 49060000 		.4byte	0x649
 1437 037c 04       		.byte	0x4
 1438 037d 09       		.uleb128 0x9
 1439 037e BE010000 		.4byte	.LASF61
 1440 0382 02       		.byte	0x2
 1441 0383 6201     		.2byte	0x162
 1442 0385 15010000 		.4byte	0x115
 1443 0389 08       		.byte	0x8
 1444 038a 09       		.uleb128 0x9
 1445 038b BE020000 		.4byte	.LASF66
 1446 038f 02       		.byte	0x2
 1447 0390 6A01     		.2byte	0x16a
 1448 0392 15010000 		.4byte	0x115
 1449 0396 0C       		.byte	0xc
 1450 0397 00       		.byte	0
 1451 0398 04       		.uleb128 0x4
 1452 0399 33000000 		.4byte	.LASF67
 1453 039d 07       		.byte	0x7
 1454 039e 66       		.byte	0x66
 1455 039f A3030000 		.4byte	0x3a3
 1456 03a3 0A       		.uleb128 0xa
 1457 03a4 54030000 		.4byte	.LASF68
 1458 03a8 04       		.byte	0x4
 1459 03a9 02       		.byte	0x2
 1460 03aa 8401     		.2byte	0x184
 1461 03ac BE030000 		.4byte	0x3be
 1462 03b0 09       		.uleb128 0x9
 1463 03b1 CD050000 		.4byte	.LASF69
 1464 03b5 02       		.byte	0x2
 1465 03b6 8C01     		.2byte	0x18c
 1466 03b8 4F060000 		.4byte	0x64f
 1467 03bc 00       		.byte	0
 1468 03bd 00       		.byte	0
 1469 03be 04       		.uleb128 0x4
 1470 03bf 02020000 		.4byte	.LASF70
 1471 03c3 07       		.byte	0x7
 1472 03c4 6B       		.byte	0x6b
 1473 03c5 C9030000 		.4byte	0x3c9
 1474 03c9 0F       		.uleb128 0xf
 1475 03ca 00010000 		.4byte	.LASF71
 1476 03ce D801     		.2byte	0x1d8
ARM GAS  /tmp/ccNFGvrg.s 			page 27


 1477 03d0 02       		.byte	0x2
 1478 03d1 A401     		.2byte	0x1a4
 1479 03d3 25040000 		.4byte	0x425
 1480 03d7 09       		.uleb128 0x9
 1481 03d8 0C060000 		.4byte	.LASF72
 1482 03dc 02       		.byte	0x2
 1483 03dd A801     		.2byte	0x1a8
 1484 03df 6C020000 		.4byte	0x26c
 1485 03e3 00       		.byte	0
 1486 03e4 09       		.uleb128 0x9
 1487 03e5 ED000000 		.4byte	.LASF73
 1488 03e9 02       		.byte	0x2
 1489 03ea AC01     		.2byte	0x1ac
 1490 03ec 4B030000 		.4byte	0x34b
 1491 03f0 1C       		.byte	0x1c
 1492 03f1 08       		.uleb128 0x8
 1493 03f2 64626700 		.ascii	"dbg\000"
 1494 03f6 02       		.byte	0x2
 1495 03f7 B001     		.2byte	0x1b0
 1496 03f9 98030000 		.4byte	0x398
 1497 03fd 2C       		.byte	0x2c
 1498 03fe 09       		.uleb128 0x9
 1499 03ff 77000000 		.4byte	.LASF74
 1500 0403 02       		.byte	0x2
 1501 0404 B401     		.2byte	0x1b4
 1502 0406 20010000 		.4byte	0x120
 1503 040a 30       		.byte	0x30
 1504 040b 08       		.uleb128 0x8
 1505 040c 746D00   		.ascii	"tm\000"
 1506 040f 02       		.byte	0x2
 1507 0410 B901     		.2byte	0x1b9
 1508 0412 B7050000 		.4byte	0x5b7
 1509 0416 74       		.byte	0x74
 1510 0417 09       		.uleb128 0x9
 1511 0418 8D010000 		.4byte	.LASF75
 1512 041c 02       		.byte	0x2
 1513 041d C501     		.2byte	0x1c5
 1514 041f 54060000 		.4byte	0x654
 1515 0423 78       		.byte	0x78
 1516 0424 00       		.byte	0
 1517 0425 03       		.uleb128 0x3
 1518 0426 04       		.byte	0x4
 1519 0427 07       		.byte	0x7
 1520 0428 90020000 		.4byte	.LASF76
 1521 042c 04       		.uleb128 0x4
 1522 042d 68010000 		.4byte	.LASF77
 1523 0431 08       		.byte	0x8
 1524 0432 85       		.byte	0x85
 1525 0433 EF020000 		.4byte	0x2ef
 1526 0437 04       		.uleb128 0x4
 1527 0438 7B020000 		.4byte	.LASF78
 1528 043c 08       		.byte	0x8
 1529 043d 8D       		.byte	0x8d
 1530 043e B8000000 		.4byte	0xb8
 1531 0442 06       		.uleb128 0x6
 1532 0443 DE050000 		.4byte	.LASF79
 1533 0447 04       		.byte	0x4
ARM GAS  /tmp/ccNFGvrg.s 			page 28


 1534 0448 08       		.byte	0x8
 1535 0449 A9       		.byte	0xa9
 1536 044a 5B040000 		.4byte	0x45b
 1537 044e 10       		.uleb128 0x10
 1538 044f 72313300 		.ascii	"r13\000"
 1539 0453 08       		.byte	0x8
 1540 0454 AA       		.byte	0xaa
 1541 0455 9C050000 		.4byte	0x59c
 1542 0459 00       		.byte	0
 1543 045a 00       		.byte	0
 1544 045b 06       		.uleb128 0x6
 1545 045c 27000000 		.4byte	.LASF80
 1546 0460 64       		.byte	0x64
 1547 0461 09       		.byte	0x9
 1548 0462 F4       		.byte	0xf4
 1549 0463 9C050000 		.4byte	0x59c
 1550 0467 10       		.uleb128 0x10
 1551 0468 73313600 		.ascii	"s16\000"
 1552 046c 09       		.byte	0x9
 1553 046d F6       		.byte	0xf6
 1554 046e 2C040000 		.4byte	0x42c
 1555 0472 00       		.byte	0
 1556 0473 10       		.uleb128 0x10
 1557 0474 73313700 		.ascii	"s17\000"
 1558 0478 09       		.byte	0x9
 1559 0479 F7       		.byte	0xf7
 1560 047a 2C040000 		.4byte	0x42c
 1561 047e 04       		.byte	0x4
 1562 047f 10       		.uleb128 0x10
 1563 0480 73313800 		.ascii	"s18\000"
 1564 0484 09       		.byte	0x9
 1565 0485 F8       		.byte	0xf8
 1566 0486 2C040000 		.4byte	0x42c
 1567 048a 08       		.byte	0x8
 1568 048b 10       		.uleb128 0x10
 1569 048c 73313900 		.ascii	"s19\000"
 1570 0490 09       		.byte	0x9
 1571 0491 F9       		.byte	0xf9
 1572 0492 2C040000 		.4byte	0x42c
 1573 0496 0C       		.byte	0xc
 1574 0497 10       		.uleb128 0x10
 1575 0498 73323000 		.ascii	"s20\000"
 1576 049c 09       		.byte	0x9
 1577 049d FA       		.byte	0xfa
 1578 049e 2C040000 		.4byte	0x42c
 1579 04a2 10       		.byte	0x10
 1580 04a3 10       		.uleb128 0x10
 1581 04a4 73323100 		.ascii	"s21\000"
 1582 04a8 09       		.byte	0x9
 1583 04a9 FB       		.byte	0xfb
 1584 04aa 2C040000 		.4byte	0x42c
 1585 04ae 14       		.byte	0x14
 1586 04af 10       		.uleb128 0x10
 1587 04b0 73323200 		.ascii	"s22\000"
 1588 04b4 09       		.byte	0x9
 1589 04b5 FC       		.byte	0xfc
 1590 04b6 2C040000 		.4byte	0x42c
ARM GAS  /tmp/ccNFGvrg.s 			page 29


 1591 04ba 18       		.byte	0x18
 1592 04bb 10       		.uleb128 0x10
 1593 04bc 73323300 		.ascii	"s23\000"
 1594 04c0 09       		.byte	0x9
 1595 04c1 FD       		.byte	0xfd
 1596 04c2 2C040000 		.4byte	0x42c
 1597 04c6 1C       		.byte	0x1c
 1598 04c7 10       		.uleb128 0x10
 1599 04c8 73323400 		.ascii	"s24\000"
 1600 04cc 09       		.byte	0x9
 1601 04cd FE       		.byte	0xfe
 1602 04ce 2C040000 		.4byte	0x42c
 1603 04d2 20       		.byte	0x20
 1604 04d3 10       		.uleb128 0x10
 1605 04d4 73323500 		.ascii	"s25\000"
 1606 04d8 09       		.byte	0x9
 1607 04d9 FF       		.byte	0xff
 1608 04da 2C040000 		.4byte	0x42c
 1609 04de 24       		.byte	0x24
 1610 04df 08       		.uleb128 0x8
 1611 04e0 73323600 		.ascii	"s26\000"
 1612 04e4 09       		.byte	0x9
 1613 04e5 0001     		.2byte	0x100
 1614 04e7 2C040000 		.4byte	0x42c
 1615 04eb 28       		.byte	0x28
 1616 04ec 08       		.uleb128 0x8
 1617 04ed 73323700 		.ascii	"s27\000"
 1618 04f1 09       		.byte	0x9
 1619 04f2 0101     		.2byte	0x101
 1620 04f4 2C040000 		.4byte	0x42c
 1621 04f8 2C       		.byte	0x2c
 1622 04f9 08       		.uleb128 0x8
 1623 04fa 73323800 		.ascii	"s28\000"
 1624 04fe 09       		.byte	0x9
 1625 04ff 0201     		.2byte	0x102
 1626 0501 2C040000 		.4byte	0x42c
 1627 0505 30       		.byte	0x30
 1628 0506 08       		.uleb128 0x8
 1629 0507 73323900 		.ascii	"s29\000"
 1630 050b 09       		.byte	0x9
 1631 050c 0301     		.2byte	0x103
 1632 050e 2C040000 		.4byte	0x42c
 1633 0512 34       		.byte	0x34
 1634 0513 08       		.uleb128 0x8
 1635 0514 73333000 		.ascii	"s30\000"
 1636 0518 09       		.byte	0x9
 1637 0519 0401     		.2byte	0x104
 1638 051b 2C040000 		.4byte	0x42c
 1639 051f 38       		.byte	0x38
 1640 0520 08       		.uleb128 0x8
 1641 0521 73333100 		.ascii	"s31\000"
 1642 0525 09       		.byte	0x9
 1643 0526 0501     		.2byte	0x105
 1644 0528 2C040000 		.4byte	0x42c
 1645 052c 3C       		.byte	0x3c
 1646 052d 08       		.uleb128 0x8
 1647 052e 723400   		.ascii	"r4\000"
ARM GAS  /tmp/ccNFGvrg.s 			page 30


 1648 0531 09       		.byte	0x9
 1649 0532 0701     		.2byte	0x107
 1650 0534 2C040000 		.4byte	0x42c
 1651 0538 40       		.byte	0x40
 1652 0539 08       		.uleb128 0x8
 1653 053a 723500   		.ascii	"r5\000"
 1654 053d 09       		.byte	0x9
 1655 053e 0801     		.2byte	0x108
 1656 0540 2C040000 		.4byte	0x42c
 1657 0544 44       		.byte	0x44
 1658 0545 08       		.uleb128 0x8
 1659 0546 723600   		.ascii	"r6\000"
 1660 0549 09       		.byte	0x9
 1661 054a 0901     		.2byte	0x109
 1662 054c 2C040000 		.4byte	0x42c
 1663 0550 48       		.byte	0x48
 1664 0551 08       		.uleb128 0x8
 1665 0552 723700   		.ascii	"r7\000"
 1666 0555 09       		.byte	0x9
 1667 0556 0A01     		.2byte	0x10a
 1668 0558 2C040000 		.4byte	0x42c
 1669 055c 4C       		.byte	0x4c
 1670 055d 08       		.uleb128 0x8
 1671 055e 723800   		.ascii	"r8\000"
 1672 0561 09       		.byte	0x9
 1673 0562 0B01     		.2byte	0x10b
 1674 0564 2C040000 		.4byte	0x42c
 1675 0568 50       		.byte	0x50
 1676 0569 08       		.uleb128 0x8
 1677 056a 723900   		.ascii	"r9\000"
 1678 056d 09       		.byte	0x9
 1679 056e 0C01     		.2byte	0x10c
 1680 0570 2C040000 		.4byte	0x42c
 1681 0574 54       		.byte	0x54
 1682 0575 08       		.uleb128 0x8
 1683 0576 72313000 		.ascii	"r10\000"
 1684 057a 09       		.byte	0x9
 1685 057b 0D01     		.2byte	0x10d
 1686 057d 2C040000 		.4byte	0x42c
 1687 0581 58       		.byte	0x58
 1688 0582 08       		.uleb128 0x8
 1689 0583 72313100 		.ascii	"r11\000"
 1690 0587 09       		.byte	0x9
 1691 0588 0E01     		.2byte	0x10e
 1692 058a 2C040000 		.4byte	0x42c
 1693 058e 5C       		.byte	0x5c
 1694 058f 08       		.uleb128 0x8
 1695 0590 6C7200   		.ascii	"lr\000"
 1696 0593 09       		.byte	0x9
 1697 0594 0F01     		.2byte	0x10f
 1698 0596 2C040000 		.4byte	0x42c
 1699 059a 60       		.byte	0x60
 1700 059b 00       		.byte	0
 1701 059c 0B       		.uleb128 0xb
 1702 059d 04       		.byte	0x4
 1703 059e 5B040000 		.4byte	0x45b
 1704 05a2 11       		.uleb128 0x11
ARM GAS  /tmp/ccNFGvrg.s 			page 31


 1705 05a3 04       		.byte	0x4
 1706 05a4 0A       		.byte	0xa
 1707 05a5 38       		.byte	0x38
 1708 05a6 B7050000 		.4byte	0x5b7
 1709 05aa 07       		.uleb128 0x7
 1710 05ab D7050000 		.4byte	.LASF81
 1711 05af 0A       		.byte	0xa
 1712 05b0 3C       		.byte	0x3c
 1713 05b1 C8000000 		.4byte	0xc8
 1714 05b5 00       		.byte	0
 1715 05b6 00       		.byte	0
 1716 05b7 04       		.uleb128 0x4
 1717 05b8 E2020000 		.4byte	.LASF82
 1718 05bc 0A       		.byte	0xa
 1719 05bd 3D       		.byte	0x3d
 1720 05be A2050000 		.4byte	0x5a2
 1721 05c2 0B       		.uleb128 0xb
 1722 05c3 04       		.byte	0x4
 1723 05c4 20010000 		.4byte	0x120
 1724 05c8 12       		.uleb128 0x12
 1725 05c9 04       		.byte	0x4
 1726 05ca 02       		.byte	0x2
 1727 05cb F6       		.byte	0xf6
 1728 05cc 00060000 		.4byte	0x600
 1729 05d0 13       		.uleb128 0x13
 1730 05d1 0D000000 		.4byte	.LASF83
 1731 05d5 02       		.byte	0x2
 1732 05d6 FD       		.byte	0xfd
 1733 05d7 FF000000 		.4byte	0xff
 1734 05db 14       		.uleb128 0x14
 1735 05dc 6E000000 		.4byte	.LASF84
 1736 05e0 02       		.byte	0x2
 1737 05e1 0401     		.2byte	0x104
 1738 05e3 FF000000 		.4byte	0xff
 1739 05e7 14       		.uleb128 0x14
 1740 05e8 1A060000 		.4byte	.LASF85
 1741 05ec 02       		.byte	0x2
 1742 05ed 0B01     		.2byte	0x10b
 1743 05ef EF020000 		.4byte	0x2ef
 1744 05f3 14       		.uleb128 0x14
 1745 05f4 A3030000 		.4byte	.LASF86
 1746 05f8 02       		.byte	0x2
 1747 05f9 1201     		.2byte	0x112
 1748 05fb 0A010000 		.4byte	0x10a
 1749 05ff 00       		.byte	0
 1750 0600 0B       		.uleb128 0xb
 1751 0601 04       		.byte	0x4
 1752 0602 06060000 		.4byte	0x606
 1753 0606 15       		.uleb128 0x15
 1754 0607 0B060000 		.4byte	0x60b
 1755 060b 03       		.uleb128 0x3
 1756 060c 01       		.byte	0x1
 1757 060d 08       		.byte	0x8
 1758 060e 70050000 		.4byte	.LASF87
 1759 0612 06       		.uleb128 0x6
 1760 0613 3E030000 		.4byte	.LASF88
 1761 0617 10       		.byte	0x10
ARM GAS  /tmp/ccNFGvrg.s 			page 32


 1762 0618 0B       		.byte	0xb
 1763 0619 39       		.byte	0x39
 1764 061a 43060000 		.4byte	0x643
 1765 061e 07       		.uleb128 0x7
 1766 061f E5000000 		.4byte	.LASF89
 1767 0623 0B       		.byte	0xb
 1768 0624 3A       		.byte	0x3a
 1769 0625 3C020000 		.4byte	0x23c
 1770 0629 00       		.byte	0
 1771 062a 07       		.uleb128 0x7
 1772 062b 66060000 		.4byte	.LASF90
 1773 062f 0B       		.byte	0xb
 1774 0630 3C       		.byte	0x3c
 1775 0631 C2050000 		.4byte	0x5c2
 1776 0635 08       		.byte	0x8
 1777 0636 07       		.uleb128 0x7
 1778 0637 F3020000 		.4byte	.LASF91
 1779 063b 0B       		.byte	0xb
 1780 063c 3E       		.byte	0x3e
 1781 063d 6F060000 		.4byte	0x66f
 1782 0641 0C       		.byte	0xc
 1783 0642 00       		.byte	0
 1784 0643 0B       		.uleb128 0xb
 1785 0644 04       		.byte	0x4
 1786 0645 12060000 		.4byte	0x612
 1787 0649 0B       		.uleb128 0xb
 1788 064a 04       		.byte	0x4
 1789 064b F1020000 		.4byte	0x2f1
 1790 064f 05       		.uleb128 0x5
 1791 0650 00060000 		.4byte	0x600
 1792 0654 16       		.uleb128 0x16
 1793 0655 37040000 		.4byte	0x437
 1794 0659 64060000 		.4byte	0x664
 1795 065d 17       		.uleb128 0x17
 1796 065e 25040000 		.4byte	0x425
 1797 0662 2B       		.byte	0x2b
 1798 0663 00       		.byte	0
 1799 0664 04       		.uleb128 0x4
 1800 0665 BD000000 		.4byte	.LASF92
 1801 0669 0B       		.byte	0xb
 1802 066a 34       		.byte	0x34
 1803 066b 12060000 		.4byte	0x612
 1804 066f 0B       		.uleb128 0xb
 1805 0670 04       		.byte	0x4
 1806 0671 64060000 		.4byte	0x664
 1807 0675 18       		.uleb128 0x18
 1808 0676 B0020000 		.4byte	.LASF97
 1809 067a 03       		.byte	0x3
 1810 067b 2002     		.2byte	0x220
 1811 067d 03       		.byte	0x3
 1812 067e 8F060000 		.4byte	0x68f
 1813 0682 19       		.uleb128 0x19
 1814 0683 87010000 		.4byte	.LASF95
 1815 0687 03       		.byte	0x3
 1816 0688 2002     		.2byte	0x220
 1817 068a AD000000 		.4byte	0xad
 1818 068e 00       		.byte	0
ARM GAS  /tmp/ccNFGvrg.s 			page 33


 1819 068f 1A       		.uleb128 0x1a
 1820 0690 4D000000 		.4byte	.LASF93
 1821 0694 09       		.byte	0x9
 1822 0695 BB01     		.2byte	0x1bb
 1823 0697 03       		.byte	0x3
 1824 0698 1A       		.uleb128 0x1a
 1825 0699 F4000000 		.4byte	.LASF94
 1826 069d 09       		.byte	0x9
 1827 069e C901     		.2byte	0x1c9
 1828 06a0 03       		.byte	0x3
 1829 06a1 1B       		.uleb128 0x1b
 1830 06a2 2A010000 		.4byte	.LASF99
 1831 06a6 02       		.byte	0x2
 1832 06a7 5602     		.2byte	0x256
 1833 06a9 BF060000 		.4byte	0x6bf
 1834 06ad 03       		.byte	0x3
 1835 06ae BF060000 		.4byte	0x6bf
 1836 06b2 1C       		.uleb128 0x1c
 1837 06b3 74717000 		.ascii	"tqp\000"
 1838 06b7 02       		.byte	0x2
 1839 06b8 5602     		.2byte	0x256
 1840 06ba C6060000 		.4byte	0x6c6
 1841 06be 00       		.byte	0
 1842 06bf 03       		.uleb128 0x3
 1843 06c0 01       		.byte	0x1
 1844 06c1 02       		.byte	0x2
 1845 06c2 64030000 		.4byte	.LASF96
 1846 06c6 0B       		.uleb128 0xb
 1847 06c7 04       		.byte	0x4
 1848 06c8 3C020000 		.4byte	0x23c
 1849 06cc 18       		.uleb128 0x18
 1850 06cd 42000000 		.4byte	.LASF98
 1851 06d1 02       		.byte	0x2
 1852 06d2 3C02     		.2byte	0x23c
 1853 06d4 03       		.byte	0x3
 1854 06d5 E6060000 		.4byte	0x6e6
 1855 06d9 1C       		.uleb128 0x1c
 1856 06da 74717000 		.ascii	"tqp\000"
 1857 06de 02       		.byte	0x2
 1858 06df 3C02     		.2byte	0x23c
 1859 06e1 C6060000 		.4byte	0x6c6
 1860 06e5 00       		.byte	0
 1861 06e6 1B       		.uleb128 0x1b
 1862 06e7 13010000 		.4byte	.LASF100
 1863 06eb 02       		.byte	0x2
 1864 06ec 8E02     		.2byte	0x28e
 1865 06ee C2050000 		.4byte	0x5c2
 1866 06f2 03       		.byte	0x3
 1867 06f3 03070000 		.4byte	0x703
 1868 06f7 1C       		.uleb128 0x1c
 1869 06f8 747000   		.ascii	"tp\000"
 1870 06fb 02       		.byte	0x2
 1871 06fc 8E02     		.2byte	0x28e
 1872 06fe C2050000 		.4byte	0x5c2
 1873 0702 00       		.byte	0
 1874 0703 18       		.uleb128 0x18
 1875 0704 54060000 		.4byte	.LASF101
ARM GAS  /tmp/ccNFGvrg.s 			page 34


 1876 0708 02       		.byte	0x2
 1877 0709 6C02     		.2byte	0x26c
 1878 070b 03       		.byte	0x3
 1879 070c 33070000 		.4byte	0x733
 1880 0710 1C       		.uleb128 0x1c
 1881 0711 747000   		.ascii	"tp\000"
 1882 0714 02       		.byte	0x2
 1883 0715 6C02     		.2byte	0x26c
 1884 0717 C2050000 		.4byte	0x5c2
 1885 071b 1C       		.uleb128 0x1c
 1886 071c 74717000 		.ascii	"tqp\000"
 1887 0720 02       		.byte	0x2
 1888 0721 6C02     		.2byte	0x26c
 1889 0723 C6060000 		.4byte	0x6c6
 1890 0727 1D       		.uleb128 0x1d
 1891 0728 637000   		.ascii	"cp\000"
 1892 072b 02       		.byte	0x2
 1893 072c 6E02     		.2byte	0x26e
 1894 072e C2050000 		.4byte	0x5c2
 1895 0732 00       		.byte	0
 1896 0733 1A       		.uleb128 0x1a
 1897 0734 DB040000 		.4byte	.LASF102
 1898 0738 0C       		.byte	0xc
 1899 0739 2901     		.2byte	0x129
 1900 073b 03       		.byte	0x3
 1901 073c 18       		.uleb128 0x18
 1902 073d 37060000 		.4byte	.LASF103
 1903 0741 0C       		.byte	0xc
 1904 0742 3501     		.2byte	0x135
 1905 0744 03       		.byte	0x3
 1906 0745 57070000 		.4byte	0x757
 1907 0749 1E       		.uleb128 0x1e
 1908 074a D2040000 		.4byte	.LASF104
 1909 074e 67070000 		.4byte	0x767
 1910 0752 37060000 		.4byte	.LASF103
 1911 0756 00       		.byte	0
 1912 0757 16       		.uleb128 0x16
 1913 0758 0B060000 		.4byte	0x60b
 1914 075c 67070000 		.4byte	0x767
 1915 0760 17       		.uleb128 0x17
 1916 0761 25040000 		.4byte	0x425
 1917 0765 0B       		.byte	0xb
 1918 0766 00       		.byte	0
 1919 0767 15       		.uleb128 0x15
 1920 0768 57070000 		.4byte	0x757
 1921 076c 1F       		.uleb128 0x1f
 1922 076d 39010000 		.4byte	.LASF105
 1923 0771 01       		.byte	0x1
 1924 0772 1501     		.2byte	0x115
 1925 0774 BF060000 		.4byte	0x6bf
 1926 0778 01       		.byte	0x1
 1927 0779 96070000 		.4byte	0x796
 1928 077d 1C       		.uleb128 0x1c
 1929 077e 6D7000   		.ascii	"mp\000"
 1930 0781 01       		.byte	0x1
 1931 0782 1501     		.2byte	0x115
 1932 0784 6F060000 		.4byte	0x66f
ARM GAS  /tmp/ccNFGvrg.s 			page 35


 1933 0788 1E       		.uleb128 0x1e
 1934 0789 D2040000 		.4byte	.LASF104
 1935 078d A6070000 		.4byte	0x7a6
 1936 0791 39010000 		.4byte	.LASF105
 1937 0795 00       		.byte	0
 1938 0796 16       		.uleb128 0x16
 1939 0797 0B060000 		.4byte	0x60b
 1940 079b A6070000 		.4byte	0x7a6
 1941 079f 17       		.uleb128 0x17
 1942 07a0 25040000 		.4byte	0x425
 1943 07a4 0D       		.byte	0xd
 1944 07a5 00       		.byte	0
 1945 07a6 15       		.uleb128 0x15
 1946 07a7 96070000 		.4byte	0x796
 1947 07ab 20       		.uleb128 0x20
 1948 07ac B9050000 		.4byte	.LASF106
 1949 07b0 0B       		.byte	0xb
 1950 07b1 81       		.byte	0x81
 1951 07b2 BF060000 		.4byte	0x6bf
 1952 07b6 03       		.byte	0x3
 1953 07b7 C6070000 		.4byte	0x7c6
 1954 07bb 21       		.uleb128 0x21
 1955 07bc 6D7000   		.ascii	"mp\000"
 1956 07bf 0B       		.byte	0xb
 1957 07c0 81       		.byte	0x81
 1958 07c1 6F060000 		.4byte	0x66f
 1959 07c5 00       		.byte	0
 1960 07c6 1B       		.uleb128 0x1b
 1961 07c7 7E050000 		.4byte	.LASF107
 1962 07cb 02       		.byte	0x2
 1963 07cc 7E02     		.2byte	0x27e
 1964 07ce C2050000 		.4byte	0x5c2
 1965 07d2 03       		.byte	0x3
 1966 07d3 EF070000 		.4byte	0x7ef
 1967 07d7 1C       		.uleb128 0x1c
 1968 07d8 74717000 		.ascii	"tqp\000"
 1969 07dc 02       		.byte	0x2
 1970 07dd 7E02     		.2byte	0x27e
 1971 07df C6060000 		.4byte	0x6c6
 1972 07e3 1D       		.uleb128 0x1d
 1973 07e4 747000   		.ascii	"tp\000"
 1974 07e7 02       		.byte	0x2
 1975 07e8 7F02     		.2byte	0x27f
 1976 07ea C2050000 		.4byte	0x5c2
 1977 07ee 00       		.byte	0
 1978 07ef 22       		.uleb128 0x22
 1979 07f0 44030000 		.4byte	.LASF108
 1980 07f4 01       		.byte	0x1
 1981 07f5 67       		.byte	0x67
 1982 07f6 00000000 		.4byte	.LFB226
 1983 07fa 0A000000 		.4byte	.LFE226-.LFB226
 1984 07fe 01       		.uleb128 0x1
 1985 07ff 9C       		.byte	0x9c
 1986 0800 31080000 		.4byte	0x831
 1987 0804 23       		.uleb128 0x23
 1988 0805 6D7000   		.ascii	"mp\000"
 1989 0808 01       		.byte	0x1
ARM GAS  /tmp/ccNFGvrg.s 			page 36


 1990 0809 67       		.byte	0x67
 1991 080a 6F060000 		.4byte	0x66f
 1992 080e 01       		.uleb128 0x1
 1993 080f 50       		.byte	0x50
 1994 0810 24       		.uleb128 0x24
 1995 0811 D2040000 		.4byte	.LASF104
 1996 0815 41080000 		.4byte	0x841
 1997 0819 25       		.uleb128 0x25
 1998 081a CC060000 		.4byte	0x6cc
 1999 081e 02000000 		.4byte	.LBB103
 2000 0822 04000000 		.4byte	.LBE103-.LBB103
 2001 0826 01       		.byte	0x1
 2002 0827 6B       		.byte	0x6b
 2003 0828 26       		.uleb128 0x26
 2004 0829 D9060000 		.4byte	0x6d9
 2005 082d 01       		.uleb128 0x1
 2006 082e 50       		.byte	0x50
 2007 082f 00       		.byte	0
 2008 0830 00       		.byte	0
 2009 0831 16       		.uleb128 0x16
 2010 0832 0B060000 		.4byte	0x60b
 2011 0836 41080000 		.4byte	0x841
 2012 083a 17       		.uleb128 0x17
 2013 083b 25040000 		.4byte	0x425
 2014 083f 0F       		.byte	0xf
 2015 0840 00       		.byte	0
 2016 0841 15       		.uleb128 0x15
 2017 0842 31080000 		.4byte	0x831
 2018 0846 22       		.uleb128 0x22
 2019 0847 49060000 		.4byte	.LASF109
 2020 084b 01       		.byte	0x1
 2021 084c 8B       		.byte	0x8b
 2022 084d 00000000 		.4byte	.LFB228
 2023 0851 C8000000 		.4byte	.LFE228-.LFB228
 2024 0855 01       		.uleb128 0x1
 2025 0856 9C       		.byte	0x9c
 2026 0857 B4090000 		.4byte	0x9b4
 2027 085b 27       		.uleb128 0x27
 2028 085c 6D7000   		.ascii	"mp\000"
 2029 085f 01       		.byte	0x1
 2030 0860 8B       		.byte	0x8b
 2031 0861 6F060000 		.4byte	0x66f
 2032 0865 00000000 		.4byte	.LLST0
 2033 0869 28       		.uleb128 0x28
 2034 086a 63747000 		.ascii	"ctp\000"
 2035 086e 01       		.byte	0x1
 2036 086f 8C       		.byte	0x8c
 2037 0870 C2050000 		.4byte	0x5c2
 2038 0874 51000000 		.4byte	.LLST1
 2039 0878 24       		.uleb128 0x24
 2040 0879 D2040000 		.4byte	.LASF104
 2041 087d C4090000 		.4byte	0x9c4
 2042 0881 29       		.uleb128 0x29
 2043 0882 00000000 		.4byte	.Ldebug_ranges0+0
 2044 0886 28       		.uleb128 0x28
 2045 0887 747000   		.ascii	"tp\000"
 2046 088a 01       		.byte	0x1
ARM GAS  /tmp/ccNFGvrg.s 			page 37


 2047 088b A1       		.byte	0xa1
 2048 088c C2050000 		.4byte	0x5c2
 2049 0890 7B000000 		.4byte	.LLST2
 2050 0894 2A       		.uleb128 0x2a
 2051 0895 03070000 		.4byte	0x703
 2052 0899 24000000 		.4byte	.LBB106
 2053 089d 1C000000 		.4byte	.LBE106-.LBB106
 2054 08a1 01       		.byte	0x1
 2055 08a2 CF       		.byte	0xcf
 2056 08a3 CD080000 		.4byte	0x8cd
 2057 08a7 2B       		.uleb128 0x2b
 2058 08a8 1B070000 		.4byte	0x71b
 2059 08ac A4000000 		.4byte	.LLST3
 2060 08b0 2B       		.uleb128 0x2b
 2061 08b1 10070000 		.4byte	0x710
 2062 08b5 D4000000 		.4byte	.LLST4
 2063 08b9 2C       		.uleb128 0x2c
 2064 08ba 24000000 		.4byte	.LBB107
 2065 08be 1C000000 		.4byte	.LBE107-.LBB107
 2066 08c2 2D       		.uleb128 0x2d
 2067 08c3 27070000 		.4byte	0x727
 2068 08c7 F3000000 		.4byte	.LLST5
 2069 08cb 00       		.byte	0
 2070 08cc 00       		.byte	0
 2071 08cd 2E       		.uleb128 0x2e
 2072 08ce E6060000 		.4byte	0x6e6
 2073 08d2 4C000000 		.4byte	.LBB108
 2074 08d6 18000000 		.4byte	.Ldebug_ranges0+0x18
 2075 08da 01       		.byte	0x1
 2076 08db C8       		.byte	0xc8
 2077 08dc EA080000 		.4byte	0x8ea
 2078 08e0 2B       		.uleb128 0x2b
 2079 08e1 F7060000 		.4byte	0x6f7
 2080 08e5 11010000 		.4byte	.LLST6
 2081 08e9 00       		.byte	0
 2082 08ea 2E       		.uleb128 0x2e
 2083 08eb E6060000 		.4byte	0x6e6
 2084 08ef 5E000000 		.4byte	.LBB112
 2085 08f3 30000000 		.4byte	.Ldebug_ranges0+0x30
 2086 08f7 01       		.byte	0x1
 2087 08f8 BE       		.byte	0xbe
 2088 08f9 07090000 		.4byte	0x907
 2089 08fd 2B       		.uleb128 0x2b
 2090 08fe F7060000 		.4byte	0x6f7
 2091 0902 24010000 		.4byte	.LLST7
 2092 0906 00       		.byte	0
 2093 0907 2A       		.uleb128 0x2a
 2094 0908 03070000 		.4byte	0x703
 2095 090c 6A000000 		.4byte	.LBB116
 2096 0910 1C000000 		.4byte	.LBE116-.LBB116
 2097 0914 01       		.byte	0x1
 2098 0915 BE       		.byte	0xbe
 2099 0916 40090000 		.4byte	0x940
 2100 091a 2B       		.uleb128 0x2b
 2101 091b 1B070000 		.4byte	0x71b
 2102 091f 37010000 		.4byte	.LLST8
 2103 0923 2B       		.uleb128 0x2b
ARM GAS  /tmp/ccNFGvrg.s 			page 38


 2104 0924 10070000 		.4byte	0x710
 2105 0928 4A010000 		.4byte	.LLST9
 2106 092c 2C       		.uleb128 0x2c
 2107 092d 6A000000 		.4byte	.LBB117
 2108 0931 1C000000 		.4byte	.LBE117-.LBB117
 2109 0935 2D       		.uleb128 0x2d
 2110 0936 27070000 		.4byte	0x727
 2111 093a 5D010000 		.4byte	.LLST10
 2112 093e 00       		.byte	0
 2113 093f 00       		.byte	0
 2114 0940 2E       		.uleb128 0x2e
 2115 0941 E6060000 		.4byte	0x6e6
 2116 0945 86000000 		.4byte	.LBB118
 2117 0949 48000000 		.4byte	.Ldebug_ranges0+0x48
 2118 094d 01       		.byte	0x1
 2119 094e AD       		.byte	0xad
 2120 094f 5D090000 		.4byte	0x95d
 2121 0953 2B       		.uleb128 0x2b
 2122 0954 F7060000 		.4byte	0x6f7
 2123 0958 7B010000 		.4byte	.LLST11
 2124 095c 00       		.byte	0
 2125 095d 2A       		.uleb128 0x2a
 2126 095e 03070000 		.4byte	0x703
 2127 0962 96000000 		.4byte	.LBB122
 2128 0966 16000000 		.4byte	.LBE122-.LBB122
 2129 096a 01       		.byte	0x1
 2130 096b AD       		.byte	0xad
 2131 096c 96090000 		.4byte	0x996
 2132 0970 2B       		.uleb128 0x2b
 2133 0971 1B070000 		.4byte	0x71b
 2134 0975 9A010000 		.4byte	.LLST12
 2135 0979 2B       		.uleb128 0x2b
 2136 097a 10070000 		.4byte	0x710
 2137 097e AD010000 		.4byte	.LLST13
 2138 0982 2C       		.uleb128 0x2c
 2139 0983 96000000 		.4byte	.LBB123
 2140 0987 16000000 		.4byte	.LBE123-.LBB123
 2141 098b 2D       		.uleb128 0x2d
 2142 098c 27070000 		.4byte	0x727
 2143 0990 CC010000 		.4byte	.LLST14
 2144 0994 00       		.byte	0
 2145 0995 00       		.byte	0
 2146 0996 2F       		.uleb128 0x2f
 2147 0997 4C000000 		.4byte	.LVL9
 2148 099b 07100000 		.4byte	0x1007
 2149 099f A9090000 		.4byte	0x9a9
 2150 09a3 30       		.uleb128 0x30
 2151 09a4 01       		.uleb128 0x1
 2152 09a5 50       		.byte	0x50
 2153 09a6 01       		.uleb128 0x1
 2154 09a7 36       		.byte	0x36
 2155 09a8 00       		.byte	0
 2156 09a9 31       		.uleb128 0x31
 2157 09aa 5C000000 		.4byte	.LVL10
 2158 09ae 19100000 		.4byte	0x1019
 2159 09b2 00       		.byte	0
 2160 09b3 00       		.byte	0
ARM GAS  /tmp/ccNFGvrg.s 			page 39


 2161 09b4 16       		.uleb128 0x16
 2162 09b5 0B060000 		.4byte	0x60b
 2163 09b9 C4090000 		.4byte	0x9c4
 2164 09bd 17       		.uleb128 0x17
 2165 09be 25040000 		.4byte	0x425
 2166 09c2 0A       		.byte	0xa
 2167 09c3 00       		.byte	0
 2168 09c4 15       		.uleb128 0x15
 2169 09c5 B4090000 		.4byte	0x9b4
 2170 09c9 22       		.uleb128 0x22
 2171 09ca CA020000 		.4byte	.LASF110
 2172 09ce 01       		.byte	0x1
 2173 09cf 7B       		.byte	0x7b
 2174 09d0 00000000 		.4byte	.LFB227
 2175 09d4 14000000 		.4byte	.LFE227-.LFB227
 2176 09d8 01       		.uleb128 0x1
 2177 09d9 9C       		.byte	0x9c
 2178 09da 850A0000 		.4byte	0xa85
 2179 09de 27       		.uleb128 0x27
 2180 09df 6D7000   		.ascii	"mp\000"
 2181 09e2 01       		.byte	0x1
 2182 09e3 7B       		.byte	0x7b
 2183 09e4 6F060000 		.4byte	0x66f
 2184 09e8 EA010000 		.4byte	.LLST15
 2185 09ec 2A       		.uleb128 0x2a
 2186 09ed 33070000 		.4byte	0x733
 2187 09f1 02000000 		.4byte	.LBB125
 2188 09f5 06000000 		.4byte	.LBE125-.LBB125
 2189 09f9 01       		.byte	0x1
 2190 09fa 7D       		.byte	0x7d
 2191 09fb 280A0000 		.4byte	0xa28
 2192 09ff 32       		.uleb128 0x32
 2193 0a00 8F060000 		.4byte	0x68f
 2194 0a04 02000000 		.4byte	.LBB126
 2195 0a08 06000000 		.4byte	.LBE126-.LBB126
 2196 0a0c 0C       		.byte	0xc
 2197 0a0d 2B01     		.2byte	0x12b
 2198 0a0f 32       		.uleb128 0x32
 2199 0a10 75060000 		.4byte	0x675
 2200 0a14 02000000 		.4byte	.LBB127
 2201 0a18 06000000 		.4byte	.LBE127-.LBB127
 2202 0a1c 09       		.byte	0x9
 2203 0a1d BE01     		.2byte	0x1be
 2204 0a1f 33       		.uleb128 0x33
 2205 0a20 82060000 		.4byte	0x682
 2206 0a24 20       		.byte	0x20
 2207 0a25 00       		.byte	0
 2208 0a26 00       		.byte	0
 2209 0a27 00       		.byte	0
 2210 0a28 2A       		.uleb128 0x2a
 2211 0a29 3C070000 		.4byte	0x73c
 2212 0a2d 0C000000 		.4byte	.LBB129
 2213 0a31 08000000 		.4byte	.LBE129-.LBB129
 2214 0a35 01       		.byte	0x1
 2215 0a36 7F       		.byte	0x7f
 2216 0a37 730A0000 		.4byte	0xa73
 2217 0a3b 2C       		.uleb128 0x2c
ARM GAS  /tmp/ccNFGvrg.s 			page 40


 2218 0a3c 0C000000 		.4byte	.LBB130
 2219 0a40 08000000 		.4byte	.LBE130-.LBB130
 2220 0a44 34       		.uleb128 0x34
 2221 0a45 49070000 		.4byte	0x749
 2222 0a49 32       		.uleb128 0x32
 2223 0a4a 98060000 		.4byte	0x698
 2224 0a4e 0C000000 		.4byte	.LBB131
 2225 0a52 08000000 		.4byte	.LBE131-.LBB131
 2226 0a56 0C       		.byte	0xc
 2227 0a57 4101     		.2byte	0x141
 2228 0a59 32       		.uleb128 0x32
 2229 0a5a 75060000 		.4byte	0x675
 2230 0a5e 0C000000 		.4byte	.LBB132
 2231 0a62 08000000 		.4byte	.LBE132-.LBB132
 2232 0a66 09       		.byte	0x9
 2233 0a67 CC01     		.2byte	0x1cc
 2234 0a69 33       		.uleb128 0x33
 2235 0a6a 82060000 		.4byte	0x682
 2236 0a6e 00       		.byte	0
 2237 0a6f 00       		.byte	0
 2238 0a70 00       		.byte	0
 2239 0a71 00       		.byte	0
 2240 0a72 00       		.byte	0
 2241 0a73 35       		.uleb128 0x35
 2242 0a74 0C000000 		.4byte	.LVL24
 2243 0a78 46080000 		.4byte	0x846
 2244 0a7c 30       		.uleb128 0x30
 2245 0a7d 01       		.uleb128 0x1
 2246 0a7e 50       		.byte	0x50
 2247 0a7f 03       		.uleb128 0x3
 2248 0a80 F3       		.byte	0xf3
 2249 0a81 01       		.uleb128 0x1
 2250 0a82 50       		.byte	0x50
 2251 0a83 00       		.byte	0
 2252 0a84 00       		.byte	0
 2253 0a85 36       		.uleb128 0x36
 2254 0a86 47020000 		.4byte	.LASF122
 2255 0a8a 01       		.byte	0x1
 2256 0a8b FA       		.byte	0xfa
 2257 0a8c BF060000 		.4byte	0x6bf
 2258 0a90 00000000 		.4byte	.LFB229
 2259 0a94 30000000 		.4byte	.LFE229-.LFB229
 2260 0a98 01       		.uleb128 0x1
 2261 0a99 9C       		.byte	0x9c
 2262 0a9a 820B0000 		.4byte	0xb82
 2263 0a9e 27       		.uleb128 0x27
 2264 0a9f 6D7000   		.ascii	"mp\000"
 2265 0aa2 01       		.byte	0x1
 2266 0aa3 FA       		.byte	0xfa
 2267 0aa4 6F060000 		.4byte	0x66f
 2268 0aa8 0B020000 		.4byte	.LLST16
 2269 0aac 37       		.uleb128 0x37
 2270 0aad 6200     		.ascii	"b\000"
 2271 0aaf 01       		.byte	0x1
 2272 0ab0 FB       		.byte	0xfb
 2273 0ab1 BF060000 		.4byte	0x6bf
 2274 0ab5 2A       		.uleb128 0x2a
ARM GAS  /tmp/ccNFGvrg.s 			page 41


 2275 0ab6 33070000 		.4byte	0x733
 2276 0aba 02000000 		.4byte	.LBB147
 2277 0abe 06000000 		.4byte	.LBE147-.LBB147
 2278 0ac2 01       		.byte	0x1
 2279 0ac3 FD       		.byte	0xfd
 2280 0ac4 F10A0000 		.4byte	0xaf1
 2281 0ac8 32       		.uleb128 0x32
 2282 0ac9 8F060000 		.4byte	0x68f
 2283 0acd 02000000 		.4byte	.LBB148
 2284 0ad1 06000000 		.4byte	.LBE148-.LBB148
 2285 0ad5 0C       		.byte	0xc
 2286 0ad6 2B01     		.2byte	0x12b
 2287 0ad8 32       		.uleb128 0x32
 2288 0ad9 75060000 		.4byte	0x675
 2289 0add 02000000 		.4byte	.LBB149
 2290 0ae1 06000000 		.4byte	.LBE149-.LBB149
 2291 0ae5 09       		.byte	0x9
 2292 0ae6 BE01     		.2byte	0x1be
 2293 0ae8 33       		.uleb128 0x33
 2294 0ae9 82060000 		.4byte	0x682
 2295 0aed 20       		.byte	0x20
 2296 0aee 00       		.byte	0
 2297 0aef 00       		.byte	0
 2298 0af0 00       		.byte	0
 2299 0af1 2E       		.uleb128 0x2e
 2300 0af2 6C070000 		.4byte	0x76c
 2301 0af6 08000000 		.4byte	.LBB151
 2302 0afa 60000000 		.4byte	.Ldebug_ranges0+0x60
 2303 0afe 01       		.byte	0x1
 2304 0aff FE       		.byte	0xfe
 2305 0b00 3B0B0000 		.4byte	0xb3b
 2306 0b04 2B       		.uleb128 0x2b
 2307 0b05 7D070000 		.4byte	0x77d
 2308 0b09 4E020000 		.4byte	.LLST17
 2309 0b0d 29       		.uleb128 0x29
 2310 0b0e 60000000 		.4byte	.Ldebug_ranges0+0x60
 2311 0b12 34       		.uleb128 0x34
 2312 0b13 88070000 		.4byte	0x788
 2313 0b17 2C       		.uleb128 0x2c
 2314 0b18 16000000 		.4byte	.LBB153
 2315 0b1c 0E000000 		.4byte	.LBE153-.LBB153
 2316 0b20 2B       		.uleb128 0x2b
 2317 0b21 7D070000 		.4byte	0x77d
 2318 0b25 91020000 		.4byte	.LLST18
 2319 0b29 2C       		.uleb128 0x2c
 2320 0b2a 16000000 		.4byte	.LBB154
 2321 0b2e 0E000000 		.4byte	.LBE154-.LBB154
 2322 0b32 34       		.uleb128 0x34
 2323 0b33 88070000 		.4byte	0x788
 2324 0b37 00       		.byte	0
 2325 0b38 00       		.byte	0
 2326 0b39 00       		.byte	0
 2327 0b3a 00       		.byte	0
 2328 0b3b 38       		.uleb128 0x38
 2329 0b3c 3C070000 		.4byte	0x73c
 2330 0b40 0E000000 		.4byte	.LBB156
 2331 0b44 78000000 		.4byte	.Ldebug_ranges0+0x78
ARM GAS  /tmp/ccNFGvrg.s 			page 42


 2332 0b48 01       		.byte	0x1
 2333 0b49 FF       		.byte	0xff
 2334 0b4a 29       		.uleb128 0x29
 2335 0b4b 78000000 		.4byte	.Ldebug_ranges0+0x78
 2336 0b4f 34       		.uleb128 0x34
 2337 0b50 49070000 		.4byte	0x749
 2338 0b54 39       		.uleb128 0x39
 2339 0b55 98060000 		.4byte	0x698
 2340 0b59 0E000000 		.4byte	.LBB158
 2341 0b5d 78000000 		.4byte	.Ldebug_ranges0+0x78
 2342 0b61 0C       		.byte	0xc
 2343 0b62 4101     		.2byte	0x141
 2344 0b64 39       		.uleb128 0x39
 2345 0b65 75060000 		.4byte	0x675
 2346 0b69 0E000000 		.4byte	.LBB159
 2347 0b6d 78000000 		.4byte	.Ldebug_ranges0+0x78
 2348 0b71 09       		.byte	0x9
 2349 0b72 CC01     		.2byte	0x1cc
 2350 0b74 2B       		.uleb128 0x2b
 2351 0b75 82060000 		.4byte	0x682
 2352 0b79 B0020000 		.4byte	.LLST19
 2353 0b7d 00       		.byte	0
 2354 0b7e 00       		.byte	0
 2355 0b7f 00       		.byte	0
 2356 0b80 00       		.byte	0
 2357 0b81 00       		.byte	0
 2358 0b82 3A       		.uleb128 0x3a
 2359 0b83 6C070000 		.4byte	0x76c
 2360 0b87 00000000 		.4byte	.LFB230
 2361 0b8b 20000000 		.4byte	.LFE230-.LFB230
 2362 0b8f 01       		.uleb128 0x1
 2363 0b90 9C       		.byte	0x9c
 2364 0b91 C60B0000 		.4byte	0xbc6
 2365 0b95 2B       		.uleb128 0x2b
 2366 0b96 7D070000 		.4byte	0x77d
 2367 0b9a D0020000 		.4byte	.LLST20
 2368 0b9e 34       		.uleb128 0x34
 2369 0b9f 88070000 		.4byte	0x788
 2370 0ba3 2C       		.uleb128 0x2c
 2371 0ba4 0A000000 		.4byte	.LBB169
 2372 0ba8 16000000 		.4byte	.LBE169-.LBB169
 2373 0bac 2B       		.uleb128 0x2b
 2374 0bad 7D070000 		.4byte	0x77d
 2375 0bb1 04030000 		.4byte	.LLST21
 2376 0bb5 2C       		.uleb128 0x2c
 2377 0bb6 0A000000 		.4byte	.LBB170
 2378 0bba 16000000 		.4byte	.LBE170-.LBB170
 2379 0bbe 34       		.uleb128 0x34
 2380 0bbf 88070000 		.4byte	0x788
 2381 0bc3 00       		.byte	0
 2382 0bc4 00       		.byte	0
 2383 0bc5 00       		.byte	0
 2384 0bc6 3B       		.uleb128 0x3b
 2385 0bc7 C5000000 		.4byte	.LASF111
 2386 0bcb 01       		.byte	0x1
 2387 0bcc 3E01     		.2byte	0x13e
 2388 0bce 00000000 		.4byte	.LFB231
ARM GAS  /tmp/ccNFGvrg.s 			page 43


 2389 0bd2 60000000 		.4byte	.LFE231-.LFB231
 2390 0bd6 01       		.uleb128 0x1
 2391 0bd7 9C       		.byte	0x9c
 2392 0bd8 720D0000 		.4byte	0xd72
 2393 0bdc 3C       		.uleb128 0x3c
 2394 0bdd 6D7000   		.ascii	"mp\000"
 2395 0be0 01       		.byte	0x1
 2396 0be1 3E01     		.2byte	0x13e
 2397 0be3 6F060000 		.4byte	0x66f
 2398 0be7 22030000 		.4byte	.LLST22
 2399 0beb 3D       		.uleb128 0x3d
 2400 0bec 63747000 		.ascii	"ctp\000"
 2401 0bf0 01       		.byte	0x1
 2402 0bf1 3F01     		.2byte	0x13f
 2403 0bf3 C2050000 		.4byte	0x5c2
 2404 0bf7 59030000 		.4byte	.LLST23
 2405 0bfb 3D       		.uleb128 0x3d
 2406 0bfc 6C6D7000 		.ascii	"lmp\000"
 2407 0c00 01       		.byte	0x1
 2408 0c01 4001     		.2byte	0x140
 2409 0c03 6F060000 		.4byte	0x66f
 2410 0c07 6C030000 		.4byte	.LLST24
 2411 0c0b 24       		.uleb128 0x24
 2412 0c0c D2040000 		.4byte	.LASF104
 2413 0c10 720D0000 		.4byte	0xd72
 2414 0c14 3E       		.uleb128 0x3e
 2415 0c15 33070000 		.4byte	0x733
 2416 0c19 06000000 		.4byte	.LBB171
 2417 0c1d 06000000 		.4byte	.LBE171-.LBB171
 2418 0c21 01       		.byte	0x1
 2419 0c22 4401     		.2byte	0x144
 2420 0c24 510C0000 		.4byte	0xc51
 2421 0c28 32       		.uleb128 0x32
 2422 0c29 8F060000 		.4byte	0x68f
 2423 0c2d 06000000 		.4byte	.LBB172
 2424 0c31 06000000 		.4byte	.LBE172-.LBB172
 2425 0c35 0C       		.byte	0xc
 2426 0c36 2B01     		.2byte	0x12b
 2427 0c38 32       		.uleb128 0x32
 2428 0c39 75060000 		.4byte	0x675
 2429 0c3d 06000000 		.4byte	.LBB173
 2430 0c41 06000000 		.4byte	.LBE173-.LBB173
 2431 0c45 09       		.byte	0x9
 2432 0c46 BE01     		.2byte	0x1be
 2433 0c48 33       		.uleb128 0x33
 2434 0c49 82060000 		.4byte	0x682
 2435 0c4d 20       		.byte	0x20
 2436 0c4e 00       		.byte	0
 2437 0c4f 00       		.byte	0
 2438 0c50 00       		.byte	0
 2439 0c51 3E       		.uleb128 0x3e
 2440 0c52 AB070000 		.4byte	0x7ab
 2441 0c56 0C000000 		.4byte	.LBB175
 2442 0c5a 02000000 		.4byte	.LBE175-.LBB175
 2443 0c5e 01       		.byte	0x1
 2444 0c5f 5601     		.2byte	0x156
 2445 0c61 880C0000 		.4byte	0xc88
ARM GAS  /tmp/ccNFGvrg.s 			page 44


 2446 0c65 2B       		.uleb128 0x2b
 2447 0c66 BB070000 		.4byte	0x7bb
 2448 0c6a 7F030000 		.4byte	.LLST25
 2449 0c6e 25       		.uleb128 0x25
 2450 0c6f A1060000 		.4byte	0x6a1
 2451 0c73 0C000000 		.4byte	.LBB177
 2452 0c77 02000000 		.4byte	.LBE177-.LBB177
 2453 0c7b 0B       		.byte	0xb
 2454 0c7c 85       		.byte	0x85
 2455 0c7d 2B       		.uleb128 0x2b
 2456 0c7e B2060000 		.4byte	0x6b2
 2457 0c82 7F030000 		.4byte	.LLST25
 2458 0c86 00       		.byte	0
 2459 0c87 00       		.byte	0
 2460 0c88 3F       		.uleb128 0x3f
 2461 0c89 16000000 		.4byte	.LBB179
 2462 0c8d 32000000 		.4byte	.LBE179-.LBB179
 2463 0c91 2A0D0000 		.4byte	0xd2a
 2464 0c95 1D       		.uleb128 0x1d
 2465 0c96 747000   		.ascii	"tp\000"
 2466 0c99 01       		.byte	0x1
 2467 0c9a 5701     		.2byte	0x157
 2468 0c9c C2050000 		.4byte	0x5c2
 2469 0ca0 40       		.uleb128 0x40
 2470 0ca1 1D020000 		.4byte	.LASF112
 2471 0ca5 01       		.byte	0x1
 2472 0ca6 5B01     		.2byte	0x15b
 2473 0ca8 F4000000 		.4byte	0xf4
 2474 0cac B6030000 		.4byte	.LLST27
 2475 0cb0 3E       		.uleb128 0x3e
 2476 0cb1 AB070000 		.4byte	0x7ab
 2477 0cb5 1A000000 		.4byte	.LBB180
 2478 0cb9 02000000 		.4byte	.LBE180-.LBB180
 2479 0cbd 01       		.byte	0x1
 2480 0cbe 6101     		.2byte	0x161
 2481 0cc0 E70C0000 		.4byte	0xce7
 2482 0cc4 2B       		.uleb128 0x2b
 2483 0cc5 BB070000 		.4byte	0x7bb
 2484 0cc9 D5030000 		.4byte	.LLST28
 2485 0ccd 25       		.uleb128 0x25
 2486 0cce A1060000 		.4byte	0x6a1
 2487 0cd2 1A000000 		.4byte	.LBB182
 2488 0cd6 02000000 		.4byte	.LBE182-.LBB182
 2489 0cda 0B       		.byte	0xb
 2490 0cdb 85       		.byte	0x85
 2491 0cdc 2B       		.uleb128 0x2b
 2492 0cdd B2060000 		.4byte	0x6b2
 2493 0ce1 D5030000 		.4byte	.LLST28
 2494 0ce5 00       		.byte	0
 2495 0ce6 00       		.byte	0
 2496 0ce7 41       		.uleb128 0x41
 2497 0ce8 C6070000 		.4byte	0x7c6
 2498 0cec 30000000 		.4byte	.LBB184
 2499 0cf0 90000000 		.4byte	.Ldebug_ranges0+0x90
 2500 0cf4 01       		.byte	0x1
 2501 0cf5 7101     		.2byte	0x171
 2502 0cf7 140D0000 		.4byte	0xd14
ARM GAS  /tmp/ccNFGvrg.s 			page 45


 2503 0cfb 2B       		.uleb128 0x2b
 2504 0cfc D7070000 		.4byte	0x7d7
 2505 0d00 E8030000 		.4byte	.LLST30
 2506 0d04 29       		.uleb128 0x29
 2507 0d05 90000000 		.4byte	.Ldebug_ranges0+0x90
 2508 0d09 2D       		.uleb128 0x2d
 2509 0d0a E3070000 		.4byte	0x7e3
 2510 0d0e 09040000 		.4byte	.LLST31
 2511 0d12 00       		.byte	0
 2512 0d13 00       		.byte	0
 2513 0d14 35       		.uleb128 0x35
 2514 0d15 48000000 		.4byte	.LVL48
 2515 0d19 2F100000 		.4byte	0x102f
 2516 0d1d 30       		.uleb128 0x30
 2517 0d1e 01       		.uleb128 0x1
 2518 0d1f 51       		.byte	0x51
 2519 0d20 01       		.uleb128 0x1
 2520 0d21 30       		.byte	0x30
 2521 0d22 30       		.uleb128 0x30
 2522 0d23 01       		.uleb128 0x1
 2523 0d24 50       		.byte	0x50
 2524 0d25 02       		.uleb128 0x2
 2525 0d26 74       		.byte	0x74
 2526 0d27 00       		.sleb128 0
 2527 0d28 00       		.byte	0
 2528 0d29 00       		.byte	0
 2529 0d2a 39       		.uleb128 0x39
 2530 0d2b 3C070000 		.4byte	0x73c
 2531 0d2f 48000000 		.4byte	.LBB190
 2532 0d33 B0000000 		.4byte	.Ldebug_ranges0+0xb0
 2533 0d37 01       		.byte	0x1
 2534 0d38 7E01     		.2byte	0x17e
 2535 0d3a 29       		.uleb128 0x29
 2536 0d3b B0000000 		.4byte	.Ldebug_ranges0+0xb0
 2537 0d3f 34       		.uleb128 0x34
 2538 0d40 49070000 		.4byte	0x749
 2539 0d44 39       		.uleb128 0x39
 2540 0d45 98060000 		.4byte	0x698
 2541 0d49 48000000 		.4byte	.LBB192
 2542 0d4d B0000000 		.4byte	.Ldebug_ranges0+0xb0
 2543 0d51 0C       		.byte	0xc
 2544 0d52 4101     		.2byte	0x141
 2545 0d54 39       		.uleb128 0x39
 2546 0d55 75060000 		.4byte	0x675
 2547 0d59 48000000 		.4byte	.LBB193
 2548 0d5d B0000000 		.4byte	.Ldebug_ranges0+0xb0
 2549 0d61 09       		.byte	0x9
 2550 0d62 CC01     		.2byte	0x1cc
 2551 0d64 2B       		.uleb128 0x2b
 2552 0d65 82060000 		.4byte	0x682
 2553 0d69 1C040000 		.4byte	.LLST32
 2554 0d6d 00       		.byte	0
 2555 0d6e 00       		.byte	0
 2556 0d6f 00       		.byte	0
 2557 0d70 00       		.byte	0
 2558 0d71 00       		.byte	0
 2559 0d72 15       		.uleb128 0x15
ARM GAS  /tmp/ccNFGvrg.s 			page 46


 2560 0d73 57070000 		.4byte	0x757
 2561 0d77 3B       		.uleb128 0x3b
 2562 0d78 9C010000 		.4byte	.LASF113
 2563 0d7c 01       		.byte	0x1
 2564 0d7d 8F01     		.2byte	0x18f
 2565 0d7f 00000000 		.4byte	.LFB232
 2566 0d83 50000000 		.4byte	.LFE232-.LFB232
 2567 0d87 01       		.uleb128 0x1
 2568 0d88 9C       		.byte	0x9c
 2569 0d89 8B0E0000 		.4byte	0xe8b
 2570 0d8d 3C       		.uleb128 0x3c
 2571 0d8e 6D7000   		.ascii	"mp\000"
 2572 0d91 01       		.byte	0x1
 2573 0d92 8F01     		.2byte	0x18f
 2574 0d94 6F060000 		.4byte	0x66f
 2575 0d98 3C040000 		.4byte	.LLST33
 2576 0d9c 3D       		.uleb128 0x3d
 2577 0d9d 63747000 		.ascii	"ctp\000"
 2578 0da1 01       		.byte	0x1
 2579 0da2 9001     		.2byte	0x190
 2580 0da4 C2050000 		.4byte	0x5c2
 2581 0da8 8D040000 		.4byte	.LLST34
 2582 0dac 3D       		.uleb128 0x3d
 2583 0dad 6C6D7000 		.ascii	"lmp\000"
 2584 0db1 01       		.byte	0x1
 2585 0db2 9101     		.2byte	0x191
 2586 0db4 6F060000 		.4byte	0x66f
 2587 0db8 AB040000 		.4byte	.LLST35
 2588 0dbc 24       		.uleb128 0x24
 2589 0dbd D2040000 		.4byte	.LASF104
 2590 0dc1 9B0E0000 		.4byte	0xe9b
 2591 0dc5 3E       		.uleb128 0x3e
 2592 0dc6 AB070000 		.4byte	0x7ab
 2593 0dca 06000000 		.4byte	.LBB200
 2594 0dce 02000000 		.4byte	.LBE200-.LBB200
 2595 0dd2 01       		.byte	0x1
 2596 0dd3 A601     		.2byte	0x1a6
 2597 0dd5 FC0D0000 		.4byte	0xdfc
 2598 0dd9 2B       		.uleb128 0x2b
 2599 0dda BB070000 		.4byte	0x7bb
 2600 0dde BE040000 		.4byte	.LLST36
 2601 0de2 25       		.uleb128 0x25
 2602 0de3 A1060000 		.4byte	0x6a1
 2603 0de7 06000000 		.4byte	.LBB202
 2604 0deb 02000000 		.4byte	.LBE202-.LBB202
 2605 0def 0B       		.byte	0xb
 2606 0df0 85       		.byte	0x85
 2607 0df1 2B       		.uleb128 0x2b
 2608 0df2 B2060000 		.4byte	0x6b2
 2609 0df6 BE040000 		.4byte	.LLST36
 2610 0dfa 00       		.byte	0
 2611 0dfb 00       		.byte	0
 2612 0dfc 29       		.uleb128 0x29
 2613 0dfd C8000000 		.4byte	.Ldebug_ranges0+0xc8
 2614 0e01 1D       		.uleb128 0x1d
 2615 0e02 747000   		.ascii	"tp\000"
 2616 0e05 01       		.byte	0x1
ARM GAS  /tmp/ccNFGvrg.s 			page 47


 2617 0e06 A701     		.2byte	0x1a7
 2618 0e08 C2050000 		.4byte	0x5c2
 2619 0e0c 40       		.uleb128 0x40
 2620 0e0d 1D020000 		.4byte	.LASF112
 2621 0e11 01       		.byte	0x1
 2622 0e12 AB01     		.2byte	0x1ab
 2623 0e14 F4000000 		.4byte	0xf4
 2624 0e18 04050000 		.4byte	.LLST38
 2625 0e1c 3E       		.uleb128 0x3e
 2626 0e1d AB070000 		.4byte	0x7ab
 2627 0e21 16000000 		.4byte	.LBB205
 2628 0e25 02000000 		.4byte	.LBE205-.LBB205
 2629 0e29 01       		.byte	0x1
 2630 0e2a B101     		.2byte	0x1b1
 2631 0e2c 530E0000 		.4byte	0xe53
 2632 0e30 2B       		.uleb128 0x2b
 2633 0e31 BB070000 		.4byte	0x7bb
 2634 0e35 17050000 		.4byte	.LLST39
 2635 0e39 25       		.uleb128 0x25
 2636 0e3a A1060000 		.4byte	0x6a1
 2637 0e3e 16000000 		.4byte	.LBB207
 2638 0e42 02000000 		.4byte	.LBE207-.LBB207
 2639 0e46 0B       		.byte	0xb
 2640 0e47 85       		.byte	0x85
 2641 0e48 2B       		.uleb128 0x2b
 2642 0e49 B2060000 		.4byte	0x6b2
 2643 0e4d 17050000 		.4byte	.LLST39
 2644 0e51 00       		.byte	0
 2645 0e52 00       		.byte	0
 2646 0e53 41       		.uleb128 0x41
 2647 0e54 C6070000 		.4byte	0x7c6
 2648 0e58 2A000000 		.4byte	.LBB209
 2649 0e5c E0000000 		.4byte	.Ldebug_ranges0+0xe0
 2650 0e60 01       		.byte	0x1
 2651 0e61 C101     		.2byte	0x1c1
 2652 0e63 800E0000 		.4byte	0xe80
 2653 0e67 2B       		.uleb128 0x2b
 2654 0e68 D7070000 		.4byte	0x7d7
 2655 0e6c 2A050000 		.4byte	.LLST41
 2656 0e70 29       		.uleb128 0x29
 2657 0e71 E0000000 		.4byte	.Ldebug_ranges0+0xe0
 2658 0e75 2D       		.uleb128 0x2d
 2659 0e76 E3070000 		.4byte	0x7e3
 2660 0e7a 57050000 		.4byte	.LLST42
 2661 0e7e 00       		.byte	0
 2662 0e7f 00       		.byte	0
 2663 0e80 42       		.uleb128 0x42
 2664 0e81 42000000 		.4byte	.LVL63
 2665 0e85 19100000 		.4byte	0x1019
 2666 0e89 00       		.byte	0
 2667 0e8a 00       		.byte	0
 2668 0e8b 16       		.uleb128 0x16
 2669 0e8c 0B060000 		.4byte	0x60b
 2670 0e90 9B0E0000 		.4byte	0xe9b
 2671 0e94 17       		.uleb128 0x17
 2672 0e95 25040000 		.4byte	0x425
 2673 0e99 0C       		.byte	0xc
ARM GAS  /tmp/ccNFGvrg.s 			page 48


 2674 0e9a 00       		.byte	0
 2675 0e9b 15       		.uleb128 0x15
 2676 0e9c 8B0E0000 		.4byte	0xe8b
 2677 0ea0 3B       		.uleb128 0x3b
 2678 0ea1 0E020000 		.4byte	.LASF114
 2679 0ea5 01       		.byte	0x1
 2680 0ea6 DA01     		.2byte	0x1da
 2681 0ea8 00000000 		.4byte	.LFB233
 2682 0eac 54000000 		.4byte	.LFE233-.LFB233
 2683 0eb0 01       		.uleb128 0x1
 2684 0eb1 9C       		.byte	0x9c
 2685 0eb2 F00F0000 		.4byte	0xff0
 2686 0eb6 3D       		.uleb128 0x3d
 2687 0eb7 63747000 		.ascii	"ctp\000"
 2688 0ebb 01       		.byte	0x1
 2689 0ebc DB01     		.2byte	0x1db
 2690 0ebe C2050000 		.4byte	0x5c2
 2691 0ec2 75050000 		.4byte	.LLST43
 2692 0ec6 41       		.uleb128 0x41
 2693 0ec7 33070000 		.4byte	0x733
 2694 0ecb 04000000 		.4byte	.LBB216
 2695 0ecf 00010000 		.4byte	.Ldebug_ranges0+0x100
 2696 0ed3 01       		.byte	0x1
 2697 0ed4 DD01     		.2byte	0x1dd
 2698 0ed6 030F0000 		.4byte	0xf03
 2699 0eda 39       		.uleb128 0x39
 2700 0edb 8F060000 		.4byte	0x68f
 2701 0edf 04000000 		.4byte	.LBB217
 2702 0ee3 00010000 		.4byte	.Ldebug_ranges0+0x100
 2703 0ee7 0C       		.byte	0xc
 2704 0ee8 2B01     		.2byte	0x12b
 2705 0eea 39       		.uleb128 0x39
 2706 0eeb 75060000 		.4byte	0x675
 2707 0eef 04000000 		.4byte	.LBB218
 2708 0ef3 00010000 		.4byte	.Ldebug_ranges0+0x100
 2709 0ef7 09       		.byte	0x9
 2710 0ef8 BE01     		.2byte	0x1be
 2711 0efa 33       		.uleb128 0x33
 2712 0efb 82060000 		.4byte	0x682
 2713 0eff 20       		.byte	0x20
 2714 0f00 00       		.byte	0
 2715 0f01 00       		.byte	0
 2716 0f02 00       		.byte	0
 2717 0f03 43       		.uleb128 0x43
 2718 0f04 18010000 		.4byte	.Ldebug_ranges0+0x118
 2719 0f08 9A0F0000 		.4byte	0xf9a
 2720 0f0c 3D       		.uleb128 0x3d
 2721 0f0d 6D7000   		.ascii	"mp\000"
 2722 0f10 01       		.byte	0x1
 2723 0f11 E001     		.2byte	0x1e0
 2724 0f13 6F060000 		.4byte	0x66f
 2725 0f17 88050000 		.4byte	.LLST44
 2726 0f1b 43       		.uleb128 0x43
 2727 0f1c 30010000 		.4byte	.Ldebug_ranges0+0x130
 2728 0f20 660F0000 		.4byte	0xf66
 2729 0f24 1D       		.uleb128 0x1d
 2730 0f25 747000   		.ascii	"tp\000"
ARM GAS  /tmp/ccNFGvrg.s 			page 49


 2731 0f28 01       		.byte	0x1
 2732 0f29 E601     		.2byte	0x1e6
 2733 0f2b C2050000 		.4byte	0x5c2
 2734 0f2f 41       		.uleb128 0x41
 2735 0f30 C6070000 		.4byte	0x7c6
 2736 0f34 14000000 		.4byte	.LBB226
 2737 0f38 48010000 		.4byte	.Ldebug_ranges0+0x148
 2738 0f3c 01       		.byte	0x1
 2739 0f3d E601     		.2byte	0x1e6
 2740 0f3f 5C0F0000 		.4byte	0xf5c
 2741 0f43 2B       		.uleb128 0x2b
 2742 0f44 D7070000 		.4byte	0x7d7
 2743 0f48 88050000 		.4byte	.LLST44
 2744 0f4c 29       		.uleb128 0x29
 2745 0f4d 48010000 		.4byte	.Ldebug_ranges0+0x148
 2746 0f51 2D       		.uleb128 0x2d
 2747 0f52 E3070000 		.4byte	0x7e3
 2748 0f56 A6050000 		.4byte	.LLST46
 2749 0f5a 00       		.byte	0
 2750 0f5b 00       		.byte	0
 2751 0f5c 31       		.uleb128 0x31
 2752 0f5d 26000000 		.4byte	.LVL67
 2753 0f61 19100000 		.4byte	0x1019
 2754 0f65 00       		.byte	0
 2755 0f66 32       		.uleb128 0x32
 2756 0f67 AB070000 		.4byte	0x7ab
 2757 0f6b 2A000000 		.4byte	.LBB230
 2758 0f6f 02000000 		.4byte	.LBE230-.LBB230
 2759 0f73 01       		.byte	0x1
 2760 0f74 E201     		.2byte	0x1e2
 2761 0f76 2B       		.uleb128 0x2b
 2762 0f77 BB070000 		.4byte	0x7bb
 2763 0f7b C4050000 		.4byte	.LLST47
 2764 0f7f 25       		.uleb128 0x25
 2765 0f80 A1060000 		.4byte	0x6a1
 2766 0f84 2A000000 		.4byte	.LBB232
 2767 0f88 02000000 		.4byte	.LBE232-.LBB232
 2768 0f8c 0B       		.byte	0xb
 2769 0f8d 85       		.byte	0x85
 2770 0f8e 2B       		.uleb128 0x2b
 2771 0f8f B2060000 		.4byte	0x6b2
 2772 0f93 C4050000 		.4byte	.LLST47
 2773 0f97 00       		.byte	0
 2774 0f98 00       		.byte	0
 2775 0f99 00       		.byte	0
 2776 0f9a 3E       		.uleb128 0x3e
 2777 0f9b 3C070000 		.4byte	0x73c
 2778 0f9f 46000000 		.4byte	.LBB236
 2779 0fa3 0E000000 		.4byte	.LBE236-.LBB236
 2780 0fa7 01       		.byte	0x1
 2781 0fa8 F601     		.2byte	0x1f6
 2782 0faa E60F0000 		.4byte	0xfe6
 2783 0fae 2C       		.uleb128 0x2c
 2784 0faf 46000000 		.4byte	.LBB237
 2785 0fb3 0E000000 		.4byte	.LBE237-.LBB237
 2786 0fb7 34       		.uleb128 0x34
 2787 0fb8 49070000 		.4byte	0x749
ARM GAS  /tmp/ccNFGvrg.s 			page 50


 2788 0fbc 32       		.uleb128 0x32
 2789 0fbd 98060000 		.4byte	0x698
 2790 0fc1 46000000 		.4byte	.LBB238
 2791 0fc5 0E000000 		.4byte	.LBE238-.LBB238
 2792 0fc9 0C       		.byte	0xc
 2793 0fca 4101     		.2byte	0x141
 2794 0fcc 32       		.uleb128 0x32
 2795 0fcd 75060000 		.4byte	0x675
 2796 0fd1 46000000 		.4byte	.LBB239
 2797 0fd5 0E000000 		.4byte	.LBE239-.LBB239
 2798 0fd9 09       		.byte	0x9
 2799 0fda CC01     		.2byte	0x1cc
 2800 0fdc 33       		.uleb128 0x33
 2801 0fdd 82060000 		.4byte	0x682
 2802 0fe1 00       		.byte	0
 2803 0fe2 00       		.byte	0
 2804 0fe3 00       		.byte	0
 2805 0fe4 00       		.byte	0
 2806 0fe5 00       		.byte	0
 2807 0fe6 31       		.uleb128 0x31
 2808 0fe7 46000000 		.4byte	.LVL73
 2809 0feb 46100000 		.4byte	0x1046
 2810 0fef 00       		.byte	0
 2811 0ff0 44       		.uleb128 0x44
 2812 0ff1 98000000 		.4byte	.LASF115
 2813 0ff5 0D       		.byte	0xd
 2814 0ff6 A706     		.2byte	0x6a7
 2815 0ff8 C3000000 		.4byte	0xc3
 2816 0ffc 45       		.uleb128 0x45
 2817 0ffd 636800   		.ascii	"ch\000"
 2818 1000 02       		.byte	0x2
 2819 1001 EB01     		.2byte	0x1eb
 2820 1003 BE030000 		.4byte	0x3be
 2821 1007 46       		.uleb128 0x46
 2822 1008 F6040000 		.4byte	.LASF117
 2823 100c 02       		.byte	0x2
 2824 100d F601     		.2byte	0x1f6
 2825 100f 19100000 		.4byte	0x1019
 2826 1013 0D       		.uleb128 0xd
 2827 1014 DE000000 		.4byte	0xde
 2828 1018 00       		.byte	0
 2829 1019 47       		.uleb128 0x47
 2830 101a 20050000 		.4byte	.LASF116
 2831 101e 02       		.byte	0x2
 2832 101f F501     		.2byte	0x1f5
 2833 1021 C2050000 		.4byte	0x5c2
 2834 1025 2F100000 		.4byte	0x102f
 2835 1029 0D       		.uleb128 0xd
 2836 102a C2050000 		.4byte	0x5c2
 2837 102e 00       		.byte	0
 2838 102f 46       		.uleb128 0x46
 2839 1030 EF010000 		.4byte	.LASF118
 2840 1034 02       		.byte	0x2
 2841 1035 F801     		.2byte	0x1f8
 2842 1037 46100000 		.4byte	0x1046
 2843 103b 0D       		.uleb128 0xd
 2844 103c C2050000 		.4byte	0x5c2
ARM GAS  /tmp/ccNFGvrg.s 			page 51


 2845 1040 0D       		.uleb128 0xd
 2846 1041 FF000000 		.4byte	0xff
 2847 1045 00       		.byte	0
 2848 1046 48       		.uleb128 0x48
 2849 1047 4F010000 		.4byte	.LASF123
 2850 104b 02       		.byte	0x2
 2851 104c F901     		.2byte	0x1f9
 2852 104e 00       		.byte	0
 2853              		.section	.debug_abbrev,"",%progbits
 2854              	.Ldebug_abbrev0:
 2855 0000 01       		.uleb128 0x1
 2856 0001 11       		.uleb128 0x11
 2857 0002 01       		.byte	0x1
 2858 0003 25       		.uleb128 0x25
 2859 0004 0E       		.uleb128 0xe
 2860 0005 13       		.uleb128 0x13
 2861 0006 0B       		.uleb128 0xb
 2862 0007 03       		.uleb128 0x3
 2863 0008 0E       		.uleb128 0xe
 2864 0009 1B       		.uleb128 0x1b
 2865 000a 0E       		.uleb128 0xe
 2866 000b 55       		.uleb128 0x55
 2867 000c 17       		.uleb128 0x17
 2868 000d 11       		.uleb128 0x11
 2869 000e 01       		.uleb128 0x1
 2870 000f 10       		.uleb128 0x10
 2871 0010 17       		.uleb128 0x17
 2872 0011 00       		.byte	0
 2873 0012 00       		.byte	0
 2874 0013 02       		.uleb128 0x2
 2875 0014 24       		.uleb128 0x24
 2876 0015 00       		.byte	0
 2877 0016 0B       		.uleb128 0xb
 2878 0017 0B       		.uleb128 0xb
 2879 0018 3E       		.uleb128 0x3e
 2880 0019 0B       		.uleb128 0xb
 2881 001a 03       		.uleb128 0x3
 2882 001b 08       		.uleb128 0x8
 2883 001c 00       		.byte	0
 2884 001d 00       		.byte	0
 2885 001e 03       		.uleb128 0x3
 2886 001f 24       		.uleb128 0x24
 2887 0020 00       		.byte	0
 2888 0021 0B       		.uleb128 0xb
 2889 0022 0B       		.uleb128 0xb
 2890 0023 3E       		.uleb128 0x3e
 2891 0024 0B       		.uleb128 0xb
 2892 0025 03       		.uleb128 0x3
 2893 0026 0E       		.uleb128 0xe
 2894 0027 00       		.byte	0
 2895 0028 00       		.byte	0
 2896 0029 04       		.uleb128 0x4
 2897 002a 16       		.uleb128 0x16
 2898 002b 00       		.byte	0
 2899 002c 03       		.uleb128 0x3
 2900 002d 0E       		.uleb128 0xe
 2901 002e 3A       		.uleb128 0x3a
ARM GAS  /tmp/ccNFGvrg.s 			page 52


 2902 002f 0B       		.uleb128 0xb
 2903 0030 3B       		.uleb128 0x3b
 2904 0031 0B       		.uleb128 0xb
 2905 0032 49       		.uleb128 0x49
 2906 0033 13       		.uleb128 0x13
 2907 0034 00       		.byte	0
 2908 0035 00       		.byte	0
 2909 0036 05       		.uleb128 0x5
 2910 0037 35       		.uleb128 0x35
 2911 0038 00       		.byte	0
 2912 0039 49       		.uleb128 0x49
 2913 003a 13       		.uleb128 0x13
 2914 003b 00       		.byte	0
 2915 003c 00       		.byte	0
 2916 003d 06       		.uleb128 0x6
 2917 003e 13       		.uleb128 0x13
 2918 003f 01       		.byte	0x1
 2919 0040 03       		.uleb128 0x3
 2920 0041 0E       		.uleb128 0xe
 2921 0042 0B       		.uleb128 0xb
 2922 0043 0B       		.uleb128 0xb
 2923 0044 3A       		.uleb128 0x3a
 2924 0045 0B       		.uleb128 0xb
 2925 0046 3B       		.uleb128 0x3b
 2926 0047 0B       		.uleb128 0xb
 2927 0048 01       		.uleb128 0x1
 2928 0049 13       		.uleb128 0x13
 2929 004a 00       		.byte	0
 2930 004b 00       		.byte	0
 2931 004c 07       		.uleb128 0x7
 2932 004d 0D       		.uleb128 0xd
 2933 004e 00       		.byte	0
 2934 004f 03       		.uleb128 0x3
 2935 0050 0E       		.uleb128 0xe
 2936 0051 3A       		.uleb128 0x3a
 2937 0052 0B       		.uleb128 0xb
 2938 0053 3B       		.uleb128 0x3b
 2939 0054 0B       		.uleb128 0xb
 2940 0055 49       		.uleb128 0x49
 2941 0056 13       		.uleb128 0x13
 2942 0057 38       		.uleb128 0x38
 2943 0058 0B       		.uleb128 0xb
 2944 0059 00       		.byte	0
 2945 005a 00       		.byte	0
 2946 005b 08       		.uleb128 0x8
 2947 005c 0D       		.uleb128 0xd
 2948 005d 00       		.byte	0
 2949 005e 03       		.uleb128 0x3
 2950 005f 08       		.uleb128 0x8
 2951 0060 3A       		.uleb128 0x3a
 2952 0061 0B       		.uleb128 0xb
 2953 0062 3B       		.uleb128 0x3b
 2954 0063 05       		.uleb128 0x5
 2955 0064 49       		.uleb128 0x49
 2956 0065 13       		.uleb128 0x13
 2957 0066 38       		.uleb128 0x38
 2958 0067 0B       		.uleb128 0xb
ARM GAS  /tmp/ccNFGvrg.s 			page 53


 2959 0068 00       		.byte	0
 2960 0069 00       		.byte	0
 2961 006a 09       		.uleb128 0x9
 2962 006b 0D       		.uleb128 0xd
 2963 006c 00       		.byte	0
 2964 006d 03       		.uleb128 0x3
 2965 006e 0E       		.uleb128 0xe
 2966 006f 3A       		.uleb128 0x3a
 2967 0070 0B       		.uleb128 0xb
 2968 0071 3B       		.uleb128 0x3b
 2969 0072 05       		.uleb128 0x5
 2970 0073 49       		.uleb128 0x49
 2971 0074 13       		.uleb128 0x13
 2972 0075 38       		.uleb128 0x38
 2973 0076 0B       		.uleb128 0xb
 2974 0077 00       		.byte	0
 2975 0078 00       		.byte	0
 2976 0079 0A       		.uleb128 0xa
 2977 007a 13       		.uleb128 0x13
 2978 007b 01       		.byte	0x1
 2979 007c 03       		.uleb128 0x3
 2980 007d 0E       		.uleb128 0xe
 2981 007e 0B       		.uleb128 0xb
 2982 007f 0B       		.uleb128 0xb
 2983 0080 3A       		.uleb128 0x3a
 2984 0081 0B       		.uleb128 0xb
 2985 0082 3B       		.uleb128 0x3b
 2986 0083 05       		.uleb128 0x5
 2987 0084 01       		.uleb128 0x1
 2988 0085 13       		.uleb128 0x13
 2989 0086 00       		.byte	0
 2990 0087 00       		.byte	0
 2991 0088 0B       		.uleb128 0xb
 2992 0089 0F       		.uleb128 0xf
 2993 008a 00       		.byte	0
 2994 008b 0B       		.uleb128 0xb
 2995 008c 0B       		.uleb128 0xb
 2996 008d 49       		.uleb128 0x49
 2997 008e 13       		.uleb128 0x13
 2998 008f 00       		.byte	0
 2999 0090 00       		.byte	0
 3000 0091 0C       		.uleb128 0xc
 3001 0092 15       		.uleb128 0x15
 3002 0093 01       		.byte	0x1
 3003 0094 27       		.uleb128 0x27
 3004 0095 19       		.uleb128 0x19
 3005 0096 01       		.uleb128 0x1
 3006 0097 13       		.uleb128 0x13
 3007 0098 00       		.byte	0
 3008 0099 00       		.byte	0
 3009 009a 0D       		.uleb128 0xd
 3010 009b 05       		.uleb128 0x5
 3011 009c 00       		.byte	0
 3012 009d 49       		.uleb128 0x49
 3013 009e 13       		.uleb128 0x13
 3014 009f 00       		.byte	0
 3015 00a0 00       		.byte	0
ARM GAS  /tmp/ccNFGvrg.s 			page 54


 3016 00a1 0E       		.uleb128 0xe
 3017 00a2 0F       		.uleb128 0xf
 3018 00a3 00       		.byte	0
 3019 00a4 0B       		.uleb128 0xb
 3020 00a5 0B       		.uleb128 0xb
 3021 00a6 00       		.byte	0
 3022 00a7 00       		.byte	0
 3023 00a8 0F       		.uleb128 0xf
 3024 00a9 13       		.uleb128 0x13
 3025 00aa 01       		.byte	0x1
 3026 00ab 03       		.uleb128 0x3
 3027 00ac 0E       		.uleb128 0xe
 3028 00ad 0B       		.uleb128 0xb
 3029 00ae 05       		.uleb128 0x5
 3030 00af 3A       		.uleb128 0x3a
 3031 00b0 0B       		.uleb128 0xb
 3032 00b1 3B       		.uleb128 0x3b
 3033 00b2 05       		.uleb128 0x5
 3034 00b3 01       		.uleb128 0x1
 3035 00b4 13       		.uleb128 0x13
 3036 00b5 00       		.byte	0
 3037 00b6 00       		.byte	0
 3038 00b7 10       		.uleb128 0x10
 3039 00b8 0D       		.uleb128 0xd
 3040 00b9 00       		.byte	0
 3041 00ba 03       		.uleb128 0x3
 3042 00bb 08       		.uleb128 0x8
 3043 00bc 3A       		.uleb128 0x3a
 3044 00bd 0B       		.uleb128 0xb
 3045 00be 3B       		.uleb128 0x3b
 3046 00bf 0B       		.uleb128 0xb
 3047 00c0 49       		.uleb128 0x49
 3048 00c1 13       		.uleb128 0x13
 3049 00c2 38       		.uleb128 0x38
 3050 00c3 0B       		.uleb128 0xb
 3051 00c4 00       		.byte	0
 3052 00c5 00       		.byte	0
 3053 00c6 11       		.uleb128 0x11
 3054 00c7 13       		.uleb128 0x13
 3055 00c8 01       		.byte	0x1
 3056 00c9 0B       		.uleb128 0xb
 3057 00ca 0B       		.uleb128 0xb
 3058 00cb 3A       		.uleb128 0x3a
 3059 00cc 0B       		.uleb128 0xb
 3060 00cd 3B       		.uleb128 0x3b
 3061 00ce 0B       		.uleb128 0xb
 3062 00cf 01       		.uleb128 0x1
 3063 00d0 13       		.uleb128 0x13
 3064 00d1 00       		.byte	0
 3065 00d2 00       		.byte	0
 3066 00d3 12       		.uleb128 0x12
 3067 00d4 17       		.uleb128 0x17
 3068 00d5 01       		.byte	0x1
 3069 00d6 0B       		.uleb128 0xb
 3070 00d7 0B       		.uleb128 0xb
 3071 00d8 3A       		.uleb128 0x3a
 3072 00d9 0B       		.uleb128 0xb
ARM GAS  /tmp/ccNFGvrg.s 			page 55


 3073 00da 3B       		.uleb128 0x3b
 3074 00db 0B       		.uleb128 0xb
 3075 00dc 01       		.uleb128 0x1
 3076 00dd 13       		.uleb128 0x13
 3077 00de 00       		.byte	0
 3078 00df 00       		.byte	0
 3079 00e0 13       		.uleb128 0x13
 3080 00e1 0D       		.uleb128 0xd
 3081 00e2 00       		.byte	0
 3082 00e3 03       		.uleb128 0x3
 3083 00e4 0E       		.uleb128 0xe
 3084 00e5 3A       		.uleb128 0x3a
 3085 00e6 0B       		.uleb128 0xb
 3086 00e7 3B       		.uleb128 0x3b
 3087 00e8 0B       		.uleb128 0xb
 3088 00e9 49       		.uleb128 0x49
 3089 00ea 13       		.uleb128 0x13
 3090 00eb 00       		.byte	0
 3091 00ec 00       		.byte	0
 3092 00ed 14       		.uleb128 0x14
 3093 00ee 0D       		.uleb128 0xd
 3094 00ef 00       		.byte	0
 3095 00f0 03       		.uleb128 0x3
 3096 00f1 0E       		.uleb128 0xe
 3097 00f2 3A       		.uleb128 0x3a
 3098 00f3 0B       		.uleb128 0xb
 3099 00f4 3B       		.uleb128 0x3b
 3100 00f5 05       		.uleb128 0x5
 3101 00f6 49       		.uleb128 0x49
 3102 00f7 13       		.uleb128 0x13
 3103 00f8 00       		.byte	0
 3104 00f9 00       		.byte	0
 3105 00fa 15       		.uleb128 0x15
 3106 00fb 26       		.uleb128 0x26
 3107 00fc 00       		.byte	0
 3108 00fd 49       		.uleb128 0x49
 3109 00fe 13       		.uleb128 0x13
 3110 00ff 00       		.byte	0
 3111 0100 00       		.byte	0
 3112 0101 16       		.uleb128 0x16
 3113 0102 01       		.uleb128 0x1
 3114 0103 01       		.byte	0x1
 3115 0104 49       		.uleb128 0x49
 3116 0105 13       		.uleb128 0x13
 3117 0106 01       		.uleb128 0x1
 3118 0107 13       		.uleb128 0x13
 3119 0108 00       		.byte	0
 3120 0109 00       		.byte	0
 3121 010a 17       		.uleb128 0x17
 3122 010b 21       		.uleb128 0x21
 3123 010c 00       		.byte	0
 3124 010d 49       		.uleb128 0x49
 3125 010e 13       		.uleb128 0x13
 3126 010f 2F       		.uleb128 0x2f
 3127 0110 0B       		.uleb128 0xb
 3128 0111 00       		.byte	0
 3129 0112 00       		.byte	0
ARM GAS  /tmp/ccNFGvrg.s 			page 56


 3130 0113 18       		.uleb128 0x18
 3131 0114 2E       		.uleb128 0x2e
 3132 0115 01       		.byte	0x1
 3133 0116 03       		.uleb128 0x3
 3134 0117 0E       		.uleb128 0xe
 3135 0118 3A       		.uleb128 0x3a
 3136 0119 0B       		.uleb128 0xb
 3137 011a 3B       		.uleb128 0x3b
 3138 011b 05       		.uleb128 0x5
 3139 011c 27       		.uleb128 0x27
 3140 011d 19       		.uleb128 0x19
 3141 011e 20       		.uleb128 0x20
 3142 011f 0B       		.uleb128 0xb
 3143 0120 01       		.uleb128 0x1
 3144 0121 13       		.uleb128 0x13
 3145 0122 00       		.byte	0
 3146 0123 00       		.byte	0
 3147 0124 19       		.uleb128 0x19
 3148 0125 05       		.uleb128 0x5
 3149 0126 00       		.byte	0
 3150 0127 03       		.uleb128 0x3
 3151 0128 0E       		.uleb128 0xe
 3152 0129 3A       		.uleb128 0x3a
 3153 012a 0B       		.uleb128 0xb
 3154 012b 3B       		.uleb128 0x3b
 3155 012c 05       		.uleb128 0x5
 3156 012d 49       		.uleb128 0x49
 3157 012e 13       		.uleb128 0x13
 3158 012f 00       		.byte	0
 3159 0130 00       		.byte	0
 3160 0131 1A       		.uleb128 0x1a
 3161 0132 2E       		.uleb128 0x2e
 3162 0133 00       		.byte	0
 3163 0134 03       		.uleb128 0x3
 3164 0135 0E       		.uleb128 0xe
 3165 0136 3A       		.uleb128 0x3a
 3166 0137 0B       		.uleb128 0xb
 3167 0138 3B       		.uleb128 0x3b
 3168 0139 05       		.uleb128 0x5
 3169 013a 27       		.uleb128 0x27
 3170 013b 19       		.uleb128 0x19
 3171 013c 20       		.uleb128 0x20
 3172 013d 0B       		.uleb128 0xb
 3173 013e 00       		.byte	0
 3174 013f 00       		.byte	0
 3175 0140 1B       		.uleb128 0x1b
 3176 0141 2E       		.uleb128 0x2e
 3177 0142 01       		.byte	0x1
 3178 0143 03       		.uleb128 0x3
 3179 0144 0E       		.uleb128 0xe
 3180 0145 3A       		.uleb128 0x3a
 3181 0146 0B       		.uleb128 0xb
 3182 0147 3B       		.uleb128 0x3b
 3183 0148 05       		.uleb128 0x5
 3184 0149 27       		.uleb128 0x27
 3185 014a 19       		.uleb128 0x19
 3186 014b 49       		.uleb128 0x49
ARM GAS  /tmp/ccNFGvrg.s 			page 57


 3187 014c 13       		.uleb128 0x13
 3188 014d 20       		.uleb128 0x20
 3189 014e 0B       		.uleb128 0xb
 3190 014f 01       		.uleb128 0x1
 3191 0150 13       		.uleb128 0x13
 3192 0151 00       		.byte	0
 3193 0152 00       		.byte	0
 3194 0153 1C       		.uleb128 0x1c
 3195 0154 05       		.uleb128 0x5
 3196 0155 00       		.byte	0
 3197 0156 03       		.uleb128 0x3
 3198 0157 08       		.uleb128 0x8
 3199 0158 3A       		.uleb128 0x3a
 3200 0159 0B       		.uleb128 0xb
 3201 015a 3B       		.uleb128 0x3b
 3202 015b 05       		.uleb128 0x5
 3203 015c 49       		.uleb128 0x49
 3204 015d 13       		.uleb128 0x13
 3205 015e 00       		.byte	0
 3206 015f 00       		.byte	0
 3207 0160 1D       		.uleb128 0x1d
 3208 0161 34       		.uleb128 0x34
 3209 0162 00       		.byte	0
 3210 0163 03       		.uleb128 0x3
 3211 0164 08       		.uleb128 0x8
 3212 0165 3A       		.uleb128 0x3a
 3213 0166 0B       		.uleb128 0xb
 3214 0167 3B       		.uleb128 0x3b
 3215 0168 05       		.uleb128 0x5
 3216 0169 49       		.uleb128 0x49
 3217 016a 13       		.uleb128 0x13
 3218 016b 00       		.byte	0
 3219 016c 00       		.byte	0
 3220 016d 1E       		.uleb128 0x1e
 3221 016e 34       		.uleb128 0x34
 3222 016f 00       		.byte	0
 3223 0170 03       		.uleb128 0x3
 3224 0171 0E       		.uleb128 0xe
 3225 0172 49       		.uleb128 0x49
 3226 0173 13       		.uleb128 0x13
 3227 0174 34       		.uleb128 0x34
 3228 0175 19       		.uleb128 0x19
 3229 0176 1C       		.uleb128 0x1c
 3230 0177 0E       		.uleb128 0xe
 3231 0178 00       		.byte	0
 3232 0179 00       		.byte	0
 3233 017a 1F       		.uleb128 0x1f
 3234 017b 2E       		.uleb128 0x2e
 3235 017c 01       		.byte	0x1
 3236 017d 3F       		.uleb128 0x3f
 3237 017e 19       		.uleb128 0x19
 3238 017f 03       		.uleb128 0x3
 3239 0180 0E       		.uleb128 0xe
 3240 0181 3A       		.uleb128 0x3a
 3241 0182 0B       		.uleb128 0xb
 3242 0183 3B       		.uleb128 0x3b
 3243 0184 05       		.uleb128 0x5
ARM GAS  /tmp/ccNFGvrg.s 			page 58


 3244 0185 27       		.uleb128 0x27
 3245 0186 19       		.uleb128 0x19
 3246 0187 49       		.uleb128 0x49
 3247 0188 13       		.uleb128 0x13
 3248 0189 20       		.uleb128 0x20
 3249 018a 0B       		.uleb128 0xb
 3250 018b 01       		.uleb128 0x1
 3251 018c 13       		.uleb128 0x13
 3252 018d 00       		.byte	0
 3253 018e 00       		.byte	0
 3254 018f 20       		.uleb128 0x20
 3255 0190 2E       		.uleb128 0x2e
 3256 0191 01       		.byte	0x1
 3257 0192 03       		.uleb128 0x3
 3258 0193 0E       		.uleb128 0xe
 3259 0194 3A       		.uleb128 0x3a
 3260 0195 0B       		.uleb128 0xb
 3261 0196 3B       		.uleb128 0x3b
 3262 0197 0B       		.uleb128 0xb
 3263 0198 27       		.uleb128 0x27
 3264 0199 19       		.uleb128 0x19
 3265 019a 49       		.uleb128 0x49
 3266 019b 13       		.uleb128 0x13
 3267 019c 20       		.uleb128 0x20
 3268 019d 0B       		.uleb128 0xb
 3269 019e 01       		.uleb128 0x1
 3270 019f 13       		.uleb128 0x13
 3271 01a0 00       		.byte	0
 3272 01a1 00       		.byte	0
 3273 01a2 21       		.uleb128 0x21
 3274 01a3 05       		.uleb128 0x5
 3275 01a4 00       		.byte	0
 3276 01a5 03       		.uleb128 0x3
 3277 01a6 08       		.uleb128 0x8
 3278 01a7 3A       		.uleb128 0x3a
 3279 01a8 0B       		.uleb128 0xb
 3280 01a9 3B       		.uleb128 0x3b
 3281 01aa 0B       		.uleb128 0xb
 3282 01ab 49       		.uleb128 0x49
 3283 01ac 13       		.uleb128 0x13
 3284 01ad 00       		.byte	0
 3285 01ae 00       		.byte	0
 3286 01af 22       		.uleb128 0x22
 3287 01b0 2E       		.uleb128 0x2e
 3288 01b1 01       		.byte	0x1
 3289 01b2 3F       		.uleb128 0x3f
 3290 01b3 19       		.uleb128 0x19
 3291 01b4 03       		.uleb128 0x3
 3292 01b5 0E       		.uleb128 0xe
 3293 01b6 3A       		.uleb128 0x3a
 3294 01b7 0B       		.uleb128 0xb
 3295 01b8 3B       		.uleb128 0x3b
 3296 01b9 0B       		.uleb128 0xb
 3297 01ba 27       		.uleb128 0x27
 3298 01bb 19       		.uleb128 0x19
 3299 01bc 11       		.uleb128 0x11
 3300 01bd 01       		.uleb128 0x1
ARM GAS  /tmp/ccNFGvrg.s 			page 59


 3301 01be 12       		.uleb128 0x12
 3302 01bf 06       		.uleb128 0x6
 3303 01c0 40       		.uleb128 0x40
 3304 01c1 18       		.uleb128 0x18
 3305 01c2 9742     		.uleb128 0x2117
 3306 01c4 19       		.uleb128 0x19
 3307 01c5 01       		.uleb128 0x1
 3308 01c6 13       		.uleb128 0x13
 3309 01c7 00       		.byte	0
 3310 01c8 00       		.byte	0
 3311 01c9 23       		.uleb128 0x23
 3312 01ca 05       		.uleb128 0x5
 3313 01cb 00       		.byte	0
 3314 01cc 03       		.uleb128 0x3
 3315 01cd 08       		.uleb128 0x8
 3316 01ce 3A       		.uleb128 0x3a
 3317 01cf 0B       		.uleb128 0xb
 3318 01d0 3B       		.uleb128 0x3b
 3319 01d1 0B       		.uleb128 0xb
 3320 01d2 49       		.uleb128 0x49
 3321 01d3 13       		.uleb128 0x13
 3322 01d4 02       		.uleb128 0x2
 3323 01d5 18       		.uleb128 0x18
 3324 01d6 00       		.byte	0
 3325 01d7 00       		.byte	0
 3326 01d8 24       		.uleb128 0x24
 3327 01d9 34       		.uleb128 0x34
 3328 01da 00       		.byte	0
 3329 01db 03       		.uleb128 0x3
 3330 01dc 0E       		.uleb128 0xe
 3331 01dd 49       		.uleb128 0x49
 3332 01de 13       		.uleb128 0x13
 3333 01df 34       		.uleb128 0x34
 3334 01e0 19       		.uleb128 0x19
 3335 01e1 00       		.byte	0
 3336 01e2 00       		.byte	0
 3337 01e3 25       		.uleb128 0x25
 3338 01e4 1D       		.uleb128 0x1d
 3339 01e5 01       		.byte	0x1
 3340 01e6 31       		.uleb128 0x31
 3341 01e7 13       		.uleb128 0x13
 3342 01e8 11       		.uleb128 0x11
 3343 01e9 01       		.uleb128 0x1
 3344 01ea 12       		.uleb128 0x12
 3345 01eb 06       		.uleb128 0x6
 3346 01ec 58       		.uleb128 0x58
 3347 01ed 0B       		.uleb128 0xb
 3348 01ee 59       		.uleb128 0x59
 3349 01ef 0B       		.uleb128 0xb
 3350 01f0 00       		.byte	0
 3351 01f1 00       		.byte	0
 3352 01f2 26       		.uleb128 0x26
 3353 01f3 05       		.uleb128 0x5
 3354 01f4 00       		.byte	0
 3355 01f5 31       		.uleb128 0x31
 3356 01f6 13       		.uleb128 0x13
 3357 01f7 02       		.uleb128 0x2
ARM GAS  /tmp/ccNFGvrg.s 			page 60


 3358 01f8 18       		.uleb128 0x18
 3359 01f9 00       		.byte	0
 3360 01fa 00       		.byte	0
 3361 01fb 27       		.uleb128 0x27
 3362 01fc 05       		.uleb128 0x5
 3363 01fd 00       		.byte	0
 3364 01fe 03       		.uleb128 0x3
 3365 01ff 08       		.uleb128 0x8
 3366 0200 3A       		.uleb128 0x3a
 3367 0201 0B       		.uleb128 0xb
 3368 0202 3B       		.uleb128 0x3b
 3369 0203 0B       		.uleb128 0xb
 3370 0204 49       		.uleb128 0x49
 3371 0205 13       		.uleb128 0x13
 3372 0206 02       		.uleb128 0x2
 3373 0207 17       		.uleb128 0x17
 3374 0208 00       		.byte	0
 3375 0209 00       		.byte	0
 3376 020a 28       		.uleb128 0x28
 3377 020b 34       		.uleb128 0x34
 3378 020c 00       		.byte	0
 3379 020d 03       		.uleb128 0x3
 3380 020e 08       		.uleb128 0x8
 3381 020f 3A       		.uleb128 0x3a
 3382 0210 0B       		.uleb128 0xb
 3383 0211 3B       		.uleb128 0x3b
 3384 0212 0B       		.uleb128 0xb
 3385 0213 49       		.uleb128 0x49
 3386 0214 13       		.uleb128 0x13
 3387 0215 02       		.uleb128 0x2
 3388 0216 17       		.uleb128 0x17
 3389 0217 00       		.byte	0
 3390 0218 00       		.byte	0
 3391 0219 29       		.uleb128 0x29
 3392 021a 0B       		.uleb128 0xb
 3393 021b 01       		.byte	0x1
 3394 021c 55       		.uleb128 0x55
 3395 021d 17       		.uleb128 0x17
 3396 021e 00       		.byte	0
 3397 021f 00       		.byte	0
 3398 0220 2A       		.uleb128 0x2a
 3399 0221 1D       		.uleb128 0x1d
 3400 0222 01       		.byte	0x1
 3401 0223 31       		.uleb128 0x31
 3402 0224 13       		.uleb128 0x13
 3403 0225 11       		.uleb128 0x11
 3404 0226 01       		.uleb128 0x1
 3405 0227 12       		.uleb128 0x12
 3406 0228 06       		.uleb128 0x6
 3407 0229 58       		.uleb128 0x58
 3408 022a 0B       		.uleb128 0xb
 3409 022b 59       		.uleb128 0x59
 3410 022c 0B       		.uleb128 0xb
 3411 022d 01       		.uleb128 0x1
 3412 022e 13       		.uleb128 0x13
 3413 022f 00       		.byte	0
 3414 0230 00       		.byte	0
ARM GAS  /tmp/ccNFGvrg.s 			page 61


 3415 0231 2B       		.uleb128 0x2b
 3416 0232 05       		.uleb128 0x5
 3417 0233 00       		.byte	0
 3418 0234 31       		.uleb128 0x31
 3419 0235 13       		.uleb128 0x13
 3420 0236 02       		.uleb128 0x2
 3421 0237 17       		.uleb128 0x17
 3422 0238 00       		.byte	0
 3423 0239 00       		.byte	0
 3424 023a 2C       		.uleb128 0x2c
 3425 023b 0B       		.uleb128 0xb
 3426 023c 01       		.byte	0x1
 3427 023d 11       		.uleb128 0x11
 3428 023e 01       		.uleb128 0x1
 3429 023f 12       		.uleb128 0x12
 3430 0240 06       		.uleb128 0x6
 3431 0241 00       		.byte	0
 3432 0242 00       		.byte	0
 3433 0243 2D       		.uleb128 0x2d
 3434 0244 34       		.uleb128 0x34
 3435 0245 00       		.byte	0
 3436 0246 31       		.uleb128 0x31
 3437 0247 13       		.uleb128 0x13
 3438 0248 02       		.uleb128 0x2
 3439 0249 17       		.uleb128 0x17
 3440 024a 00       		.byte	0
 3441 024b 00       		.byte	0
 3442 024c 2E       		.uleb128 0x2e
 3443 024d 1D       		.uleb128 0x1d
 3444 024e 01       		.byte	0x1
 3445 024f 31       		.uleb128 0x31
 3446 0250 13       		.uleb128 0x13
 3447 0251 52       		.uleb128 0x52
 3448 0252 01       		.uleb128 0x1
 3449 0253 55       		.uleb128 0x55
 3450 0254 17       		.uleb128 0x17
 3451 0255 58       		.uleb128 0x58
 3452 0256 0B       		.uleb128 0xb
 3453 0257 59       		.uleb128 0x59
 3454 0258 0B       		.uleb128 0xb
 3455 0259 01       		.uleb128 0x1
 3456 025a 13       		.uleb128 0x13
 3457 025b 00       		.byte	0
 3458 025c 00       		.byte	0
 3459 025d 2F       		.uleb128 0x2f
 3460 025e 898201   		.uleb128 0x4109
 3461 0261 01       		.byte	0x1
 3462 0262 11       		.uleb128 0x11
 3463 0263 01       		.uleb128 0x1
 3464 0264 9542     		.uleb128 0x2115
 3465 0266 19       		.uleb128 0x19
 3466 0267 31       		.uleb128 0x31
 3467 0268 13       		.uleb128 0x13
 3468 0269 01       		.uleb128 0x1
 3469 026a 13       		.uleb128 0x13
 3470 026b 00       		.byte	0
 3471 026c 00       		.byte	0
ARM GAS  /tmp/ccNFGvrg.s 			page 62


 3472 026d 30       		.uleb128 0x30
 3473 026e 8A8201   		.uleb128 0x410a
 3474 0271 00       		.byte	0
 3475 0272 02       		.uleb128 0x2
 3476 0273 18       		.uleb128 0x18
 3477 0274 9142     		.uleb128 0x2111
 3478 0276 18       		.uleb128 0x18
 3479 0277 00       		.byte	0
 3480 0278 00       		.byte	0
 3481 0279 31       		.uleb128 0x31
 3482 027a 898201   		.uleb128 0x4109
 3483 027d 00       		.byte	0
 3484 027e 11       		.uleb128 0x11
 3485 027f 01       		.uleb128 0x1
 3486 0280 31       		.uleb128 0x31
 3487 0281 13       		.uleb128 0x13
 3488 0282 00       		.byte	0
 3489 0283 00       		.byte	0
 3490 0284 32       		.uleb128 0x32
 3491 0285 1D       		.uleb128 0x1d
 3492 0286 01       		.byte	0x1
 3493 0287 31       		.uleb128 0x31
 3494 0288 13       		.uleb128 0x13
 3495 0289 11       		.uleb128 0x11
 3496 028a 01       		.uleb128 0x1
 3497 028b 12       		.uleb128 0x12
 3498 028c 06       		.uleb128 0x6
 3499 028d 58       		.uleb128 0x58
 3500 028e 0B       		.uleb128 0xb
 3501 028f 59       		.uleb128 0x59
 3502 0290 05       		.uleb128 0x5
 3503 0291 00       		.byte	0
 3504 0292 00       		.byte	0
 3505 0293 33       		.uleb128 0x33
 3506 0294 05       		.uleb128 0x5
 3507 0295 00       		.byte	0
 3508 0296 31       		.uleb128 0x31
 3509 0297 13       		.uleb128 0x13
 3510 0298 1C       		.uleb128 0x1c
 3511 0299 0B       		.uleb128 0xb
 3512 029a 00       		.byte	0
 3513 029b 00       		.byte	0
 3514 029c 34       		.uleb128 0x34
 3515 029d 34       		.uleb128 0x34
 3516 029e 00       		.byte	0
 3517 029f 31       		.uleb128 0x31
 3518 02a0 13       		.uleb128 0x13
 3519 02a1 00       		.byte	0
 3520 02a2 00       		.byte	0
 3521 02a3 35       		.uleb128 0x35
 3522 02a4 898201   		.uleb128 0x4109
 3523 02a7 01       		.byte	0x1
 3524 02a8 11       		.uleb128 0x11
 3525 02a9 01       		.uleb128 0x1
 3526 02aa 31       		.uleb128 0x31
 3527 02ab 13       		.uleb128 0x13
 3528 02ac 00       		.byte	0
ARM GAS  /tmp/ccNFGvrg.s 			page 63


 3529 02ad 00       		.byte	0
 3530 02ae 36       		.uleb128 0x36
 3531 02af 2E       		.uleb128 0x2e
 3532 02b0 01       		.byte	0x1
 3533 02b1 3F       		.uleb128 0x3f
 3534 02b2 19       		.uleb128 0x19
 3535 02b3 03       		.uleb128 0x3
 3536 02b4 0E       		.uleb128 0xe
 3537 02b5 3A       		.uleb128 0x3a
 3538 02b6 0B       		.uleb128 0xb
 3539 02b7 3B       		.uleb128 0x3b
 3540 02b8 0B       		.uleb128 0xb
 3541 02b9 27       		.uleb128 0x27
 3542 02ba 19       		.uleb128 0x19
 3543 02bb 49       		.uleb128 0x49
 3544 02bc 13       		.uleb128 0x13
 3545 02bd 11       		.uleb128 0x11
 3546 02be 01       		.uleb128 0x1
 3547 02bf 12       		.uleb128 0x12
 3548 02c0 06       		.uleb128 0x6
 3549 02c1 40       		.uleb128 0x40
 3550 02c2 18       		.uleb128 0x18
 3551 02c3 9742     		.uleb128 0x2117
 3552 02c5 19       		.uleb128 0x19
 3553 02c6 01       		.uleb128 0x1
 3554 02c7 13       		.uleb128 0x13
 3555 02c8 00       		.byte	0
 3556 02c9 00       		.byte	0
 3557 02ca 37       		.uleb128 0x37
 3558 02cb 34       		.uleb128 0x34
 3559 02cc 00       		.byte	0
 3560 02cd 03       		.uleb128 0x3
 3561 02ce 08       		.uleb128 0x8
 3562 02cf 3A       		.uleb128 0x3a
 3563 02d0 0B       		.uleb128 0xb
 3564 02d1 3B       		.uleb128 0x3b
 3565 02d2 0B       		.uleb128 0xb
 3566 02d3 49       		.uleb128 0x49
 3567 02d4 13       		.uleb128 0x13
 3568 02d5 00       		.byte	0
 3569 02d6 00       		.byte	0
 3570 02d7 38       		.uleb128 0x38
 3571 02d8 1D       		.uleb128 0x1d
 3572 02d9 01       		.byte	0x1
 3573 02da 31       		.uleb128 0x31
 3574 02db 13       		.uleb128 0x13
 3575 02dc 52       		.uleb128 0x52
 3576 02dd 01       		.uleb128 0x1
 3577 02de 55       		.uleb128 0x55
 3578 02df 17       		.uleb128 0x17
 3579 02e0 58       		.uleb128 0x58
 3580 02e1 0B       		.uleb128 0xb
 3581 02e2 59       		.uleb128 0x59
 3582 02e3 0B       		.uleb128 0xb
 3583 02e4 00       		.byte	0
 3584 02e5 00       		.byte	0
 3585 02e6 39       		.uleb128 0x39
ARM GAS  /tmp/ccNFGvrg.s 			page 64


 3586 02e7 1D       		.uleb128 0x1d
 3587 02e8 01       		.byte	0x1
 3588 02e9 31       		.uleb128 0x31
 3589 02ea 13       		.uleb128 0x13
 3590 02eb 52       		.uleb128 0x52
 3591 02ec 01       		.uleb128 0x1
 3592 02ed 55       		.uleb128 0x55
 3593 02ee 17       		.uleb128 0x17
 3594 02ef 58       		.uleb128 0x58
 3595 02f0 0B       		.uleb128 0xb
 3596 02f1 59       		.uleb128 0x59
 3597 02f2 05       		.uleb128 0x5
 3598 02f3 00       		.byte	0
 3599 02f4 00       		.byte	0
 3600 02f5 3A       		.uleb128 0x3a
 3601 02f6 2E       		.uleb128 0x2e
 3602 02f7 01       		.byte	0x1
 3603 02f8 31       		.uleb128 0x31
 3604 02f9 13       		.uleb128 0x13
 3605 02fa 11       		.uleb128 0x11
 3606 02fb 01       		.uleb128 0x1
 3607 02fc 12       		.uleb128 0x12
 3608 02fd 06       		.uleb128 0x6
 3609 02fe 40       		.uleb128 0x40
 3610 02ff 18       		.uleb128 0x18
 3611 0300 9742     		.uleb128 0x2117
 3612 0302 19       		.uleb128 0x19
 3613 0303 01       		.uleb128 0x1
 3614 0304 13       		.uleb128 0x13
 3615 0305 00       		.byte	0
 3616 0306 00       		.byte	0
 3617 0307 3B       		.uleb128 0x3b
 3618 0308 2E       		.uleb128 0x2e
 3619 0309 01       		.byte	0x1
 3620 030a 3F       		.uleb128 0x3f
 3621 030b 19       		.uleb128 0x19
 3622 030c 03       		.uleb128 0x3
 3623 030d 0E       		.uleb128 0xe
 3624 030e 3A       		.uleb128 0x3a
 3625 030f 0B       		.uleb128 0xb
 3626 0310 3B       		.uleb128 0x3b
 3627 0311 05       		.uleb128 0x5
 3628 0312 27       		.uleb128 0x27
 3629 0313 19       		.uleb128 0x19
 3630 0314 11       		.uleb128 0x11
 3631 0315 01       		.uleb128 0x1
 3632 0316 12       		.uleb128 0x12
 3633 0317 06       		.uleb128 0x6
 3634 0318 40       		.uleb128 0x40
 3635 0319 18       		.uleb128 0x18
 3636 031a 9742     		.uleb128 0x2117
 3637 031c 19       		.uleb128 0x19
 3638 031d 01       		.uleb128 0x1
 3639 031e 13       		.uleb128 0x13
 3640 031f 00       		.byte	0
 3641 0320 00       		.byte	0
 3642 0321 3C       		.uleb128 0x3c
ARM GAS  /tmp/ccNFGvrg.s 			page 65


 3643 0322 05       		.uleb128 0x5
 3644 0323 00       		.byte	0
 3645 0324 03       		.uleb128 0x3
 3646 0325 08       		.uleb128 0x8
 3647 0326 3A       		.uleb128 0x3a
 3648 0327 0B       		.uleb128 0xb
 3649 0328 3B       		.uleb128 0x3b
 3650 0329 05       		.uleb128 0x5
 3651 032a 49       		.uleb128 0x49
 3652 032b 13       		.uleb128 0x13
 3653 032c 02       		.uleb128 0x2
 3654 032d 17       		.uleb128 0x17
 3655 032e 00       		.byte	0
 3656 032f 00       		.byte	0
 3657 0330 3D       		.uleb128 0x3d
 3658 0331 34       		.uleb128 0x34
 3659 0332 00       		.byte	0
 3660 0333 03       		.uleb128 0x3
 3661 0334 08       		.uleb128 0x8
 3662 0335 3A       		.uleb128 0x3a
 3663 0336 0B       		.uleb128 0xb
 3664 0337 3B       		.uleb128 0x3b
 3665 0338 05       		.uleb128 0x5
 3666 0339 49       		.uleb128 0x49
 3667 033a 13       		.uleb128 0x13
 3668 033b 02       		.uleb128 0x2
 3669 033c 17       		.uleb128 0x17
 3670 033d 00       		.byte	0
 3671 033e 00       		.byte	0
 3672 033f 3E       		.uleb128 0x3e
 3673 0340 1D       		.uleb128 0x1d
 3674 0341 01       		.byte	0x1
 3675 0342 31       		.uleb128 0x31
 3676 0343 13       		.uleb128 0x13
 3677 0344 11       		.uleb128 0x11
 3678 0345 01       		.uleb128 0x1
 3679 0346 12       		.uleb128 0x12
 3680 0347 06       		.uleb128 0x6
 3681 0348 58       		.uleb128 0x58
 3682 0349 0B       		.uleb128 0xb
 3683 034a 59       		.uleb128 0x59
 3684 034b 05       		.uleb128 0x5
 3685 034c 01       		.uleb128 0x1
 3686 034d 13       		.uleb128 0x13
 3687 034e 00       		.byte	0
 3688 034f 00       		.byte	0
 3689 0350 3F       		.uleb128 0x3f
 3690 0351 0B       		.uleb128 0xb
 3691 0352 01       		.byte	0x1
 3692 0353 11       		.uleb128 0x11
 3693 0354 01       		.uleb128 0x1
 3694 0355 12       		.uleb128 0x12
 3695 0356 06       		.uleb128 0x6
 3696 0357 01       		.uleb128 0x1
 3697 0358 13       		.uleb128 0x13
 3698 0359 00       		.byte	0
 3699 035a 00       		.byte	0
ARM GAS  /tmp/ccNFGvrg.s 			page 66


 3700 035b 40       		.uleb128 0x40
 3701 035c 34       		.uleb128 0x34
 3702 035d 00       		.byte	0
 3703 035e 03       		.uleb128 0x3
 3704 035f 0E       		.uleb128 0xe
 3705 0360 3A       		.uleb128 0x3a
 3706 0361 0B       		.uleb128 0xb
 3707 0362 3B       		.uleb128 0x3b
 3708 0363 05       		.uleb128 0x5
 3709 0364 49       		.uleb128 0x49
 3710 0365 13       		.uleb128 0x13
 3711 0366 02       		.uleb128 0x2
 3712 0367 17       		.uleb128 0x17
 3713 0368 00       		.byte	0
 3714 0369 00       		.byte	0
 3715 036a 41       		.uleb128 0x41
 3716 036b 1D       		.uleb128 0x1d
 3717 036c 01       		.byte	0x1
 3718 036d 31       		.uleb128 0x31
 3719 036e 13       		.uleb128 0x13
 3720 036f 52       		.uleb128 0x52
 3721 0370 01       		.uleb128 0x1
 3722 0371 55       		.uleb128 0x55
 3723 0372 17       		.uleb128 0x17
 3724 0373 58       		.uleb128 0x58
 3725 0374 0B       		.uleb128 0xb
 3726 0375 59       		.uleb128 0x59
 3727 0376 05       		.uleb128 0x5
 3728 0377 01       		.uleb128 0x1
 3729 0378 13       		.uleb128 0x13
 3730 0379 00       		.byte	0
 3731 037a 00       		.byte	0
 3732 037b 42       		.uleb128 0x42
 3733 037c 898201   		.uleb128 0x4109
 3734 037f 00       		.byte	0
 3735 0380 11       		.uleb128 0x11
 3736 0381 01       		.uleb128 0x1
 3737 0382 9542     		.uleb128 0x2115
 3738 0384 19       		.uleb128 0x19
 3739 0385 31       		.uleb128 0x31
 3740 0386 13       		.uleb128 0x13
 3741 0387 00       		.byte	0
 3742 0388 00       		.byte	0
 3743 0389 43       		.uleb128 0x43
 3744 038a 0B       		.uleb128 0xb
 3745 038b 01       		.byte	0x1
 3746 038c 55       		.uleb128 0x55
 3747 038d 17       		.uleb128 0x17
 3748 038e 01       		.uleb128 0x1
 3749 038f 13       		.uleb128 0x13
 3750 0390 00       		.byte	0
 3751 0391 00       		.byte	0
 3752 0392 44       		.uleb128 0x44
 3753 0393 34       		.uleb128 0x34
 3754 0394 00       		.byte	0
 3755 0395 03       		.uleb128 0x3
 3756 0396 0E       		.uleb128 0xe
ARM GAS  /tmp/ccNFGvrg.s 			page 67


 3757 0397 3A       		.uleb128 0x3a
 3758 0398 0B       		.uleb128 0xb
 3759 0399 3B       		.uleb128 0x3b
 3760 039a 05       		.uleb128 0x5
 3761 039b 49       		.uleb128 0x49
 3762 039c 13       		.uleb128 0x13
 3763 039d 3F       		.uleb128 0x3f
 3764 039e 19       		.uleb128 0x19
 3765 039f 3C       		.uleb128 0x3c
 3766 03a0 19       		.uleb128 0x19
 3767 03a1 00       		.byte	0
 3768 03a2 00       		.byte	0
 3769 03a3 45       		.uleb128 0x45
 3770 03a4 34       		.uleb128 0x34
 3771 03a5 00       		.byte	0
 3772 03a6 03       		.uleb128 0x3
 3773 03a7 08       		.uleb128 0x8
 3774 03a8 3A       		.uleb128 0x3a
 3775 03a9 0B       		.uleb128 0xb
 3776 03aa 3B       		.uleb128 0x3b
 3777 03ab 05       		.uleb128 0x5
 3778 03ac 49       		.uleb128 0x49
 3779 03ad 13       		.uleb128 0x13
 3780 03ae 3F       		.uleb128 0x3f
 3781 03af 19       		.uleb128 0x19
 3782 03b0 3C       		.uleb128 0x3c
 3783 03b1 19       		.uleb128 0x19
 3784 03b2 00       		.byte	0
 3785 03b3 00       		.byte	0
 3786 03b4 46       		.uleb128 0x46
 3787 03b5 2E       		.uleb128 0x2e
 3788 03b6 01       		.byte	0x1
 3789 03b7 3F       		.uleb128 0x3f
 3790 03b8 19       		.uleb128 0x19
 3791 03b9 03       		.uleb128 0x3
 3792 03ba 0E       		.uleb128 0xe
 3793 03bb 3A       		.uleb128 0x3a
 3794 03bc 0B       		.uleb128 0xb
 3795 03bd 3B       		.uleb128 0x3b
 3796 03be 05       		.uleb128 0x5
 3797 03bf 27       		.uleb128 0x27
 3798 03c0 19       		.uleb128 0x19
 3799 03c1 3C       		.uleb128 0x3c
 3800 03c2 19       		.uleb128 0x19
 3801 03c3 01       		.uleb128 0x1
 3802 03c4 13       		.uleb128 0x13
 3803 03c5 00       		.byte	0
 3804 03c6 00       		.byte	0
 3805 03c7 47       		.uleb128 0x47
 3806 03c8 2E       		.uleb128 0x2e
 3807 03c9 01       		.byte	0x1
 3808 03ca 3F       		.uleb128 0x3f
 3809 03cb 19       		.uleb128 0x19
 3810 03cc 03       		.uleb128 0x3
 3811 03cd 0E       		.uleb128 0xe
 3812 03ce 3A       		.uleb128 0x3a
 3813 03cf 0B       		.uleb128 0xb
ARM GAS  /tmp/ccNFGvrg.s 			page 68


 3814 03d0 3B       		.uleb128 0x3b
 3815 03d1 05       		.uleb128 0x5
 3816 03d2 27       		.uleb128 0x27
 3817 03d3 19       		.uleb128 0x19
 3818 03d4 49       		.uleb128 0x49
 3819 03d5 13       		.uleb128 0x13
 3820 03d6 3C       		.uleb128 0x3c
 3821 03d7 19       		.uleb128 0x19
 3822 03d8 01       		.uleb128 0x1
 3823 03d9 13       		.uleb128 0x13
 3824 03da 00       		.byte	0
 3825 03db 00       		.byte	0
 3826 03dc 48       		.uleb128 0x48
 3827 03dd 2E       		.uleb128 0x2e
 3828 03de 00       		.byte	0
 3829 03df 3F       		.uleb128 0x3f
 3830 03e0 19       		.uleb128 0x19
 3831 03e1 03       		.uleb128 0x3
 3832 03e2 0E       		.uleb128 0xe
 3833 03e3 3A       		.uleb128 0x3a
 3834 03e4 0B       		.uleb128 0xb
 3835 03e5 3B       		.uleb128 0x3b
 3836 03e6 05       		.uleb128 0x5
 3837 03e7 27       		.uleb128 0x27
 3838 03e8 19       		.uleb128 0x19
 3839 03e9 3C       		.uleb128 0x3c
 3840 03ea 19       		.uleb128 0x19
 3841 03eb 00       		.byte	0
 3842 03ec 00       		.byte	0
 3843 03ed 00       		.byte	0
 3844              		.section	.debug_loc,"",%progbits
 3845              	.Ldebug_loc0:
 3846              	.LLST0:
 3847 0000 00000000 		.4byte	.LVL1
 3848 0004 16000000 		.4byte	.LVL4
 3849 0008 0100     		.2byte	0x1
 3850 000a 50       		.byte	0x50
 3851 000b 16000000 		.4byte	.LVL4
 3852 000f 48000000 		.4byte	.LVL8
 3853 0013 0100     		.2byte	0x1
 3854 0015 55       		.byte	0x55
 3855 0016 48000000 		.4byte	.LVL8
 3856 001a 4B000000 		.4byte	.LVL9-1
 3857 001e 0500     		.2byte	0x5
 3858 0020 73       		.byte	0x73
 3859 0021 04       		.sleb128 4
 3860 0022 06       		.byte	0x6
 3861 0023 23       		.byte	0x23
 3862 0024 20       		.uleb128 0x20
 3863 0025 4B000000 		.4byte	.LVL9-1
 3864 0029 4C000000 		.4byte	.LVL9
 3865 002d 0400     		.2byte	0x4
 3866 002f F3       		.byte	0xf3
 3867 0030 01       		.uleb128 0x1
 3868 0031 50       		.byte	0x50
 3869 0032 9F       		.byte	0x9f
 3870 0033 4C000000 		.4byte	.LVL9
ARM GAS  /tmp/ccNFGvrg.s 			page 69


 3871 0037 B8000000 		.4byte	.LVL21
 3872 003b 0100     		.2byte	0x1
 3873 003d 55       		.byte	0x55
 3874 003e B8000000 		.4byte	.LVL21
 3875 0042 C8000000 		.4byte	.LFE228
 3876 0046 0100     		.2byte	0x1
 3877 0048 50       		.byte	0x50
 3878 0049 00000000 		.4byte	0
 3879 004d 00000000 		.4byte	0
 3880              	.LLST1:
 3881 0051 08000000 		.4byte	.LVL2
 3882 0055 48000000 		.4byte	.LVL8
 3883 0059 0100     		.2byte	0x1
 3884 005b 54       		.byte	0x54
 3885 005c 48000000 		.4byte	.LVL8
 3886 0060 4B000000 		.4byte	.LVL9-1
 3887 0064 0200     		.2byte	0x2
 3888 0066 73       		.byte	0x73
 3889 0067 04       		.sleb128 4
 3890 0068 4C000000 		.4byte	.LVL9
 3891 006c C2000000 		.4byte	.LVL22
 3892 0070 0100     		.2byte	0x1
 3893 0072 54       		.byte	0x54
 3894 0073 00000000 		.4byte	0
 3895 0077 00000000 		.4byte	0
 3896              	.LLST2:
 3897 007b 14000000 		.4byte	.LVL3
 3898 007f 24000000 		.4byte	.LVL5
 3899 0083 0100     		.2byte	0x1
 3900 0085 52       		.byte	0x52
 3901 0086 4C000000 		.4byte	.LVL9
 3902 008a 5B000000 		.4byte	.LVL10-1
 3903 008e 0100     		.2byte	0x1
 3904 0090 52       		.byte	0x52
 3905 0091 5E000000 		.4byte	.LVL11
 3906 0095 B8000000 		.4byte	.LVL21
 3907 0099 0100     		.2byte	0x1
 3908 009b 52       		.byte	0x52
 3909 009c 00000000 		.4byte	0
 3910 00a0 00000000 		.4byte	0
 3911              	.LLST3:
 3912 00a4 24000000 		.4byte	.LVL5
 3913 00a8 48000000 		.4byte	.LVL8
 3914 00ac 0100     		.2byte	0x1
 3915 00ae 55       		.byte	0x55
 3916 00af 48000000 		.4byte	.LVL8
 3917 00b3 4B000000 		.4byte	.LVL9-1
 3918 00b7 0500     		.2byte	0x5
 3919 00b9 73       		.byte	0x73
 3920 00ba 04       		.sleb128 4
 3921 00bb 06       		.byte	0x6
 3922 00bc 23       		.byte	0x23
 3923 00bd 20       		.uleb128 0x20
 3924 00be 4B000000 		.4byte	.LVL9-1
 3925 00c2 4C000000 		.4byte	.LVL9
 3926 00c6 0400     		.2byte	0x4
 3927 00c8 F3       		.byte	0xf3
ARM GAS  /tmp/ccNFGvrg.s 			page 70


 3928 00c9 01       		.uleb128 0x1
 3929 00ca 50       		.byte	0x50
 3930 00cb 9F       		.byte	0x9f
 3931 00cc 00000000 		.4byte	0
 3932 00d0 00000000 		.4byte	0
 3933              	.LLST4:
 3934 00d4 24000000 		.4byte	.LVL5
 3935 00d8 48000000 		.4byte	.LVL8
 3936 00dc 0100     		.2byte	0x1
 3937 00de 54       		.byte	0x54
 3938 00df 48000000 		.4byte	.LVL8
 3939 00e3 4B000000 		.4byte	.LVL9-1
 3940 00e7 0200     		.2byte	0x2
 3941 00e9 73       		.byte	0x73
 3942 00ea 04       		.sleb128 4
 3943 00eb 00000000 		.4byte	0
 3944 00ef 00000000 		.4byte	0
 3945              	.LLST5:
 3946 00f3 24000000 		.4byte	.LVL5
 3947 00f7 28000000 		.4byte	.LVL6
 3948 00fb 0100     		.2byte	0x1
 3949 00fd 55       		.byte	0x55
 3950 00fe 28000000 		.4byte	.LVL6
 3951 0102 4B000000 		.4byte	.LVL9-1
 3952 0106 0100     		.2byte	0x1
 3953 0108 53       		.byte	0x53
 3954 0109 00000000 		.4byte	0
 3955 010d 00000000 		.4byte	0
 3956              	.LLST6:
 3957 0111 4C000000 		.4byte	.LVL9
 3958 0115 5B000000 		.4byte	.LVL10-1
 3959 0119 0100     		.2byte	0x1
 3960 011b 52       		.byte	0x52
 3961 011c 00000000 		.4byte	0
 3962 0120 00000000 		.4byte	0
 3963              	.LLST7:
 3964 0124 5E000000 		.4byte	.LVL11
 3965 0128 86000000 		.4byte	.LVL15
 3966 012c 0100     		.2byte	0x1
 3967 012e 52       		.byte	0x52
 3968 012f 00000000 		.4byte	0
 3969 0133 00000000 		.4byte	0
 3970              	.LLST8:
 3971 0137 66000000 		.4byte	.LVL12
 3972 013b 86000000 		.4byte	.LVL15
 3973 013f 0100     		.2byte	0x1
 3974 0141 56       		.byte	0x56
 3975 0142 00000000 		.4byte	0
 3976 0146 00000000 		.4byte	0
 3977              	.LLST9:
 3978 014a 66000000 		.4byte	.LVL12
 3979 014e 86000000 		.4byte	.LVL15
 3980 0152 0100     		.2byte	0x1
 3981 0154 52       		.byte	0x52
 3982 0155 00000000 		.4byte	0
 3983 0159 00000000 		.4byte	0
 3984              	.LLST10:
ARM GAS  /tmp/ccNFGvrg.s 			page 71


 3985 015d 66000000 		.4byte	.LVL12
 3986 0161 6E000000 		.4byte	.LVL13
 3987 0165 0100     		.2byte	0x1
 3988 0167 56       		.byte	0x56
 3989 0168 6E000000 		.4byte	.LVL13
 3990 016c 86000000 		.4byte	.LVL15
 3991 0170 0100     		.2byte	0x1
 3992 0172 53       		.byte	0x53
 3993 0173 00000000 		.4byte	0
 3994 0177 00000000 		.4byte	0
 3995              	.LLST11:
 3996 017b 86000000 		.4byte	.LVL15
 3997 017f AE000000 		.4byte	.LVL19
 3998 0183 0100     		.2byte	0x1
 3999 0185 52       		.byte	0x52
 4000 0186 AE000000 		.4byte	.LVL19
 4001 018a B2000000 		.4byte	.LVL20
 4002 018e 0200     		.2byte	0x2
 4003 0190 73       		.byte	0x73
 4004 0191 04       		.sleb128 4
 4005 0192 00000000 		.4byte	0
 4006 0196 00000000 		.4byte	0
 4007              	.LLST12:
 4008 019a 8E000000 		.4byte	.LVL16
 4009 019e B8000000 		.4byte	.LVL21
 4010 01a2 0100     		.2byte	0x1
 4011 01a4 56       		.byte	0x56
 4012 01a5 00000000 		.4byte	0
 4013 01a9 00000000 		.4byte	0
 4014              	.LLST13:
 4015 01ad 8E000000 		.4byte	.LVL16
 4016 01b1 AE000000 		.4byte	.LVL19
 4017 01b5 0100     		.2byte	0x1
 4018 01b7 52       		.byte	0x52
 4019 01b8 AE000000 		.4byte	.LVL19
 4020 01bc B2000000 		.4byte	.LVL20
 4021 01c0 0200     		.2byte	0x2
 4022 01c2 73       		.byte	0x73
 4023 01c3 04       		.sleb128 4
 4024 01c4 00000000 		.4byte	0
 4025 01c8 00000000 		.4byte	0
 4026              	.LLST14:
 4027 01cc 8E000000 		.4byte	.LVL16
 4028 01d0 96000000 		.4byte	.LVL17
 4029 01d4 0100     		.2byte	0x1
 4030 01d6 56       		.byte	0x56
 4031 01d7 96000000 		.4byte	.LVL17
 4032 01db B2000000 		.4byte	.LVL20
 4033 01df 0100     		.2byte	0x1
 4034 01e1 53       		.byte	0x53
 4035 01e2 00000000 		.4byte	0
 4036 01e6 00000000 		.4byte	0
 4037              	.LLST15:
 4038 01ea 00000000 		.4byte	.LVL23
 4039 01ee 0B000000 		.4byte	.LVL24-1
 4040 01f2 0100     		.2byte	0x1
 4041 01f4 50       		.byte	0x50
ARM GAS  /tmp/ccNFGvrg.s 			page 72


 4042 01f5 0B000000 		.4byte	.LVL24-1
 4043 01f9 14000000 		.4byte	.LFE227
 4044 01fd 0400     		.2byte	0x4
 4045 01ff F3       		.byte	0xf3
 4046 0200 01       		.uleb128 0x1
 4047 0201 50       		.byte	0x50
 4048 0202 9F       		.byte	0x9f
 4049 0203 00000000 		.4byte	0
 4050 0207 00000000 		.4byte	0
 4051              	.LLST16:
 4052 020b 00000000 		.4byte	.LVL25
 4053 020f 0C000000 		.4byte	.LVL27
 4054 0213 0100     		.2byte	0x1
 4055 0215 50       		.byte	0x50
 4056 0216 0C000000 		.4byte	.LVL27
 4057 021a 10000000 		.4byte	.LVL29
 4058 021e 0100     		.2byte	0x1
 4059 0220 53       		.byte	0x53
 4060 0221 10000000 		.4byte	.LVL29
 4061 0225 16000000 		.4byte	.LVL30
 4062 0229 0400     		.2byte	0x4
 4063 022b F3       		.byte	0xf3
 4064 022c 01       		.uleb128 0x1
 4065 022d 50       		.byte	0x50
 4066 022e 9F       		.byte	0x9f
 4067 022f 16000000 		.4byte	.LVL30
 4068 0233 26000000 		.4byte	.LVL32
 4069 0237 0100     		.2byte	0x1
 4070 0239 53       		.byte	0x53
 4071 023a 26000000 		.4byte	.LVL32
 4072 023e 30000000 		.4byte	.LFE229
 4073 0242 0200     		.2byte	0x2
 4074 0244 72       		.byte	0x72
 4075 0245 38       		.sleb128 56
 4076 0246 00000000 		.4byte	0
 4077 024a 00000000 		.4byte	0
 4078              	.LLST17:
 4079 024e 08000000 		.4byte	.LVL26
 4080 0252 0C000000 		.4byte	.LVL27
 4081 0256 0100     		.2byte	0x1
 4082 0258 50       		.byte	0x50
 4083 0259 0C000000 		.4byte	.LVL27
 4084 025d 10000000 		.4byte	.LVL29
 4085 0261 0100     		.2byte	0x1
 4086 0263 53       		.byte	0x53
 4087 0264 10000000 		.4byte	.LVL29
 4088 0268 16000000 		.4byte	.LVL30
 4089 026c 0400     		.2byte	0x4
 4090 026e F3       		.byte	0xf3
 4091 026f 01       		.uleb128 0x1
 4092 0270 50       		.byte	0x50
 4093 0271 9F       		.byte	0x9f
 4094 0272 16000000 		.4byte	.LVL30
 4095 0276 26000000 		.4byte	.LVL32
 4096 027a 0100     		.2byte	0x1
 4097 027c 53       		.byte	0x53
 4098 027d 26000000 		.4byte	.LVL32
ARM GAS  /tmp/ccNFGvrg.s 			page 73


 4099 0281 30000000 		.4byte	.LFE229
 4100 0285 0200     		.2byte	0x2
 4101 0287 72       		.byte	0x72
 4102 0288 38       		.sleb128 56
 4103 0289 00000000 		.4byte	0
 4104 028d 00000000 		.4byte	0
 4105              	.LLST18:
 4106 0291 16000000 		.4byte	.LVL30
 4107 0295 26000000 		.4byte	.LVL32
 4108 0299 0100     		.2byte	0x1
 4109 029b 53       		.byte	0x53
 4110 029c 26000000 		.4byte	.LVL32
 4111 02a0 30000000 		.4byte	.LFE229
 4112 02a4 0200     		.2byte	0x2
 4113 02a6 72       		.byte	0x72
 4114 02a7 38       		.sleb128 56
 4115 02a8 00000000 		.4byte	0
 4116 02ac 00000000 		.4byte	0
 4117              	.LLST19:
 4118 02b0 0E000000 		.4byte	.LVL28
 4119 02b4 16000000 		.4byte	.LVL30
 4120 02b8 0200     		.2byte	0x2
 4121 02ba 30       		.byte	0x30
 4122 02bb 9F       		.byte	0x9f
 4123 02bc 24000000 		.4byte	.LVL31
 4124 02c0 30000000 		.4byte	.LFE229
 4125 02c4 0200     		.2byte	0x2
 4126 02c6 30       		.byte	0x30
 4127 02c7 9F       		.byte	0x9f
 4128 02c8 00000000 		.4byte	0
 4129 02cc 00000000 		.4byte	0
 4130              	.LLST20:
 4131 02d0 00000000 		.4byte	.LVL33
 4132 02d4 08000000 		.4byte	.LVL34
 4133 02d8 0100     		.2byte	0x1
 4134 02da 50       		.byte	0x50
 4135 02db 08000000 		.4byte	.LVL34
 4136 02df 0A000000 		.4byte	.LVL35
 4137 02e3 0100     		.2byte	0x1
 4138 02e5 53       		.byte	0x53
 4139 02e6 0A000000 		.4byte	.LVL35
 4140 02ea 16000000 		.4byte	.LVL36
 4141 02ee 0100     		.2byte	0x1
 4142 02f0 50       		.byte	0x50
 4143 02f1 16000000 		.4byte	.LVL36
 4144 02f5 20000000 		.4byte	.LFE230
 4145 02f9 0100     		.2byte	0x1
 4146 02fb 53       		.byte	0x53
 4147 02fc 00000000 		.4byte	0
 4148 0300 00000000 		.4byte	0
 4149              	.LLST21:
 4150 0304 0A000000 		.4byte	.LVL35
 4151 0308 16000000 		.4byte	.LVL36
 4152 030c 0100     		.2byte	0x1
 4153 030e 50       		.byte	0x50
 4154 030f 16000000 		.4byte	.LVL36
 4155 0313 20000000 		.4byte	.LFE230
ARM GAS  /tmp/ccNFGvrg.s 			page 74


 4156 0317 0100     		.2byte	0x1
 4157 0319 53       		.byte	0x53
 4158 031a 00000000 		.4byte	0
 4159 031e 00000000 		.4byte	0
 4160              	.LLST22:
 4161 0322 00000000 		.4byte	.LVL37
 4162 0326 38000000 		.4byte	.LVL46
 4163 032a 0100     		.2byte	0x1
 4164 032c 50       		.byte	0x50
 4165 032d 38000000 		.4byte	.LVL46
 4166 0331 47000000 		.4byte	.LVL48-1
 4167 0335 0100     		.2byte	0x1
 4168 0337 53       		.byte	0x53
 4169 0338 47000000 		.4byte	.LVL48-1
 4170 033c 50000000 		.4byte	.LVL49
 4171 0340 0400     		.2byte	0x4
 4172 0342 F3       		.byte	0xf3
 4173 0343 01       		.uleb128 0x1
 4174 0344 50       		.byte	0x50
 4175 0345 9F       		.byte	0x9f
 4176 0346 50000000 		.4byte	.LVL49
 4177 034a 60000000 		.4byte	.LFE231
 4178 034e 0100     		.2byte	0x1
 4179 0350 50       		.byte	0x50
 4180 0351 00000000 		.4byte	0
 4181 0355 00000000 		.4byte	0
 4182              	.LLST23:
 4183 0359 06000000 		.4byte	.LVL38
 4184 035d 5C000000 		.4byte	.LVL51
 4185 0361 0100     		.2byte	0x1
 4186 0363 55       		.byte	0x55
 4187 0364 00000000 		.4byte	0
 4188 0368 00000000 		.4byte	0
 4189              	.LLST24:
 4190 036c 18000000 		.4byte	.LVL40
 4191 0370 30000000 		.4byte	.LVL44
 4192 0374 0100     		.2byte	0x1
 4193 0376 53       		.byte	0x53
 4194 0377 00000000 		.4byte	0
 4195 037b 00000000 		.4byte	0
 4196              	.LLST25:
 4197 037f 12000000 		.4byte	.LVL39
 4198 0383 38000000 		.4byte	.LVL46
 4199 0387 0100     		.2byte	0x1
 4200 0389 50       		.byte	0x50
 4201 038a 38000000 		.4byte	.LVL46
 4202 038e 47000000 		.4byte	.LVL48-1
 4203 0392 0100     		.2byte	0x1
 4204 0394 53       		.byte	0x53
 4205 0395 47000000 		.4byte	.LVL48-1
 4206 0399 50000000 		.4byte	.LVL49
 4207 039d 0400     		.2byte	0x4
 4208 039f F3       		.byte	0xf3
 4209 03a0 01       		.uleb128 0x1
 4210 03a1 50       		.byte	0x50
 4211 03a2 9F       		.byte	0x9f
 4212 03a3 50000000 		.4byte	.LVL49
ARM GAS  /tmp/ccNFGvrg.s 			page 75


 4213 03a7 60000000 		.4byte	.LFE231
 4214 03ab 0100     		.2byte	0x1
 4215 03ad 50       		.byte	0x50
 4216 03ae 00000000 		.4byte	0
 4217 03b2 00000000 		.4byte	0
 4218              	.LLST27:
 4219 03b6 18000000 		.4byte	.LVL40
 4220 03ba 3C000000 		.4byte	.LVL47
 4221 03be 0100     		.2byte	0x1
 4222 03c0 51       		.byte	0x51
 4223 03c1 3C000000 		.4byte	.LVL47
 4224 03c5 47000000 		.4byte	.LVL48-1
 4225 03c9 0200     		.2byte	0x2
 4226 03cb 75       		.byte	0x75
 4227 03cc 08       		.sleb128 8
 4228 03cd 00000000 		.4byte	0
 4229 03d1 00000000 		.4byte	0
 4230              	.LLST28:
 4231 03d5 1A000000 		.4byte	.LVL41
 4232 03d9 2A000000 		.4byte	.LVL43
 4233 03dd 0100     		.2byte	0x1
 4234 03df 53       		.byte	0x53
 4235 03e0 00000000 		.4byte	0
 4236 03e4 00000000 		.4byte	0
 4237              	.LLST30:
 4238 03e8 36000000 		.4byte	.LVL45
 4239 03ec 47000000 		.4byte	.LVL48-1
 4240 03f0 0100     		.2byte	0x1
 4241 03f2 53       		.byte	0x53
 4242 03f3 47000000 		.4byte	.LVL48-1
 4243 03f7 50000000 		.4byte	.LVL49
 4244 03fb 0400     		.2byte	0x4
 4245 03fd F3       		.byte	0xf3
 4246 03fe 01       		.uleb128 0x1
 4247 03ff 50       		.byte	0x50
 4248 0400 9F       		.byte	0x9f
 4249 0401 00000000 		.4byte	0
 4250 0405 00000000 		.4byte	0
 4251              	.LLST31:
 4252 0409 36000000 		.4byte	.LVL45
 4253 040d 50000000 		.4byte	.LVL49
 4254 0411 0100     		.2byte	0x1
 4255 0413 54       		.byte	0x54
 4256 0414 00000000 		.4byte	0
 4257 0418 00000000 		.4byte	0
 4258              	.LLST32:
 4259 041c 48000000 		.4byte	.LVL48
 4260 0420 50000000 		.4byte	.LVL49
 4261 0424 0200     		.2byte	0x2
 4262 0426 30       		.byte	0x30
 4263 0427 9F       		.byte	0x9f
 4264 0428 54000000 		.4byte	.LVL50
 4265 042c 60000000 		.4byte	.LFE231
 4266 0430 0200     		.2byte	0x2
 4267 0432 30       		.byte	0x30
 4268 0433 9F       		.byte	0x9f
 4269 0434 00000000 		.4byte	0
ARM GAS  /tmp/ccNFGvrg.s 			page 76


 4270 0438 00000000 		.4byte	0
 4271              	.LLST33:
 4272 043c 00000000 		.4byte	.LVL52
 4273 0440 0A000000 		.4byte	.LVL53
 4274 0444 0100     		.2byte	0x1
 4275 0446 50       		.byte	0x50
 4276 0447 0A000000 		.4byte	.LVL53
 4277 044b 3E000000 		.4byte	.LVL62
 4278 044f 0100     		.2byte	0x1
 4279 0451 54       		.byte	0x54
 4280 0452 3E000000 		.4byte	.LVL62
 4281 0456 41000000 		.4byte	.LVL63-1
 4282 045a 0200     		.2byte	0x2
 4283 045c 70       		.byte	0x70
 4284 045d 38       		.sleb128 56
 4285 045e 41000000 		.4byte	.LVL63-1
 4286 0462 42000000 		.4byte	.LVL63
 4287 0466 0400     		.2byte	0x4
 4288 0468 F3       		.byte	0xf3
 4289 0469 01       		.uleb128 0x1
 4290 046a 50       		.byte	0x50
 4291 046b 9F       		.byte	0x9f
 4292 046c 42000000 		.4byte	.LVL63
 4293 0470 48000000 		.4byte	.LVL64
 4294 0474 0100     		.2byte	0x1
 4295 0476 54       		.byte	0x54
 4296 0477 48000000 		.4byte	.LVL64
 4297 047b 50000000 		.4byte	.LFE232
 4298 047f 0400     		.2byte	0x4
 4299 0481 F3       		.byte	0xf3
 4300 0482 01       		.uleb128 0x1
 4301 0483 50       		.byte	0x50
 4302 0484 9F       		.byte	0x9f
 4303 0485 00000000 		.4byte	0
 4304 0489 00000000 		.4byte	0
 4305              	.LLST34:
 4306 048d 0A000000 		.4byte	.LVL53
 4307 0491 34000000 		.4byte	.LVL61
 4308 0495 0100     		.2byte	0x1
 4309 0497 50       		.byte	0x50
 4310 0498 42000000 		.4byte	.LVL63
 4311 049c 50000000 		.4byte	.LFE232
 4312 04a0 0100     		.2byte	0x1
 4313 04a2 50       		.byte	0x50
 4314 04a3 00000000 		.4byte	0
 4315 04a7 00000000 		.4byte	0
 4316              	.LLST35:
 4317 04ab 14000000 		.4byte	.LVL55
 4318 04af 2C000000 		.4byte	.LVL59
 4319 04b3 0100     		.2byte	0x1
 4320 04b5 53       		.byte	0x53
 4321 04b6 00000000 		.4byte	0
 4322 04ba 00000000 		.4byte	0
 4323              	.LLST36:
 4324 04be 0E000000 		.4byte	.LVL54
 4325 04c2 3E000000 		.4byte	.LVL62
 4326 04c6 0100     		.2byte	0x1
ARM GAS  /tmp/ccNFGvrg.s 			page 77


 4327 04c8 54       		.byte	0x54
 4328 04c9 3E000000 		.4byte	.LVL62
 4329 04cd 41000000 		.4byte	.LVL63-1
 4330 04d1 0200     		.2byte	0x2
 4331 04d3 70       		.byte	0x70
 4332 04d4 38       		.sleb128 56
 4333 04d5 41000000 		.4byte	.LVL63-1
 4334 04d9 42000000 		.4byte	.LVL63
 4335 04dd 0400     		.2byte	0x4
 4336 04df F3       		.byte	0xf3
 4337 04e0 01       		.uleb128 0x1
 4338 04e1 50       		.byte	0x50
 4339 04e2 9F       		.byte	0x9f
 4340 04e3 42000000 		.4byte	.LVL63
 4341 04e7 48000000 		.4byte	.LVL64
 4342 04eb 0100     		.2byte	0x1
 4343 04ed 54       		.byte	0x54
 4344 04ee 48000000 		.4byte	.LVL64
 4345 04f2 50000000 		.4byte	.LFE232
 4346 04f6 0400     		.2byte	0x4
 4347 04f8 F3       		.byte	0xf3
 4348 04f9 01       		.uleb128 0x1
 4349 04fa 50       		.byte	0x50
 4350 04fb 9F       		.byte	0x9f
 4351 04fc 00000000 		.4byte	0
 4352 0500 00000000 		.4byte	0
 4353              	.LLST38:
 4354 0504 14000000 		.4byte	.LVL55
 4355 0508 41000000 		.4byte	.LVL63-1
 4356 050c 0100     		.2byte	0x1
 4357 050e 51       		.byte	0x51
 4358 050f 00000000 		.4byte	0
 4359 0513 00000000 		.4byte	0
 4360              	.LLST39:
 4361 0517 16000000 		.4byte	.LVL56
 4362 051b 26000000 		.4byte	.LVL58
 4363 051f 0100     		.2byte	0x1
 4364 0521 53       		.byte	0x53
 4365 0522 00000000 		.4byte	0
 4366 0526 00000000 		.4byte	0
 4367              	.LLST41:
 4368 052a 30000000 		.4byte	.LVL60
 4369 052e 3E000000 		.4byte	.LVL62
 4370 0532 0100     		.2byte	0x1
 4371 0534 54       		.byte	0x54
 4372 0535 3E000000 		.4byte	.LVL62
 4373 0539 41000000 		.4byte	.LVL63-1
 4374 053d 0200     		.2byte	0x2
 4375 053f 70       		.byte	0x70
 4376 0540 38       		.sleb128 56
 4377 0541 41000000 		.4byte	.LVL63-1
 4378 0545 42000000 		.4byte	.LVL63
 4379 0549 0400     		.2byte	0x4
 4380 054b F3       		.byte	0xf3
 4381 054c 01       		.uleb128 0x1
 4382 054d 50       		.byte	0x50
 4383 054e 9F       		.byte	0x9f
ARM GAS  /tmp/ccNFGvrg.s 			page 78


 4384 054f 00000000 		.4byte	0
 4385 0553 00000000 		.4byte	0
 4386              	.LLST42:
 4387 0557 30000000 		.4byte	.LVL60
 4388 055b 3E000000 		.4byte	.LVL62
 4389 055f 0100     		.2byte	0x1
 4390 0561 55       		.byte	0x55
 4391 0562 3E000000 		.4byte	.LVL62
 4392 0566 41000000 		.4byte	.LVL63-1
 4393 056a 0100     		.2byte	0x1
 4394 056c 50       		.byte	0x50
 4395 056d 00000000 		.4byte	0
 4396 0571 00000000 		.4byte	0
 4397              	.LLST43:
 4398 0575 08000000 		.4byte	.LVL65
 4399 0579 4E000000 		.4byte	.LVL74
 4400 057d 0100     		.2byte	0x1
 4401 057f 54       		.byte	0x54
 4402 0580 00000000 		.4byte	0
 4403 0584 00000000 		.4byte	0
 4404              	.LLST44:
 4405 0588 14000000 		.4byte	.LVL66
 4406 058c 25000000 		.4byte	.LVL67-1
 4407 0590 0100     		.2byte	0x1
 4408 0592 53       		.byte	0x53
 4409 0593 2A000000 		.4byte	.LVL68
 4410 0597 3A000000 		.4byte	.LVL71
 4411 059b 0100     		.2byte	0x1
 4412 059d 53       		.byte	0x53
 4413 059e 00000000 		.4byte	0
 4414 05a2 00000000 		.4byte	0
 4415              	.LLST46:
 4416 05a6 14000000 		.4byte	.LVL66
 4417 05aa 25000000 		.4byte	.LVL67-1
 4418 05ae 0100     		.2byte	0x1
 4419 05b0 50       		.byte	0x50
 4420 05b1 2C000000 		.4byte	.LVL69
 4421 05b5 3E000000 		.4byte	.LVL72
 4422 05b9 0100     		.2byte	0x1
 4423 05bb 52       		.byte	0x52
 4424 05bc 00000000 		.4byte	0
 4425 05c0 00000000 		.4byte	0
 4426              	.LLST47:
 4427 05c4 14000000 		.4byte	.LVL66
 4428 05c8 25000000 		.4byte	.LVL67-1
 4429 05cc 0100     		.2byte	0x1
 4430 05ce 53       		.byte	0x53
 4431 05cf 30000000 		.4byte	.LVL70
 4432 05d3 3A000000 		.4byte	.LVL71
 4433 05d7 0100     		.2byte	0x1
 4434 05d9 53       		.byte	0x53
 4435 05da 00000000 		.4byte	0
 4436 05de 00000000 		.4byte	0
 4437              		.section	.debug_aranges,"",%progbits
 4438 0000 54000000 		.4byte	0x54
 4439 0004 0200     		.2byte	0x2
 4440 0006 00000000 		.4byte	.Ldebug_info0
ARM GAS  /tmp/ccNFGvrg.s 			page 79


 4441 000a 04       		.byte	0x4
 4442 000b 00       		.byte	0
 4443 000c 0000     		.2byte	0
 4444 000e 0000     		.2byte	0
 4445 0010 00000000 		.4byte	.LFB226
 4446 0014 0A000000 		.4byte	.LFE226-.LFB226
 4447 0018 00000000 		.4byte	.LFB228
 4448 001c C8000000 		.4byte	.LFE228-.LFB228
 4449 0020 00000000 		.4byte	.LFB227
 4450 0024 14000000 		.4byte	.LFE227-.LFB227
 4451 0028 00000000 		.4byte	.LFB229
 4452 002c 30000000 		.4byte	.LFE229-.LFB229
 4453 0030 00000000 		.4byte	.LFB230
 4454 0034 20000000 		.4byte	.LFE230-.LFB230
 4455 0038 00000000 		.4byte	.LFB231
 4456 003c 60000000 		.4byte	.LFE231-.LFB231
 4457 0040 00000000 		.4byte	.LFB232
 4458 0044 50000000 		.4byte	.LFE232-.LFB232
 4459 0048 00000000 		.4byte	.LFB233
 4460 004c 54000000 		.4byte	.LFE233-.LFB233
 4461 0050 00000000 		.4byte	0
 4462 0054 00000000 		.4byte	0
 4463              		.section	.debug_ranges,"",%progbits
 4464              	.Ldebug_ranges0:
 4465 0000 0C000000 		.4byte	.LBB105
 4466 0004 44000000 		.4byte	.LBE105
 4467 0008 48000000 		.4byte	.LBB124
 4468 000c B8000000 		.4byte	.LBE124
 4469 0010 00000000 		.4byte	0
 4470 0014 00000000 		.4byte	0
 4471 0018 4C000000 		.4byte	.LBB108
 4472 001c 54000000 		.4byte	.LBE108
 4473 0020 56000000 		.4byte	.LBB111
 4474 0024 58000000 		.4byte	.LBE111
 4475 0028 00000000 		.4byte	0
 4476 002c 00000000 		.4byte	0
 4477 0030 5E000000 		.4byte	.LBB112
 4478 0034 64000000 		.4byte	.LBE112
 4479 0038 66000000 		.4byte	.LBB115
 4480 003c 6A000000 		.4byte	.LBE115
 4481 0040 00000000 		.4byte	0
 4482 0044 00000000 		.4byte	0
 4483 0048 86000000 		.4byte	.LBB118
 4484 004c 8C000000 		.4byte	.LBE118
 4485 0050 8E000000 		.4byte	.LBB121
 4486 0054 92000000 		.4byte	.LBE121
 4487 0058 00000000 		.4byte	0
 4488 005c 00000000 		.4byte	0
 4489 0060 08000000 		.4byte	.LBB151
 4490 0064 0E000000 		.4byte	.LBE151
 4491 0068 16000000 		.4byte	.LBB165
 4492 006c 24000000 		.4byte	.LBE165
 4493 0070 00000000 		.4byte	0
 4494 0074 00000000 		.4byte	0
 4495 0078 0E000000 		.4byte	.LBB156
 4496 007c 14000000 		.4byte	.LBE156
 4497 0080 24000000 		.4byte	.LBB166
ARM GAS  /tmp/ccNFGvrg.s 			page 80


 4498 0084 2A000000 		.4byte	.LBE166
 4499 0088 00000000 		.4byte	0
 4500 008c 00000000 		.4byte	0
 4501 0090 30000000 		.4byte	.LBB184
 4502 0094 32000000 		.4byte	.LBE184
 4503 0098 38000000 		.4byte	.LBB188
 4504 009c 3A000000 		.4byte	.LBE188
 4505 00a0 3C000000 		.4byte	.LBB189
 4506 00a4 3E000000 		.4byte	.LBE189
 4507 00a8 00000000 		.4byte	0
 4508 00ac 00000000 		.4byte	0
 4509 00b0 48000000 		.4byte	.LBB190
 4510 00b4 50000000 		.4byte	.LBE190
 4511 00b8 54000000 		.4byte	.LBB199
 4512 00bc 60000000 		.4byte	.LBE199
 4513 00c0 00000000 		.4byte	0
 4514 00c4 00000000 		.4byte	0
 4515 00c8 12000000 		.4byte	.LBB204
 4516 00cc 3C000000 		.4byte	.LBE204
 4517 00d0 3E000000 		.4byte	.LBB215
 4518 00d4 42000000 		.4byte	.LBE215
 4519 00d8 00000000 		.4byte	0
 4520 00dc 00000000 		.4byte	0
 4521 00e0 2A000000 		.4byte	.LBB209
 4522 00e4 2C000000 		.4byte	.LBE209
 4523 00e8 30000000 		.4byte	.LBB213
 4524 00ec 32000000 		.4byte	.LBE213
 4525 00f0 34000000 		.4byte	.LBB214
 4526 00f4 36000000 		.4byte	.LBE214
 4527 00f8 00000000 		.4byte	0
 4528 00fc 00000000 		.4byte	0
 4529 0100 04000000 		.4byte	.LBB216
 4530 0104 06000000 		.4byte	.LBE216
 4531 0108 08000000 		.4byte	.LBB223
 4532 010c 0C000000 		.4byte	.LBE223
 4533 0110 00000000 		.4byte	0
 4534 0114 00000000 		.4byte	0
 4535 0118 10000000 		.4byte	.LBB224
 4536 011c 26000000 		.4byte	.LBE224
 4537 0120 2A000000 		.4byte	.LBB235
 4538 0124 38000000 		.4byte	.LBE235
 4539 0128 00000000 		.4byte	0
 4540 012c 00000000 		.4byte	0
 4541 0130 14000000 		.4byte	.LBB225
 4542 0134 26000000 		.4byte	.LBE225
 4543 0138 32000000 		.4byte	.LBB234
 4544 013c 34000000 		.4byte	.LBE234
 4545 0140 00000000 		.4byte	0
 4546 0144 00000000 		.4byte	0
 4547 0148 14000000 		.4byte	.LBB226
 4548 014c 16000000 		.4byte	.LBE226
 4549 0150 18000000 		.4byte	.LBB229
 4550 0154 1C000000 		.4byte	.LBE229
 4551 0158 00000000 		.4byte	0
 4552 015c 00000000 		.4byte	0
 4553 0160 00000000 		.4byte	.LFB226
 4554 0164 0A000000 		.4byte	.LFE226
ARM GAS  /tmp/ccNFGvrg.s 			page 81


 4555 0168 00000000 		.4byte	.LFB228
 4556 016c C8000000 		.4byte	.LFE228
 4557 0170 00000000 		.4byte	.LFB227
 4558 0174 14000000 		.4byte	.LFE227
 4559 0178 00000000 		.4byte	.LFB229
 4560 017c 30000000 		.4byte	.LFE229
 4561 0180 00000000 		.4byte	.LFB230
 4562 0184 20000000 		.4byte	.LFE230
 4563 0188 00000000 		.4byte	.LFB231
 4564 018c 60000000 		.4byte	.LFE231
 4565 0190 00000000 		.4byte	.LFB232
 4566 0194 50000000 		.4byte	.LFE232
 4567 0198 00000000 		.4byte	.LFB233
 4568 019c 54000000 		.4byte	.LFE233
 4569 01a0 00000000 		.4byte	0
 4570 01a4 00000000 		.4byte	0
 4571              		.section	.debug_line,"",%progbits
 4572              	.Ldebug_line0:
 4573 0000 5D040000 		.section	.debug_str,"MS",%progbits,1
 4573      0200D801 
 4573      00000201 
 4573      FB0E0D00 
 4573      01010101 
 4574              	.LASF48:
 4575 0000 72656164 		.ascii	"ready_list_t\000"
 4575      795F6C69 
 4575      73745F74 
 4575      00
 4576              	.LASF83:
 4577 000d 7264796D 		.ascii	"rdymsg\000"
 4577      736700
 4578              	.LASF16:
 4579 0014 75696E74 		.ascii	"uint64_t\000"
 4579      36345F74 
 4579      00
 4580              	.LASF5:
 4581 001d 5F5F7569 		.ascii	"__uint8_t\000"
 4581      6E74385F 
 4581      7400
 4582              	.LASF80:
 4583 0027 706F7274 		.ascii	"port_intctx\000"
 4583      5F696E74 
 4583      63747800 
 4584              	.LASF67:
 4585 0033 73797374 		.ascii	"system_debug_t\000"
 4585      656D5F64 
 4585      65627567 
 4585      5F7400
 4586              	.LASF98:
 4587 0042 71756575 		.ascii	"queue_init\000"
 4587      655F696E 
 4587      697400
 4588              	.LASF93:
 4589 004d 706F7274 		.ascii	"port_lock\000"
 4589      5F6C6F63 
 4589      6B00
 4590              	.LASF12:
ARM GAS  /tmp/ccNFGvrg.s 			page 82


 4591 0057 6C6F6E67 		.ascii	"long long unsigned int\000"
 4591      206C6F6E 
 4591      6720756E 
 4591      7369676E 
 4591      65642069 
 4592              	.LASF84:
 4593 006e 65786974 		.ascii	"exitcode\000"
 4593      636F6465 
 4593      00
 4594              	.LASF74:
 4595 0077 6D61696E 		.ascii	"mainthread\000"
 4595      74687265 
 4595      616400
 4596              	.LASF64:
 4597 0082 76697274 		.ascii	"virtual_timers_list_t\000"
 4597      75616C5F 
 4597      74696D65 
 4597      72735F6C 
 4597      6973745F 
 4598              	.LASF115:
 4599 0098 49544D5F 		.ascii	"ITM_RxBuffer\000"
 4599      52784275 
 4599      66666572 
 4599      00
 4600              	.LASF47:
 4601 00a5 63685F74 		.ascii	"ch_threads_queue\000"
 4601      68726561 
 4601      64735F71 
 4601      75657565 
 4601      00
 4602              	.LASF28:
 4603 00b6 705F7072 		.ascii	"p_prio\000"
 4603      696F00
 4604              	.LASF92:
 4605 00bd 6D757465 		.ascii	"mutex_t\000"
 4605      785F7400 
 4606              	.LASF111:
 4607 00c5 63684D74 		.ascii	"chMtxUnlock\000"
 4607      78556E6C 
 4607      6F636B00 
 4608              	.LASF1:
 4609 00d1 7369676E 		.ascii	"signed char\000"
 4609      65642063 
 4609      68617200 
 4610              	.LASF42:
 4611 00dd 705F6D70 		.ascii	"p_mpool\000"
 4611      6F6F6C00 
 4612              	.LASF89:
 4613 00e5 6D5F7175 		.ascii	"m_queue\000"
 4613      65756500 
 4614              	.LASF73:
 4615 00ed 76746C69 		.ascii	"vtlist\000"
 4615      737400
 4616              	.LASF94:
 4617 00f4 706F7274 		.ascii	"port_unlock\000"
 4617      5F756E6C 
 4617      6F636B00 
ARM GAS  /tmp/ccNFGvrg.s 			page 83


 4618              	.LASF71:
 4619 0100 63685F73 		.ascii	"ch_system\000"
 4619      79737465 
 4619      6D00
 4620              	.LASF7:
 4621 010a 6C6F6E67 		.ascii	"long int\000"
 4621      20696E74 
 4621      00
 4622              	.LASF100:
 4623 0113 71756575 		.ascii	"queue_dequeue\000"
 4623      655F6465 
 4623      71756575 
 4623      6500
 4624              	.LASF19:
 4625 0121 74737461 		.ascii	"tstate_t\000"
 4625      74655F74 
 4625      00
 4626              	.LASF99:
 4627 012a 71756575 		.ascii	"queue_notempty\000"
 4627      655F6E6F 
 4627      74656D70 
 4627      747900
 4628              	.LASF105:
 4629 0139 63684D74 		.ascii	"chMtxTryLockS\000"
 4629      78547279 
 4629      4C6F636B 
 4629      5300
 4630              	.LASF30:
 4631 0147 705F6E65 		.ascii	"p_newer\000"
 4631      77657200 
 4632              	.LASF123:
 4633 014f 63685363 		.ascii	"chSchRescheduleS\000"
 4633      68526573 
 4633      63686564 
 4633      756C6553 
 4633      00
 4634              	.LASF53:
 4635 0160 725F6E65 		.ascii	"r_newer\000"
 4635      77657200 
 4636              	.LASF77:
 4637 0168 72656761 		.ascii	"regarm_t\000"
 4637      726D5F74 
 4637      00
 4638              	.LASF60:
 4639 0171 76745F70 		.ascii	"vt_prev\000"
 4639      72657600 
 4640              	.LASF10:
 4641 0179 6C6F6E67 		.ascii	"long long int\000"
 4641      206C6F6E 
 4641      6720696E 
 4641      7400
 4642              	.LASF95:
 4643 0187 76616C75 		.ascii	"value\000"
 4643      6500
 4644              	.LASF75:
 4645 018d 69646C65 		.ascii	"idle_thread_wa\000"
 4645      5F746872 
ARM GAS  /tmp/ccNFGvrg.s 			page 84


 4645      6561645F 
 4645      776100
 4646              	.LASF113:
 4647 019c 63684D74 		.ascii	"chMtxUnlockS\000"
 4647      78556E6C 
 4647      6F636B53 
 4647      00
 4648              	.LASF0:
 4649 01a9 756E7369 		.ascii	"unsigned int\000"
 4649      676E6564 
 4649      20696E74 
 4649      00
 4650              	.LASF59:
 4651 01b6 76745F6E 		.ascii	"vt_next\000"
 4651      65787400 
 4652              	.LASF61:
 4653 01be 76745F64 		.ascii	"vt_delta\000"
 4653      656C7461 
 4653      00
 4654              	.LASF37:
 4655 01c7 705F6D73 		.ascii	"p_msgqueue\000"
 4655      67717565 
 4655      756500
 4656              	.LASF4:
 4657 01d2 73686F72 		.ascii	"short unsigned int\000"
 4657      7420756E 
 4657      7369676E 
 4657      65642069 
 4657      6E7400
 4658              	.LASF44:
 4659 01e5 63685F74 		.ascii	"ch_thread\000"
 4659      68726561 
 4659      6400
 4660              	.LASF118:
 4661 01ef 63685363 		.ascii	"chSchWakeupS\000"
 4661      6857616B 
 4661      65757053 
 4661      00
 4662              	.LASF22:
 4663 01fc 6D73675F 		.ascii	"msg_t\000"
 4663      7400
 4664              	.LASF70:
 4665 0202 63685F73 		.ascii	"ch_system_t\000"
 4665      79737465 
 4665      6D5F7400 
 4666              	.LASF114:
 4667 020e 63684D74 		.ascii	"chMtxUnlockAll\000"
 4667      78556E6C 
 4667      6F636B41 
 4667      6C6C00
 4668              	.LASF112:
 4669 021d 6E657770 		.ascii	"newprio\000"
 4669      72696F00 
 4670              	.LASF18:
 4671 0225 746D6F64 		.ascii	"tmode_t\000"
 4671      655F7400 
 4672              	.LASF49:
ARM GAS  /tmp/ccNFGvrg.s 			page 85


 4673 022d 63685F72 		.ascii	"ch_ready_list\000"
 4673      65616479 
 4673      5F6C6973 
 4673      7400
 4674              	.LASF23:
 4675 023b 6576656E 		.ascii	"eventmask_t\000"
 4675      746D6173 
 4675      6B5F7400 
 4676              	.LASF122:
 4677 0247 63684D74 		.ascii	"chMtxTryLock\000"
 4677      78547279 
 4677      4C6F636B 
 4677      00
 4678              	.LASF6:
 4679 0254 5F5F696E 		.ascii	"__int32_t\000"
 4679      7433325F 
 4679      7400
 4680              	.LASF120:
 4681 025e 2E2E2F43 		.ascii	"../ChibiOS/os/rt/src/chmtx.c\000"
 4681      68696269 
 4681      4F532F6F 
 4681      732F7274 
 4681      2F737263 
 4682              	.LASF78:
 4683 027b 73746B61 		.ascii	"stkalign_t\000"
 4683      6C69676E 
 4683      5F7400
 4684              	.LASF36:
 4685 0286 705F7761 		.ascii	"p_waiting\000"
 4685      6974696E 
 4685      6700
 4686              	.LASF76:
 4687 0290 73697A65 		.ascii	"sizetype\000"
 4687      74797065 
 4687      00
 4688              	.LASF65:
 4689 0299 63685F76 		.ascii	"ch_virtual_timers_list\000"
 4689      69727475 
 4689      616C5F74 
 4689      696D6572 
 4689      735F6C69 
 4690              	.LASF97:
 4691 02b0 5F5F7365 		.ascii	"__set_BASEPRI\000"
 4691      745F4241 
 4691      53455052 
 4691      4900
 4692              	.LASF66:
 4693 02be 76745F6C 		.ascii	"vt_lasttime\000"
 4693      61737474 
 4693      696D6500 
 4694              	.LASF110:
 4695 02ca 63684D74 		.ascii	"chMtxLock\000"
 4695      784C6F63 
 4695      6B00
 4696              	.LASF31:
 4697 02d4 705F6F6C 		.ascii	"p_older\000"
 4697      64657200 
ARM GAS  /tmp/ccNFGvrg.s 			page 86


 4698              	.LASF52:
 4699 02dc 725F6374 		.ascii	"r_ctx\000"
 4699      7800
 4700              	.LASF82:
 4701 02e2 746D5F63 		.ascii	"tm_calibration_t\000"
 4701      616C6962 
 4701      72617469 
 4701      6F6E5F74 
 4701      00
 4702              	.LASF91:
 4703 02f3 6D5F6E65 		.ascii	"m_next\000"
 4703      787400
 4704              	.LASF55:
 4705 02fa 725F6375 		.ascii	"r_current\000"
 4705      7272656E 
 4705      7400
 4706              	.LASF54:
 4707 0304 725F6F6C 		.ascii	"r_older\000"
 4707      64657200 
 4708              	.LASF11:
 4709 030c 5F5F7569 		.ascii	"__uint64_t\000"
 4709      6E743634 
 4709      5F7400
 4710              	.LASF20:
 4711 0317 74726566 		.ascii	"trefs_t\000"
 4711      735F7400 
 4712              	.LASF57:
 4713 031f 76697274 		.ascii	"virtual_timer_t\000"
 4713      75616C5F 
 4713      74696D65 
 4713      725F7400 
 4714              	.LASF27:
 4715 032f 705F7072 		.ascii	"p_prev\000"
 4715      657600
 4716              	.LASF21:
 4717 0336 74707269 		.ascii	"tprio_t\000"
 4717      6F5F7400 
 4718              	.LASF88:
 4719 033e 6D757465 		.ascii	"mutex\000"
 4719      7800
 4720              	.LASF108:
 4721 0344 63684D74 		.ascii	"chMtxObjectInit\000"
 4721      784F626A 
 4721      65637449 
 4721      6E697400 
 4722              	.LASF68:
 4723 0354 63685F73 		.ascii	"ch_system_debug\000"
 4723      79737465 
 4723      6D5F6465 
 4723      62756700 
 4724              	.LASF96:
 4725 0364 5F426F6F 		.ascii	"_Bool\000"
 4725      6C00
 4726              	.LASF14:
 4727 036a 696E7433 		.ascii	"int32_t\000"
 4727      325F7400 
 4728              	.LASF2:
ARM GAS  /tmp/ccNFGvrg.s 			page 87


 4729 0372 756E7369 		.ascii	"unsigned char\000"
 4729      676E6564 
 4729      20636861 
 4729      7200
 4730              	.LASF33:
 4731 0380 705F7374 		.ascii	"p_state\000"
 4731      61746500 
 4732              	.LASF40:
 4733 0388 705F6D74 		.ascii	"p_mtxlist\000"
 4733      786C6973 
 4733      7400
 4734              	.LASF3:
 4735 0392 73686F72 		.ascii	"short int\000"
 4735      7420696E 
 4735      7400
 4736              	.LASF51:
 4737 039c 725F7072 		.ascii	"r_prio\000"
 4737      696F00
 4738              	.LASF86:
 4739 03a3 65776D61 		.ascii	"ewmask\000"
 4739      736B00
 4740              	.LASF26:
 4741 03aa 705F6E65 		.ascii	"p_next\000"
 4741      787400
 4742              	.LASF119:
 4743 03b1 474E5520 		.ascii	"GNU C 4.9.3 20141119 (release) [ARM/embedded-4_9-br"
 4743      4320342E 
 4743      392E3320 
 4743      32303134 
 4743      31313139 
 4744 03e4 616E6368 		.ascii	"anch revision 218278] -mcpu=cortex-m4 -mfloat-abi=h"
 4744      20726576 
 4744      6973696F 
 4744      6E203231 
 4744      38323738 
 4745 0417 61726420 		.ascii	"ard -mfpu=fpv4-sp-d16 -mno-thumb-interwork -mthumb "
 4745      2D6D6670 
 4745      753D6670 
 4745      76342D73 
 4745      702D6431 
 4746 044a 2D676764 		.ascii	"-ggdb -O2 -fomit-frame-pointer -falign-functions=16"
 4746      62202D4F 
 4746      32202D66 
 4746      6F6D6974 
 4746      2D667261 
 4747 047d 202D6666 		.ascii	" -ffunction-sections -fdata-sections -fno-common -f"
 4747      756E6374 
 4747      696F6E2D 
 4747      73656374 
 4747      696F6E73 
 4748 04b0 73696E67 		.ascii	"single-precision-constant\000"
 4748      6C652D70 
 4748      72656369 
 4748      73696F6E 
 4748      2D636F6E 
 4749              	.LASF34:
 4750 04ca 705F666C 		.ascii	"p_flags\000"
ARM GAS  /tmp/ccNFGvrg.s 			page 88


 4750      61677300 
 4751              	.LASF104:
 4752 04d2 5F5F6675 		.ascii	"__func__\000"
 4752      6E635F5F 
 4752      00
 4753              	.LASF102:
 4754 04db 63685379 		.ascii	"chSysLock\000"
 4754      734C6F63 
 4754      6B00
 4755              	.LASF58:
 4756 04e5 63685F76 		.ascii	"ch_virtual_timer\000"
 4756      69727475 
 4756      616C5F74 
 4756      696D6572 
 4756      00
 4757              	.LASF117:
 4758 04f6 63685363 		.ascii	"chSchGoSleepS\000"
 4758      68476F53 
 4758      6C656570 
 4758      5300
 4759              	.LASF39:
 4760 0504 705F6570 		.ascii	"p_epending\000"
 4760      656E6469 
 4760      6E6700
 4761              	.LASF15:
 4762 050f 75696E74 		.ascii	"uint32_t\000"
 4762      33325F74 
 4762      00
 4763              	.LASF50:
 4764 0518 725F7175 		.ascii	"r_queue\000"
 4764      65756500 
 4765              	.LASF116:
 4766 0520 63685363 		.ascii	"chSchReadyI\000"
 4766      68526561 
 4766      64794900 
 4767              	.LASF45:
 4768 052c 63685F74 		.ascii	"ch_threads_list\000"
 4768      68726561 
 4768      64735F6C 
 4768      69737400 
 4769              	.LASF121:
 4770 053c 2F686F6D 		.ascii	"/home/bhimebau/forge/annsynth/src\000"
 4770      652F6268 
 4770      696D6562 
 4770      61752F66 
 4770      6F726765 
 4771              	.LASF9:
 4772 055e 6C6F6E67 		.ascii	"long unsigned int\000"
 4772      20756E73 
 4772      69676E65 
 4772      6420696E 
 4772      7400
 4773              	.LASF87:
 4774 0570 63686172 		.ascii	"char\000"
 4774      00
 4775              	.LASF25:
 4776 0575 74687265 		.ascii	"thread_t\000"
ARM GAS  /tmp/ccNFGvrg.s 			page 89


 4776      61645F74 
 4776      00
 4777              	.LASF107:
 4778 057e 71756575 		.ascii	"queue_fifo_remove\000"
 4778      655F6669 
 4778      666F5F72 
 4778      656D6F76 
 4778      6500
 4779              	.LASF24:
 4780 0590 73797374 		.ascii	"systime_t\000"
 4780      696D655F 
 4780      7400
 4781              	.LASF41:
 4782 059a 705F7265 		.ascii	"p_realprio\000"
 4782      616C7072 
 4782      696F00
 4783              	.LASF56:
 4784 05a5 76746675 		.ascii	"vtfunc_t\000"
 4784      6E635F74 
 4784      00
 4785              	.LASF8:
 4786 05ae 5F5F7569 		.ascii	"__uint32_t\000"
 4786      6E743332 
 4786      5F7400
 4787              	.LASF106:
 4788 05b9 63684D74 		.ascii	"chMtxQueueNotEmptyS\000"
 4788      78517565 
 4788      75654E6F 
 4788      74456D70 
 4788      74795300 
 4789              	.LASF69:
 4790 05cd 70616E69 		.ascii	"panic_msg\000"
 4790      635F6D73 
 4790      6700
 4791              	.LASF81:
 4792 05d7 6F666673 		.ascii	"offset\000"
 4792      657400
 4793              	.LASF79:
 4794 05de 636F6E74 		.ascii	"context\000"
 4794      65787400 
 4795              	.LASF17:
 4796 05e6 7274636E 		.ascii	"rtcnt_t\000"
 4796      745F7400 
 4797              	.LASF63:
 4798 05ee 76745F70 		.ascii	"vt_par\000"
 4798      617200
 4799              	.LASF46:
 4800 05f5 74687265 		.ascii	"threads_queue_t\000"
 4800      6164735F 
 4800      71756575 
 4800      655F7400 
 4801              	.LASF35:
 4802 0605 705F7265 		.ascii	"p_refs\000"
 4802      667300
 4803              	.LASF72:
 4804 060c 726C6973 		.ascii	"rlist\000"
 4804      7400
ARM GAS  /tmp/ccNFGvrg.s 			page 90


 4805              	.LASF13:
 4806 0612 75696E74 		.ascii	"uint8_t\000"
 4806      385F7400 
 4807              	.LASF85:
 4808 061a 77746F62 		.ascii	"wtobjp\000"
 4808      6A7000
 4809              	.LASF32:
 4810 0621 705F6E61 		.ascii	"p_name\000"
 4810      6D6500
 4811              	.LASF43:
 4812 0628 74687265 		.ascii	"threads_list_t\000"
 4812      6164735F 
 4812      6C697374 
 4812      5F7400
 4813              	.LASF103:
 4814 0637 63685379 		.ascii	"chSysUnlock\000"
 4814      73556E6C 
 4814      6F636B00 
 4815              	.LASF38:
 4816 0643 705F6D73 		.ascii	"p_msg\000"
 4816      6700
 4817              	.LASF109:
 4818 0649 63684D74 		.ascii	"chMtxLockS\000"
 4818      784C6F63 
 4818      6B5300
 4819              	.LASF101:
 4820 0654 71756575 		.ascii	"queue_prio_insert\000"
 4820      655F7072 
 4820      696F5F69 
 4820      6E736572 
 4820      7400
 4821              	.LASF90:
 4822 0666 6D5F6F77 		.ascii	"m_owner\000"
 4822      6E657200 
 4823              	.LASF29:
 4824 066e 705F6374 		.ascii	"p_ctx\000"
 4824      7800
 4825              	.LASF62:
 4826 0674 76745F66 		.ascii	"vt_func\000"
 4826      756E6300 
 4827              		.ident	"GCC: (GNU Tools for ARM Embedded Processors) 4.9.3 20141119 (release) [ARM/embedded-4_9-br
ARM GAS  /tmp/ccNFGvrg.s 			page 91


DEFINED SYMBOLS
                            *ABS*:00000000 chmtx.c
     /tmp/ccNFGvrg.s:21     .text.chMtxObjectInit:00000000 $t
     /tmp/ccNFGvrg.s:27     .text.chMtxObjectInit:00000000 chMtxObjectInit
     /tmp/ccNFGvrg.s:53     .text.chMtxLockS:00000000 $t
     /tmp/ccNFGvrg.s:59     .text.chMtxLockS:00000000 chMtxLockS
     /tmp/ccNFGvrg.s:299    .text.chMtxLockS:000000c4 $d
     /tmp/ccNFGvrg.s:304    .text.chMtxLock:00000000 $t
     /tmp/ccNFGvrg.s:310    .text.chMtxLock:00000000 chMtxLock
     /tmp/ccNFGvrg.s:360    .text.chMtxTryLock:00000000 $t
     /tmp/ccNFGvrg.s:366    .text.chMtxTryLock:00000000 chMtxTryLock
     /tmp/ccNFGvrg.s:465    .text.chMtxTryLock:0000002c $d
     /tmp/ccNFGvrg.s:470    .text.chMtxTryLockS:00000000 $t
     /tmp/ccNFGvrg.s:476    .text.chMtxTryLockS:00000000 chMtxTryLockS
     /tmp/ccNFGvrg.s:514    .text.chMtxTryLockS:0000001c $d
     /tmp/ccNFGvrg.s:521    .text.chMtxUnlock:00000000 $t
     /tmp/ccNFGvrg.s:527    .text.chMtxUnlock:00000000 chMtxUnlock
     /tmp/ccNFGvrg.s:692    .text.chMtxUnlock:0000005c $d
     /tmp/ccNFGvrg.s:702    .text.chMtxUnlockS:00000000 $t
     /tmp/ccNFGvrg.s:708    .text.chMtxUnlockS:00000000 chMtxUnlockS
     /tmp/ccNFGvrg.s:841    .text.chMtxUnlockS:0000004c $d
     /tmp/ccNFGvrg.s:846    .text.chMtxUnlockAll:00000000 $t
     /tmp/ccNFGvrg.s:852    .text.chMtxUnlockAll:00000000 chMtxUnlockAll
     /tmp/ccNFGvrg.s:991    .text.chMtxUnlockAll:00000050 $d
                     .debug_frame:00000010 $d
     /tmp/ccNFGvrg.s:303    .text.chMtxLockS:000000c8 $t
     /tmp/ccNFGvrg.s:1000   .text.chMtxUnlockAll:00000054 $t

UNDEFINED SYMBOLS
chSchGoSleepS
chSchReadyI
ch
chSchWakeupS
chSchRescheduleS
