ARM GAS  /tmp/cc7i0CK9.s 			page 1


   1              		.syntax unified
   2              		.cpu cortex-m4
   3              		.eabi_attribute 27, 3
   4              		.eabi_attribute 28, 1
   5              		.fpu fpv4-sp-d16
   6              		.eabi_attribute 20, 1
   7              		.eabi_attribute 21, 1
   8              		.eabi_attribute 23, 3
   9              		.eabi_attribute 24, 1
  10              		.eabi_attribute 25, 1
  11              		.eabi_attribute 26, 1
  12              		.eabi_attribute 30, 2
  13              		.eabi_attribute 34, 1
  14              		.eabi_attribute 18, 4
  15              		.thumb
  16              		.file	"chprintf.c"
  17              		.text
  18              	.Ltext0:
  19              		.cfi_sections	.debug_frame
  20              		.section	.text.long_to_string_with_divisor.constprop.0,"ax",%progbits
  21              		.align	2
  22              		.p2align 4,,15
  23              		.thumb
  24              		.thumb_func
  25              		.type	long_to_string_with_divisor.constprop.0, %function
  26              	long_to_string_with_divisor.constprop.0:
  27              	.LFB260:
  28              		.file 1 "../ChibiOS/os/hal/lib/streams/chprintf.c"
  29              		.loc 1 37 0
  30              		.cfi_startproc
  31              		@ args = 0, pretend = 0, frame = 0
  32              		@ frame_needed = 0, uses_anonymous_args = 0
  33              		@ link register save eliminated.
  34              	.LVL0:
  35 0000 F0B4     		push	{r4, r5, r6, r7}
  36              		.cfi_def_cfa_offset 16
  37              		.cfi_offset 4, -16
  38              		.cfi_offset 5, -12
  39              		.cfi_offset 6, -8
  40              		.cfi_offset 7, -4
  41              		.loc 1 52 0
  42 0002 00F10B07 		add	r7, r0, #11
  43              	.LVL1:
  44 0006 3C46     		mov	r4, r7
  45 0008 0D46     		mov	r5, r1
  46              	.LVL2:
  47              	.L3:
  48              		.loc 1 54 0
  49 000a B1FBF2F6 		udiv	r6, r1, r2
  50 000e 02FB1611 		mls	r1, r2, r6, r1
  51              	.LVL3:
  52              		.loc 1 55 0
  53 0012 01F13003 		add	r3, r1, #48
  54              	.LVL4:
  55              		.loc 1 56 0
  56 0016 392B     		cmp	r3, #57
  57              		.loc 1 57 0
ARM GAS  /tmp/cc7i0CK9.s 			page 2


  58 0018 C8BF     		it	gt
  59 001a 01F13703 		addgt	r3, r1, #55
  60              	.LVL5:
  61              		.loc 1 58 0
  62 001e DBB2     		uxtb	r3, r3
  63              	.LVL6:
  64 0020 04F8013D 		strb	r3, [r4, #-1]!
  65              	.LVL7:
  66              		.loc 1 60 0
  67 0024 B5FBF2F5 		udiv	r5, r5, r2
  68              	.LVL8:
  69              		.loc 1 59 0
  70 0028 3146     		mov	r1, r6
  71              	.LVL9:
  72              		.loc 1 60 0
  73 002a 002D     		cmp	r5, #0
  74 002c EDD1     		bne	.L3
  75              	.LVL10:
  76              		.loc 1 62 0
  77 002e 3A1B     		subs	r2, r7, r4
  78              	.LVL11:
  79 0030 0244     		add	r2, r2, r0
  80 0032 01E0     		b	.L5
  81              	.LVL12:
  82              	.L10:
  83 0034 14F8013F 		ldrb	r3, [r4, #1]!	@ zero_extendqisi2
  84              	.LVL13:
  85              	.L5:
  86              		.loc 1 64 0
  87 0038 00F8013B 		strb	r3, [r0], #1
  88              	.LVL14:
  89              		.loc 1 65 0
  90 003c 9042     		cmp	r0, r2
  91 003e F9D1     		bne	.L10
  92              		.loc 1 68 0
  93 0040 F0BC     		pop	{r4, r5, r6, r7}
  94              		.cfi_restore 7
  95              		.cfi_restore 6
  96              		.cfi_restore 5
  97              		.cfi_restore 4
  98              		.cfi_def_cfa_offset 0
  99              	.LVL15:
 100 0042 7047     		bx	lr
 101              		.cfi_endproc
 102              	.LFE260:
 103              		.size	long_to_string_with_divisor.constprop.0, .-long_to_string_with_divisor.constprop.0
 104 0044 AFF30080 		.section	.text.chvprintf,"ax",%progbits
 104      AFF30080 
 104      AFF30080 
 105              		.align	2
 106              		.p2align 4,,15
 107              		.global	chvprintf
 108              		.thumb
 109              		.thumb_func
 110              		.type	chvprintf, %function
 111              	chvprintf:
 112              	.LFB258:
ARM GAS  /tmp/cc7i0CK9.s 			page 3


 113              		.loc 1 121 0
 114              		.cfi_startproc
 115              		@ args = 0, pretend = 0, frame = 24
 116              		@ frame_needed = 0, uses_anonymous_args = 0
 117              	.LVL16:
 118 0000 2DE9F04F 		push	{r4, r5, r6, r7, r8, r9, r10, fp, lr}
 119              		.cfi_def_cfa_offset 36
 120              		.cfi_offset 4, -36
 121              		.cfi_offset 5, -32
 122              		.cfi_offset 6, -28
 123              		.cfi_offset 7, -24
 124              		.cfi_offset 8, -20
 125              		.cfi_offset 9, -16
 126              		.cfi_offset 10, -12
 127              		.cfi_offset 11, -8
 128              		.cfi_offset 14, -4
 129 0004 87B0     		sub	sp, sp, #28
 130              		.cfi_def_cfa_offset 64
 131              		.loc 1 121 0
 132 0006 1546     		mov	r5, r2
 133              	.LVL17:
 134 0008 0DF10D03 		add	r3, sp, #13
 135 000c 03AA     		add	r2, sp, #12
 136              	.LVL18:
 137 000e 9B1A     		subs	r3, r3, r2
 138 0010 8146     		mov	r9, r0
 139 0012 8A46     		mov	r10, r1
 140 0014 0193     		str	r3, [sp, #4]
 141              		.loc 1 124 0
 142 0016 4FF00008 		mov	r8, #0
 143 001a 8B46     		mov	fp, r1
 144              	.LVL19:
 145              	.L12:
 146              		.loc 1 135 0
 147 001c 9BF80010 		ldrb	r1, [fp]	@ zero_extendqisi2
 148 0020 0BF10103 		add	r3, fp, #1
 149              	.LVL20:
 150              		.loc 1 136 0
 151 0024 79B1     		cbz	r1, .L82
 152              	.L93:
 153              		.loc 1 138 0
 154 0026 2529     		cmp	r1, #37
 155 0028 11D0     		beq	.L14
 156              		.loc 1 139 0
 157 002a D9F80020 		ldr	r2, [r9]
 158              		.loc 1 135 0
 159 002e 9B46     		mov	fp, r3
 160              		.loc 1 139 0
 161 0030 9268     		ldr	r2, [r2, #8]
 162 0032 4846     		mov	r0, r9
 163 0034 9047     		blx	r2
 164              	.LVL21:
 165              		.loc 1 135 0
 166 0036 9BF80010 		ldrb	r1, [fp]	@ zero_extendqisi2
 167              		.loc 1 140 0
 168 003a 08F10108 		add	r8, r8, #1
 169              	.LVL22:
ARM GAS  /tmp/cc7i0CK9.s 			page 4


 170              		.loc 1 135 0
 171 003e 0BF10103 		add	r3, fp, #1
 172              	.LVL23:
 173              		.loc 1 136 0
 174 0042 0029     		cmp	r1, #0
 175 0044 EFD1     		bne	.L93
 176              	.L82:
 177              		.loc 1 277 0
 178 0046 4046     		mov	r0, r8
 179 0048 07B0     		add	sp, sp, #28
 180              		.cfi_remember_state
 181              		.cfi_def_cfa_offset 36
 182              		@ sp needed
 183 004a BDE8F08F 		pop	{r4, r5, r6, r7, r8, r9, r10, fp, pc}
 184              	.LVL24:
 185              	.L14:
 186              		.cfi_restore_state
 187              		.loc 1 146 0
 188 004e 9BF80120 		ldrb	r2, [fp, #1]	@ zero_extendqisi2
 189 0052 2D2A     		cmp	r2, #45
 190 0054 03BF     		ittte	eq
 191 0056 9BF80220 		ldrbeq	r2, [fp, #2]	@ zero_extendqisi2
 192              		.loc 1 147 0
 193 005a 0BF10203 		addeq	r3, fp, #2
 194              	.LVL25:
 195              		.loc 1 148 0
 196 005e 4FF0010A 		moveq	r10, #1
 197              		.loc 1 145 0
 198 0062 4FF0000A 		movne	r10, #0
 199              	.LVL26:
 200              		.loc 1 151 0
 201 0066 302A     		cmp	r2, #48
 202 0068 03BF     		ittte	eq
 203 006a 5A78     		ldrbeq	r2, [r3, #1]	@ zero_extendqisi2
 204              		.loc 1 152 0
 205 006c 0133     		addeq	r3, r3, #1
 206              	.LVL27:
 207              		.loc 1 153 0
 208 006e 3027     		moveq	r7, #48
 209              		.loc 1 150 0
 210 0070 2027     		movne	r7, #32
 211              	.LVL28:
 212 0072 591C     		adds	r1, r3, #1
 213              	.LVL29:
 214              		.loc 1 155 0
 215 0074 0026     		movs	r6, #0
 216 0076 06E0     		b	.L20
 217              	.LVL30:
 218              	.L94:
 219              		.loc 1 161 0
 220 0078 2B78     		ldrb	r3, [r5]	@ zero_extendqisi2
 221              	.LVL31:
 222 007a 0435     		adds	r5, r5, #4
 223              	.LVL32:
 224              	.L18:
 225 007c 9BF80020 		ldrb	r2, [fp]	@ zero_extendqisi2
 226              		.loc 1 164 0
ARM GAS  /tmp/cc7i0CK9.s 			page 5


 227 0080 03EB4006 		add	r6, r3, r0, lsl #1
 228              	.LVL33:
 229 0084 0131     		adds	r1, r1, #1
 230              	.LVL34:
 231              	.L20:
 232              		.loc 1 158 0
 233 0086 A2F13003 		sub	r3, r2, #48
 234 008a DBB2     		uxtb	r3, r3
 235 008c 092B     		cmp	r3, #9
 236              		.loc 1 157 0
 237 008e 8B46     		mov	fp, r1
 238              	.LVL35:
 239              		.loc 1 164 0
 240 0090 06EB8600 		add	r0, r6, r6, lsl #2
 241              		.loc 1 158 0
 242 0094 F2D9     		bls	.L18
 243              		.loc 1 160 0
 244 0096 2A2A     		cmp	r2, #42
 245 0098 EED0     		beq	.L94
 246              	.LVL36:
 247              		.loc 1 167 0
 248 009a 2E2A     		cmp	r2, #46
 249 009c 4FF00001 		mov	r1, #0
 250              	.LVL37:
 251 00a0 43D0     		beq	.L23
 252              	.LVL38:
 253              		.loc 1 181 0
 254 00a2 02F0DF03 		and	r3, r2, #223
 255 00a6 4C2B     		cmp	r3, #76
 256 00a8 4ED0     		beq	.L95
 257              	.L83:
 258              		.loc 1 190 0
 259 00aa A2F14400 		sub	r0, r2, #68
 260 00ae 3428     		cmp	r0, #52
 261 00b0 00F2F780 		bhi	.L26
 262 00b4 DFE810F0 		tbh	[pc, r0, lsl #1]
 263              	.L35:
 264 00b8 EA00     		.2byte	(.L43-.L35)/2
 265 00ba F500     		.2byte	(.L26-.L35)/2
 266 00bc F500     		.2byte	(.L26-.L35)/2
 267 00be F500     		.2byte	(.L26-.L35)/2
 268 00c0 F500     		.2byte	(.L26-.L35)/2
 269 00c2 EA00     		.2byte	(.L43-.L35)/2
 270 00c4 F500     		.2byte	(.L26-.L35)/2
 271 00c6 F500     		.2byte	(.L26-.L35)/2
 272 00c8 F500     		.2byte	(.L26-.L35)/2
 273 00ca F500     		.2byte	(.L26-.L35)/2
 274 00cc F500     		.2byte	(.L26-.L35)/2
 275 00ce E800     		.2byte	(.L29-.L35)/2
 276 00d0 F500     		.2byte	(.L26-.L35)/2
 277 00d2 F500     		.2byte	(.L26-.L35)/2
 278 00d4 F500     		.2byte	(.L26-.L35)/2
 279 00d6 F500     		.2byte	(.L26-.L35)/2
 280 00d8 F500     		.2byte	(.L26-.L35)/2
 281 00da DD00     		.2byte	(.L30-.L35)/2
 282 00dc F500     		.2byte	(.L26-.L35)/2
 283 00de F500     		.2byte	(.L26-.L35)/2
ARM GAS  /tmp/cc7i0CK9.s 			page 6


 284 00e0 F200     		.2byte	(.L68-.L35)/2
 285 00e2 F500     		.2byte	(.L26-.L35)/2
 286 00e4 F500     		.2byte	(.L26-.L35)/2
 287 00e6 F500     		.2byte	(.L26-.L35)/2
 288 00e8 F500     		.2byte	(.L26-.L35)/2
 289 00ea F500     		.2byte	(.L26-.L35)/2
 290 00ec F500     		.2byte	(.L26-.L35)/2
 291 00ee F500     		.2byte	(.L26-.L35)/2
 292 00f0 F500     		.2byte	(.L26-.L35)/2
 293 00f2 F500     		.2byte	(.L26-.L35)/2
 294 00f4 F500     		.2byte	(.L26-.L35)/2
 295 00f6 A100     		.2byte	(.L32-.L35)/2
 296 00f8 EA00     		.2byte	(.L43-.L35)/2
 297 00fa F500     		.2byte	(.L26-.L35)/2
 298 00fc F500     		.2byte	(.L26-.L35)/2
 299 00fe F500     		.2byte	(.L26-.L35)/2
 300 0100 F500     		.2byte	(.L26-.L35)/2
 301 0102 EA00     		.2byte	(.L43-.L35)/2
 302 0104 F500     		.2byte	(.L26-.L35)/2
 303 0106 F500     		.2byte	(.L26-.L35)/2
 304 0108 F500     		.2byte	(.L26-.L35)/2
 305 010a F500     		.2byte	(.L26-.L35)/2
 306 010c F500     		.2byte	(.L26-.L35)/2
 307 010e E800     		.2byte	(.L29-.L35)/2
 308 0110 F500     		.2byte	(.L26-.L35)/2
 309 0112 F500     		.2byte	(.L26-.L35)/2
 310 0114 F500     		.2byte	(.L26-.L35)/2
 311 0116 7100     		.2byte	(.L33-.L35)/2
 312 0118 F500     		.2byte	(.L26-.L35)/2
 313 011a DD00     		.2byte	(.L30-.L35)/2
 314 011c F500     		.2byte	(.L26-.L35)/2
 315 011e F500     		.2byte	(.L26-.L35)/2
 316 0120 F200     		.2byte	(.L68-.L35)/2
 317              	.LVL39:
 318              		.p2align 1
 319              	.L96:
 320              		.loc 1 173 0
 321 0122 2B78     		ldrb	r3, [r5]	@ zero_extendqisi2
 322              	.LVL40:
 323 0124 0435     		adds	r5, r5, #4
 324              	.LVL41:
 325              	.L22:
 326              		.loc 1 177 0
 327 0126 03EB4001 		add	r1, r3, r0, lsl #1
 328              	.LVL42:
 329              	.L23:
 330              		.loc 1 169 0
 331 012a 1BF8012B 		ldrb	r2, [fp], #1	@ zero_extendqisi2
 332              	.LVL43:
 333              		.loc 1 170 0
 334 012e A2F13003 		sub	r3, r2, #48
 335 0132 DBB2     		uxtb	r3, r3
 336 0134 092B     		cmp	r3, #9
 337              		.loc 1 176 0
 338 0136 01EB8100 		add	r0, r1, r1, lsl #2
 339              		.loc 1 170 0
 340 013a F4D9     		bls	.L22
ARM GAS  /tmp/cc7i0CK9.s 			page 7


 341              		.loc 1 172 0
 342 013c 2A2A     		cmp	r2, #42
 343 013e F0D0     		beq	.L96
 344              	.LVL44:
 345              		.loc 1 181 0
 346 0140 02F0DF03 		and	r3, r2, #223
 347 0144 4C2B     		cmp	r3, #76
 348 0146 B0D1     		bne	.L83
 349              	.L95:
 350              	.LVL45:
 351              		.loc 1 183 0
 352 0148 9BF80030 		ldrb	r3, [fp]	@ zero_extendqisi2
 353 014c 002B     		cmp	r3, #0
 354 014e 00F0A880 		beq	.L26
 355              		.loc 1 190 0
 356 0152 A3F14402 		sub	r2, r3, #68
 357              	.LVL46:
 358              		.loc 1 184 0
 359 0156 0BF1010B 		add	fp, fp, #1
 360              	.LVL47:
 361              		.loc 1 190 0
 362 015a 342A     		cmp	r2, #52
 363 015c 00F2A080 		bhi	.L65
 364 0160 DFE802F0 		tbb	[pc, r2]
 365              	.L28:
 366 0164 94       		.byte	(.L43-.L28)/2
 367 0165 9E       		.byte	(.L65-.L28)/2
 368 0166 9E       		.byte	(.L65-.L28)/2
 369 0167 9E       		.byte	(.L65-.L28)/2
 370 0168 9E       		.byte	(.L65-.L28)/2
 371 0169 94       		.byte	(.L43-.L28)/2
 372 016a 9E       		.byte	(.L65-.L28)/2
 373 016b 9E       		.byte	(.L65-.L28)/2
 374 016c 9E       		.byte	(.L65-.L28)/2
 375 016d 9E       		.byte	(.L65-.L28)/2
 376 016e 9E       		.byte	(.L65-.L28)/2
 377 016f 92       		.byte	(.L29-.L28)/2
 378 0170 9E       		.byte	(.L65-.L28)/2
 379 0171 9E       		.byte	(.L65-.L28)/2
 380 0172 9E       		.byte	(.L65-.L28)/2
 381 0173 9E       		.byte	(.L65-.L28)/2
 382 0174 9E       		.byte	(.L65-.L28)/2
 383 0175 87       		.byte	(.L30-.L28)/2
 384 0176 9E       		.byte	(.L65-.L28)/2
 385 0177 9E       		.byte	(.L65-.L28)/2
 386 0178 9C       		.byte	(.L68-.L28)/2
 387 0179 9E       		.byte	(.L65-.L28)/2
 388 017a 9E       		.byte	(.L65-.L28)/2
 389 017b 9E       		.byte	(.L65-.L28)/2
 390 017c 9E       		.byte	(.L65-.L28)/2
 391 017d 9E       		.byte	(.L65-.L28)/2
 392 017e 9E       		.byte	(.L65-.L28)/2
 393 017f 9E       		.byte	(.L65-.L28)/2
 394 0180 9E       		.byte	(.L65-.L28)/2
 395 0181 9E       		.byte	(.L65-.L28)/2
 396 0182 9E       		.byte	(.L65-.L28)/2
 397 0183 4B       		.byte	(.L32-.L28)/2
ARM GAS  /tmp/cc7i0CK9.s 			page 8


 398 0184 94       		.byte	(.L43-.L28)/2
 399 0185 9E       		.byte	(.L65-.L28)/2
 400 0186 9E       		.byte	(.L65-.L28)/2
 401 0187 9E       		.byte	(.L65-.L28)/2
 402 0188 9E       		.byte	(.L65-.L28)/2
 403 0189 94       		.byte	(.L43-.L28)/2
 404 018a 9E       		.byte	(.L65-.L28)/2
 405 018b 9E       		.byte	(.L65-.L28)/2
 406 018c 9E       		.byte	(.L65-.L28)/2
 407 018d 9E       		.byte	(.L65-.L28)/2
 408 018e 9E       		.byte	(.L65-.L28)/2
 409 018f 92       		.byte	(.L29-.L28)/2
 410 0190 9E       		.byte	(.L65-.L28)/2
 411 0191 9E       		.byte	(.L65-.L28)/2
 412 0192 9E       		.byte	(.L65-.L28)/2
 413 0193 1B       		.byte	(.L33-.L28)/2
 414 0194 9E       		.byte	(.L65-.L28)/2
 415 0195 87       		.byte	(.L30-.L28)/2
 416 0196 9E       		.byte	(.L65-.L28)/2
 417 0197 9E       		.byte	(.L65-.L28)/2
 418 0198 9C       		.byte	(.L68-.L28)/2
 419              	.LVL48:
 420 0199 00       		.p2align 1
 421              	.L33:
 422              		.loc 1 197 0
 423 019a 2C68     		ldr	r4, [r5]
 424              		.loc 1 198 0
 425 019c 5A4B     		ldr	r3, .L101
 426 019e 002C     		cmp	r4, #0
 427 01a0 08BF     		it	eq
 428 01a2 1C46     		moveq	r4, r3
 429              		.loc 1 197 0
 430 01a4 0435     		adds	r5, r5, #4
 431              	.LVL49:
 432              		.loc 1 201 0
 433 01a6 2378     		ldrb	r3, [r4]	@ zero_extendqisi2
 434              		.loc 1 199 0
 435 01a8 0029     		cmp	r1, #0
 436 01aa 00F09480 		beq	.L39
 437              	.LVL50:
 438              		.loc 1 201 0 discriminator 1
 439 01ae 002B     		cmp	r3, #0
 440 01b0 00F09680 		beq	.L40
 441              		.loc 1 201 0 is_stmt 0
 442 01b4 0139     		subs	r1, r1, #1
 443              	.LVL51:
 444              	.L57:
 445              		.loc 1 201 0 discriminator 4
 446 01b6 2046     		mov	r0, r4
 447 01b8 01E0     		b	.L42
 448              	.LVL52:
 449              	.L97:
 450              		.loc 1 201 0 discriminator 3
 451 01ba 0139     		subs	r1, r1, #1
 452              	.LVL53:
 453 01bc 03D4     		bmi	.L87
 454              	.LVL54:
ARM GAS  /tmp/cc7i0CK9.s 			page 9


 455              	.L42:
 456              		.loc 1 201 0 discriminator 4
 457 01be 10F8013F 		ldrb	r3, [r0, #1]!	@ zero_extendqisi2
 458              	.LVL55:
 459 01c2 002B     		cmp	r3, #0
 460 01c4 F9D1     		bne	.L97
 461              	.LVL56:
 462              	.L87:
 463 01c6 001B     		subs	r0, r0, r4
 464              	.LVL57:
 465              		.loc 1 251 0 is_stmt 1
 466 01c8 361A     		subs	r6, r6, r0
 467              	.LVL58:
 468 01ca 431E     		subs	r3, r0, #1
 469              		.loc 1 196 0
 470 01cc 2027     		movs	r7, #32
 471              	.LVL59:
 472 01ce 26EAE676 		bic	r6, r6, r6, asr #31
 473              	.LVL60:
 474              		.loc 1 253 0
 475 01d2 BAF1000F 		cmp	r10, #0
 476 01d6 1FD0     		beq	.L98
 477              	.L48:
 478              	.LVL61:
 479              		.loc 1 266 0
 480 01d8 002B     		cmp	r3, #0
 481 01da 0093     		str	r3, [sp]
 482 01dc 34DA     		bge	.L58
 483              	.LVL62:
 484              	.L53:
 485              		.loc 1 271 0
 486 01de 002E     		cmp	r6, #0
 487 01e0 3FF41CAF 		beq	.L12
 488 01e4 3446     		mov	r4, r6
 489              	.LVL63:
 490              	.L55:
 491              		.loc 1 272 0
 492 01e6 D9F80030 		ldr	r3, [r9]
 493 01ea 4846     		mov	r0, r9
 494 01ec 9B68     		ldr	r3, [r3, #8]
 495 01ee 3946     		mov	r1, r7
 496 01f0 9847     		blx	r3
 497              	.LVL64:
 498              		.loc 1 271 0
 499 01f2 013C     		subs	r4, r4, #1
 500              	.LVL65:
 501 01f4 F7D1     		bne	.L55
 502 01f6 B044     		add	r8, r8, r6
 503 01f8 10E7     		b	.L12
 504              	.LVL66:
 505              	.L32:
 506              		.loc 1 193 0
 507 01fa 2B68     		ldr	r3, [r5]
 508 01fc 8DF80C30 		strb	r3, [sp, #12]
 509 0200 019B     		ldr	r3, [sp, #4]
 510 0202 0435     		adds	r5, r5, #4
 511 0204 1846     		mov	r0, r3
ARM GAS  /tmp/cc7i0CK9.s 			page 10


 512              		.loc 1 192 0
 513 0206 2027     		movs	r7, #32
 514 0208 013B     		subs	r3, r3, #1
 515              		.loc 1 144 0
 516 020a 03AC     		add	r4, sp, #12
 517              	.LVL67:
 518              	.L37:
 519              		.loc 1 251 0
 520 020c 361A     		subs	r6, r6, r0
 521              	.LVL68:
 522 020e 26EAE676 		bic	r6, r6, r6, asr #31
 523              	.LVL69:
 524              		.loc 1 253 0
 525 0212 BAF1000F 		cmp	r10, #0
 526 0216 DFD1     		bne	.L48
 527              	.L98:
 528 0218 0093     		str	r3, [sp]
 529              	.LVL70:
 530              	.L59:
 531              		.loc 1 254 0
 532 021a C6F1000A 		rsb	r10, r6, #0
 533              	.LVL71:
 534              		.loc 1 255 0
 535 021e BAF1000F 		cmp	r10, #0
 536 0222 45D0     		beq	.L49
 537              		.loc 1 256 0
 538 0224 2178     		ldrb	r1, [r4]	@ zero_extendqisi2
 539 0226 2D29     		cmp	r1, #45
 540 0228 47D0     		beq	.L99
 541              	.L50:
 542              		.loc 1 258 0 discriminator 1
 543 022a 5646     		mov	r6, r10
 544              	.LVL72:
 545              	.L51:
 546              		.loc 1 262 0 discriminator 1
 547 022c D9F80030 		ldr	r3, [r9]
 548 0230 4846     		mov	r0, r9
 549 0232 9B68     		ldr	r3, [r3, #8]
 550 0234 3946     		mov	r1, r7
 551 0236 9847     		blx	r3
 552              	.LVL73:
 553              		.loc 1 264 0 discriminator 1
 554 0238 0136     		adds	r6, r6, #1
 555              	.LVL74:
 556 023a F7D1     		bne	.L51
 557              		.loc 1 266 0
 558 023c 009B     		ldr	r3, [sp]
 559 023e 002B     		cmp	r3, #0
 560 0240 CAEB0808 		rsb	r8, r10, r8
 561              	.LVL75:
 562 0244 FFF6EAAE 		blt	.L12
 563              	.LVL76:
 564              	.L58:
 565 0248 DDF800A0 		ldr	r10, [sp]
 566              	.LVL77:
 567              	.L54:
 568              		.loc 1 267 0
ARM GAS  /tmp/cc7i0CK9.s 			page 11


 569 024c D9F80030 		ldr	r3, [r9]
 570 0250 14F8011B 		ldrb	r1, [r4], #1	@ zero_extendqisi2
 571              	.LVL78:
 572 0254 9B68     		ldr	r3, [r3, #8]
 573              		.loc 1 266 0
 574 0256 0AF1FF3A 		add	r10, r10, #-1
 575              	.LVL79:
 576              		.loc 1 267 0
 577 025a 4846     		mov	r0, r9
 578 025c 9847     		blx	r3
 579              	.LVL80:
 580              		.loc 1 266 0
 581 025e BAF1FF3F 		cmp	r10, #-1
 582 0262 F3D1     		bne	.L54
 583 0264 009B     		ldr	r3, [sp]
 584 0266 08F10108 		add	r8, r8, #1
 585 026a 002B     		cmp	r3, #0
 586 026c A8BF     		it	ge
 587 026e 9844     		addge	r8, r8, r3
 588 0270 B5E7     		b	.L53
 589              	.LVL81:
 590              	.L30:
 591              		.loc 1 235 0
 592 0272 0A22     		movs	r2, #10
 593              	.LVL82:
 594              	.L89:
 595              		.loc 1 243 0
 596 0274 2968     		ldr	r1, [r5]
 597              	.LVL83:
 598              	.LBB6:
 599              	.LBB7:
 600              		.loc 1 72 0
 601 0276 03A8     		add	r0, sp, #12
 602              	.LVL84:
 603              	.LBE7:
 604              	.LBE6:
 605              		.loc 1 243 0
 606 0278 0435     		adds	r5, r5, #4
 607              	.LVL85:
 608              	.L88:
 609              	.LBB9:
 610              	.LBB8:
 611              		.loc 1 72 0
 612 027a FFF7FEFF 		bl	long_to_string_with_divisor.constprop.0
 613              	.LVL86:
 614 027e 03AB     		add	r3, sp, #12
 615              	.LVL87:
 616 0280 C01A     		subs	r0, r0, r3
 617 0282 431E     		subs	r3, r0, #1
 618              	.LVL88:
 619              	.LBE8:
 620              	.LBE9:
 621              		.loc 1 144 0
 622 0284 03AC     		add	r4, sp, #12
 623              	.LVL89:
 624              		.loc 1 245 0
 625 0286 C1E7     		b	.L37
ARM GAS  /tmp/cc7i0CK9.s 			page 12


 626              	.LVL90:
 627              	.L29:
 628 0288 0822     		movs	r2, #8
 629 028a F3E7     		b	.L89
 630              	.LVL91:
 631              	.L43:
 632              		.loc 1 211 0
 633 028c 2968     		ldr	r1, [r5]
 634              	.LVL92:
 635              		.loc 1 212 0
 636 028e 0029     		cmp	r1, #0
 637              		.loc 1 211 0
 638 0290 05F10405 		add	r5, r5, #4
 639              		.loc 1 212 0
 640 0294 2EDB     		blt	.L100
 641              		.loc 1 143 0
 642 0296 03A8     		add	r0, sp, #12
 643              	.LVL93:
 644              	.L45:
 645              	.LBB10:
 646              	.LBB11:
 647              		.loc 1 72 0
 648 0298 0A22     		movs	r2, #10
 649 029a EEE7     		b	.L88
 650              	.LVL94:
 651              	.L68:
 652              	.L36:
 653              	.LBE11:
 654              	.LBE10:
 655              		.loc 1 190 0
 656 029c 1022     		movs	r2, #16
 657 029e E9E7     		b	.L89
 658              	.LVL95:
 659              	.L65:
 660 02a0 1A46     		mov	r2, r3
 661              	.LVL96:
 662              	.L26:
 663 02a2 019B     		ldr	r3, [sp, #4]
 664              		.loc 1 247 0
 665 02a4 8DF80C20 		strb	r2, [sp, #12]
 666 02a8 1846     		mov	r0, r3
 667              		.loc 1 144 0
 668 02aa 03AC     		add	r4, sp, #12
 669              	.LVL97:
 670 02ac 013B     		subs	r3, r3, #1
 671              		.loc 1 248 0
 672 02ae ADE7     		b	.L37
 673              	.LVL98:
 674              	.L49:
 675              		.loc 1 266 0
 676 02b0 009B     		ldr	r3, [sp]
 677 02b2 002B     		cmp	r3, #0
 678 02b4 5646     		mov	r6, r10
 679              	.LVL99:
 680 02b6 C7DA     		bge	.L58
 681              	.LVL100:
 682 02b8 B0E6     		b	.L12
ARM GAS  /tmp/cc7i0CK9.s 			page 13


 683              	.LVL101:
 684              	.L99:
 685              		.loc 1 256 0 discriminator 1
 686 02ba 302F     		cmp	r7, #48
 687 02bc B5D1     		bne	.L50
 688              		.loc 1 257 0
 689 02be D9F80030 		ldr	r3, [r9]
 690 02c2 4846     		mov	r0, r9
 691 02c4 9B68     		ldr	r3, [r3, #8]
 692 02c6 9847     		blx	r3
 693              	.LVL102:
 694 02c8 009B     		ldr	r3, [sp]
 695 02ca 013B     		subs	r3, r3, #1
 696 02cc 0134     		adds	r4, r4, #1
 697              	.LVL103:
 698              		.loc 1 258 0
 699 02ce 08F10108 		add	r8, r8, #1
 700              	.LVL104:
 701 02d2 0093     		str	r3, [sp]
 702              	.LVL105:
 703 02d4 A9E7     		b	.L50
 704              	.LVL106:
 705              	.L39:
 706              		.loc 1 201 0
 707 02d6 47F6FE71 		movw	r1, #32766
 708 02da 002B     		cmp	r3, #0
 709 02dc 7FF46BAF 		bne	.L57
 710              	.LVL107:
 711              	.L40:
 712 02e0 26EAE676 		bic	r6, r6, r6, asr #31
 713              	.LVL108:
 714              		.loc 1 253 0
 715 02e4 BAF1000F 		cmp	r10, #0
 716 02e8 0BD1     		bne	.L71
 717 02ea 4FF0FF33 		mov	r3, #-1
 718 02ee 0093     		str	r3, [sp]
 719 02f0 2027     		movs	r7, #32
 720 02f2 92E7     		b	.L59
 721              	.LVL109:
 722              	.L100:
 723              		.loc 1 213 0
 724 02f4 2D23     		movs	r3, #45
 725              		.loc 1 214 0
 726 02f6 4942     		negs	r1, r1
 727              	.LVL110:
 728              		.loc 1 213 0
 729 02f8 8DF80C30 		strb	r3, [sp, #12]
 730 02fc 0DF10D00 		add	r0, sp, #13
 731              	.LVL111:
 732 0300 CAE7     		b	.L45
 733              	.LVL112:
 734              	.L71:
 735              		.loc 1 253 0
 736 0302 2027     		movs	r7, #32
 737 0304 6BE7     		b	.L53
 738              	.L102:
 739 0306 00BF     		.align	2
ARM GAS  /tmp/cc7i0CK9.s 			page 14


 740              	.L101:
 741 0308 00000000 		.word	.LC0
 742              		.cfi_endproc
 743              	.LFE258:
 744              		.size	chvprintf, .-chvprintf
 745 030c AFF30080 		.section	.text.chsnprintf,"ax",%progbits
 746              		.align	2
 747              		.p2align 4,,15
 748              		.global	chsnprintf
 749              		.thumb
 750              		.thumb_func
 751              		.type	chsnprintf, %function
 752              	chsnprintf:
 753              	.LFB259:
 754              		.loc 1 307 0
 755              		.cfi_startproc
 756              		@ args = 4, pretend = 8, frame = 24
 757              		@ frame_needed = 0, uses_anonymous_args = 1
 758              	.LVL113:
 759 0000 0CB4     		push	{r2, r3}
 760              		.cfi_def_cfa_offset 8
 761              		.cfi_offset 2, -8
 762              		.cfi_offset 3, -4
 763 0002 30B5     		push	{r4, r5, lr}
 764              		.cfi_def_cfa_offset 20
 765              		.cfi_offset 4, -20
 766              		.cfi_offset 5, -16
 767              		.cfi_offset 14, -12
 768 0004 0546     		mov	r5, r0
 769 0006 87B0     		sub	sp, sp, #28
 770              		.cfi_def_cfa_offset 48
 771              		.loc 1 314 0
 772 0008 0C46     		mov	r4, r1
 773 000a B1B1     		cbz	r1, .L104
 774              	.LVL114:
 775              		.loc 1 321 0
 776 000c 01A8     		add	r0, sp, #4
 777              	.LVL115:
 778 000e 2946     		mov	r1, r5
 779              	.LVL116:
 780 0010 621E     		subs	r2, r4, #1
 781              	.LVL117:
 782 0012 0023     		movs	r3, #0
 783 0014 FFF7FEFF 		bl	msObjectInit
 784              	.LVL118:
 785              		.loc 1 325 0
 786 0018 0BAB     		add	r3, sp, #44
 787              		.loc 1 326 0
 788 001a 1A46     		mov	r2, r3
 789 001c 01A8     		add	r0, sp, #4
 790              	.LVL119:
 791 001e 0A99     		ldr	r1, [sp, #40]
 792              		.loc 1 325 0
 793 0020 0093     		str	r3, [sp]
 794              		.loc 1 326 0
 795 0022 FFF7FEFF 		bl	chvprintf
 796              	.LVL120:
ARM GAS  /tmp/cc7i0CK9.s 			page 15


 797              		.loc 1 330 0
 798 0026 049B     		ldr	r3, [sp, #16]
 799 0028 9C42     		cmp	r4, r3
 800 002a 01D9     		bls	.L106
 801              		.loc 1 331 0
 802 002c 0022     		movs	r2, #0
 803 002e EA54     		strb	r2, [r5, r3]
 804              	.L106:
 805              		.loc 1 335 0
 806 0030 07B0     		add	sp, sp, #28
 807              		.cfi_remember_state
 808              		.cfi_def_cfa_offset 20
 809              		@ sp needed
 810 0032 BDE83040 		pop	{r4, r5, lr}
 811              		.cfi_restore 14
 812              		.cfi_restore 5
 813              		.cfi_restore 4
 814              		.cfi_def_cfa_offset 8
 815              	.LVL121:
 816 0036 02B0     		add	sp, sp, #8
 817              		.cfi_restore 3
 818              		.cfi_restore 2
 819              		.cfi_def_cfa_offset 0
 820 0038 7047     		bx	lr
 821              	.LVL122:
 822              	.L104:
 823              		.cfi_restore_state
 824              		.loc 1 321 0
 825 003a 0146     		mov	r1, r0
 826              	.LVL123:
 827 003c 2246     		mov	r2, r4
 828 003e 01A8     		add	r0, sp, #4
 829              	.LVL124:
 830 0040 2346     		mov	r3, r4
 831 0042 FFF7FEFF 		bl	msObjectInit
 832              	.LVL125:
 833              		.loc 1 325 0
 834 0046 0BAB     		add	r3, sp, #44
 835              		.loc 1 326 0
 836 0048 01A8     		add	r0, sp, #4
 837              	.LVL126:
 838 004a 1A46     		mov	r2, r3
 839 004c 0A99     		ldr	r1, [sp, #40]
 840              		.loc 1 325 0
 841 004e 0093     		str	r3, [sp]
 842              		.loc 1 326 0
 843 0050 FFF7FEFF 		bl	chvprintf
 844              	.LVL127:
 845              		.loc 1 335 0
 846 0054 07B0     		add	sp, sp, #28
 847              		.cfi_def_cfa_offset 20
 848              		@ sp needed
 849 0056 BDE83040 		pop	{r4, r5, lr}
 850              		.cfi_restore 4
 851              		.cfi_restore 5
 852              		.cfi_restore 14
 853              		.cfi_def_cfa_offset 8
ARM GAS  /tmp/cc7i0CK9.s 			page 16


 854              	.LVL128:
 855 005a 02B0     		add	sp, sp, #8
 856              		.cfi_restore 2
 857              		.cfi_restore 3
 858              		.cfi_def_cfa_offset 0
 859 005c 7047     		bx	lr
 860              		.cfi_endproc
 861              	.LFE259:
 862              		.size	chsnprintf, .-chsnprintf
 863 005e 00BF     		.section	.rodata.str1.4,"aMS",%progbits,1
 864              		.align	2
 865              	.LC0:
 866 0000 286E756C 		.ascii	"(null)\000"
 866      6C2900
 867 0007 00       		.text
 868              	.Letext0:
 869              		.file 2 "/l/arm2/gcc-arm-none-eabi-4_9-2014q4/lib/gcc/arm-none-eabi/4.9.3/include/stddef.h"
 870              		.file 3 "/l/arm2/gcc-arm-none-eabi-4_9-2014q4/arm-none-eabi/include/machine/_default_types.h"
 871              		.file 4 "/l/arm2/gcc-arm-none-eabi-4_9-2014q4/arm-none-eabi/include/stdint.h"
 872              		.file 5 "../ChibiOS/os/rt/ports/ARMCMx/compilers/GCC/chtypes.h"
 873              		.file 6 "../ChibiOS/os/rt/include/chsystypes.h"
 874              		.file 7 "../ChibiOS/os/rt/include/chschd.h"
 875              		.file 8 "../ChibiOS/os/rt/ports/ARMCMx/chcore.h"
 876              		.file 9 "../ChibiOS/os/rt/ports/ARMCMx/chcore_v7m.h"
 877              		.file 10 "../ChibiOS/os/rt/include/chtm.h"
 878              		.file 11 "../ChibiOS/os/rt/include/chmtx.h"
 879              		.file 12 "../ChibiOS/os/rt/include/chstreams.h"
 880              		.file 13 "/l/arm2/gcc-arm-none-eabi-4_9-2014q4/lib/gcc/arm-none-eabi/4.9.3/include/stdarg.h"
 881              		.file 14 "<built-in>"
 882              		.file 15 "../ChibiOS/os/hal/lib/streams/memstreams.h"
 883              		.file 16 "../ChibiOS/os/ext/CMSIS/include/core_cm4.h"
 884              		.section	.debug_info,"",%progbits
 885              	.Ldebug_info0:
 886 0000 3C0C0000 		.4byte	0xc3c
 887 0004 0400     		.2byte	0x4
 888 0006 00000000 		.4byte	.Ldebug_abbrev0
 889 000a 04       		.byte	0x4
 890 000b 01       		.uleb128 0x1
 891 000c F8020000 		.4byte	.LASF122
 892 0010 01       		.byte	0x1
 893 0011 90040000 		.4byte	.LASF123
 894 0015 B3000000 		.4byte	.LASF124
 895 0019 18000000 		.4byte	.Ldebug_ranges0+0x18
 896 001d 00000000 		.4byte	0
 897 0021 00000000 		.4byte	.Ldebug_line0
 898 0025 02       		.uleb128 0x2
 899 0026 04       		.byte	0x4
 900 0027 05       		.byte	0x5
 901 0028 696E7400 		.ascii	"int\000"
 902 002c 03       		.uleb128 0x3
 903 002d 15000000 		.4byte	.LASF2
 904 0031 02       		.byte	0x2
 905 0032 D4       		.byte	0xd4
 906 0033 37000000 		.4byte	0x37
 907 0037 04       		.uleb128 0x4
 908 0038 04       		.byte	0x4
 909 0039 07       		.byte	0x7
ARM GAS  /tmp/cc7i0CK9.s 			page 17


 910 003a BE010000 		.4byte	.LASF0
 911 003e 04       		.uleb128 0x4
 912 003f 01       		.byte	0x1
 913 0040 06       		.byte	0x6
 914 0041 FB000000 		.4byte	.LASF1
 915 0045 03       		.uleb128 0x3
 916 0046 25000000 		.4byte	.LASF3
 917 004a 03       		.byte	0x3
 918 004b 1D       		.byte	0x1d
 919 004c 50000000 		.4byte	0x50
 920 0050 04       		.uleb128 0x4
 921 0051 01       		.byte	0x1
 922 0052 08       		.byte	0x8
 923 0053 7A040000 		.4byte	.LASF4
 924 0057 04       		.uleb128 0x4
 925 0058 02       		.byte	0x2
 926 0059 05       		.byte	0x5
 927 005a C3040000 		.4byte	.LASF5
 928 005e 04       		.uleb128 0x4
 929 005f 02       		.byte	0x2
 930 0060 07       		.byte	0x7
 931 0061 F8010000 		.4byte	.LASF6
 932 0065 03       		.uleb128 0x3
 933 0066 42020000 		.4byte	.LASF7
 934 006a 03       		.byte	0x3
 935 006b 3F       		.byte	0x3f
 936 006c 70000000 		.4byte	0x70
 937 0070 04       		.uleb128 0x4
 938 0071 04       		.byte	0x4
 939 0072 05       		.byte	0x5
 940 0073 32010000 		.4byte	.LASF8
 941 0077 03       		.uleb128 0x3
 942 0078 95050000 		.4byte	.LASF9
 943 007c 03       		.byte	0x3
 944 007d 41       		.byte	0x41
 945 007e 82000000 		.4byte	0x82
 946 0082 04       		.uleb128 0x4
 947 0083 04       		.byte	0x4
 948 0084 07       		.byte	0x7
 949 0085 07010000 		.4byte	.LASF10
 950 0089 04       		.uleb128 0x4
 951 008a 08       		.byte	0x8
 952 008b 05       		.byte	0x5
 953 008c ED000000 		.4byte	.LASF11
 954 0090 03       		.uleb128 0x3
 955 0091 1E040000 		.4byte	.LASF12
 956 0095 03       		.byte	0x3
 957 0096 5B       		.byte	0x5b
 958 0097 9B000000 		.4byte	0x9b
 959 009b 04       		.uleb128 0x4
 960 009c 08       		.byte	0x8
 961 009d 07       		.byte	0x7
 962 009e 65000000 		.4byte	.LASF13
 963 00a2 03       		.uleb128 0x3
 964 00a3 05060000 		.4byte	.LASF14
 965 00a7 04       		.byte	0x4
 966 00a8 15       		.byte	0x15
ARM GAS  /tmp/cc7i0CK9.s 			page 18


 967 00a9 45000000 		.4byte	0x45
 968 00ad 03       		.uleb128 0x3
 969 00ae 72040000 		.4byte	.LASF15
 970 00b2 04       		.byte	0x4
 971 00b3 2C       		.byte	0x2c
 972 00b4 65000000 		.4byte	0x65
 973 00b8 03       		.uleb128 0x3
 974 00b9 2C050000 		.4byte	.LASF16
 975 00bd 04       		.byte	0x4
 976 00be 2D       		.byte	0x2d
 977 00bf 77000000 		.4byte	0x77
 978 00c3 03       		.uleb128 0x3
 979 00c4 1C000000 		.4byte	.LASF17
 980 00c8 04       		.byte	0x4
 981 00c9 39       		.byte	0x39
 982 00ca 90000000 		.4byte	0x90
 983 00ce 05       		.uleb128 0x5
 984 00cf AD000000 		.4byte	0xad
 985 00d3 03       		.uleb128 0x3
 986 00d4 CA050000 		.4byte	.LASF18
 987 00d8 05       		.byte	0x5
 988 00d9 45       		.byte	0x45
 989 00da B8000000 		.4byte	0xb8
 990 00de 03       		.uleb128 0x3
 991 00df 20020000 		.4byte	.LASF19
 992 00e3 05       		.byte	0x5
 993 00e4 48       		.byte	0x48
 994 00e5 A2000000 		.4byte	0xa2
 995 00e9 03       		.uleb128 0x3
 996 00ea 3B010000 		.4byte	.LASF20
 997 00ee 05       		.byte	0x5
 998 00ef 49       		.byte	0x49
 999 00f0 A2000000 		.4byte	0xa2
 1000 00f4 03       		.uleb128 0x3
 1001 00f5 00000000 		.4byte	.LASF21
 1002 00f9 05       		.byte	0x5
 1003 00fa 4A       		.byte	0x4a
 1004 00fb A2000000 		.4byte	0xa2
 1005 00ff 03       		.uleb128 0x3
 1006 0100 40040000 		.4byte	.LASF22
 1007 0104 05       		.byte	0x5
 1008 0105 4C       		.byte	0x4c
 1009 0106 B8000000 		.4byte	0xb8
 1010 010a 03       		.uleb128 0x3
 1011 010b 15020000 		.4byte	.LASF23
 1012 010f 05       		.byte	0x5
 1013 0110 4D       		.byte	0x4d
 1014 0111 AD000000 		.4byte	0xad
 1015 0115 03       		.uleb128 0x3
 1016 0116 36020000 		.4byte	.LASF24
 1017 011a 05       		.byte	0x5
 1018 011b 4F       		.byte	0x4f
 1019 011c B8000000 		.4byte	0xb8
 1020 0120 03       		.uleb128 0x3
 1021 0121 77050000 		.4byte	.LASF25
 1022 0125 06       		.byte	0x6
 1023 0126 33       		.byte	0x33
ARM GAS  /tmp/cc7i0CK9.s 			page 19


 1024 0127 B8000000 		.4byte	0xb8
 1025 012b 03       		.uleb128 0x3
 1026 012c 67050000 		.4byte	.LASF26
 1027 0130 06       		.byte	0x6
 1028 0131 3F       		.byte	0x3f
 1029 0132 36010000 		.4byte	0x136
 1030 0136 06       		.uleb128 0x6
 1031 0137 0B020000 		.4byte	.LASF45
 1032 013b 44       		.byte	0x44
 1033 013c 07       		.byte	0x7
 1034 013d BE       		.byte	0xbe
 1035 013e 23020000 		.4byte	0x223
 1036 0142 07       		.uleb128 0x7
 1037 0143 E3040000 		.4byte	.LASF27
 1038 0147 07       		.byte	0x7
 1039 0148 BF       		.byte	0xbf
 1040 0149 CD050000 		.4byte	0x5cd
 1041 014d 00       		.byte	0
 1042 014e 07       		.uleb128 0x7
 1043 014f 39040000 		.4byte	.LASF28
 1044 0153 07       		.byte	0x7
 1045 0154 C1       		.byte	0xc1
 1046 0155 CD050000 		.4byte	0x5cd
 1047 0159 04       		.byte	0x4
 1048 015a 07       		.uleb128 0x7
 1049 015b E6000000 		.4byte	.LASF29
 1050 015f 07       		.byte	0x7
 1051 0160 C3       		.byte	0xc3
 1052 0161 FF000000 		.4byte	0xff
 1053 0165 08       		.byte	0x8
 1054 0166 07       		.uleb128 0x7
 1055 0167 5C060000 		.4byte	.LASF30
 1056 016b 07       		.byte	0x7
 1057 016c C4       		.byte	0xc4
 1058 016d 4D040000 		.4byte	0x44d
 1059 0171 0C       		.byte	0xc
 1060 0172 07       		.uleb128 0x7
 1061 0173 55010000 		.4byte	.LASF31
 1062 0177 07       		.byte	0x7
 1063 0178 C6       		.byte	0xc6
 1064 0179 CD050000 		.4byte	0x5cd
 1065 017d 10       		.byte	0x10
 1066 017e 07       		.uleb128 0x7
 1067 017f C7020000 		.4byte	.LASF32
 1068 0183 07       		.byte	0x7
 1069 0184 C7       		.byte	0xc7
 1070 0185 CD050000 		.4byte	0x5cd
 1071 0189 14       		.byte	0x14
 1072 018a 07       		.uleb128 0x7
 1073 018b 55040000 		.4byte	.LASF33
 1074 018f 07       		.byte	0x7
 1075 0190 CE       		.byte	0xce
 1076 0191 0B060000 		.4byte	0x60b
 1077 0195 18       		.byte	0x18
 1078 0196 07       		.uleb128 0x7
 1079 0197 CD040000 		.4byte	.LASF34
 1080 019b 07       		.byte	0x7
ARM GAS  /tmp/cc7i0CK9.s 			page 20


 1081 019c D9       		.byte	0xd9
 1082 019d E9000000 		.4byte	0xe9
 1083 01a1 1C       		.byte	0x1c
 1084 01a2 07       		.uleb128 0x7
 1085 01a3 02050000 		.4byte	.LASF35
 1086 01a7 07       		.byte	0x7
 1087 01a8 DD       		.byte	0xdd
 1088 01a9 DE000000 		.4byte	0xde
 1089 01ad 1D       		.byte	0x1d
 1090 01ae 07       		.uleb128 0x7
 1091 01af F0050000 		.4byte	.LASF36
 1092 01b3 07       		.byte	0x7
 1093 01b4 E2       		.byte	0xe2
 1094 01b5 F4000000 		.4byte	0xf4
 1095 01b9 1E       		.byte	0x1e
 1096 01ba 08       		.uleb128 0x8
 1097 01bb 705F7500 		.ascii	"p_u\000"
 1098 01bf 07       		.byte	0x7
 1099 01c0 1401     		.2byte	0x114
 1100 01c2 D3050000 		.4byte	0x5d3
 1101 01c6 20       		.byte	0x20
 1102 01c7 09       		.uleb128 0x9
 1103 01c8 6A020000 		.4byte	.LASF37
 1104 01cc 07       		.byte	0x7
 1105 01cd 1901     		.2byte	0x119
 1106 01cf 23020000 		.4byte	0x223
 1107 01d3 24       		.byte	0x24
 1108 01d4 09       		.uleb128 0x9
 1109 01d5 DC010000 		.4byte	.LASF38
 1110 01d9 07       		.byte	0x7
 1111 01da 1F01     		.2byte	0x11f
 1112 01dc 47020000 		.4byte	0x247
 1113 01e0 28       		.byte	0x28
 1114 01e1 09       		.uleb128 0x9
 1115 01e2 4E060000 		.4byte	.LASF39
 1116 01e6 07       		.byte	0x7
 1117 01e7 2301     		.2byte	0x123
 1118 01e9 0A010000 		.4byte	0x10a
 1119 01ed 30       		.byte	0x30
 1120 01ee 09       		.uleb128 0x9
 1121 01ef 21050000 		.4byte	.LASF40
 1122 01f3 07       		.byte	0x7
 1123 01f4 2901     		.2byte	0x129
 1124 01f6 15010000 		.4byte	0x115
 1125 01fa 34       		.byte	0x34
 1126 01fb 09       		.uleb128 0x9
 1127 01fc B9040000 		.4byte	.LASF41
 1128 0200 07       		.byte	0x7
 1129 0201 3001     		.2byte	0x130
 1130 0203 4E060000 		.4byte	0x64e
 1131 0207 38       		.byte	0x38
 1132 0208 09       		.uleb128 0x9
 1133 0209 81050000 		.4byte	.LASF42
 1134 020d 07       		.byte	0x7
 1135 020e 3401     		.2byte	0x134
 1136 0210 FF000000 		.4byte	0xff
 1137 0214 3C       		.byte	0x3c
ARM GAS  /tmp/cc7i0CK9.s 			page 21


 1138 0215 09       		.uleb128 0x9
 1139 0216 19010000 		.4byte	.LASF43
 1140 021a 07       		.byte	0x7
 1141 021b 3A01     		.2byte	0x13a
 1142 021d FA020000 		.4byte	0x2fa
 1143 0221 40       		.byte	0x40
 1144 0222 00       		.byte	0
 1145 0223 03       		.uleb128 0x3
 1146 0224 3F060000 		.4byte	.LASF44
 1147 0228 06       		.byte	0x6
 1148 0229 44       		.byte	0x44
 1149 022a 2E020000 		.4byte	0x22e
 1150 022e 06       		.uleb128 0x6
 1151 022f 3D050000 		.4byte	.LASF46
 1152 0233 04       		.byte	0x4
 1153 0234 07       		.byte	0x7
 1154 0235 AC       		.byte	0xac
 1155 0236 47020000 		.4byte	0x247
 1156 023a 07       		.uleb128 0x7
 1157 023b E3040000 		.4byte	.LASF27
 1158 023f 07       		.byte	0x7
 1159 0240 AD       		.byte	0xad
 1160 0241 CD050000 		.4byte	0x5cd
 1161 0245 00       		.byte	0
 1162 0246 00       		.byte	0
 1163 0247 03       		.uleb128 0x3
 1164 0248 D9050000 		.4byte	.LASF47
 1165 024c 06       		.byte	0x6
 1166 024d 4B       		.byte	0x4b
 1167 024e 52020000 		.4byte	0x252
 1168 0252 06       		.uleb128 0x6
 1169 0253 D5000000 		.4byte	.LASF48
 1170 0257 08       		.byte	0x8
 1171 0258 07       		.byte	0x7
 1172 0259 B3       		.byte	0xb3
 1173 025a 77020000 		.4byte	0x277
 1174 025e 07       		.uleb128 0x7
 1175 025f E3040000 		.4byte	.LASF27
 1176 0263 07       		.byte	0x7
 1177 0264 B4       		.byte	0xb4
 1178 0265 CD050000 		.4byte	0x5cd
 1179 0269 00       		.byte	0
 1180 026a 07       		.uleb128 0x7
 1181 026b 39040000 		.4byte	.LASF28
 1182 026f 07       		.byte	0x7
 1183 0270 B5       		.byte	0xb5
 1184 0271 CD050000 		.4byte	0x5cd
 1185 0275 04       		.byte	0x4
 1186 0276 00       		.byte	0
 1187 0277 03       		.uleb128 0x3
 1188 0278 08000000 		.4byte	.LASF49
 1189 027c 06       		.byte	0x6
 1190 027d 52       		.byte	0x52
 1191 027e 82020000 		.4byte	0x282
 1192 0282 0A       		.uleb128 0xa
 1193 0283 28020000 		.4byte	.LASF50
 1194 0287 1C       		.byte	0x1c
ARM GAS  /tmp/cc7i0CK9.s 			page 22


 1195 0288 07       		.byte	0x7
 1196 0289 7201     		.2byte	0x172
 1197 028b DE020000 		.4byte	0x2de
 1198 028f 09       		.uleb128 0x9
 1199 0290 35050000 		.4byte	.LASF51
 1200 0294 07       		.byte	0x7
 1201 0295 7301     		.2byte	0x173
 1202 0297 47020000 		.4byte	0x247
 1203 029b 00       		.byte	0
 1204 029c 09       		.uleb128 0x9
 1205 029d D5040000 		.4byte	.LASF52
 1206 02a1 07       		.byte	0x7
 1207 02a2 7401     		.2byte	0x174
 1208 02a4 FF000000 		.4byte	0xff
 1209 02a8 08       		.byte	0x8
 1210 02a9 09       		.uleb128 0x9
 1211 02aa CF020000 		.4byte	.LASF53
 1212 02ae 07       		.byte	0x7
 1213 02af 7601     		.2byte	0x176
 1214 02b1 4D040000 		.4byte	0x44d
 1215 02b5 0C       		.byte	0xc
 1216 02b6 09       		.uleb128 0x9
 1217 02b7 5D010000 		.4byte	.LASF54
 1218 02bb 07       		.byte	0x7
 1219 02bc 7901     		.2byte	0x179
 1220 02be CD050000 		.4byte	0x5cd
 1221 02c2 10       		.byte	0x10
 1222 02c3 09       		.uleb128 0x9
 1223 02c4 F0020000 		.4byte	.LASF55
 1224 02c8 07       		.byte	0x7
 1225 02c9 7A01     		.2byte	0x17a
 1226 02cb CD050000 		.4byte	0x5cd
 1227 02cf 14       		.byte	0x14
 1228 02d0 09       		.uleb128 0x9
 1229 02d1 E6020000 		.4byte	.LASF56
 1230 02d5 07       		.byte	0x7
 1231 02d6 7D01     		.2byte	0x17d
 1232 02d8 CD050000 		.4byte	0x5cd
 1233 02dc 18       		.byte	0x18
 1234 02dd 00       		.byte	0
 1235 02de 03       		.uleb128 0x3
 1236 02df 8C050000 		.4byte	.LASF57
 1237 02e3 06       		.byte	0x6
 1238 02e4 57       		.byte	0x57
 1239 02e5 E9020000 		.4byte	0x2e9
 1240 02e9 0B       		.uleb128 0xb
 1241 02ea 04       		.byte	0x4
 1242 02eb EF020000 		.4byte	0x2ef
 1243 02ef 0C       		.uleb128 0xc
 1244 02f0 FA020000 		.4byte	0x2fa
 1245 02f4 0D       		.uleb128 0xd
 1246 02f5 FA020000 		.4byte	0x2fa
 1247 02f9 00       		.byte	0
 1248 02fa 0E       		.uleb128 0xe
 1249 02fb 04       		.byte	0x4
 1250 02fc 03       		.uleb128 0x3
 1251 02fd 29040000 		.4byte	.LASF58
ARM GAS  /tmp/cc7i0CK9.s 			page 23


 1252 0301 06       		.byte	0x6
 1253 0302 5C       		.byte	0x5c
 1254 0303 07030000 		.4byte	0x307
 1255 0307 0A       		.uleb128 0xa
 1256 0308 10050000 		.4byte	.LASF59
 1257 030c 14       		.byte	0x14
 1258 030d 07       		.byte	0x7
 1259 030e 4D01     		.2byte	0x14d
 1260 0310 56030000 		.4byte	0x356
 1261 0314 09       		.uleb128 0x9
 1262 0315 CB010000 		.4byte	.LASF60
 1263 0319 07       		.byte	0x7
 1264 031a 4E01     		.2byte	0x14e
 1265 031c 54060000 		.4byte	0x654
 1266 0320 00       		.byte	0
 1267 0321 09       		.uleb128 0x9
 1268 0322 6E010000 		.4byte	.LASF61
 1269 0326 07       		.byte	0x7
 1270 0327 4F01     		.2byte	0x14f
 1271 0329 54060000 		.4byte	0x654
 1272 032d 04       		.byte	0x4
 1273 032e 09       		.uleb128 0x9
 1274 032f D3010000 		.4byte	.LASF62
 1275 0333 07       		.byte	0x7
 1276 0334 5001     		.2byte	0x150
 1277 0336 20010000 		.4byte	0x120
 1278 033a 08       		.byte	0x8
 1279 033b 09       		.uleb128 0x9
 1280 033c 62060000 		.4byte	.LASF63
 1281 0340 07       		.byte	0x7
 1282 0341 5101     		.2byte	0x151
 1283 0343 DE020000 		.4byte	0x2de
 1284 0347 0C       		.byte	0xc
 1285 0348 09       		.uleb128 0x9
 1286 0349 D2050000 		.4byte	.LASF64
 1287 034d 07       		.byte	0x7
 1288 034e 5301     		.2byte	0x153
 1289 0350 FA020000 		.4byte	0x2fa
 1290 0354 10       		.byte	0x10
 1291 0355 00       		.byte	0
 1292 0356 03       		.uleb128 0x3
 1293 0357 90000000 		.4byte	.LASF65
 1294 035b 06       		.byte	0x6
 1295 035c 61       		.byte	0x61
 1296 035d 61030000 		.4byte	0x361
 1297 0361 0A       		.uleb128 0xa
 1298 0362 7D020000 		.4byte	.LASF66
 1299 0366 10       		.byte	0x10
 1300 0367 07       		.byte	0x7
 1301 0368 5D01     		.2byte	0x15d
 1302 036a A3030000 		.4byte	0x3a3
 1303 036e 09       		.uleb128 0x9
 1304 036f CB010000 		.4byte	.LASF60
 1305 0373 07       		.byte	0x7
 1306 0374 5E01     		.2byte	0x15e
 1307 0376 54060000 		.4byte	0x654
 1308 037a 00       		.byte	0
ARM GAS  /tmp/cc7i0CK9.s 			page 24


 1309 037b 09       		.uleb128 0x9
 1310 037c 6E010000 		.4byte	.LASF61
 1311 0380 07       		.byte	0x7
 1312 0381 6001     		.2byte	0x160
 1313 0383 54060000 		.4byte	0x654
 1314 0387 04       		.byte	0x4
 1315 0388 09       		.uleb128 0x9
 1316 0389 D3010000 		.4byte	.LASF62
 1317 038d 07       		.byte	0x7
 1318 038e 6201     		.2byte	0x162
 1319 0390 20010000 		.4byte	0x120
 1320 0394 08       		.byte	0x8
 1321 0395 09       		.uleb128 0x9
 1322 0396 BB020000 		.4byte	.LASF67
 1323 039a 07       		.byte	0x7
 1324 039b 6A01     		.2byte	0x16a
 1325 039d 20010000 		.4byte	0x120
 1326 03a1 0C       		.byte	0xc
 1327 03a2 00       		.byte	0
 1328 03a3 03       		.uleb128 0x3
 1329 03a4 43000000 		.4byte	.LASF68
 1330 03a8 06       		.byte	0x6
 1331 03a9 66       		.byte	0x66
 1332 03aa AE030000 		.4byte	0x3ae
 1333 03ae 0A       		.uleb128 0xa
 1334 03af 5C040000 		.4byte	.LASF69
 1335 03b3 04       		.byte	0x4
 1336 03b4 07       		.byte	0x7
 1337 03b5 8401     		.2byte	0x184
 1338 03b7 C9030000 		.4byte	0x3c9
 1339 03bb 09       		.uleb128 0x9
 1340 03bc A0050000 		.4byte	.LASF70
 1341 03c0 07       		.byte	0x7
 1342 03c1 8C01     		.2byte	0x18c
 1343 03c3 5A060000 		.4byte	0x65a
 1344 03c7 00       		.byte	0
 1345 03c8 00       		.byte	0
 1346 03c9 03       		.uleb128 0x3
 1347 03ca BE050000 		.4byte	.LASF71
 1348 03ce 06       		.byte	0x6
 1349 03cf 6B       		.byte	0x6b
 1350 03d0 D4030000 		.4byte	0x3d4
 1351 03d4 0F       		.uleb128 0xf
 1352 03d5 28010000 		.4byte	.LASF72
 1353 03d9 D801     		.2byte	0x1d8
 1354 03db 07       		.byte	0x7
 1355 03dc A401     		.2byte	0x1a4
 1356 03de 30040000 		.4byte	0x430
 1357 03e2 09       		.uleb128 0x9
 1358 03e3 FF050000 		.4byte	.LASF73
 1359 03e7 07       		.byte	0x7
 1360 03e8 A801     		.2byte	0x1a8
 1361 03ea 77020000 		.4byte	0x277
 1362 03ee 00       		.byte	0
 1363 03ef 09       		.uleb128 0x9
 1364 03f0 76010000 		.4byte	.LASF74
 1365 03f4 07       		.byte	0x7
ARM GAS  /tmp/cc7i0CK9.s 			page 25


 1366 03f5 AC01     		.2byte	0x1ac
 1367 03f7 56030000 		.4byte	0x356
 1368 03fb 1C       		.byte	0x1c
 1369 03fc 08       		.uleb128 0x8
 1370 03fd 64626700 		.ascii	"dbg\000"
 1371 0401 07       		.byte	0x7
 1372 0402 B001     		.2byte	0x1b0
 1373 0404 A3030000 		.4byte	0x3a3
 1374 0408 2C       		.byte	0x2c
 1375 0409 09       		.uleb128 0x9
 1376 040a 85000000 		.4byte	.LASF75
 1377 040e 07       		.byte	0x7
 1378 040f B401     		.2byte	0x1b4
 1379 0411 2B010000 		.4byte	0x12b
 1380 0415 30       		.byte	0x30
 1381 0416 08       		.uleb128 0x8
 1382 0417 746D00   		.ascii	"tm\000"
 1383 041a 07       		.byte	0x7
 1384 041b B901     		.2byte	0x1b9
 1385 041d C2050000 		.4byte	0x5c2
 1386 0421 74       		.byte	0x74
 1387 0422 09       		.uleb128 0x9
 1388 0423 AF010000 		.4byte	.LASF76
 1389 0427 07       		.byte	0x7
 1390 0428 C501     		.2byte	0x1c5
 1391 042a 5F060000 		.4byte	0x65f
 1392 042e 78       		.byte	0x78
 1393 042f 00       		.byte	0
 1394 0430 04       		.uleb128 0x4
 1395 0431 04       		.byte	0x4
 1396 0432 07       		.byte	0x7
 1397 0433 74020000 		.4byte	.LASF77
 1398 0437 03       		.uleb128 0x3
 1399 0438 65010000 		.4byte	.LASF78
 1400 043c 08       		.byte	0x8
 1401 043d 85       		.byte	0x85
 1402 043e FA020000 		.4byte	0x2fa
 1403 0442 03       		.uleb128 0x3
 1404 0443 4C020000 		.4byte	.LASF79
 1405 0447 08       		.byte	0x8
 1406 0448 8D       		.byte	0x8d
 1407 0449 C3000000 		.4byte	0xc3
 1408 044d 06       		.uleb128 0x6
 1409 044e B6050000 		.4byte	.LASF80
 1410 0452 04       		.byte	0x4
 1411 0453 08       		.byte	0x8
 1412 0454 A9       		.byte	0xa9
 1413 0455 66040000 		.4byte	0x466
 1414 0459 10       		.uleb128 0x10
 1415 045a 72313300 		.ascii	"r13\000"
 1416 045e 08       		.byte	0x8
 1417 045f AA       		.byte	0xaa
 1418 0460 A7050000 		.4byte	0x5a7
 1419 0464 00       		.byte	0
 1420 0465 00       		.byte	0
 1421 0466 06       		.uleb128 0x6
 1422 0467 2F000000 		.4byte	.LASF81
ARM GAS  /tmp/cc7i0CK9.s 			page 26


 1423 046b 64       		.byte	0x64
 1424 046c 09       		.byte	0x9
 1425 046d F4       		.byte	0xf4
 1426 046e A7050000 		.4byte	0x5a7
 1427 0472 10       		.uleb128 0x10
 1428 0473 73313600 		.ascii	"s16\000"
 1429 0477 09       		.byte	0x9
 1430 0478 F6       		.byte	0xf6
 1431 0479 37040000 		.4byte	0x437
 1432 047d 00       		.byte	0
 1433 047e 10       		.uleb128 0x10
 1434 047f 73313700 		.ascii	"s17\000"
 1435 0483 09       		.byte	0x9
 1436 0484 F7       		.byte	0xf7
 1437 0485 37040000 		.4byte	0x437
 1438 0489 04       		.byte	0x4
 1439 048a 10       		.uleb128 0x10
 1440 048b 73313800 		.ascii	"s18\000"
 1441 048f 09       		.byte	0x9
 1442 0490 F8       		.byte	0xf8
 1443 0491 37040000 		.4byte	0x437
 1444 0495 08       		.byte	0x8
 1445 0496 10       		.uleb128 0x10
 1446 0497 73313900 		.ascii	"s19\000"
 1447 049b 09       		.byte	0x9
 1448 049c F9       		.byte	0xf9
 1449 049d 37040000 		.4byte	0x437
 1450 04a1 0C       		.byte	0xc
 1451 04a2 10       		.uleb128 0x10
 1452 04a3 73323000 		.ascii	"s20\000"
 1453 04a7 09       		.byte	0x9
 1454 04a8 FA       		.byte	0xfa
 1455 04a9 37040000 		.4byte	0x437
 1456 04ad 10       		.byte	0x10
 1457 04ae 10       		.uleb128 0x10
 1458 04af 73323100 		.ascii	"s21\000"
 1459 04b3 09       		.byte	0x9
 1460 04b4 FB       		.byte	0xfb
 1461 04b5 37040000 		.4byte	0x437
 1462 04b9 14       		.byte	0x14
 1463 04ba 10       		.uleb128 0x10
 1464 04bb 73323200 		.ascii	"s22\000"
 1465 04bf 09       		.byte	0x9
 1466 04c0 FC       		.byte	0xfc
 1467 04c1 37040000 		.4byte	0x437
 1468 04c5 18       		.byte	0x18
 1469 04c6 10       		.uleb128 0x10
 1470 04c7 73323300 		.ascii	"s23\000"
 1471 04cb 09       		.byte	0x9
 1472 04cc FD       		.byte	0xfd
 1473 04cd 37040000 		.4byte	0x437
 1474 04d1 1C       		.byte	0x1c
 1475 04d2 10       		.uleb128 0x10
 1476 04d3 73323400 		.ascii	"s24\000"
 1477 04d7 09       		.byte	0x9
 1478 04d8 FE       		.byte	0xfe
 1479 04d9 37040000 		.4byte	0x437
ARM GAS  /tmp/cc7i0CK9.s 			page 27


 1480 04dd 20       		.byte	0x20
 1481 04de 10       		.uleb128 0x10
 1482 04df 73323500 		.ascii	"s25\000"
 1483 04e3 09       		.byte	0x9
 1484 04e4 FF       		.byte	0xff
 1485 04e5 37040000 		.4byte	0x437
 1486 04e9 24       		.byte	0x24
 1487 04ea 08       		.uleb128 0x8
 1488 04eb 73323600 		.ascii	"s26\000"
 1489 04ef 09       		.byte	0x9
 1490 04f0 0001     		.2byte	0x100
 1491 04f2 37040000 		.4byte	0x437
 1492 04f6 28       		.byte	0x28
 1493 04f7 08       		.uleb128 0x8
 1494 04f8 73323700 		.ascii	"s27\000"
 1495 04fc 09       		.byte	0x9
 1496 04fd 0101     		.2byte	0x101
 1497 04ff 37040000 		.4byte	0x437
 1498 0503 2C       		.byte	0x2c
 1499 0504 08       		.uleb128 0x8
 1500 0505 73323800 		.ascii	"s28\000"
 1501 0509 09       		.byte	0x9
 1502 050a 0201     		.2byte	0x102
 1503 050c 37040000 		.4byte	0x437
 1504 0510 30       		.byte	0x30
 1505 0511 08       		.uleb128 0x8
 1506 0512 73323900 		.ascii	"s29\000"
 1507 0516 09       		.byte	0x9
 1508 0517 0301     		.2byte	0x103
 1509 0519 37040000 		.4byte	0x437
 1510 051d 34       		.byte	0x34
 1511 051e 08       		.uleb128 0x8
 1512 051f 73333000 		.ascii	"s30\000"
 1513 0523 09       		.byte	0x9
 1514 0524 0401     		.2byte	0x104
 1515 0526 37040000 		.4byte	0x437
 1516 052a 38       		.byte	0x38
 1517 052b 08       		.uleb128 0x8
 1518 052c 73333100 		.ascii	"s31\000"
 1519 0530 09       		.byte	0x9
 1520 0531 0501     		.2byte	0x105
 1521 0533 37040000 		.4byte	0x437
 1522 0537 3C       		.byte	0x3c
 1523 0538 08       		.uleb128 0x8
 1524 0539 723400   		.ascii	"r4\000"
 1525 053c 09       		.byte	0x9
 1526 053d 0701     		.2byte	0x107
 1527 053f 37040000 		.4byte	0x437
 1528 0543 40       		.byte	0x40
 1529 0544 08       		.uleb128 0x8
 1530 0545 723500   		.ascii	"r5\000"
 1531 0548 09       		.byte	0x9
 1532 0549 0801     		.2byte	0x108
 1533 054b 37040000 		.4byte	0x437
 1534 054f 44       		.byte	0x44
 1535 0550 08       		.uleb128 0x8
 1536 0551 723600   		.ascii	"r6\000"
ARM GAS  /tmp/cc7i0CK9.s 			page 28


 1537 0554 09       		.byte	0x9
 1538 0555 0901     		.2byte	0x109
 1539 0557 37040000 		.4byte	0x437
 1540 055b 48       		.byte	0x48
 1541 055c 08       		.uleb128 0x8
 1542 055d 723700   		.ascii	"r7\000"
 1543 0560 09       		.byte	0x9
 1544 0561 0A01     		.2byte	0x10a
 1545 0563 37040000 		.4byte	0x437
 1546 0567 4C       		.byte	0x4c
 1547 0568 08       		.uleb128 0x8
 1548 0569 723800   		.ascii	"r8\000"
 1549 056c 09       		.byte	0x9
 1550 056d 0B01     		.2byte	0x10b
 1551 056f 37040000 		.4byte	0x437
 1552 0573 50       		.byte	0x50
 1553 0574 08       		.uleb128 0x8
 1554 0575 723900   		.ascii	"r9\000"
 1555 0578 09       		.byte	0x9
 1556 0579 0C01     		.2byte	0x10c
 1557 057b 37040000 		.4byte	0x437
 1558 057f 54       		.byte	0x54
 1559 0580 08       		.uleb128 0x8
 1560 0581 72313000 		.ascii	"r10\000"
 1561 0585 09       		.byte	0x9
 1562 0586 0D01     		.2byte	0x10d
 1563 0588 37040000 		.4byte	0x437
 1564 058c 58       		.byte	0x58
 1565 058d 08       		.uleb128 0x8
 1566 058e 72313100 		.ascii	"r11\000"
 1567 0592 09       		.byte	0x9
 1568 0593 0E01     		.2byte	0x10e
 1569 0595 37040000 		.4byte	0x437
 1570 0599 5C       		.byte	0x5c
 1571 059a 08       		.uleb128 0x8
 1572 059b 6C7200   		.ascii	"lr\000"
 1573 059e 09       		.byte	0x9
 1574 059f 0F01     		.2byte	0x10f
 1575 05a1 37040000 		.4byte	0x437
 1576 05a5 60       		.byte	0x60
 1577 05a6 00       		.byte	0
 1578 05a7 0B       		.uleb128 0xb
 1579 05a8 04       		.byte	0x4
 1580 05a9 66040000 		.4byte	0x466
 1581 05ad 11       		.uleb128 0x11
 1582 05ae 04       		.byte	0x4
 1583 05af 0A       		.byte	0xa
 1584 05b0 38       		.byte	0x38
 1585 05b1 C2050000 		.4byte	0x5c2
 1586 05b5 07       		.uleb128 0x7
 1587 05b6 AA050000 		.4byte	.LASF82
 1588 05ba 0A       		.byte	0xa
 1589 05bb 3C       		.byte	0x3c
 1590 05bc D3000000 		.4byte	0xd3
 1591 05c0 00       		.byte	0
 1592 05c1 00       		.byte	0
 1593 05c2 03       		.uleb128 0x3
ARM GAS  /tmp/cc7i0CK9.s 			page 29


 1594 05c3 D5020000 		.4byte	.LASF83
 1595 05c7 0A       		.byte	0xa
 1596 05c8 3D       		.byte	0x3d
 1597 05c9 AD050000 		.4byte	0x5ad
 1598 05cd 0B       		.uleb128 0xb
 1599 05ce 04       		.byte	0x4
 1600 05cf 2B010000 		.4byte	0x12b
 1601 05d3 12       		.uleb128 0x12
 1602 05d4 04       		.byte	0x4
 1603 05d5 07       		.byte	0x7
 1604 05d6 F6       		.byte	0xf6
 1605 05d7 0B060000 		.4byte	0x60b
 1606 05db 13       		.uleb128 0x13
 1607 05dc E9050000 		.4byte	.LASF84
 1608 05e0 07       		.byte	0x7
 1609 05e1 FD       		.byte	0xfd
 1610 05e2 0A010000 		.4byte	0x10a
 1611 05e6 14       		.uleb128 0x14
 1612 05e7 7C000000 		.4byte	.LASF85
 1613 05eb 07       		.byte	0x7
 1614 05ec 0401     		.2byte	0x104
 1615 05ee 0A010000 		.4byte	0x10a
 1616 05f2 14       		.uleb128 0x14
 1617 05f3 17060000 		.4byte	.LASF86
 1618 05f7 07       		.byte	0x7
 1619 05f8 0B01     		.2byte	0x10b
 1620 05fa FA020000 		.4byte	0x2fa
 1621 05fe 14       		.uleb128 0x14
 1622 05ff DC040000 		.4byte	.LASF87
 1623 0603 07       		.byte	0x7
 1624 0604 1201     		.2byte	0x112
 1625 0606 15010000 		.4byte	0x115
 1626 060a 00       		.byte	0
 1627 060b 0B       		.uleb128 0xb
 1628 060c 04       		.byte	0x4
 1629 060d 11060000 		.4byte	0x611
 1630 0611 15       		.uleb128 0x15
 1631 0612 16060000 		.4byte	0x616
 1632 0616 04       		.uleb128 0x4
 1633 0617 01       		.byte	0x1
 1634 0618 08       		.byte	0x8
 1635 0619 58050000 		.4byte	.LASF88
 1636 061d 06       		.uleb128 0x6
 1637 061e A9010000 		.4byte	.LASF89
 1638 0622 10       		.byte	0x10
 1639 0623 0B       		.byte	0xb
 1640 0624 39       		.byte	0x39
 1641 0625 4E060000 		.4byte	0x64e
 1642 0629 07       		.uleb128 0x7
 1643 062a 88040000 		.4byte	.LASF90
 1644 062e 0B       		.byte	0xb
 1645 062f 3A       		.byte	0x3a
 1646 0630 47020000 		.4byte	0x247
 1647 0634 00       		.byte	0
 1648 0635 07       		.uleb128 0x7
 1649 0636 54060000 		.4byte	.LASF91
 1650 063a 0B       		.byte	0xb
ARM GAS  /tmp/cc7i0CK9.s 			page 30


 1651 063b 3C       		.byte	0x3c
 1652 063c CD050000 		.4byte	0x5cd
 1653 0640 08       		.byte	0x8
 1654 0641 07       		.uleb128 0x7
 1655 0642 70050000 		.4byte	.LASF92
 1656 0646 0B       		.byte	0xb
 1657 0647 3E       		.byte	0x3e
 1658 0648 8F060000 		.4byte	0x68f
 1659 064c 0C       		.byte	0xc
 1660 064d 00       		.byte	0
 1661 064e 0B       		.uleb128 0xb
 1662 064f 04       		.byte	0x4
 1663 0650 1D060000 		.4byte	0x61d
 1664 0654 0B       		.uleb128 0xb
 1665 0655 04       		.byte	0x4
 1666 0656 FC020000 		.4byte	0x2fc
 1667 065a 05       		.uleb128 0x5
 1668 065b 0B060000 		.4byte	0x60b
 1669 065f 16       		.uleb128 0x16
 1670 0660 42040000 		.4byte	0x442
 1671 0664 6F060000 		.4byte	0x66f
 1672 0668 17       		.uleb128 0x17
 1673 0669 30040000 		.4byte	0x430
 1674 066d 2B       		.byte	0x2b
 1675 066e 00       		.byte	0
 1676 066f 0B       		.uleb128 0xb
 1677 0670 04       		.byte	0x4
 1678 0671 75060000 		.4byte	0x675
 1679 0675 18       		.uleb128 0x18
 1680 0676 0A010000 		.4byte	0x10a
 1681 067a 84060000 		.4byte	0x684
 1682 067e 0D       		.uleb128 0xd
 1683 067f FA020000 		.4byte	0x2fa
 1684 0683 00       		.byte	0
 1685 0684 03       		.uleb128 0x3
 1686 0685 8C010000 		.4byte	.LASF93
 1687 0689 0B       		.byte	0xb
 1688 068a 34       		.byte	0x34
 1689 068b 1D060000 		.4byte	0x61d
 1690 068f 0B       		.uleb128 0xb
 1691 0690 04       		.byte	0x4
 1692 0691 84060000 		.4byte	0x684
 1693 0695 0B       		.uleb128 0xb
 1694 0696 04       		.byte	0x4
 1695 0697 A2000000 		.4byte	0xa2
 1696 069b 06       		.uleb128 0x6
 1697 069c EA040000 		.4byte	.LASF94
 1698 06a0 10       		.byte	0x10
 1699 06a1 0C       		.byte	0xc
 1700 06a2 40       		.byte	0x40
 1701 06a3 D8060000 		.4byte	0x6d8
 1702 06a7 07       		.uleb128 0x7
 1703 06a8 64020000 		.4byte	.LASF95
 1704 06ac 0C       		.byte	0xc
 1705 06ad 41       		.byte	0x41
 1706 06ae FC060000 		.4byte	0x6fc
 1707 06b2 00       		.byte	0
ARM GAS  /tmp/cc7i0CK9.s 			page 31


 1708 06b3 07       		.uleb128 0x7
 1709 06b4 1B020000 		.4byte	.LASF96
 1710 06b8 0C       		.byte	0xc
 1711 06b9 41       		.byte	0x41
 1712 06ba 1B070000 		.4byte	0x71b
 1713 06be 04       		.byte	0x4
 1714 06bf 10       		.uleb128 0x10
 1715 06c0 70757400 		.ascii	"put\000"
 1716 06c4 0C       		.byte	0xc
 1717 06c5 41       		.byte	0x41
 1718 06c6 35070000 		.4byte	0x735
 1719 06ca 08       		.byte	0x8
 1720 06cb 10       		.uleb128 0x10
 1721 06cc 67657400 		.ascii	"get\000"
 1722 06d0 0C       		.byte	0xc
 1723 06d1 41       		.byte	0x41
 1724 06d2 6F060000 		.4byte	0x66f
 1725 06d6 0C       		.byte	0xc
 1726 06d7 00       		.byte	0
 1727 06d8 18       		.uleb128 0x18
 1728 06d9 2C000000 		.4byte	0x2c
 1729 06dd F1060000 		.4byte	0x6f1
 1730 06e1 0D       		.uleb128 0xd
 1731 06e2 FA020000 		.4byte	0x2fa
 1732 06e6 0D       		.uleb128 0xd
 1733 06e7 F1060000 		.4byte	0x6f1
 1734 06eb 0D       		.uleb128 0xd
 1735 06ec 2C000000 		.4byte	0x2c
 1736 06f0 00       		.byte	0
 1737 06f1 0B       		.uleb128 0xb
 1738 06f2 04       		.byte	0x4
 1739 06f3 F7060000 		.4byte	0x6f7
 1740 06f7 15       		.uleb128 0x15
 1741 06f8 A2000000 		.4byte	0xa2
 1742 06fc 0B       		.uleb128 0xb
 1743 06fd 04       		.byte	0x4
 1744 06fe D8060000 		.4byte	0x6d8
 1745 0702 18       		.uleb128 0x18
 1746 0703 2C000000 		.4byte	0x2c
 1747 0707 1B070000 		.4byte	0x71b
 1748 070b 0D       		.uleb128 0xd
 1749 070c FA020000 		.4byte	0x2fa
 1750 0710 0D       		.uleb128 0xd
 1751 0711 95060000 		.4byte	0x695
 1752 0715 0D       		.uleb128 0xd
 1753 0716 2C000000 		.4byte	0x2c
 1754 071a 00       		.byte	0
 1755 071b 0B       		.uleb128 0xb
 1756 071c 04       		.byte	0x4
 1757 071d 02070000 		.4byte	0x702
 1758 0721 18       		.uleb128 0x18
 1759 0722 0A010000 		.4byte	0x10a
 1760 0726 35070000 		.4byte	0x735
 1761 072a 0D       		.uleb128 0xd
 1762 072b FA020000 		.4byte	0x2fa
 1763 072f 0D       		.uleb128 0xd
 1764 0730 A2000000 		.4byte	0xa2
ARM GAS  /tmp/cc7i0CK9.s 			page 32


 1765 0734 00       		.byte	0
 1766 0735 0B       		.uleb128 0xb
 1767 0736 04       		.byte	0x4
 1768 0737 21070000 		.4byte	0x721
 1769 073b 11       		.uleb128 0x11
 1770 073c 04       		.byte	0x4
 1771 073d 0C       		.byte	0xc
 1772 073e 49       		.byte	0x49
 1773 073f 50070000 		.4byte	0x750
 1774 0743 10       		.uleb128 0x10
 1775 0744 766D7400 		.ascii	"vmt\000"
 1776 0748 0C       		.byte	0xc
 1777 0749 4B       		.byte	0x4b
 1778 074a 50070000 		.4byte	0x750
 1779 074e 00       		.byte	0
 1780 074f 00       		.byte	0
 1781 0750 0B       		.uleb128 0xb
 1782 0751 04       		.byte	0x4
 1783 0752 56070000 		.4byte	0x756
 1784 0756 15       		.uleb128 0x15
 1785 0757 9B060000 		.4byte	0x69b
 1786 075b 03       		.uleb128 0x3
 1787 075c 94010000 		.4byte	.LASF97
 1788 0760 0C       		.byte	0xc
 1789 0761 4D       		.byte	0x4d
 1790 0762 3B070000 		.4byte	0x73b
 1791 0766 04       		.uleb128 0x4
 1792 0767 01       		.byte	0x1
 1793 0768 02       		.byte	0x2
 1794 0769 6C040000 		.4byte	.LASF98
 1795 076d 03       		.uleb128 0x3
 1796 076e AC020000 		.4byte	.LASF99
 1797 0772 0D       		.byte	0xd
 1798 0773 28       		.byte	0x28
 1799 0774 78070000 		.4byte	0x778
 1800 0778 06       		.uleb128 0x6
 1801 0779 44010000 		.4byte	.LASF100
 1802 077d 04       		.byte	0x4
 1803 077e 0E       		.byte	0xe
 1804 077f 00       		.byte	0
 1805 0780 8F070000 		.4byte	0x78f
 1806 0784 19       		.uleb128 0x19
 1807 0785 B1050000 		.4byte	.LASF101
 1808 0789 FA020000 		.4byte	0x2fa
 1809 078d 00       		.byte	0
 1810 078e 00       		.byte	0
 1811 078f 03       		.uleb128 0x3
 1812 0790 3B000000 		.4byte	.LASF102
 1813 0794 0D       		.byte	0xd
 1814 0795 62       		.byte	0x62
 1815 0796 6D070000 		.4byte	0x76d
 1816 079a 06       		.uleb128 0x6
 1817 079b 11040000 		.4byte	.LASF103
 1818 079f 10       		.byte	0x10
 1819 07a0 0F       		.byte	0xf
 1820 07a1 3D       		.byte	0x3d
 1821 07a2 D7070000 		.4byte	0x7d7
ARM GAS  /tmp/cc7i0CK9.s 			page 33


 1822 07a6 07       		.uleb128 0x7
 1823 07a7 64020000 		.4byte	.LASF95
 1824 07ab 0F       		.byte	0xf
 1825 07ac 3E       		.byte	0x3e
 1826 07ad FC060000 		.4byte	0x6fc
 1827 07b1 00       		.byte	0
 1828 07b2 07       		.uleb128 0x7
 1829 07b3 1B020000 		.4byte	.LASF96
 1830 07b7 0F       		.byte	0xf
 1831 07b8 3E       		.byte	0x3e
 1832 07b9 1B070000 		.4byte	0x71b
 1833 07bd 04       		.byte	0x4
 1834 07be 10       		.uleb128 0x10
 1835 07bf 70757400 		.ascii	"put\000"
 1836 07c3 0F       		.byte	0xf
 1837 07c4 3E       		.byte	0x3e
 1838 07c5 35070000 		.4byte	0x735
 1839 07c9 08       		.byte	0x8
 1840 07ca 10       		.uleb128 0x10
 1841 07cb 67657400 		.ascii	"get\000"
 1842 07cf 0F       		.byte	0xf
 1843 07d0 3E       		.byte	0x3e
 1844 07d1 6F060000 		.4byte	0x66f
 1845 07d5 0C       		.byte	0xc
 1846 07d6 00       		.byte	0
 1847 07d7 11       		.uleb128 0x11
 1848 07d8 14       		.byte	0x14
 1849 07d9 0F       		.byte	0xf
 1850 07da 46       		.byte	0x46
 1851 07db 1C080000 		.4byte	0x81c
 1852 07df 10       		.uleb128 0x10
 1853 07e0 766D7400 		.ascii	"vmt\000"
 1854 07e4 0F       		.byte	0xf
 1855 07e5 48       		.byte	0x48
 1856 07e6 1C080000 		.4byte	0x81c
 1857 07ea 00       		.byte	0
 1858 07eb 07       		.uleb128 0x7
 1859 07ec 4E010000 		.4byte	.LASF104
 1860 07f0 0F       		.byte	0xf
 1861 07f1 49       		.byte	0x49
 1862 07f2 95060000 		.4byte	0x695
 1863 07f6 04       		.byte	0x4
 1864 07f7 07       		.uleb128 0x7
 1865 07f8 3A060000 		.4byte	.LASF105
 1866 07fc 0F       		.byte	0xf
 1867 07fd 49       		.byte	0x49
 1868 07fe 2C000000 		.4byte	0x2c
 1869 0802 08       		.byte	0x8
 1870 0803 10       		.uleb128 0x10
 1871 0804 656F7300 		.ascii	"eos\000"
 1872 0808 0F       		.byte	0xf
 1873 0809 49       		.byte	0x49
 1874 080a 2C000000 		.4byte	0x2c
 1875 080e 0C       		.byte	0xc
 1876 080f 07       		.uleb128 0x7
 1877 0810 AA050000 		.4byte	.LASF82
 1878 0814 0F       		.byte	0xf
ARM GAS  /tmp/cc7i0CK9.s 			page 34


 1879 0815 49       		.byte	0x49
 1880 0816 2C000000 		.4byte	0x2c
 1881 081a 10       		.byte	0x10
 1882 081b 00       		.byte	0
 1883 081c 0B       		.uleb128 0xb
 1884 081d 04       		.byte	0x4
 1885 081e 22080000 		.4byte	0x822
 1886 0822 15       		.uleb128 0x15
 1887 0823 9A070000 		.4byte	0x79a
 1888 0827 03       		.uleb128 0x3
 1889 0828 48040000 		.4byte	.LASF106
 1890 082c 0F       		.byte	0xf
 1891 082d 4A       		.byte	0x4a
 1892 082e D7070000 		.4byte	0x7d7
 1893 0832 1A       		.uleb128 0x1a
 1894 0833 F7050000 		.4byte	.LASF108
 1895 0837 01       		.byte	0x1
 1896 0838 46       		.byte	0x46
 1897 0839 62080000 		.4byte	0x862
 1898 083d 01       		.byte	0x1
 1899 083e 62080000 		.4byte	0x862
 1900 0842 1B       		.uleb128 0x1b
 1901 0843 7000     		.ascii	"p\000"
 1902 0845 01       		.byte	0x1
 1903 0846 46       		.byte	0x46
 1904 0847 62080000 		.4byte	0x862
 1905 084b 1B       		.uleb128 0x1b
 1906 084c 6E756D00 		.ascii	"num\000"
 1907 0850 01       		.byte	0x1
 1908 0851 46       		.byte	0x46
 1909 0852 70000000 		.4byte	0x70
 1910 0856 1C       		.uleb128 0x1c
 1911 0857 0A050000 		.4byte	.LASF107
 1912 085b 01       		.byte	0x1
 1913 085c 46       		.byte	0x46
 1914 085d 37000000 		.4byte	0x37
 1915 0861 00       		.byte	0
 1916 0862 0B       		.uleb128 0xb
 1917 0863 04       		.byte	0x4
 1918 0864 16060000 		.4byte	0x616
 1919 0868 1A       		.uleb128 0x1a
 1920 0869 1E060000 		.4byte	.LASF109
 1921 086d 01       		.byte	0x1
 1922 086e 25       		.byte	0x25
 1923 086f 62080000 		.4byte	0x862
 1924 0873 01       		.byte	0x1
 1925 0874 C8080000 		.4byte	0x8c8
 1926 0878 1B       		.uleb128 0x1b
 1927 0879 7000     		.ascii	"p\000"
 1928 087b 01       		.byte	0x1
 1929 087c 25       		.byte	0x25
 1930 087d 62080000 		.4byte	0x862
 1931 0881 1B       		.uleb128 0x1b
 1932 0882 6E756D00 		.ascii	"num\000"
 1933 0886 01       		.byte	0x1
 1934 0887 26       		.byte	0x26
 1935 0888 70000000 		.4byte	0x70
ARM GAS  /tmp/cc7i0CK9.s 			page 35


 1936 088c 1C       		.uleb128 0x1c
 1937 088d 0A050000 		.4byte	.LASF107
 1938 0891 01       		.byte	0x1
 1939 0892 27       		.byte	0x27
 1940 0893 37000000 		.4byte	0x37
 1941 0897 1C       		.uleb128 0x1c
 1942 0898 A4020000 		.4byte	.LASF110
 1943 089c 01       		.byte	0x1
 1944 089d 28       		.byte	0x28
 1945 089e 70000000 		.4byte	0x70
 1946 08a2 1D       		.uleb128 0x1d
 1947 08a3 6900     		.ascii	"i\000"
 1948 08a5 01       		.byte	0x1
 1949 08a6 29       		.byte	0x29
 1950 08a7 25000000 		.4byte	0x25
 1951 08ab 1D       		.uleb128 0x1d
 1952 08ac 7100     		.ascii	"q\000"
 1953 08ae 01       		.byte	0x1
 1954 08af 2A       		.byte	0x2a
 1955 08b0 62080000 		.4byte	0x862
 1956 08b4 1D       		.uleb128 0x1d
 1957 08b5 6C00     		.ascii	"l\000"
 1958 08b7 01       		.byte	0x1
 1959 08b8 2B       		.byte	0x2b
 1960 08b9 70000000 		.4byte	0x70
 1961 08bd 1D       		.uleb128 0x1d
 1962 08be 6C6C00   		.ascii	"ll\000"
 1963 08c1 01       		.byte	0x1
 1964 08c2 2B       		.byte	0x2b
 1965 08c3 70000000 		.4byte	0x70
 1966 08c7 00       		.byte	0
 1967 08c8 1E       		.uleb128 0x1e
 1968 08c9 68080000 		.4byte	0x868
 1969 08cd 00000000 		.4byte	.LFB260
 1970 08d1 44000000 		.4byte	.LFE260-.LFB260
 1971 08d5 01       		.uleb128 0x1
 1972 08d6 9C       		.byte	0x9c
 1973 08d7 21090000 		.4byte	0x921
 1974 08db 1F       		.uleb128 0x1f
 1975 08dc 78080000 		.4byte	0x878
 1976 08e0 00000000 		.4byte	.LLST0
 1977 08e4 1F       		.uleb128 0x1f
 1978 08e5 81080000 		.4byte	0x881
 1979 08e9 38000000 		.4byte	.LLST1
 1980 08ed 1F       		.uleb128 0x1f
 1981 08ee 8C080000 		.4byte	0x88c
 1982 08f2 59000000 		.4byte	.LLST2
 1983 08f6 20       		.uleb128 0x20
 1984 08f7 A2080000 		.4byte	0x8a2
 1985 08fb 7A000000 		.4byte	.LLST3
 1986 08ff 20       		.uleb128 0x20
 1987 0900 AB080000 		.4byte	0x8ab
 1988 0904 A8000000 		.4byte	.LLST4
 1989 0908 20       		.uleb128 0x20
 1990 0909 B4080000 		.4byte	0x8b4
 1991 090d DE000000 		.4byte	.LLST5
 1992 0911 20       		.uleb128 0x20
ARM GAS  /tmp/cc7i0CK9.s 			page 36


 1993 0912 BD080000 		.4byte	0x8bd
 1994 0916 FC000000 		.4byte	.LLST6
 1995 091a 21       		.uleb128 0x21
 1996 091b 97080000 		.4byte	0x897
 1997 091f 00       		.byte	0
 1998 0920 00       		.byte	0
 1999 0921 22       		.uleb128 0x22
 2000 0922 0D060000 		.4byte	.LASF117
 2001 0926 01       		.byte	0x1
 2002 0927 79       		.byte	0x79
 2003 0928 25000000 		.4byte	0x25
 2004 092c 00000000 		.4byte	.LFB258
 2005 0930 0C030000 		.4byte	.LFE258-.LFB258
 2006 0934 01       		.uleb128 0x1
 2007 0935 9C       		.byte	0x9c
 2008 0936 CC0A0000 		.4byte	0xacc
 2009 093a 23       		.uleb128 0x23
 2010 093b 63687000 		.ascii	"chp\000"
 2011 093f 01       		.byte	0x1
 2012 0940 79       		.byte	0x79
 2013 0941 CC0A0000 		.4byte	0xacc
 2014 0945 25010000 		.4byte	.LLST7
 2015 0949 23       		.uleb128 0x23
 2016 094a 666D7400 		.ascii	"fmt\000"
 2017 094e 01       		.byte	0x1
 2018 094f 79       		.byte	0x79
 2019 0950 0B060000 		.4byte	0x60b
 2020 0954 43010000 		.4byte	.LLST8
 2021 0958 23       		.uleb128 0x23
 2022 0959 617000   		.ascii	"ap\000"
 2023 095c 01       		.byte	0x1
 2024 095d 79       		.byte	0x79
 2025 095e 8F070000 		.4byte	0x78f
 2026 0962 F8010000 		.4byte	.LLST9
 2027 0966 24       		.uleb128 0x24
 2028 0967 7000     		.ascii	"p\000"
 2029 0969 01       		.byte	0x1
 2030 096a 7A       		.byte	0x7a
 2031 096b 62080000 		.4byte	0x862
 2032 096f 0B020000 		.4byte	.LLST10
 2033 0973 24       		.uleb128 0x24
 2034 0974 7300     		.ascii	"s\000"
 2035 0976 01       		.byte	0x1
 2036 0977 7A       		.byte	0x7a
 2037 0978 62080000 		.4byte	0x862
 2038 097c CA020000 		.4byte	.LLST11
 2039 0980 24       		.uleb128 0x24
 2040 0981 6300     		.ascii	"c\000"
 2041 0983 01       		.byte	0x1
 2042 0984 7A       		.byte	0x7a
 2043 0985 16060000 		.4byte	0x616
 2044 0989 9D030000 		.4byte	.LLST12
 2045 098d 25       		.uleb128 0x25
 2046 098e 7D010000 		.4byte	.LASF111
 2047 0992 01       		.byte	0x1
 2048 0993 7A       		.byte	0x7a
 2049 0994 16060000 		.4byte	0x616
ARM GAS  /tmp/cc7i0CK9.s 			page 37


 2050 0998 20040000 		.4byte	.LLST13
 2051 099c 24       		.uleb128 0x24
 2052 099d 6900     		.ascii	"i\000"
 2053 099f 01       		.byte	0x1
 2054 09a0 7B       		.byte	0x7b
 2055 09a1 25000000 		.4byte	0x25
 2056 09a5 A0040000 		.4byte	.LLST14
 2057 09a9 25       		.uleb128 0x25
 2058 09aa 5D050000 		.4byte	.LASF112
 2059 09ae 01       		.byte	0x1
 2060 09af 7B       		.byte	0x7b
 2061 09b0 25000000 		.4byte	0x25
 2062 09b4 33050000 		.4byte	.LLST15
 2063 09b8 25       		.uleb128 0x25
 2064 09b9 F2010000 		.4byte	.LASF113
 2065 09bd 01       		.byte	0x1
 2066 09be 7B       		.byte	0x7b
 2067 09bf 25000000 		.4byte	0x25
 2068 09c3 CB050000 		.4byte	.LLST16
 2069 09c7 24       		.uleb128 0x24
 2070 09c8 6E00     		.ascii	"n\000"
 2071 09ca 01       		.byte	0x1
 2072 09cb 7C       		.byte	0x7c
 2073 09cc 25000000 		.4byte	0x25
 2074 09d0 94060000 		.4byte	.LLST17
 2075 09d4 25       		.uleb128 0x25
 2076 09d5 84010000 		.4byte	.LASF114
 2077 09d9 01       		.byte	0x1
 2078 09da 7D       		.byte	0x7d
 2079 09db 66070000 		.4byte	0x766
 2080 09df D4060000 		.4byte	.LLST18
 2081 09e3 25       		.uleb128 0x25
 2082 09e4 E7010000 		.4byte	.LASF115
 2083 09e8 01       		.byte	0x1
 2084 09e9 7D       		.byte	0x7d
 2085 09ea 66070000 		.4byte	0x766
 2086 09ee F4060000 		.4byte	.LLST19
 2087 09f2 24       		.uleb128 0x24
 2088 09f3 6C00     		.ascii	"l\000"
 2089 09f5 01       		.byte	0x1
 2090 09f6 7E       		.byte	0x7e
 2091 09f7 70000000 		.4byte	0x70
 2092 09fb 40070000 		.4byte	.LLST20
 2093 09ff 26       		.uleb128 0x26
 2094 0a00 21010000 		.4byte	.LASF116
 2095 0a04 01       		.byte	0x1
 2096 0a05 83       		.byte	0x83
 2097 0a06 D20A0000 		.4byte	0xad2
 2098 0a0a 02       		.uleb128 0x2
 2099 0a0b 91       		.byte	0x91
 2100 0a0c 4C       		.sleb128 -52
 2101 0a0d 27       		.uleb128 0x27
 2102 0a0e 94020000 		.4byte	.LASF125
 2103 0a12 01       		.byte	0x1
 2104 0a13 EF       		.byte	0xef
 2105 0a14 9C020000 		.4byte	.L36
 2106 0a18 28       		.uleb128 0x28
ARM GAS  /tmp/cc7i0CK9.s 			page 38


 2107 0a19 32080000 		.4byte	0x832
 2108 0a1d 76020000 		.4byte	.LBB6
 2109 0a21 00000000 		.4byte	.Ldebug_ranges0+0
 2110 0a25 01       		.byte	0x1
 2111 0a26 F4       		.byte	0xf4
 2112 0a27 440A0000 		.4byte	0xa44
 2113 0a2b 29       		.uleb128 0x29
 2114 0a2c 56080000 		.4byte	0x856
 2115 0a30 29       		.uleb128 0x29
 2116 0a31 4B080000 		.4byte	0x84b
 2117 0a35 29       		.uleb128 0x29
 2118 0a36 42080000 		.4byte	0x842
 2119 0a3a 2A       		.uleb128 0x2a
 2120 0a3b 7E020000 		.4byte	.LVL86
 2121 0a3f C8080000 		.4byte	0x8c8
 2122 0a43 00       		.byte	0
 2123 0a44 2B       		.uleb128 0x2b
 2124 0a45 32080000 		.4byte	0x832
 2125 0a49 98020000 		.4byte	.LBB10
 2126 0a4d 04000000 		.4byte	.LBE10-.LBB10
 2127 0a51 01       		.byte	0x1
 2128 0a52 D8       		.byte	0xd8
 2129 0a53 730A0000 		.4byte	0xa73
 2130 0a57 1F       		.uleb128 0x1f
 2131 0a58 56080000 		.4byte	0x856
 2132 0a5c 69070000 		.4byte	.LLST21
 2133 0a60 1F       		.uleb128 0x1f
 2134 0a61 4B080000 		.4byte	0x84b
 2135 0a65 7D070000 		.4byte	.LLST22
 2136 0a69 1F       		.uleb128 0x1f
 2137 0a6a 42080000 		.4byte	0x842
 2138 0a6e 90070000 		.4byte	.LLST23
 2139 0a72 00       		.byte	0
 2140 0a73 2C       		.uleb128 0x2c
 2141 0a74 36000000 		.4byte	.LVL21
 2142 0a78 830A0000 		.4byte	0xa83
 2143 0a7c 2D       		.uleb128 0x2d
 2144 0a7d 01       		.uleb128 0x1
 2145 0a7e 50       		.byte	0x50
 2146 0a7f 02       		.uleb128 0x2
 2147 0a80 79       		.byte	0x79
 2148 0a81 00       		.sleb128 0
 2149 0a82 00       		.byte	0
 2150 0a83 2C       		.uleb128 0x2c
 2151 0a84 F2010000 		.4byte	.LVL64
 2152 0a88 990A0000 		.4byte	0xa99
 2153 0a8c 2D       		.uleb128 0x2d
 2154 0a8d 01       		.uleb128 0x1
 2155 0a8e 51       		.byte	0x51
 2156 0a8f 02       		.uleb128 0x2
 2157 0a90 77       		.byte	0x77
 2158 0a91 00       		.sleb128 0
 2159 0a92 2D       		.uleb128 0x2d
 2160 0a93 01       		.uleb128 0x1
 2161 0a94 50       		.byte	0x50
 2162 0a95 02       		.uleb128 0x2
 2163 0a96 79       		.byte	0x79
ARM GAS  /tmp/cc7i0CK9.s 			page 39


 2164 0a97 00       		.sleb128 0
 2165 0a98 00       		.byte	0
 2166 0a99 2C       		.uleb128 0x2c
 2167 0a9a 38020000 		.4byte	.LVL73
 2168 0a9e AF0A0000 		.4byte	0xaaf
 2169 0aa2 2D       		.uleb128 0x2d
 2170 0aa3 01       		.uleb128 0x1
 2171 0aa4 51       		.byte	0x51
 2172 0aa5 02       		.uleb128 0x2
 2173 0aa6 77       		.byte	0x77
 2174 0aa7 00       		.sleb128 0
 2175 0aa8 2D       		.uleb128 0x2d
 2176 0aa9 01       		.uleb128 0x1
 2177 0aaa 50       		.byte	0x50
 2178 0aab 02       		.uleb128 0x2
 2179 0aac 79       		.byte	0x79
 2180 0aad 00       		.sleb128 0
 2181 0aae 00       		.byte	0
 2182 0aaf 2C       		.uleb128 0x2c
 2183 0ab0 5E020000 		.4byte	.LVL80
 2184 0ab4 BF0A0000 		.4byte	0xabf
 2185 0ab8 2D       		.uleb128 0x2d
 2186 0ab9 01       		.uleb128 0x1
 2187 0aba 50       		.byte	0x50
 2188 0abb 02       		.uleb128 0x2
 2189 0abc 79       		.byte	0x79
 2190 0abd 00       		.sleb128 0
 2191 0abe 00       		.byte	0
 2192 0abf 2E       		.uleb128 0x2e
 2193 0ac0 C8020000 		.4byte	.LVL102
 2194 0ac4 2D       		.uleb128 0x2d
 2195 0ac5 01       		.uleb128 0x1
 2196 0ac6 50       		.byte	0x50
 2197 0ac7 02       		.uleb128 0x2
 2198 0ac8 79       		.byte	0x79
 2199 0ac9 00       		.sleb128 0
 2200 0aca 00       		.byte	0
 2201 0acb 00       		.byte	0
 2202 0acc 0B       		.uleb128 0xb
 2203 0acd 04       		.byte	0x4
 2204 0ace 5B070000 		.4byte	0x75b
 2205 0ad2 16       		.uleb128 0x16
 2206 0ad3 16060000 		.4byte	0x616
 2207 0ad7 E20A0000 		.4byte	0xae2
 2208 0adb 17       		.uleb128 0x17
 2209 0adc 30040000 		.4byte	0x430
 2210 0ae0 0B       		.byte	0xb
 2211 0ae1 00       		.byte	0
 2212 0ae2 2F       		.uleb128 0x2f
 2213 0ae3 4D050000 		.4byte	.LASF118
 2214 0ae7 01       		.byte	0x1
 2215 0ae8 3301     		.2byte	0x133
 2216 0aea 25000000 		.4byte	0x25
 2217 0aee 00000000 		.4byte	.LFB259
 2218 0af2 5E000000 		.4byte	.LFE259-.LFB259
 2219 0af6 01       		.uleb128 0x1
 2220 0af7 9C       		.byte	0x9c
ARM GAS  /tmp/cc7i0CK9.s 			page 40


 2221 0af8 020C0000 		.4byte	0xc02
 2222 0afc 30       		.uleb128 0x30
 2223 0afd 73747200 		.ascii	"str\000"
 2224 0b01 01       		.byte	0x1
 2225 0b02 3301     		.2byte	0x133
 2226 0b04 62080000 		.4byte	0x862
 2227 0b08 A3070000 		.4byte	.LLST24
 2228 0b0c 31       		.uleb128 0x31
 2229 0b0d 3A060000 		.4byte	.LASF105
 2230 0b11 01       		.byte	0x1
 2231 0b12 3301     		.2byte	0x133
 2232 0b14 2C000000 		.4byte	0x2c
 2233 0b18 F3070000 		.4byte	.LLST25
 2234 0b1c 32       		.uleb128 0x32
 2235 0b1d 666D7400 		.ascii	"fmt\000"
 2236 0b21 01       		.byte	0x1
 2237 0b22 3301     		.2byte	0x133
 2238 0b24 0B060000 		.4byte	0x60b
 2239 0b28 02       		.uleb128 0x2
 2240 0b29 91       		.byte	0x91
 2241 0b2a 78       		.sleb128 -8
 2242 0b2b 33       		.uleb128 0x33
 2243 0b2c 34       		.uleb128 0x34
 2244 0b2d 617000   		.ascii	"ap\000"
 2245 0b30 01       		.byte	0x1
 2246 0b31 3401     		.2byte	0x134
 2247 0b33 8F070000 		.4byte	0x78f
 2248 0b37 02       		.uleb128 0x2
 2249 0b38 91       		.byte	0x91
 2250 0b39 50       		.sleb128 -48
 2251 0b3a 34       		.uleb128 0x34
 2252 0b3b 6D7300   		.ascii	"ms\000"
 2253 0b3e 01       		.byte	0x1
 2254 0b3f 3501     		.2byte	0x135
 2255 0b41 27080000 		.4byte	0x827
 2256 0b45 02       		.uleb128 0x2
 2257 0b46 91       		.byte	0x91
 2258 0b47 54       		.sleb128 -44
 2259 0b48 35       		.uleb128 0x35
 2260 0b49 63687000 		.ascii	"chp\000"
 2261 0b4d 01       		.byte	0x1
 2262 0b4e 3601     		.2byte	0x136
 2263 0b50 CC0A0000 		.4byte	0xacc
 2264 0b54 43080000 		.4byte	.LLST26
 2265 0b58 36       		.uleb128 0x36
 2266 0b59 59000000 		.4byte	.LASF119
 2267 0b5d 01       		.byte	0x1
 2268 0b5e 3701     		.2byte	0x137
 2269 0b60 2C000000 		.4byte	0x2c
 2270 0b64 95080000 		.4byte	.LLST27
 2271 0b68 36       		.uleb128 0x36
 2272 0b69 52000000 		.4byte	.LASF120
 2273 0b6d 01       		.byte	0x1
 2274 0b6e 3801     		.2byte	0x138
 2275 0b70 25000000 		.4byte	0x25
 2276 0b74 EB080000 		.4byte	.LLST28
 2277 0b78 37       		.uleb128 0x37
ARM GAS  /tmp/cc7i0CK9.s 			page 41


 2278 0b79 18000000 		.4byte	.LVL118
 2279 0b7d 190C0000 		.4byte	0xc19
 2280 0b81 9D0B0000 		.4byte	0xb9d
 2281 0b85 2D       		.uleb128 0x2d
 2282 0b86 01       		.uleb128 0x1
 2283 0b87 53       		.byte	0x53
 2284 0b88 01       		.uleb128 0x1
 2285 0b89 30       		.byte	0x30
 2286 0b8a 2D       		.uleb128 0x2d
 2287 0b8b 01       		.uleb128 0x1
 2288 0b8c 52       		.byte	0x52
 2289 0b8d 02       		.uleb128 0x2
 2290 0b8e 74       		.byte	0x74
 2291 0b8f 7F       		.sleb128 -1
 2292 0b90 2D       		.uleb128 0x2d
 2293 0b91 01       		.uleb128 0x1
 2294 0b92 51       		.byte	0x51
 2295 0b93 02       		.uleb128 0x2
 2296 0b94 75       		.byte	0x75
 2297 0b95 00       		.sleb128 0
 2298 0b96 2D       		.uleb128 0x2d
 2299 0b97 01       		.uleb128 0x1
 2300 0b98 50       		.byte	0x50
 2301 0b99 02       		.uleb128 0x2
 2302 0b9a 91       		.byte	0x91
 2303 0b9b 44       		.sleb128 -60
 2304 0b9c 00       		.byte	0
 2305 0b9d 37       		.uleb128 0x37
 2306 0b9e 26000000 		.4byte	.LVL120
 2307 0ba2 21090000 		.4byte	0x921
 2308 0ba6 BE0B0000 		.4byte	0xbbe
 2309 0baa 2D       		.uleb128 0x2d
 2310 0bab 01       		.uleb128 0x1
 2311 0bac 52       		.byte	0x52
 2312 0bad 02       		.uleb128 0x2
 2313 0bae 91       		.byte	0x91
 2314 0baf 6C       		.sleb128 -20
 2315 0bb0 2D       		.uleb128 0x2d
 2316 0bb1 01       		.uleb128 0x1
 2317 0bb2 51       		.byte	0x51
 2318 0bb3 03       		.uleb128 0x3
 2319 0bb4 91       		.byte	0x91
 2320 0bb5 68       		.sleb128 -24
 2321 0bb6 06       		.byte	0x6
 2322 0bb7 2D       		.uleb128 0x2d
 2323 0bb8 01       		.uleb128 0x1
 2324 0bb9 50       		.byte	0x50
 2325 0bba 02       		.uleb128 0x2
 2326 0bbb 91       		.byte	0x91
 2327 0bbc 44       		.sleb128 -60
 2328 0bbd 00       		.byte	0
 2329 0bbe 37       		.uleb128 0x37
 2330 0bbf 46000000 		.4byte	.LVL125
 2331 0bc3 190C0000 		.4byte	0xc19
 2332 0bc7 E40B0000 		.4byte	0xbe4
 2333 0bcb 2D       		.uleb128 0x2d
 2334 0bcc 01       		.uleb128 0x1
ARM GAS  /tmp/cc7i0CK9.s 			page 42


 2335 0bcd 53       		.byte	0x53
 2336 0bce 02       		.uleb128 0x2
 2337 0bcf 74       		.byte	0x74
 2338 0bd0 00       		.sleb128 0
 2339 0bd1 2D       		.uleb128 0x2d
 2340 0bd2 01       		.uleb128 0x1
 2341 0bd3 52       		.byte	0x52
 2342 0bd4 02       		.uleb128 0x2
 2343 0bd5 74       		.byte	0x74
 2344 0bd6 00       		.sleb128 0
 2345 0bd7 2D       		.uleb128 0x2d
 2346 0bd8 01       		.uleb128 0x1
 2347 0bd9 51       		.byte	0x51
 2348 0bda 02       		.uleb128 0x2
 2349 0bdb 75       		.byte	0x75
 2350 0bdc 00       		.sleb128 0
 2351 0bdd 2D       		.uleb128 0x2d
 2352 0bde 01       		.uleb128 0x1
 2353 0bdf 50       		.byte	0x50
 2354 0be0 02       		.uleb128 0x2
 2355 0be1 91       		.byte	0x91
 2356 0be2 44       		.sleb128 -60
 2357 0be3 00       		.byte	0
 2358 0be4 38       		.uleb128 0x38
 2359 0be5 54000000 		.4byte	.LVL127
 2360 0be9 21090000 		.4byte	0x921
 2361 0bed 2D       		.uleb128 0x2d
 2362 0bee 01       		.uleb128 0x1
 2363 0bef 52       		.byte	0x52
 2364 0bf0 02       		.uleb128 0x2
 2365 0bf1 91       		.byte	0x91
 2366 0bf2 6C       		.sleb128 -20
 2367 0bf3 2D       		.uleb128 0x2d
 2368 0bf4 01       		.uleb128 0x1
 2369 0bf5 51       		.byte	0x51
 2370 0bf6 03       		.uleb128 0x3
 2371 0bf7 91       		.byte	0x91
 2372 0bf8 68       		.sleb128 -24
 2373 0bf9 06       		.byte	0x6
 2374 0bfa 2D       		.uleb128 0x2d
 2375 0bfb 01       		.uleb128 0x1
 2376 0bfc 50       		.byte	0x50
 2377 0bfd 02       		.uleb128 0x2
 2378 0bfe 91       		.byte	0x91
 2379 0bff 44       		.sleb128 -60
 2380 0c00 00       		.byte	0
 2381 0c01 00       		.byte	0
 2382 0c02 39       		.uleb128 0x39
 2383 0c03 A6000000 		.4byte	.LASF121
 2384 0c07 10       		.byte	0x10
 2385 0c08 A706     		.2byte	0x6a7
 2386 0c0a CE000000 		.4byte	0xce
 2387 0c0e 3A       		.uleb128 0x3a
 2388 0c0f 636800   		.ascii	"ch\000"
 2389 0c12 07       		.byte	0x7
 2390 0c13 EB01     		.2byte	0x1eb
 2391 0c15 C9030000 		.4byte	0x3c9
ARM GAS  /tmp/cc7i0CK9.s 			page 43


 2392 0c19 3B       		.uleb128 0x3b
 2393 0c1a 57020000 		.4byte	.LASF126
 2394 0c1e 0F       		.byte	0xf
 2395 0c1f 57       		.byte	0x57
 2396 0c20 390C0000 		.4byte	0xc39
 2397 0c24 0D       		.uleb128 0xd
 2398 0c25 390C0000 		.4byte	0xc39
 2399 0c29 0D       		.uleb128 0xd
 2400 0c2a 95060000 		.4byte	0x695
 2401 0c2e 0D       		.uleb128 0xd
 2402 0c2f 2C000000 		.4byte	0x2c
 2403 0c33 0D       		.uleb128 0xd
 2404 0c34 2C000000 		.4byte	0x2c
 2405 0c38 00       		.byte	0
 2406 0c39 0B       		.uleb128 0xb
 2407 0c3a 04       		.byte	0x4
 2408 0c3b 27080000 		.4byte	0x827
 2409 0c3f 00       		.byte	0
 2410              		.section	.debug_abbrev,"",%progbits
 2411              	.Ldebug_abbrev0:
 2412 0000 01       		.uleb128 0x1
 2413 0001 11       		.uleb128 0x11
 2414 0002 01       		.byte	0x1
 2415 0003 25       		.uleb128 0x25
 2416 0004 0E       		.uleb128 0xe
 2417 0005 13       		.uleb128 0x13
 2418 0006 0B       		.uleb128 0xb
 2419 0007 03       		.uleb128 0x3
 2420 0008 0E       		.uleb128 0xe
 2421 0009 1B       		.uleb128 0x1b
 2422 000a 0E       		.uleb128 0xe
 2423 000b 55       		.uleb128 0x55
 2424 000c 17       		.uleb128 0x17
 2425 000d 11       		.uleb128 0x11
 2426 000e 01       		.uleb128 0x1
 2427 000f 10       		.uleb128 0x10
 2428 0010 17       		.uleb128 0x17
 2429 0011 00       		.byte	0
 2430 0012 00       		.byte	0
 2431 0013 02       		.uleb128 0x2
 2432 0014 24       		.uleb128 0x24
 2433 0015 00       		.byte	0
 2434 0016 0B       		.uleb128 0xb
 2435 0017 0B       		.uleb128 0xb
 2436 0018 3E       		.uleb128 0x3e
 2437 0019 0B       		.uleb128 0xb
 2438 001a 03       		.uleb128 0x3
 2439 001b 08       		.uleb128 0x8
 2440 001c 00       		.byte	0
 2441 001d 00       		.byte	0
 2442 001e 03       		.uleb128 0x3
 2443 001f 16       		.uleb128 0x16
 2444 0020 00       		.byte	0
 2445 0021 03       		.uleb128 0x3
 2446 0022 0E       		.uleb128 0xe
 2447 0023 3A       		.uleb128 0x3a
 2448 0024 0B       		.uleb128 0xb
ARM GAS  /tmp/cc7i0CK9.s 			page 44


 2449 0025 3B       		.uleb128 0x3b
 2450 0026 0B       		.uleb128 0xb
 2451 0027 49       		.uleb128 0x49
 2452 0028 13       		.uleb128 0x13
 2453 0029 00       		.byte	0
 2454 002a 00       		.byte	0
 2455 002b 04       		.uleb128 0x4
 2456 002c 24       		.uleb128 0x24
 2457 002d 00       		.byte	0
 2458 002e 0B       		.uleb128 0xb
 2459 002f 0B       		.uleb128 0xb
 2460 0030 3E       		.uleb128 0x3e
 2461 0031 0B       		.uleb128 0xb
 2462 0032 03       		.uleb128 0x3
 2463 0033 0E       		.uleb128 0xe
 2464 0034 00       		.byte	0
 2465 0035 00       		.byte	0
 2466 0036 05       		.uleb128 0x5
 2467 0037 35       		.uleb128 0x35
 2468 0038 00       		.byte	0
 2469 0039 49       		.uleb128 0x49
 2470 003a 13       		.uleb128 0x13
 2471 003b 00       		.byte	0
 2472 003c 00       		.byte	0
 2473 003d 06       		.uleb128 0x6
 2474 003e 13       		.uleb128 0x13
 2475 003f 01       		.byte	0x1
 2476 0040 03       		.uleb128 0x3
 2477 0041 0E       		.uleb128 0xe
 2478 0042 0B       		.uleb128 0xb
 2479 0043 0B       		.uleb128 0xb
 2480 0044 3A       		.uleb128 0x3a
 2481 0045 0B       		.uleb128 0xb
 2482 0046 3B       		.uleb128 0x3b
 2483 0047 0B       		.uleb128 0xb
 2484 0048 01       		.uleb128 0x1
 2485 0049 13       		.uleb128 0x13
 2486 004a 00       		.byte	0
 2487 004b 00       		.byte	0
 2488 004c 07       		.uleb128 0x7
 2489 004d 0D       		.uleb128 0xd
 2490 004e 00       		.byte	0
 2491 004f 03       		.uleb128 0x3
 2492 0050 0E       		.uleb128 0xe
 2493 0051 3A       		.uleb128 0x3a
 2494 0052 0B       		.uleb128 0xb
 2495 0053 3B       		.uleb128 0x3b
 2496 0054 0B       		.uleb128 0xb
 2497 0055 49       		.uleb128 0x49
 2498 0056 13       		.uleb128 0x13
 2499 0057 38       		.uleb128 0x38
 2500 0058 0B       		.uleb128 0xb
 2501 0059 00       		.byte	0
 2502 005a 00       		.byte	0
 2503 005b 08       		.uleb128 0x8
 2504 005c 0D       		.uleb128 0xd
 2505 005d 00       		.byte	0
ARM GAS  /tmp/cc7i0CK9.s 			page 45


 2506 005e 03       		.uleb128 0x3
 2507 005f 08       		.uleb128 0x8
 2508 0060 3A       		.uleb128 0x3a
 2509 0061 0B       		.uleb128 0xb
 2510 0062 3B       		.uleb128 0x3b
 2511 0063 05       		.uleb128 0x5
 2512 0064 49       		.uleb128 0x49
 2513 0065 13       		.uleb128 0x13
 2514 0066 38       		.uleb128 0x38
 2515 0067 0B       		.uleb128 0xb
 2516 0068 00       		.byte	0
 2517 0069 00       		.byte	0
 2518 006a 09       		.uleb128 0x9
 2519 006b 0D       		.uleb128 0xd
 2520 006c 00       		.byte	0
 2521 006d 03       		.uleb128 0x3
 2522 006e 0E       		.uleb128 0xe
 2523 006f 3A       		.uleb128 0x3a
 2524 0070 0B       		.uleb128 0xb
 2525 0071 3B       		.uleb128 0x3b
 2526 0072 05       		.uleb128 0x5
 2527 0073 49       		.uleb128 0x49
 2528 0074 13       		.uleb128 0x13
 2529 0075 38       		.uleb128 0x38
 2530 0076 0B       		.uleb128 0xb
 2531 0077 00       		.byte	0
 2532 0078 00       		.byte	0
 2533 0079 0A       		.uleb128 0xa
 2534 007a 13       		.uleb128 0x13
 2535 007b 01       		.byte	0x1
 2536 007c 03       		.uleb128 0x3
 2537 007d 0E       		.uleb128 0xe
 2538 007e 0B       		.uleb128 0xb
 2539 007f 0B       		.uleb128 0xb
 2540 0080 3A       		.uleb128 0x3a
 2541 0081 0B       		.uleb128 0xb
 2542 0082 3B       		.uleb128 0x3b
 2543 0083 05       		.uleb128 0x5
 2544 0084 01       		.uleb128 0x1
 2545 0085 13       		.uleb128 0x13
 2546 0086 00       		.byte	0
 2547 0087 00       		.byte	0
 2548 0088 0B       		.uleb128 0xb
 2549 0089 0F       		.uleb128 0xf
 2550 008a 00       		.byte	0
 2551 008b 0B       		.uleb128 0xb
 2552 008c 0B       		.uleb128 0xb
 2553 008d 49       		.uleb128 0x49
 2554 008e 13       		.uleb128 0x13
 2555 008f 00       		.byte	0
 2556 0090 00       		.byte	0
 2557 0091 0C       		.uleb128 0xc
 2558 0092 15       		.uleb128 0x15
 2559 0093 01       		.byte	0x1
 2560 0094 27       		.uleb128 0x27
 2561 0095 19       		.uleb128 0x19
 2562 0096 01       		.uleb128 0x1
ARM GAS  /tmp/cc7i0CK9.s 			page 46


 2563 0097 13       		.uleb128 0x13
 2564 0098 00       		.byte	0
 2565 0099 00       		.byte	0
 2566 009a 0D       		.uleb128 0xd
 2567 009b 05       		.uleb128 0x5
 2568 009c 00       		.byte	0
 2569 009d 49       		.uleb128 0x49
 2570 009e 13       		.uleb128 0x13
 2571 009f 00       		.byte	0
 2572 00a0 00       		.byte	0
 2573 00a1 0E       		.uleb128 0xe
 2574 00a2 0F       		.uleb128 0xf
 2575 00a3 00       		.byte	0
 2576 00a4 0B       		.uleb128 0xb
 2577 00a5 0B       		.uleb128 0xb
 2578 00a6 00       		.byte	0
 2579 00a7 00       		.byte	0
 2580 00a8 0F       		.uleb128 0xf
 2581 00a9 13       		.uleb128 0x13
 2582 00aa 01       		.byte	0x1
 2583 00ab 03       		.uleb128 0x3
 2584 00ac 0E       		.uleb128 0xe
 2585 00ad 0B       		.uleb128 0xb
 2586 00ae 05       		.uleb128 0x5
 2587 00af 3A       		.uleb128 0x3a
 2588 00b0 0B       		.uleb128 0xb
 2589 00b1 3B       		.uleb128 0x3b
 2590 00b2 05       		.uleb128 0x5
 2591 00b3 01       		.uleb128 0x1
 2592 00b4 13       		.uleb128 0x13
 2593 00b5 00       		.byte	0
 2594 00b6 00       		.byte	0
 2595 00b7 10       		.uleb128 0x10
 2596 00b8 0D       		.uleb128 0xd
 2597 00b9 00       		.byte	0
 2598 00ba 03       		.uleb128 0x3
 2599 00bb 08       		.uleb128 0x8
 2600 00bc 3A       		.uleb128 0x3a
 2601 00bd 0B       		.uleb128 0xb
 2602 00be 3B       		.uleb128 0x3b
 2603 00bf 0B       		.uleb128 0xb
 2604 00c0 49       		.uleb128 0x49
 2605 00c1 13       		.uleb128 0x13
 2606 00c2 38       		.uleb128 0x38
 2607 00c3 0B       		.uleb128 0xb
 2608 00c4 00       		.byte	0
 2609 00c5 00       		.byte	0
 2610 00c6 11       		.uleb128 0x11
 2611 00c7 13       		.uleb128 0x13
 2612 00c8 01       		.byte	0x1
 2613 00c9 0B       		.uleb128 0xb
 2614 00ca 0B       		.uleb128 0xb
 2615 00cb 3A       		.uleb128 0x3a
 2616 00cc 0B       		.uleb128 0xb
 2617 00cd 3B       		.uleb128 0x3b
 2618 00ce 0B       		.uleb128 0xb
 2619 00cf 01       		.uleb128 0x1
ARM GAS  /tmp/cc7i0CK9.s 			page 47


 2620 00d0 13       		.uleb128 0x13
 2621 00d1 00       		.byte	0
 2622 00d2 00       		.byte	0
 2623 00d3 12       		.uleb128 0x12
 2624 00d4 17       		.uleb128 0x17
 2625 00d5 01       		.byte	0x1
 2626 00d6 0B       		.uleb128 0xb
 2627 00d7 0B       		.uleb128 0xb
 2628 00d8 3A       		.uleb128 0x3a
 2629 00d9 0B       		.uleb128 0xb
 2630 00da 3B       		.uleb128 0x3b
 2631 00db 0B       		.uleb128 0xb
 2632 00dc 01       		.uleb128 0x1
 2633 00dd 13       		.uleb128 0x13
 2634 00de 00       		.byte	0
 2635 00df 00       		.byte	0
 2636 00e0 13       		.uleb128 0x13
 2637 00e1 0D       		.uleb128 0xd
 2638 00e2 00       		.byte	0
 2639 00e3 03       		.uleb128 0x3
 2640 00e4 0E       		.uleb128 0xe
 2641 00e5 3A       		.uleb128 0x3a
 2642 00e6 0B       		.uleb128 0xb
 2643 00e7 3B       		.uleb128 0x3b
 2644 00e8 0B       		.uleb128 0xb
 2645 00e9 49       		.uleb128 0x49
 2646 00ea 13       		.uleb128 0x13
 2647 00eb 00       		.byte	0
 2648 00ec 00       		.byte	0
 2649 00ed 14       		.uleb128 0x14
 2650 00ee 0D       		.uleb128 0xd
 2651 00ef 00       		.byte	0
 2652 00f0 03       		.uleb128 0x3
 2653 00f1 0E       		.uleb128 0xe
 2654 00f2 3A       		.uleb128 0x3a
 2655 00f3 0B       		.uleb128 0xb
 2656 00f4 3B       		.uleb128 0x3b
 2657 00f5 05       		.uleb128 0x5
 2658 00f6 49       		.uleb128 0x49
 2659 00f7 13       		.uleb128 0x13
 2660 00f8 00       		.byte	0
 2661 00f9 00       		.byte	0
 2662 00fa 15       		.uleb128 0x15
 2663 00fb 26       		.uleb128 0x26
 2664 00fc 00       		.byte	0
 2665 00fd 49       		.uleb128 0x49
 2666 00fe 13       		.uleb128 0x13
 2667 00ff 00       		.byte	0
 2668 0100 00       		.byte	0
 2669 0101 16       		.uleb128 0x16
 2670 0102 01       		.uleb128 0x1
 2671 0103 01       		.byte	0x1
 2672 0104 49       		.uleb128 0x49
 2673 0105 13       		.uleb128 0x13
 2674 0106 01       		.uleb128 0x1
 2675 0107 13       		.uleb128 0x13
 2676 0108 00       		.byte	0
ARM GAS  /tmp/cc7i0CK9.s 			page 48


 2677 0109 00       		.byte	0
 2678 010a 17       		.uleb128 0x17
 2679 010b 21       		.uleb128 0x21
 2680 010c 00       		.byte	0
 2681 010d 49       		.uleb128 0x49
 2682 010e 13       		.uleb128 0x13
 2683 010f 2F       		.uleb128 0x2f
 2684 0110 0B       		.uleb128 0xb
 2685 0111 00       		.byte	0
 2686 0112 00       		.byte	0
 2687 0113 18       		.uleb128 0x18
 2688 0114 15       		.uleb128 0x15
 2689 0115 01       		.byte	0x1
 2690 0116 27       		.uleb128 0x27
 2691 0117 19       		.uleb128 0x19
 2692 0118 49       		.uleb128 0x49
 2693 0119 13       		.uleb128 0x13
 2694 011a 01       		.uleb128 0x1
 2695 011b 13       		.uleb128 0x13
 2696 011c 00       		.byte	0
 2697 011d 00       		.byte	0
 2698 011e 19       		.uleb128 0x19
 2699 011f 0D       		.uleb128 0xd
 2700 0120 00       		.byte	0
 2701 0121 03       		.uleb128 0x3
 2702 0122 0E       		.uleb128 0xe
 2703 0123 49       		.uleb128 0x49
 2704 0124 13       		.uleb128 0x13
 2705 0125 38       		.uleb128 0x38
 2706 0126 0B       		.uleb128 0xb
 2707 0127 34       		.uleb128 0x34
 2708 0128 19       		.uleb128 0x19
 2709 0129 00       		.byte	0
 2710 012a 00       		.byte	0
 2711 012b 1A       		.uleb128 0x1a
 2712 012c 2E       		.uleb128 0x2e
 2713 012d 01       		.byte	0x1
 2714 012e 03       		.uleb128 0x3
 2715 012f 0E       		.uleb128 0xe
 2716 0130 3A       		.uleb128 0x3a
 2717 0131 0B       		.uleb128 0xb
 2718 0132 3B       		.uleb128 0x3b
 2719 0133 0B       		.uleb128 0xb
 2720 0134 27       		.uleb128 0x27
 2721 0135 19       		.uleb128 0x19
 2722 0136 49       		.uleb128 0x49
 2723 0137 13       		.uleb128 0x13
 2724 0138 20       		.uleb128 0x20
 2725 0139 0B       		.uleb128 0xb
 2726 013a 01       		.uleb128 0x1
 2727 013b 13       		.uleb128 0x13
 2728 013c 00       		.byte	0
 2729 013d 00       		.byte	0
 2730 013e 1B       		.uleb128 0x1b
 2731 013f 05       		.uleb128 0x5
 2732 0140 00       		.byte	0
 2733 0141 03       		.uleb128 0x3
ARM GAS  /tmp/cc7i0CK9.s 			page 49


 2734 0142 08       		.uleb128 0x8
 2735 0143 3A       		.uleb128 0x3a
 2736 0144 0B       		.uleb128 0xb
 2737 0145 3B       		.uleb128 0x3b
 2738 0146 0B       		.uleb128 0xb
 2739 0147 49       		.uleb128 0x49
 2740 0148 13       		.uleb128 0x13
 2741 0149 00       		.byte	0
 2742 014a 00       		.byte	0
 2743 014b 1C       		.uleb128 0x1c
 2744 014c 05       		.uleb128 0x5
 2745 014d 00       		.byte	0
 2746 014e 03       		.uleb128 0x3
 2747 014f 0E       		.uleb128 0xe
 2748 0150 3A       		.uleb128 0x3a
 2749 0151 0B       		.uleb128 0xb
 2750 0152 3B       		.uleb128 0x3b
 2751 0153 0B       		.uleb128 0xb
 2752 0154 49       		.uleb128 0x49
 2753 0155 13       		.uleb128 0x13
 2754 0156 00       		.byte	0
 2755 0157 00       		.byte	0
 2756 0158 1D       		.uleb128 0x1d
 2757 0159 34       		.uleb128 0x34
 2758 015a 00       		.byte	0
 2759 015b 03       		.uleb128 0x3
 2760 015c 08       		.uleb128 0x8
 2761 015d 3A       		.uleb128 0x3a
 2762 015e 0B       		.uleb128 0xb
 2763 015f 3B       		.uleb128 0x3b
 2764 0160 0B       		.uleb128 0xb
 2765 0161 49       		.uleb128 0x49
 2766 0162 13       		.uleb128 0x13
 2767 0163 00       		.byte	0
 2768 0164 00       		.byte	0
 2769 0165 1E       		.uleb128 0x1e
 2770 0166 2E       		.uleb128 0x2e
 2771 0167 01       		.byte	0x1
 2772 0168 31       		.uleb128 0x31
 2773 0169 13       		.uleb128 0x13
 2774 016a 11       		.uleb128 0x11
 2775 016b 01       		.uleb128 0x1
 2776 016c 12       		.uleb128 0x12
 2777 016d 06       		.uleb128 0x6
 2778 016e 40       		.uleb128 0x40
 2779 016f 18       		.uleb128 0x18
 2780 0170 9742     		.uleb128 0x2117
 2781 0172 19       		.uleb128 0x19
 2782 0173 01       		.uleb128 0x1
 2783 0174 13       		.uleb128 0x13
 2784 0175 00       		.byte	0
 2785 0176 00       		.byte	0
 2786 0177 1F       		.uleb128 0x1f
 2787 0178 05       		.uleb128 0x5
 2788 0179 00       		.byte	0
 2789 017a 31       		.uleb128 0x31
 2790 017b 13       		.uleb128 0x13
ARM GAS  /tmp/cc7i0CK9.s 			page 50


 2791 017c 02       		.uleb128 0x2
 2792 017d 17       		.uleb128 0x17
 2793 017e 00       		.byte	0
 2794 017f 00       		.byte	0
 2795 0180 20       		.uleb128 0x20
 2796 0181 34       		.uleb128 0x34
 2797 0182 00       		.byte	0
 2798 0183 31       		.uleb128 0x31
 2799 0184 13       		.uleb128 0x13
 2800 0185 02       		.uleb128 0x2
 2801 0186 17       		.uleb128 0x17
 2802 0187 00       		.byte	0
 2803 0188 00       		.byte	0
 2804 0189 21       		.uleb128 0x21
 2805 018a 05       		.uleb128 0x5
 2806 018b 00       		.byte	0
 2807 018c 31       		.uleb128 0x31
 2808 018d 13       		.uleb128 0x13
 2809 018e 1C       		.uleb128 0x1c
 2810 018f 0B       		.uleb128 0xb
 2811 0190 00       		.byte	0
 2812 0191 00       		.byte	0
 2813 0192 22       		.uleb128 0x22
 2814 0193 2E       		.uleb128 0x2e
 2815 0194 01       		.byte	0x1
 2816 0195 3F       		.uleb128 0x3f
 2817 0196 19       		.uleb128 0x19
 2818 0197 03       		.uleb128 0x3
 2819 0198 0E       		.uleb128 0xe
 2820 0199 3A       		.uleb128 0x3a
 2821 019a 0B       		.uleb128 0xb
 2822 019b 3B       		.uleb128 0x3b
 2823 019c 0B       		.uleb128 0xb
 2824 019d 27       		.uleb128 0x27
 2825 019e 19       		.uleb128 0x19
 2826 019f 49       		.uleb128 0x49
 2827 01a0 13       		.uleb128 0x13
 2828 01a1 11       		.uleb128 0x11
 2829 01a2 01       		.uleb128 0x1
 2830 01a3 12       		.uleb128 0x12
 2831 01a4 06       		.uleb128 0x6
 2832 01a5 40       		.uleb128 0x40
 2833 01a6 18       		.uleb128 0x18
 2834 01a7 9742     		.uleb128 0x2117
 2835 01a9 19       		.uleb128 0x19
 2836 01aa 01       		.uleb128 0x1
 2837 01ab 13       		.uleb128 0x13
 2838 01ac 00       		.byte	0
 2839 01ad 00       		.byte	0
 2840 01ae 23       		.uleb128 0x23
 2841 01af 05       		.uleb128 0x5
 2842 01b0 00       		.byte	0
 2843 01b1 03       		.uleb128 0x3
 2844 01b2 08       		.uleb128 0x8
 2845 01b3 3A       		.uleb128 0x3a
 2846 01b4 0B       		.uleb128 0xb
 2847 01b5 3B       		.uleb128 0x3b
ARM GAS  /tmp/cc7i0CK9.s 			page 51


 2848 01b6 0B       		.uleb128 0xb
 2849 01b7 49       		.uleb128 0x49
 2850 01b8 13       		.uleb128 0x13
 2851 01b9 02       		.uleb128 0x2
 2852 01ba 17       		.uleb128 0x17
 2853 01bb 00       		.byte	0
 2854 01bc 00       		.byte	0
 2855 01bd 24       		.uleb128 0x24
 2856 01be 34       		.uleb128 0x34
 2857 01bf 00       		.byte	0
 2858 01c0 03       		.uleb128 0x3
 2859 01c1 08       		.uleb128 0x8
 2860 01c2 3A       		.uleb128 0x3a
 2861 01c3 0B       		.uleb128 0xb
 2862 01c4 3B       		.uleb128 0x3b
 2863 01c5 0B       		.uleb128 0xb
 2864 01c6 49       		.uleb128 0x49
 2865 01c7 13       		.uleb128 0x13
 2866 01c8 02       		.uleb128 0x2
 2867 01c9 17       		.uleb128 0x17
 2868 01ca 00       		.byte	0
 2869 01cb 00       		.byte	0
 2870 01cc 25       		.uleb128 0x25
 2871 01cd 34       		.uleb128 0x34
 2872 01ce 00       		.byte	0
 2873 01cf 03       		.uleb128 0x3
 2874 01d0 0E       		.uleb128 0xe
 2875 01d1 3A       		.uleb128 0x3a
 2876 01d2 0B       		.uleb128 0xb
 2877 01d3 3B       		.uleb128 0x3b
 2878 01d4 0B       		.uleb128 0xb
 2879 01d5 49       		.uleb128 0x49
 2880 01d6 13       		.uleb128 0x13
 2881 01d7 02       		.uleb128 0x2
 2882 01d8 17       		.uleb128 0x17
 2883 01d9 00       		.byte	0
 2884 01da 00       		.byte	0
 2885 01db 26       		.uleb128 0x26
 2886 01dc 34       		.uleb128 0x34
 2887 01dd 00       		.byte	0
 2888 01de 03       		.uleb128 0x3
 2889 01df 0E       		.uleb128 0xe
 2890 01e0 3A       		.uleb128 0x3a
 2891 01e1 0B       		.uleb128 0xb
 2892 01e2 3B       		.uleb128 0x3b
 2893 01e3 0B       		.uleb128 0xb
 2894 01e4 49       		.uleb128 0x49
 2895 01e5 13       		.uleb128 0x13
 2896 01e6 02       		.uleb128 0x2
 2897 01e7 18       		.uleb128 0x18
 2898 01e8 00       		.byte	0
 2899 01e9 00       		.byte	0
 2900 01ea 27       		.uleb128 0x27
 2901 01eb 0A       		.uleb128 0xa
 2902 01ec 00       		.byte	0
 2903 01ed 03       		.uleb128 0x3
 2904 01ee 0E       		.uleb128 0xe
ARM GAS  /tmp/cc7i0CK9.s 			page 52


 2905 01ef 3A       		.uleb128 0x3a
 2906 01f0 0B       		.uleb128 0xb
 2907 01f1 3B       		.uleb128 0x3b
 2908 01f2 0B       		.uleb128 0xb
 2909 01f3 11       		.uleb128 0x11
 2910 01f4 01       		.uleb128 0x1
 2911 01f5 00       		.byte	0
 2912 01f6 00       		.byte	0
 2913 01f7 28       		.uleb128 0x28
 2914 01f8 1D       		.uleb128 0x1d
 2915 01f9 01       		.byte	0x1
 2916 01fa 31       		.uleb128 0x31
 2917 01fb 13       		.uleb128 0x13
 2918 01fc 52       		.uleb128 0x52
 2919 01fd 01       		.uleb128 0x1
 2920 01fe 55       		.uleb128 0x55
 2921 01ff 17       		.uleb128 0x17
 2922 0200 58       		.uleb128 0x58
 2923 0201 0B       		.uleb128 0xb
 2924 0202 59       		.uleb128 0x59
 2925 0203 0B       		.uleb128 0xb
 2926 0204 01       		.uleb128 0x1
 2927 0205 13       		.uleb128 0x13
 2928 0206 00       		.byte	0
 2929 0207 00       		.byte	0
 2930 0208 29       		.uleb128 0x29
 2931 0209 05       		.uleb128 0x5
 2932 020a 00       		.byte	0
 2933 020b 31       		.uleb128 0x31
 2934 020c 13       		.uleb128 0x13
 2935 020d 00       		.byte	0
 2936 020e 00       		.byte	0
 2937 020f 2A       		.uleb128 0x2a
 2938 0210 898201   		.uleb128 0x4109
 2939 0213 00       		.byte	0
 2940 0214 11       		.uleb128 0x11
 2941 0215 01       		.uleb128 0x1
 2942 0216 31       		.uleb128 0x31
 2943 0217 13       		.uleb128 0x13
 2944 0218 00       		.byte	0
 2945 0219 00       		.byte	0
 2946 021a 2B       		.uleb128 0x2b
 2947 021b 1D       		.uleb128 0x1d
 2948 021c 01       		.byte	0x1
 2949 021d 31       		.uleb128 0x31
 2950 021e 13       		.uleb128 0x13
 2951 021f 11       		.uleb128 0x11
 2952 0220 01       		.uleb128 0x1
 2953 0221 12       		.uleb128 0x12
 2954 0222 06       		.uleb128 0x6
 2955 0223 58       		.uleb128 0x58
 2956 0224 0B       		.uleb128 0xb
 2957 0225 59       		.uleb128 0x59
 2958 0226 0B       		.uleb128 0xb
 2959 0227 01       		.uleb128 0x1
 2960 0228 13       		.uleb128 0x13
 2961 0229 00       		.byte	0
ARM GAS  /tmp/cc7i0CK9.s 			page 53


 2962 022a 00       		.byte	0
 2963 022b 2C       		.uleb128 0x2c
 2964 022c 898201   		.uleb128 0x4109
 2965 022f 01       		.byte	0x1
 2966 0230 11       		.uleb128 0x11
 2967 0231 01       		.uleb128 0x1
 2968 0232 01       		.uleb128 0x1
 2969 0233 13       		.uleb128 0x13
 2970 0234 00       		.byte	0
 2971 0235 00       		.byte	0
 2972 0236 2D       		.uleb128 0x2d
 2973 0237 8A8201   		.uleb128 0x410a
 2974 023a 00       		.byte	0
 2975 023b 02       		.uleb128 0x2
 2976 023c 18       		.uleb128 0x18
 2977 023d 9142     		.uleb128 0x2111
 2978 023f 18       		.uleb128 0x18
 2979 0240 00       		.byte	0
 2980 0241 00       		.byte	0
 2981 0242 2E       		.uleb128 0x2e
 2982 0243 898201   		.uleb128 0x4109
 2983 0246 01       		.byte	0x1
 2984 0247 11       		.uleb128 0x11
 2985 0248 01       		.uleb128 0x1
 2986 0249 00       		.byte	0
 2987 024a 00       		.byte	0
 2988 024b 2F       		.uleb128 0x2f
 2989 024c 2E       		.uleb128 0x2e
 2990 024d 01       		.byte	0x1
 2991 024e 3F       		.uleb128 0x3f
 2992 024f 19       		.uleb128 0x19
 2993 0250 03       		.uleb128 0x3
 2994 0251 0E       		.uleb128 0xe
 2995 0252 3A       		.uleb128 0x3a
 2996 0253 0B       		.uleb128 0xb
 2997 0254 3B       		.uleb128 0x3b
 2998 0255 05       		.uleb128 0x5
 2999 0256 27       		.uleb128 0x27
 3000 0257 19       		.uleb128 0x19
 3001 0258 49       		.uleb128 0x49
 3002 0259 13       		.uleb128 0x13
 3003 025a 11       		.uleb128 0x11
 3004 025b 01       		.uleb128 0x1
 3005 025c 12       		.uleb128 0x12
 3006 025d 06       		.uleb128 0x6
 3007 025e 40       		.uleb128 0x40
 3008 025f 18       		.uleb128 0x18
 3009 0260 9742     		.uleb128 0x2117
 3010 0262 19       		.uleb128 0x19
 3011 0263 01       		.uleb128 0x1
 3012 0264 13       		.uleb128 0x13
 3013 0265 00       		.byte	0
 3014 0266 00       		.byte	0
 3015 0267 30       		.uleb128 0x30
 3016 0268 05       		.uleb128 0x5
 3017 0269 00       		.byte	0
 3018 026a 03       		.uleb128 0x3
ARM GAS  /tmp/cc7i0CK9.s 			page 54


 3019 026b 08       		.uleb128 0x8
 3020 026c 3A       		.uleb128 0x3a
 3021 026d 0B       		.uleb128 0xb
 3022 026e 3B       		.uleb128 0x3b
 3023 026f 05       		.uleb128 0x5
 3024 0270 49       		.uleb128 0x49
 3025 0271 13       		.uleb128 0x13
 3026 0272 02       		.uleb128 0x2
 3027 0273 17       		.uleb128 0x17
 3028 0274 00       		.byte	0
 3029 0275 00       		.byte	0
 3030 0276 31       		.uleb128 0x31
 3031 0277 05       		.uleb128 0x5
 3032 0278 00       		.byte	0
 3033 0279 03       		.uleb128 0x3
 3034 027a 0E       		.uleb128 0xe
 3035 027b 3A       		.uleb128 0x3a
 3036 027c 0B       		.uleb128 0xb
 3037 027d 3B       		.uleb128 0x3b
 3038 027e 05       		.uleb128 0x5
 3039 027f 49       		.uleb128 0x49
 3040 0280 13       		.uleb128 0x13
 3041 0281 02       		.uleb128 0x2
 3042 0282 17       		.uleb128 0x17
 3043 0283 00       		.byte	0
 3044 0284 00       		.byte	0
 3045 0285 32       		.uleb128 0x32
 3046 0286 05       		.uleb128 0x5
 3047 0287 00       		.byte	0
 3048 0288 03       		.uleb128 0x3
 3049 0289 08       		.uleb128 0x8
 3050 028a 3A       		.uleb128 0x3a
 3051 028b 0B       		.uleb128 0xb
 3052 028c 3B       		.uleb128 0x3b
 3053 028d 05       		.uleb128 0x5
 3054 028e 49       		.uleb128 0x49
 3055 028f 13       		.uleb128 0x13
 3056 0290 02       		.uleb128 0x2
 3057 0291 18       		.uleb128 0x18
 3058 0292 00       		.byte	0
 3059 0293 00       		.byte	0
 3060 0294 33       		.uleb128 0x33
 3061 0295 18       		.uleb128 0x18
 3062 0296 00       		.byte	0
 3063 0297 00       		.byte	0
 3064 0298 00       		.byte	0
 3065 0299 34       		.uleb128 0x34
 3066 029a 34       		.uleb128 0x34
 3067 029b 00       		.byte	0
 3068 029c 03       		.uleb128 0x3
 3069 029d 08       		.uleb128 0x8
 3070 029e 3A       		.uleb128 0x3a
 3071 029f 0B       		.uleb128 0xb
 3072 02a0 3B       		.uleb128 0x3b
 3073 02a1 05       		.uleb128 0x5
 3074 02a2 49       		.uleb128 0x49
 3075 02a3 13       		.uleb128 0x13
ARM GAS  /tmp/cc7i0CK9.s 			page 55


 3076 02a4 02       		.uleb128 0x2
 3077 02a5 18       		.uleb128 0x18
 3078 02a6 00       		.byte	0
 3079 02a7 00       		.byte	0
 3080 02a8 35       		.uleb128 0x35
 3081 02a9 34       		.uleb128 0x34
 3082 02aa 00       		.byte	0
 3083 02ab 03       		.uleb128 0x3
 3084 02ac 08       		.uleb128 0x8
 3085 02ad 3A       		.uleb128 0x3a
 3086 02ae 0B       		.uleb128 0xb
 3087 02af 3B       		.uleb128 0x3b
 3088 02b0 05       		.uleb128 0x5
 3089 02b1 49       		.uleb128 0x49
 3090 02b2 13       		.uleb128 0x13
 3091 02b3 02       		.uleb128 0x2
 3092 02b4 17       		.uleb128 0x17
 3093 02b5 00       		.byte	0
 3094 02b6 00       		.byte	0
 3095 02b7 36       		.uleb128 0x36
 3096 02b8 34       		.uleb128 0x34
 3097 02b9 00       		.byte	0
 3098 02ba 03       		.uleb128 0x3
 3099 02bb 0E       		.uleb128 0xe
 3100 02bc 3A       		.uleb128 0x3a
 3101 02bd 0B       		.uleb128 0xb
 3102 02be 3B       		.uleb128 0x3b
 3103 02bf 05       		.uleb128 0x5
 3104 02c0 49       		.uleb128 0x49
 3105 02c1 13       		.uleb128 0x13
 3106 02c2 02       		.uleb128 0x2
 3107 02c3 17       		.uleb128 0x17
 3108 02c4 00       		.byte	0
 3109 02c5 00       		.byte	0
 3110 02c6 37       		.uleb128 0x37
 3111 02c7 898201   		.uleb128 0x4109
 3112 02ca 01       		.byte	0x1
 3113 02cb 11       		.uleb128 0x11
 3114 02cc 01       		.uleb128 0x1
 3115 02cd 31       		.uleb128 0x31
 3116 02ce 13       		.uleb128 0x13
 3117 02cf 01       		.uleb128 0x1
 3118 02d0 13       		.uleb128 0x13
 3119 02d1 00       		.byte	0
 3120 02d2 00       		.byte	0
 3121 02d3 38       		.uleb128 0x38
 3122 02d4 898201   		.uleb128 0x4109
 3123 02d7 01       		.byte	0x1
 3124 02d8 11       		.uleb128 0x11
 3125 02d9 01       		.uleb128 0x1
 3126 02da 31       		.uleb128 0x31
 3127 02db 13       		.uleb128 0x13
 3128 02dc 00       		.byte	0
 3129 02dd 00       		.byte	0
 3130 02de 39       		.uleb128 0x39
 3131 02df 34       		.uleb128 0x34
 3132 02e0 00       		.byte	0
ARM GAS  /tmp/cc7i0CK9.s 			page 56


 3133 02e1 03       		.uleb128 0x3
 3134 02e2 0E       		.uleb128 0xe
 3135 02e3 3A       		.uleb128 0x3a
 3136 02e4 0B       		.uleb128 0xb
 3137 02e5 3B       		.uleb128 0x3b
 3138 02e6 05       		.uleb128 0x5
 3139 02e7 49       		.uleb128 0x49
 3140 02e8 13       		.uleb128 0x13
 3141 02e9 3F       		.uleb128 0x3f
 3142 02ea 19       		.uleb128 0x19
 3143 02eb 3C       		.uleb128 0x3c
 3144 02ec 19       		.uleb128 0x19
 3145 02ed 00       		.byte	0
 3146 02ee 00       		.byte	0
 3147 02ef 3A       		.uleb128 0x3a
 3148 02f0 34       		.uleb128 0x34
 3149 02f1 00       		.byte	0
 3150 02f2 03       		.uleb128 0x3
 3151 02f3 08       		.uleb128 0x8
 3152 02f4 3A       		.uleb128 0x3a
 3153 02f5 0B       		.uleb128 0xb
 3154 02f6 3B       		.uleb128 0x3b
 3155 02f7 05       		.uleb128 0x5
 3156 02f8 49       		.uleb128 0x49
 3157 02f9 13       		.uleb128 0x13
 3158 02fa 3F       		.uleb128 0x3f
 3159 02fb 19       		.uleb128 0x19
 3160 02fc 3C       		.uleb128 0x3c
 3161 02fd 19       		.uleb128 0x19
 3162 02fe 00       		.byte	0
 3163 02ff 00       		.byte	0
 3164 0300 3B       		.uleb128 0x3b
 3165 0301 2E       		.uleb128 0x2e
 3166 0302 01       		.byte	0x1
 3167 0303 3F       		.uleb128 0x3f
 3168 0304 19       		.uleb128 0x19
 3169 0305 03       		.uleb128 0x3
 3170 0306 0E       		.uleb128 0xe
 3171 0307 3A       		.uleb128 0x3a
 3172 0308 0B       		.uleb128 0xb
 3173 0309 3B       		.uleb128 0x3b
 3174 030a 0B       		.uleb128 0xb
 3175 030b 27       		.uleb128 0x27
 3176 030c 19       		.uleb128 0x19
 3177 030d 3C       		.uleb128 0x3c
 3178 030e 19       		.uleb128 0x19
 3179 030f 01       		.uleb128 0x1
 3180 0310 13       		.uleb128 0x13
 3181 0311 00       		.byte	0
 3182 0312 00       		.byte	0
 3183 0313 00       		.byte	0
 3184              		.section	.debug_loc,"",%progbits
 3185              	.Ldebug_loc0:
 3186              	.LLST0:
 3187 0000 00000000 		.4byte	.LVL0
 3188 0004 34000000 		.4byte	.LVL12
 3189 0008 0100     		.2byte	0x1
ARM GAS  /tmp/cc7i0CK9.s 			page 57


 3190 000a 50       		.byte	0x50
 3191 000b 34000000 		.4byte	.LVL12
 3192 000f 38000000 		.4byte	.LVL13
 3193 0013 0300     		.2byte	0x3
 3194 0015 70       		.byte	0x70
 3195 0016 7F       		.sleb128 -1
 3196 0017 9F       		.byte	0x9f
 3197 0018 38000000 		.4byte	.LVL13
 3198 001c 3C000000 		.4byte	.LVL14
 3199 0020 0100     		.2byte	0x1
 3200 0022 50       		.byte	0x50
 3201 0023 3C000000 		.4byte	.LVL14
 3202 0027 44000000 		.4byte	.LFE260
 3203 002b 0300     		.2byte	0x3
 3204 002d 70       		.byte	0x70
 3205 002e 7F       		.sleb128 -1
 3206 002f 9F       		.byte	0x9f
 3207 0030 00000000 		.4byte	0
 3208 0034 00000000 		.4byte	0
 3209              	.LLST1:
 3210 0038 00000000 		.4byte	.LVL0
 3211 003c 0A000000 		.4byte	.LVL2
 3212 0040 0100     		.2byte	0x1
 3213 0042 51       		.byte	0x51
 3214 0043 0A000000 		.4byte	.LVL2
 3215 0047 44000000 		.4byte	.LFE260
 3216 004b 0400     		.2byte	0x4
 3217 004d F3       		.byte	0xf3
 3218 004e 01       		.uleb128 0x1
 3219 004f 51       		.byte	0x51
 3220 0050 9F       		.byte	0x9f
 3221 0051 00000000 		.4byte	0
 3222 0055 00000000 		.4byte	0
 3223              	.LLST2:
 3224 0059 00000000 		.4byte	.LVL0
 3225 005d 30000000 		.4byte	.LVL11
 3226 0061 0100     		.2byte	0x1
 3227 0063 52       		.byte	0x52
 3228 0064 30000000 		.4byte	.LVL11
 3229 0068 44000000 		.4byte	.LFE260
 3230 006c 0400     		.2byte	0x4
 3231 006e F3       		.byte	0xf3
 3232 006f 01       		.uleb128 0x1
 3233 0070 52       		.byte	0x52
 3234 0071 9F       		.byte	0x9f
 3235 0072 00000000 		.4byte	0
 3236 0076 00000000 		.4byte	0
 3237              	.LLST3:
 3238 007a 12000000 		.4byte	.LVL3
 3239 007e 16000000 		.4byte	.LVL4
 3240 0082 0100     		.2byte	0x1
 3241 0084 51       		.byte	0x51
 3242 0085 16000000 		.4byte	.LVL4
 3243 0089 20000000 		.4byte	.LVL6
 3244 008d 0100     		.2byte	0x1
 3245 008f 53       		.byte	0x53
 3246 0090 2E000000 		.4byte	.LVL10
ARM GAS  /tmp/cc7i0CK9.s 			page 58


 3247 0094 34000000 		.4byte	.LVL12
 3248 0098 0600     		.2byte	0x6
 3249 009a 77       		.byte	0x77
 3250 009b 00       		.sleb128 0
 3251 009c 74       		.byte	0x74
 3252 009d 00       		.sleb128 0
 3253 009e 1C       		.byte	0x1c
 3254 009f 9F       		.byte	0x9f
 3255 00a0 00000000 		.4byte	0
 3256 00a4 00000000 		.4byte	0
 3257              	.LLST4:
 3258 00a8 06000000 		.4byte	.LVL1
 3259 00ac 0A000000 		.4byte	.LVL2
 3260 00b0 0100     		.2byte	0x1
 3261 00b2 57       		.byte	0x57
 3262 00b3 0A000000 		.4byte	.LVL2
 3263 00b7 1E000000 		.4byte	.LVL5
 3264 00bb 0100     		.2byte	0x1
 3265 00bd 54       		.byte	0x54
 3266 00be 1E000000 		.4byte	.LVL5
 3267 00c2 24000000 		.4byte	.LVL7
 3268 00c6 0300     		.2byte	0x3
 3269 00c8 74       		.byte	0x74
 3270 00c9 7F       		.sleb128 -1
 3271 00ca 9F       		.byte	0x9f
 3272 00cb 24000000 		.4byte	.LVL7
 3273 00cf 34000000 		.4byte	.LVL12
 3274 00d3 0100     		.2byte	0x1
 3275 00d5 54       		.byte	0x54
 3276 00d6 00000000 		.4byte	0
 3277 00da 00000000 		.4byte	0
 3278              	.LLST5:
 3279 00de 00000000 		.4byte	.LVL0
 3280 00e2 12000000 		.4byte	.LVL3
 3281 00e6 0100     		.2byte	0x1
 3282 00e8 51       		.byte	0x51
 3283 00e9 2A000000 		.4byte	.LVL9
 3284 00ed 44000000 		.4byte	.LFE260
 3285 00f1 0100     		.2byte	0x1
 3286 00f3 51       		.byte	0x51
 3287 00f4 00000000 		.4byte	0
 3288 00f8 00000000 		.4byte	0
 3289              	.LLST6:
 3290 00fc 00000000 		.4byte	.LVL0
 3291 0100 0A000000 		.4byte	.LVL2
 3292 0104 0100     		.2byte	0x1
 3293 0106 51       		.byte	0x51
 3294 0107 0A000000 		.4byte	.LVL2
 3295 010b 28000000 		.4byte	.LVL8
 3296 010f 0100     		.2byte	0x1
 3297 0111 55       		.byte	0x55
 3298 0112 2A000000 		.4byte	.LVL9
 3299 0116 42000000 		.4byte	.LVL15
 3300 011a 0100     		.2byte	0x1
 3301 011c 55       		.byte	0x55
 3302 011d 00000000 		.4byte	0
 3303 0121 00000000 		.4byte	0
ARM GAS  /tmp/cc7i0CK9.s 			page 59


 3304              	.LLST7:
 3305 0125 00000000 		.4byte	.LVL16
 3306 0129 1C000000 		.4byte	.LVL19
 3307 012d 0100     		.2byte	0x1
 3308 012f 50       		.byte	0x50
 3309 0130 1C000000 		.4byte	.LVL19
 3310 0134 0C030000 		.4byte	.LFE258
 3311 0138 0100     		.2byte	0x1
 3312 013a 59       		.byte	0x59
 3313 013b 00000000 		.4byte	0
 3314 013f 00000000 		.4byte	0
 3315              	.LLST8:
 3316 0143 00000000 		.4byte	.LVL16
 3317 0147 1C000000 		.4byte	.LVL19
 3318 014b 0100     		.2byte	0x1
 3319 014d 51       		.byte	0x51
 3320 014e 1C000000 		.4byte	.LVL19
 3321 0152 24000000 		.4byte	.LVL20
 3322 0156 0100     		.2byte	0x1
 3323 0158 5B       		.byte	0x5b
 3324 0159 24000000 		.4byte	.LVL20
 3325 015d 35000000 		.4byte	.LVL21-1
 3326 0161 0100     		.2byte	0x1
 3327 0163 53       		.byte	0x53
 3328 0164 35000000 		.4byte	.LVL21-1
 3329 0168 42000000 		.4byte	.LVL23
 3330 016c 0100     		.2byte	0x1
 3331 016e 5B       		.byte	0x5b
 3332 016f 42000000 		.4byte	.LVL23
 3333 0173 66000000 		.4byte	.LVL26
 3334 0177 0100     		.2byte	0x1
 3335 0179 53       		.byte	0x53
 3336 017a 66000000 		.4byte	.LVL26
 3337 017e 6E000000 		.4byte	.LVL27
 3338 0182 0300     		.2byte	0x3
 3339 0184 73       		.byte	0x73
 3340 0185 01       		.sleb128 1
 3341 0186 9F       		.byte	0x9f
 3342 0187 72000000 		.4byte	.LVL28
 3343 018b 78000000 		.4byte	.LVL30
 3344 018f 0100     		.2byte	0x1
 3345 0191 53       		.byte	0x53
 3346 0192 78000000 		.4byte	.LVL30
 3347 0196 86000000 		.4byte	.LVL34
 3348 019a 0100     		.2byte	0x1
 3349 019c 51       		.byte	0x51
 3350 019d 86000000 		.4byte	.LVL34
 3351 01a1 90000000 		.4byte	.LVL35
 3352 01a5 0300     		.2byte	0x3
 3353 01a7 71       		.byte	0x71
 3354 01a8 7F       		.sleb128 -1
 3355 01a9 9F       		.byte	0x9f
 3356 01aa 90000000 		.4byte	.LVL35
 3357 01ae A0000000 		.4byte	.LVL37
 3358 01b2 0100     		.2byte	0x1
 3359 01b4 51       		.byte	0x51
 3360 01b5 A0000000 		.4byte	.LVL37
ARM GAS  /tmp/cc7i0CK9.s 			page 60


 3361 01b9 22010000 		.4byte	.LVL39
 3362 01bd 0100     		.2byte	0x1
 3363 01bf 5B       		.byte	0x5b
 3364 01c0 22010000 		.4byte	.LVL39
 3365 01c4 2A010000 		.4byte	.LVL42
 3366 01c8 0300     		.2byte	0x3
 3367 01ca 7B       		.byte	0x7b
 3368 01cb 7F       		.sleb128 -1
 3369 01cc 9F       		.byte	0x9f
 3370 01cd 2A010000 		.4byte	.LVL42
 3371 01d1 2E010000 		.4byte	.LVL43
 3372 01d5 0100     		.2byte	0x1
 3373 01d7 5B       		.byte	0x5b
 3374 01d8 2E010000 		.4byte	.LVL43
 3375 01dc 40010000 		.4byte	.LVL44
 3376 01e0 0300     		.2byte	0x3
 3377 01e2 7B       		.byte	0x7b
 3378 01e3 7F       		.sleb128 -1
 3379 01e4 9F       		.byte	0x9f
 3380 01e5 40010000 		.4byte	.LVL44
 3381 01e9 0C030000 		.4byte	.LFE258
 3382 01ed 0100     		.2byte	0x1
 3383 01ef 5B       		.byte	0x5b
 3384 01f0 00000000 		.4byte	0
 3385 01f4 00000000 		.4byte	0
 3386              	.LLST9:
 3387 01f8 00000000 		.4byte	.LVL16
 3388 01fc 0E000000 		.4byte	.LVL18
 3389 0200 0100     		.2byte	0x1
 3390 0202 52       		.byte	0x52
 3391 0203 00000000 		.4byte	0
 3392 0207 00000000 		.4byte	0
 3393              	.LLST10:
 3394 020b 4E000000 		.4byte	.LVL24
 3395 020f AE010000 		.4byte	.LVL50
 3396 0213 0300     		.2byte	0x3
 3397 0215 91       		.byte	0x91
 3398 0216 4C       		.sleb128 -52
 3399 0217 9F       		.byte	0x9f
 3400 0218 AE010000 		.4byte	.LVL50
 3401 021c BA010000 		.4byte	.LVL52
 3402 0220 0100     		.2byte	0x1
 3403 0222 54       		.byte	0x54
 3404 0223 BA010000 		.4byte	.LVL52
 3405 0227 BE010000 		.4byte	.LVL54
 3406 022b 0300     		.2byte	0x3
 3407 022d 70       		.byte	0x70
 3408 022e 7F       		.sleb128 -1
 3409 022f 9F       		.byte	0x9f
 3410 0230 BE010000 		.4byte	.LVL54
 3411 0234 C2010000 		.4byte	.LVL55
 3412 0238 0100     		.2byte	0x1
 3413 023a 50       		.byte	0x50
 3414 023b C2010000 		.4byte	.LVL55
 3415 023f C8010000 		.4byte	.LVL57
 3416 0243 0300     		.2byte	0x3
 3417 0245 70       		.byte	0x70
ARM GAS  /tmp/cc7i0CK9.s 			page 61


 3418 0246 7F       		.sleb128 -1
 3419 0247 9F       		.byte	0x9f
 3420 0248 FA010000 		.4byte	.LVL66
 3421 024c 0C020000 		.4byte	.LVL67
 3422 0250 0300     		.2byte	0x3
 3423 0252 91       		.byte	0x91
 3424 0253 4D       		.sleb128 -51
 3425 0254 9F       		.byte	0x9f
 3426 0255 72020000 		.4byte	.LVL81
 3427 0259 78020000 		.4byte	.LVL84
 3428 025d 0300     		.2byte	0x3
 3429 025f 91       		.byte	0x91
 3430 0260 4C       		.sleb128 -52
 3431 0261 9F       		.byte	0x9f
 3432 0262 78020000 		.4byte	.LVL84
 3433 0266 7D020000 		.4byte	.LVL86-1
 3434 026a 0100     		.2byte	0x1
 3435 026c 50       		.byte	0x50
 3436 026d 88020000 		.4byte	.LVL90
 3437 0271 98020000 		.4byte	.LVL93
 3438 0275 0300     		.2byte	0x3
 3439 0277 91       		.byte	0x91
 3440 0278 4C       		.sleb128 -52
 3441 0279 9F       		.byte	0x9f
 3442 027a 98020000 		.4byte	.LVL93
 3443 027e 9C020000 		.4byte	.LVL94
 3444 0282 0100     		.2byte	0x1
 3445 0284 50       		.byte	0x50
 3446 0285 9C020000 		.4byte	.LVL94
 3447 0289 A2020000 		.4byte	.LVL96
 3448 028d 0300     		.2byte	0x3
 3449 028f 91       		.byte	0x91
 3450 0290 4C       		.sleb128 -52
 3451 0291 9F       		.byte	0x9f
 3452 0292 A2020000 		.4byte	.LVL96
 3453 0296 B0020000 		.4byte	.LVL98
 3454 029a 0300     		.2byte	0x3
 3455 029c 91       		.byte	0x91
 3456 029d 4D       		.sleb128 -51
 3457 029e 9F       		.byte	0x9f
 3458 029f D6020000 		.4byte	.LVL106
 3459 02a3 E0020000 		.4byte	.LVL107
 3460 02a7 0100     		.2byte	0x1
 3461 02a9 54       		.byte	0x54
 3462 02aa F4020000 		.4byte	.LVL109
 3463 02ae 00030000 		.4byte	.LVL111
 3464 02b2 0300     		.2byte	0x3
 3465 02b4 91       		.byte	0x91
 3466 02b5 4D       		.sleb128 -51
 3467 02b6 9F       		.byte	0x9f
 3468 02b7 00030000 		.4byte	.LVL111
 3469 02bb 02030000 		.4byte	.LVL112
 3470 02bf 0100     		.2byte	0x1
 3471 02c1 50       		.byte	0x50
 3472 02c2 00000000 		.4byte	0
 3473 02c6 00000000 		.4byte	0
 3474              	.LLST11:
ARM GAS  /tmp/cc7i0CK9.s 			page 62


 3475 02ca 4E000000 		.4byte	.LVL24
 3476 02ce A6010000 		.4byte	.LVL49
 3477 02d2 0300     		.2byte	0x3
 3478 02d4 91       		.byte	0x91
 3479 02d5 4C       		.sleb128 -52
 3480 02d6 9F       		.byte	0x9f
 3481 02d7 A6010000 		.4byte	.LVL49
 3482 02db E6010000 		.4byte	.LVL63
 3483 02df 0100     		.2byte	0x1
 3484 02e1 54       		.byte	0x54
 3485 02e2 FA010000 		.4byte	.LVL66
 3486 02e6 0C020000 		.4byte	.LVL67
 3487 02ea 0300     		.2byte	0x3
 3488 02ec 91       		.byte	0x91
 3489 02ed 4C       		.sleb128 -52
 3490 02ee 9F       		.byte	0x9f
 3491 02ef 0C020000 		.4byte	.LVL67
 3492 02f3 2C020000 		.4byte	.LVL72
 3493 02f7 0100     		.2byte	0x1
 3494 02f9 54       		.byte	0x54
 3495 02fa 44020000 		.4byte	.LVL75
 3496 02fe 54020000 		.4byte	.LVL78
 3497 0302 0100     		.2byte	0x1
 3498 0304 54       		.byte	0x54
 3499 0305 54020000 		.4byte	.LVL78
 3500 0309 5E020000 		.4byte	.LVL80
 3501 030d 0300     		.2byte	0x3
 3502 030f 74       		.byte	0x74
 3503 0310 7F       		.sleb128 -1
 3504 0311 9F       		.byte	0x9f
 3505 0312 5E020000 		.4byte	.LVL80
 3506 0316 72020000 		.4byte	.LVL81
 3507 031a 0100     		.2byte	0x1
 3508 031c 54       		.byte	0x54
 3509 031d 72020000 		.4byte	.LVL81
 3510 0321 78020000 		.4byte	.LVL84
 3511 0325 0300     		.2byte	0x3
 3512 0327 91       		.byte	0x91
 3513 0328 4C       		.sleb128 -52
 3514 0329 9F       		.byte	0x9f
 3515 032a 78020000 		.4byte	.LVL84
 3516 032e 7A020000 		.4byte	.LVL85
 3517 0332 0100     		.2byte	0x1
 3518 0334 50       		.byte	0x50
 3519 0335 7A020000 		.4byte	.LVL85
 3520 0339 80020000 		.4byte	.LVL87
 3521 033d 0300     		.2byte	0x3
 3522 033f 91       		.byte	0x91
 3523 0340 4C       		.sleb128 -52
 3524 0341 9F       		.byte	0x9f
 3525 0342 80020000 		.4byte	.LVL87
 3526 0346 84020000 		.4byte	.LVL88
 3527 034a 0100     		.2byte	0x1
 3528 034c 53       		.byte	0x53
 3529 034d 84020000 		.4byte	.LVL88
 3530 0351 86020000 		.4byte	.LVL89
 3531 0355 0300     		.2byte	0x3
ARM GAS  /tmp/cc7i0CK9.s 			page 63


 3532 0357 91       		.byte	0x91
 3533 0358 4C       		.sleb128 -52
 3534 0359 9F       		.byte	0x9f
 3535 035a 86020000 		.4byte	.LVL89
 3536 035e 88020000 		.4byte	.LVL90
 3537 0362 0100     		.2byte	0x1
 3538 0364 54       		.byte	0x54
 3539 0365 88020000 		.4byte	.LVL90
 3540 0369 AC020000 		.4byte	.LVL97
 3541 036d 0300     		.2byte	0x3
 3542 036f 91       		.byte	0x91
 3543 0370 4C       		.sleb128 -52
 3544 0371 9F       		.byte	0x9f
 3545 0372 AC020000 		.4byte	.LVL97
 3546 0376 F4020000 		.4byte	.LVL109
 3547 037a 0100     		.2byte	0x1
 3548 037c 54       		.byte	0x54
 3549 037d F4020000 		.4byte	.LVL109
 3550 0381 02030000 		.4byte	.LVL112
 3551 0385 0300     		.2byte	0x3
 3552 0387 91       		.byte	0x91
 3553 0388 4C       		.sleb128 -52
 3554 0389 9F       		.byte	0x9f
 3555 038a 02030000 		.4byte	.LVL112
 3556 038e 0C030000 		.4byte	.LFE258
 3557 0392 0100     		.2byte	0x1
 3558 0394 54       		.byte	0x54
 3559 0395 00000000 		.4byte	0
 3560 0399 00000000 		.4byte	0
 3561              	.LLST12:
 3562 039d 24000000 		.4byte	.LVL20
 3563 03a1 35000000 		.4byte	.LVL21-1
 3564 03a5 0100     		.2byte	0x1
 3565 03a7 51       		.byte	0x51
 3566 03a8 42000000 		.4byte	.LVL23
 3567 03ac 74000000 		.4byte	.LVL29
 3568 03b0 0100     		.2byte	0x1
 3569 03b2 51       		.byte	0x51
 3570 03b3 78000000 		.4byte	.LVL30
 3571 03b7 7A000000 		.4byte	.LVL31
 3572 03bb 0100     		.2byte	0x1
 3573 03bd 52       		.byte	0x52
 3574 03be 7A000000 		.4byte	.LVL31
 3575 03c2 86000000 		.4byte	.LVL34
 3576 03c6 0100     		.2byte	0x1
 3577 03c8 53       		.byte	0x53
 3578 03c9 90000000 		.4byte	.LVL35
 3579 03cd 24010000 		.4byte	.LVL40
 3580 03d1 0100     		.2byte	0x1
 3581 03d3 52       		.byte	0x52
 3582 03d4 24010000 		.4byte	.LVL40
 3583 03d8 2A010000 		.4byte	.LVL42
 3584 03dc 0100     		.2byte	0x1
 3585 03de 53       		.byte	0x53
 3586 03df 2E010000 		.4byte	.LVL43
 3587 03e3 56010000 		.4byte	.LVL46
 3588 03e7 0100     		.2byte	0x1
ARM GAS  /tmp/cc7i0CK9.s 			page 64


 3589 03e9 52       		.byte	0x52
 3590 03ea 5A010000 		.4byte	.LVL47
 3591 03ee 99010000 		.4byte	.LVL48
 3592 03f2 0100     		.2byte	0x1
 3593 03f4 53       		.byte	0x53
 3594 03f5 72020000 		.4byte	.LVL81
 3595 03f9 74020000 		.4byte	.LVL82
 3596 03fd 0200     		.2byte	0x2
 3597 03ff 3A       		.byte	0x3a
 3598 0400 9F       		.byte	0x9f
 3599 0401 88020000 		.4byte	.LVL90
 3600 0405 8C020000 		.4byte	.LVL91
 3601 0409 0200     		.2byte	0x2
 3602 040b 38       		.byte	0x38
 3603 040c 9F       		.byte	0x9f
 3604 040d A0020000 		.4byte	.LVL95
 3605 0411 A2020000 		.4byte	.LVL96
 3606 0415 0100     		.2byte	0x1
 3607 0417 53       		.byte	0x53
 3608 0418 00000000 		.4byte	0
 3609 041c 00000000 		.4byte	0
 3610              	.LLST13:
 3611 0420 66000000 		.4byte	.LVL26
 3612 0424 72000000 		.4byte	.LVL28
 3613 0428 0300     		.2byte	0x3
 3614 042a 08       		.byte	0x8
 3615 042b 30       		.byte	0x30
 3616 042c 9F       		.byte	0x9f
 3617 042d 72000000 		.4byte	.LVL28
 3618 0431 99010000 		.4byte	.LVL48
 3619 0435 0100     		.2byte	0x1
 3620 0437 57       		.byte	0x57
 3621 0438 99010000 		.4byte	.LVL48
 3622 043c CE010000 		.4byte	.LVL59
 3623 0440 0300     		.2byte	0x3
 3624 0442 08       		.byte	0x8
 3625 0443 20       		.byte	0x20
 3626 0444 9F       		.byte	0x9f
 3627 0445 CE010000 		.4byte	.LVL59
 3628 0449 DE010000 		.4byte	.LVL62
 3629 044d 0100     		.2byte	0x1
 3630 044f 57       		.byte	0x57
 3631 0450 FA010000 		.4byte	.LVL66
 3632 0454 0C020000 		.4byte	.LVL67
 3633 0458 0300     		.2byte	0x3
 3634 045a 08       		.byte	0x8
 3635 045b 20       		.byte	0x20
 3636 045c 9F       		.byte	0x9f
 3637 045d 0C020000 		.4byte	.LVL67
 3638 0461 1A020000 		.4byte	.LVL70
 3639 0465 0100     		.2byte	0x1
 3640 0467 57       		.byte	0x57
 3641 0468 72020000 		.4byte	.LVL81
 3642 046c B0020000 		.4byte	.LVL98
 3643 0470 0100     		.2byte	0x1
 3644 0472 57       		.byte	0x57
 3645 0473 D6020000 		.4byte	.LVL106
ARM GAS  /tmp/cc7i0CK9.s 			page 65


 3646 0477 F4020000 		.4byte	.LVL109
 3647 047b 0300     		.2byte	0x3
 3648 047d 08       		.byte	0x8
 3649 047e 20       		.byte	0x20
 3650 047f 9F       		.byte	0x9f
 3651 0480 F4020000 		.4byte	.LVL109
 3652 0484 02030000 		.4byte	.LVL112
 3653 0488 0100     		.2byte	0x1
 3654 048a 57       		.byte	0x57
 3655 048b 02030000 		.4byte	.LVL112
 3656 048f 0C030000 		.4byte	.LFE258
 3657 0493 0300     		.2byte	0x3
 3658 0495 08       		.byte	0x8
 3659 0496 20       		.byte	0x20
 3660 0497 9F       		.byte	0x9f
 3661 0498 00000000 		.4byte	0
 3662 049c 00000000 		.4byte	0
 3663              	.LLST14:
 3664 04a0 CE010000 		.4byte	.LVL59
 3665 04a4 D8010000 		.4byte	.LVL61
 3666 04a8 0100     		.2byte	0x1
 3667 04aa 50       		.byte	0x50
 3668 04ab D8010000 		.4byte	.LVL61
 3669 04af DE010000 		.4byte	.LVL62
 3670 04b3 0100     		.2byte	0x1
 3671 04b5 53       		.byte	0x53
 3672 04b6 0C020000 		.4byte	.LVL67
 3673 04ba 1A020000 		.4byte	.LVL70
 3674 04be 0100     		.2byte	0x1
 3675 04c0 50       		.byte	0x50
 3676 04c1 44020000 		.4byte	.LVL75
 3677 04c5 4C020000 		.4byte	.LVL77
 3678 04c9 0100     		.2byte	0x1
 3679 04cb 53       		.byte	0x53
 3680 04cc 4C020000 		.4byte	.LVL77
 3681 04d0 5A020000 		.4byte	.LVL79
 3682 04d4 0100     		.2byte	0x1
 3683 04d6 5A       		.byte	0x5a
 3684 04d7 5A020000 		.4byte	.LVL79
 3685 04db 5E020000 		.4byte	.LVL80
 3686 04df 0300     		.2byte	0x3
 3687 04e1 7A       		.byte	0x7a
 3688 04e2 01       		.sleb128 1
 3689 04e3 9F       		.byte	0x9f
 3690 04e4 5E020000 		.4byte	.LVL80
 3691 04e8 72020000 		.4byte	.LVL81
 3692 04ec 0100     		.2byte	0x1
 3693 04ee 5A       		.byte	0x5a
 3694 04ef B6020000 		.4byte	.LVL99
 3695 04f3 BA020000 		.4byte	.LVL101
 3696 04f7 0100     		.2byte	0x1
 3697 04f9 53       		.byte	0x53
 3698 04fa D2020000 		.4byte	.LVL104
 3699 04fe D4020000 		.4byte	.LVL105
 3700 0502 0200     		.2byte	0x2
 3701 0504 7D       		.byte	0x7d
 3702 0505 00       		.sleb128 0
ARM GAS  /tmp/cc7i0CK9.s 			page 66


 3703 0506 D4020000 		.4byte	.LVL105
 3704 050a D6020000 		.4byte	.LVL106
 3705 050e 0300     		.2byte	0x3
 3706 0510 73       		.byte	0x73
 3707 0511 01       		.sleb128 1
 3708 0512 9F       		.byte	0x9f
 3709 0513 E0020000 		.4byte	.LVL107
 3710 0517 F4020000 		.4byte	.LVL109
 3711 051b 0200     		.2byte	0x2
 3712 051d 30       		.byte	0x30
 3713 051e 9F       		.byte	0x9f
 3714 051f 02030000 		.4byte	.LVL112
 3715 0523 0C030000 		.4byte	.LFE258
 3716 0527 0200     		.2byte	0x2
 3717 0529 30       		.byte	0x30
 3718 052a 9F       		.byte	0x9f
 3719 052b 00000000 		.4byte	0
 3720 052f 00000000 		.4byte	0
 3721              	.LLST15:
 3722 0533 9A000000 		.4byte	.LVL36
 3723 0537 A2000000 		.4byte	.LVL38
 3724 053b 0200     		.2byte	0x2
 3725 053d 30       		.byte	0x30
 3726 053e 9F       		.byte	0x9f
 3727 053f A2000000 		.4byte	.LVL38
 3728 0543 26010000 		.4byte	.LVL41
 3729 0547 0100     		.2byte	0x1
 3730 0549 51       		.byte	0x51
 3731 054a 26010000 		.4byte	.LVL41
 3732 054e 2A010000 		.4byte	.LVL42
 3733 0552 0500     		.2byte	0x5
 3734 0554 70       		.byte	0x70
 3735 0555 00       		.sleb128 0
 3736 0556 31       		.byte	0x31
 3737 0557 24       		.byte	0x24
 3738 0558 9F       		.byte	0x9f
 3739 0559 2A010000 		.4byte	.LVL42
 3740 055d BA010000 		.4byte	.LVL52
 3741 0561 0100     		.2byte	0x1
 3742 0563 51       		.byte	0x51
 3743 0564 BA010000 		.4byte	.LVL52
 3744 0568 BC010000 		.4byte	.LVL53
 3745 056c 0300     		.2byte	0x3
 3746 056e 71       		.byte	0x71
 3747 056f 7F       		.sleb128 -1
 3748 0570 9F       		.byte	0x9f
 3749 0571 BC010000 		.4byte	.LVL53
 3750 0575 BE010000 		.4byte	.LVL54
 3751 0579 0100     		.2byte	0x1
 3752 057b 51       		.byte	0x51
 3753 057c BE010000 		.4byte	.LVL54
 3754 0580 C6010000 		.4byte	.LVL56
 3755 0584 0300     		.2byte	0x3
 3756 0586 71       		.byte	0x71
 3757 0587 7F       		.sleb128 -1
 3758 0588 9F       		.byte	0x9f
 3759 0589 FA010000 		.4byte	.LVL66
ARM GAS  /tmp/cc7i0CK9.s 			page 67


 3760 058d 0C020000 		.4byte	.LVL67
 3761 0591 0100     		.2byte	0x1
 3762 0593 51       		.byte	0x51
 3763 0594 72020000 		.4byte	.LVL81
 3764 0598 76020000 		.4byte	.LVL83
 3765 059c 0100     		.2byte	0x1
 3766 059e 51       		.byte	0x51
 3767 059f 88020000 		.4byte	.LVL90
 3768 05a3 8E020000 		.4byte	.LVL92
 3769 05a7 0100     		.2byte	0x1
 3770 05a9 51       		.byte	0x51
 3771 05aa 9C020000 		.4byte	.LVL94
 3772 05ae B0020000 		.4byte	.LVL98
 3773 05b2 0100     		.2byte	0x1
 3774 05b4 51       		.byte	0x51
 3775 05b5 D6020000 		.4byte	.LVL106
 3776 05b9 E0020000 		.4byte	.LVL107
 3777 05bd 0400     		.2byte	0x4
 3778 05bf 0A       		.byte	0xa
 3779 05c0 FF7F     		.2byte	0x7fff
 3780 05c2 9F       		.byte	0x9f
 3781 05c3 00000000 		.4byte	0
 3782 05c7 00000000 		.4byte	0
 3783              	.LLST16:
 3784 05cb 72000000 		.4byte	.LVL28
 3785 05cf 78000000 		.4byte	.LVL30
 3786 05d3 0200     		.2byte	0x2
 3787 05d5 30       		.byte	0x30
 3788 05d6 9F       		.byte	0x9f
 3789 05d7 78000000 		.4byte	.LVL30
 3790 05db CA010000 		.4byte	.LVL58
 3791 05df 0100     		.2byte	0x1
 3792 05e1 56       		.byte	0x56
 3793 05e2 CE010000 		.4byte	.LVL59
 3794 05e6 E6010000 		.4byte	.LVL63
 3795 05ea 0100     		.2byte	0x1
 3796 05ec 56       		.byte	0x56
 3797 05ed E6010000 		.4byte	.LVL63
 3798 05f1 F2010000 		.4byte	.LVL64
 3799 05f5 0100     		.2byte	0x1
 3800 05f7 54       		.byte	0x54
 3801 05f8 F2010000 		.4byte	.LVL64
 3802 05fc F4010000 		.4byte	.LVL65
 3803 0600 0300     		.2byte	0x3
 3804 0602 74       		.byte	0x74
 3805 0603 7F       		.sleb128 -1
 3806 0604 9F       		.byte	0x9f
 3807 0605 F4010000 		.4byte	.LVL65
 3808 0609 FA010000 		.4byte	.LVL66
 3809 060d 0100     		.2byte	0x1
 3810 060f 54       		.byte	0x54
 3811 0610 FA010000 		.4byte	.LVL66
 3812 0614 1E020000 		.4byte	.LVL71
 3813 0618 0100     		.2byte	0x1
 3814 061a 56       		.byte	0x56
 3815 061b 1E020000 		.4byte	.LVL71
 3816 061f 2C020000 		.4byte	.LVL72
ARM GAS  /tmp/cc7i0CK9.s 			page 68


 3817 0623 0100     		.2byte	0x1
 3818 0625 5A       		.byte	0x5a
 3819 0626 2C020000 		.4byte	.LVL72
 3820 062a 38020000 		.4byte	.LVL73
 3821 062e 0100     		.2byte	0x1
 3822 0630 56       		.byte	0x56
 3823 0631 38020000 		.4byte	.LVL73
 3824 0635 3A020000 		.4byte	.LVL74
 3825 0639 0300     		.2byte	0x3
 3826 063b 76       		.byte	0x76
 3827 063c 01       		.sleb128 1
 3828 063d 9F       		.byte	0x9f
 3829 063e 3A020000 		.4byte	.LVL74
 3830 0642 44020000 		.4byte	.LVL75
 3831 0646 0100     		.2byte	0x1
 3832 0648 56       		.byte	0x56
 3833 0649 44020000 		.4byte	.LVL75
 3834 064d 48020000 		.4byte	.LVL76
 3835 0651 0200     		.2byte	0x2
 3836 0653 30       		.byte	0x30
 3837 0654 9F       		.byte	0x9f
 3838 0655 72020000 		.4byte	.LVL81
 3839 0659 B0020000 		.4byte	.LVL98
 3840 065d 0100     		.2byte	0x1
 3841 065f 56       		.byte	0x56
 3842 0660 B0020000 		.4byte	.LVL98
 3843 0664 B8020000 		.4byte	.LVL100
 3844 0668 0100     		.2byte	0x1
 3845 066a 5A       		.byte	0x5a
 3846 066b B8020000 		.4byte	.LVL100
 3847 066f BA020000 		.4byte	.LVL101
 3848 0673 0100     		.2byte	0x1
 3849 0675 56       		.byte	0x56
 3850 0676 BA020000 		.4byte	.LVL101
 3851 067a D6020000 		.4byte	.LVL106
 3852 067e 0100     		.2byte	0x1
 3853 0680 5A       		.byte	0x5a
 3854 0681 D6020000 		.4byte	.LVL106
 3855 0685 0C030000 		.4byte	.LFE258
 3856 0689 0100     		.2byte	0x1
 3857 068b 56       		.byte	0x56
 3858 068c 00000000 		.4byte	0
 3859 0690 00000000 		.4byte	0
 3860              	.LLST17:
 3861 0694 08000000 		.4byte	.LVL17
 3862 0698 1C000000 		.4byte	.LVL19
 3863 069c 0200     		.2byte	0x2
 3864 069e 30       		.byte	0x30
 3865 069f 9F       		.byte	0x9f
 3866 06a0 1C000000 		.4byte	.LVL19
 3867 06a4 E6010000 		.4byte	.LVL63
 3868 06a8 0100     		.2byte	0x1
 3869 06aa 58       		.byte	0x58
 3870 06ab FA010000 		.4byte	.LVL66
 3871 06af 2C020000 		.4byte	.LVL72
 3872 06b3 0100     		.2byte	0x1
 3873 06b5 58       		.byte	0x58
ARM GAS  /tmp/cc7i0CK9.s 			page 69


 3874 06b6 44020000 		.4byte	.LVL75
 3875 06ba 4C020000 		.4byte	.LVL77
 3876 06be 0100     		.2byte	0x1
 3877 06c0 58       		.byte	0x58
 3878 06c1 72020000 		.4byte	.LVL81
 3879 06c5 0C030000 		.4byte	.LFE258
 3880 06c9 0100     		.2byte	0x1
 3881 06cb 58       		.byte	0x58
 3882 06cc 00000000 		.4byte	0
 3883 06d0 00000000 		.4byte	0
 3884              	.LLST18:
 3885 06d4 48010000 		.4byte	.LVL45
 3886 06d8 99010000 		.4byte	.LVL48
 3887 06dc 0200     		.2byte	0x2
 3888 06de 31       		.byte	0x31
 3889 06df 9F       		.byte	0x9f
 3890 06e0 A0020000 		.4byte	.LVL95
 3891 06e4 A2020000 		.4byte	.LVL96
 3892 06e8 0200     		.2byte	0x2
 3893 06ea 31       		.byte	0x31
 3894 06eb 9F       		.byte	0x9f
 3895 06ec 00000000 		.4byte	0
 3896 06f0 00000000 		.4byte	0
 3897              	.LLST19:
 3898 06f4 4E000000 		.4byte	.LVL24
 3899 06f8 5E000000 		.4byte	.LVL25
 3900 06fc 0200     		.2byte	0x2
 3901 06fe 30       		.byte	0x30
 3902 06ff 9F       		.byte	0x9f
 3903 0700 5E000000 		.4byte	.LVL25
 3904 0704 66000000 		.4byte	.LVL26
 3905 0708 0200     		.2byte	0x2
 3906 070a 31       		.byte	0x31
 3907 070b 9F       		.byte	0x9f
 3908 070c 66000000 		.4byte	.LVL26
 3909 0710 DE010000 		.4byte	.LVL62
 3910 0714 0100     		.2byte	0x1
 3911 0716 5A       		.byte	0x5a
 3912 0717 FA010000 		.4byte	.LVL66
 3913 071b 1E020000 		.4byte	.LVL71
 3914 071f 0100     		.2byte	0x1
 3915 0721 5A       		.byte	0x5a
 3916 0722 72020000 		.4byte	.LVL81
 3917 0726 B0020000 		.4byte	.LVL98
 3918 072a 0100     		.2byte	0x1
 3919 072c 5A       		.byte	0x5a
 3920 072d D6020000 		.4byte	.LVL106
 3921 0731 0C030000 		.4byte	.LFE258
 3922 0735 0100     		.2byte	0x1
 3923 0737 5A       		.byte	0x5a
 3924 0738 00000000 		.4byte	0
 3925 073c 00000000 		.4byte	0
 3926              	.LLST20:
 3927 0740 76020000 		.4byte	.LVL83
 3928 0744 7D020000 		.4byte	.LVL86-1
 3929 0748 0100     		.2byte	0x1
 3930 074a 51       		.byte	0x51
ARM GAS  /tmp/cc7i0CK9.s 			page 70


 3931 074b 8E020000 		.4byte	.LVL92
 3932 074f 9C020000 		.4byte	.LVL94
 3933 0753 0100     		.2byte	0x1
 3934 0755 51       		.byte	0x51
 3935 0756 F4020000 		.4byte	.LVL109
 3936 075a 02030000 		.4byte	.LVL112
 3937 075e 0100     		.2byte	0x1
 3938 0760 51       		.byte	0x51
 3939 0761 00000000 		.4byte	0
 3940 0765 00000000 		.4byte	0
 3941              	.LLST21:
 3942 0769 98020000 		.4byte	.LVL93
 3943 076d 9C020000 		.4byte	.LVL94
 3944 0771 0200     		.2byte	0x2
 3945 0773 3A       		.byte	0x3a
 3946 0774 9F       		.byte	0x9f
 3947 0775 00000000 		.4byte	0
 3948 0779 00000000 		.4byte	0
 3949              	.LLST22:
 3950 077d 98020000 		.4byte	.LVL93
 3951 0781 9C020000 		.4byte	.LVL94
 3952 0785 0100     		.2byte	0x1
 3953 0787 51       		.byte	0x51
 3954 0788 00000000 		.4byte	0
 3955 078c 00000000 		.4byte	0
 3956              	.LLST23:
 3957 0790 98020000 		.4byte	.LVL93
 3958 0794 9C020000 		.4byte	.LVL94
 3959 0798 0100     		.2byte	0x1
 3960 079a 50       		.byte	0x50
 3961 079b 00000000 		.4byte	0
 3962 079f 00000000 		.4byte	0
 3963              	.LLST24:
 3964 07a3 00000000 		.4byte	.LVL113
 3965 07a7 0E000000 		.4byte	.LVL115
 3966 07ab 0100     		.2byte	0x1
 3967 07ad 50       		.byte	0x50
 3968 07ae 0E000000 		.4byte	.LVL115
 3969 07b2 36000000 		.4byte	.LVL121
 3970 07b6 0100     		.2byte	0x1
 3971 07b8 55       		.byte	0x55
 3972 07b9 36000000 		.4byte	.LVL121
 3973 07bd 3A000000 		.4byte	.LVL122
 3974 07c1 0400     		.2byte	0x4
 3975 07c3 F3       		.byte	0xf3
 3976 07c4 01       		.uleb128 0x1
 3977 07c5 50       		.byte	0x50
 3978 07c6 9F       		.byte	0x9f
 3979 07c7 3A000000 		.4byte	.LVL122
 3980 07cb 40000000 		.4byte	.LVL124
 3981 07cf 0100     		.2byte	0x1
 3982 07d1 50       		.byte	0x50
 3983 07d2 40000000 		.4byte	.LVL124
 3984 07d6 5A000000 		.4byte	.LVL128
 3985 07da 0100     		.2byte	0x1
 3986 07dc 55       		.byte	0x55
 3987 07dd 5A000000 		.4byte	.LVL128
ARM GAS  /tmp/cc7i0CK9.s 			page 71


 3988 07e1 5E000000 		.4byte	.LFE259
 3989 07e5 0400     		.2byte	0x4
 3990 07e7 F3       		.byte	0xf3
 3991 07e8 01       		.uleb128 0x1
 3992 07e9 50       		.byte	0x50
 3993 07ea 9F       		.byte	0x9f
 3994 07eb 00000000 		.4byte	0
 3995 07ef 00000000 		.4byte	0
 3996              	.LLST25:
 3997 07f3 00000000 		.4byte	.LVL113
 3998 07f7 10000000 		.4byte	.LVL116
 3999 07fb 0100     		.2byte	0x1
 4000 07fd 51       		.byte	0x51
 4001 07fe 10000000 		.4byte	.LVL116
 4002 0802 36000000 		.4byte	.LVL121
 4003 0806 0100     		.2byte	0x1
 4004 0808 54       		.byte	0x54
 4005 0809 36000000 		.4byte	.LVL121
 4006 080d 3A000000 		.4byte	.LVL122
 4007 0811 0400     		.2byte	0x4
 4008 0813 F3       		.byte	0xf3
 4009 0814 01       		.uleb128 0x1
 4010 0815 51       		.byte	0x51
 4011 0816 9F       		.byte	0x9f
 4012 0817 3A000000 		.4byte	.LVL122
 4013 081b 3C000000 		.4byte	.LVL123
 4014 081f 0100     		.2byte	0x1
 4015 0821 51       		.byte	0x51
 4016 0822 3C000000 		.4byte	.LVL123
 4017 0826 5A000000 		.4byte	.LVL128
 4018 082a 0100     		.2byte	0x1
 4019 082c 54       		.byte	0x54
 4020 082d 5A000000 		.4byte	.LVL128
 4021 0831 5E000000 		.4byte	.LFE259
 4022 0835 0400     		.2byte	0x4
 4023 0837 F3       		.byte	0xf3
 4024 0838 01       		.uleb128 0x1
 4025 0839 51       		.byte	0x51
 4026 083a 9F       		.byte	0x9f
 4027 083b 00000000 		.4byte	0
 4028 083f 00000000 		.4byte	0
 4029              	.LLST26:
 4030 0843 18000000 		.4byte	.LVL118
 4031 0847 1E000000 		.4byte	.LVL119
 4032 084b 0300     		.2byte	0x3
 4033 084d 91       		.byte	0x91
 4034 084e 44       		.sleb128 -60
 4035 084f 9F       		.byte	0x9f
 4036 0850 1E000000 		.4byte	.LVL119
 4037 0854 25000000 		.4byte	.LVL120-1
 4038 0858 0100     		.2byte	0x1
 4039 085a 50       		.byte	0x50
 4040 085b 25000000 		.4byte	.LVL120-1
 4041 085f 3A000000 		.4byte	.LVL122
 4042 0863 0300     		.2byte	0x3
 4043 0865 91       		.byte	0x91
 4044 0866 44       		.sleb128 -60
ARM GAS  /tmp/cc7i0CK9.s 			page 72


 4045 0867 9F       		.byte	0x9f
 4046 0868 46000000 		.4byte	.LVL125
 4047 086c 4A000000 		.4byte	.LVL126
 4048 0870 0300     		.2byte	0x3
 4049 0872 91       		.byte	0x91
 4050 0873 44       		.sleb128 -60
 4051 0874 9F       		.byte	0x9f
 4052 0875 4A000000 		.4byte	.LVL126
 4053 0879 53000000 		.4byte	.LVL127-1
 4054 087d 0100     		.2byte	0x1
 4055 087f 50       		.byte	0x50
 4056 0880 53000000 		.4byte	.LVL127-1
 4057 0884 5E000000 		.4byte	.LFE259
 4058 0888 0300     		.2byte	0x3
 4059 088a 91       		.byte	0x91
 4060 088b 44       		.sleb128 -60
 4061 088c 9F       		.byte	0x9f
 4062 088d 00000000 		.4byte	0
 4063 0891 00000000 		.4byte	0
 4064              	.LLST27:
 4065 0895 0C000000 		.4byte	.LVL114
 4066 0899 10000000 		.4byte	.LVL116
 4067 089d 0300     		.2byte	0x3
 4068 089f 71       		.byte	0x71
 4069 08a0 7F       		.sleb128 -1
 4070 08a1 9F       		.byte	0x9f
 4071 08a2 10000000 		.4byte	.LVL116
 4072 08a6 12000000 		.4byte	.LVL117
 4073 08aa 0300     		.2byte	0x3
 4074 08ac 74       		.byte	0x74
 4075 08ad 7F       		.sleb128 -1
 4076 08ae 9F       		.byte	0x9f
 4077 08af 12000000 		.4byte	.LVL117
 4078 08b3 17000000 		.4byte	.LVL118-1
 4079 08b7 0100     		.2byte	0x1
 4080 08b9 52       		.byte	0x52
 4081 08ba 17000000 		.4byte	.LVL118-1
 4082 08be 36000000 		.4byte	.LVL121
 4083 08c2 0300     		.2byte	0x3
 4084 08c4 74       		.byte	0x74
 4085 08c5 7F       		.sleb128 -1
 4086 08c6 9F       		.byte	0x9f
 4087 08c7 36000000 		.4byte	.LVL121
 4088 08cb 3A000000 		.4byte	.LVL122
 4089 08cf 0600     		.2byte	0x6
 4090 08d1 F3       		.byte	0xf3
 4091 08d2 01       		.uleb128 0x1
 4092 08d3 51       		.byte	0x51
 4093 08d4 31       		.byte	0x31
 4094 08d5 1C       		.byte	0x1c
 4095 08d6 9F       		.byte	0x9f
 4096 08d7 3A000000 		.4byte	.LVL122
 4097 08db 5E000000 		.4byte	.LFE259
 4098 08df 0200     		.2byte	0x2
 4099 08e1 30       		.byte	0x30
 4100 08e2 9F       		.byte	0x9f
 4101 08e3 00000000 		.4byte	0
ARM GAS  /tmp/cc7i0CK9.s 			page 73


 4102 08e7 00000000 		.4byte	0
 4103              	.LLST28:
 4104 08eb 26000000 		.4byte	.LVL120
 4105 08ef 3A000000 		.4byte	.LVL122
 4106 08f3 0100     		.2byte	0x1
 4107 08f5 50       		.byte	0x50
 4108 08f6 54000000 		.4byte	.LVL127
 4109 08fa 5E000000 		.4byte	.LFE259
 4110 08fe 0100     		.2byte	0x1
 4111 0900 50       		.byte	0x50
 4112 0901 00000000 		.4byte	0
 4113 0905 00000000 		.4byte	0
 4114              		.section	.debug_aranges,"",%progbits
 4115 0000 2C000000 		.4byte	0x2c
 4116 0004 0200     		.2byte	0x2
 4117 0006 00000000 		.4byte	.Ldebug_info0
 4118 000a 04       		.byte	0x4
 4119 000b 00       		.byte	0
 4120 000c 0000     		.2byte	0
 4121 000e 0000     		.2byte	0
 4122 0010 00000000 		.4byte	.LFB260
 4123 0014 44000000 		.4byte	.LFE260-.LFB260
 4124 0018 00000000 		.4byte	.LFB258
 4125 001c 0C030000 		.4byte	.LFE258-.LFB258
 4126 0020 00000000 		.4byte	.LFB259
 4127 0024 5E000000 		.4byte	.LFE259-.LFB259
 4128 0028 00000000 		.4byte	0
 4129 002c 00000000 		.4byte	0
 4130              		.section	.debug_ranges,"",%progbits
 4131              	.Ldebug_ranges0:
 4132 0000 76020000 		.4byte	.LBB6
 4133 0004 78020000 		.4byte	.LBE6
 4134 0008 7A020000 		.4byte	.LBB9
 4135 000c 84020000 		.4byte	.LBE9
 4136 0010 00000000 		.4byte	0
 4137 0014 00000000 		.4byte	0
 4138 0018 00000000 		.4byte	.LFB260
 4139 001c 44000000 		.4byte	.LFE260
 4140 0020 00000000 		.4byte	.LFB258
 4141 0024 0C030000 		.4byte	.LFE258
 4142 0028 00000000 		.4byte	.LFB259
 4143 002c 5E000000 		.4byte	.LFE259
 4144 0030 00000000 		.4byte	0
 4145 0034 00000000 		.4byte	0
 4146              		.section	.debug_line,"",%progbits
 4147              	.Ldebug_line0:
 4148 0000 94030000 		.section	.debug_str,"MS",%progbits,1
 4148      02005602 
 4148      00000201 
 4148      FB0E0D00 
 4148      01010101 
 4149              	.LASF21:
 4150 0000 74726566 		.ascii	"trefs_t\000"
 4150      735F7400 
 4151              	.LASF49:
 4152 0008 72656164 		.ascii	"ready_list_t\000"
 4152      795F6C69 
ARM GAS  /tmp/cc7i0CK9.s 			page 74


 4152      73745F74 
 4152      00
 4153              	.LASF2:
 4154 0015 73697A65 		.ascii	"size_t\000"
 4154      5F7400
 4155              	.LASF17:
 4156 001c 75696E74 		.ascii	"uint64_t\000"
 4156      36345F74 
 4156      00
 4157              	.LASF3:
 4158 0025 5F5F7569 		.ascii	"__uint8_t\000"
 4158      6E74385F 
 4158      7400
 4159              	.LASF81:
 4160 002f 706F7274 		.ascii	"port_intctx\000"
 4160      5F696E74 
 4160      63747800 
 4161              	.LASF102:
 4162 003b 76615F6C 		.ascii	"va_list\000"
 4162      69737400 
 4163              	.LASF68:
 4164 0043 73797374 		.ascii	"system_debug_t\000"
 4164      656D5F64 
 4164      65627567 
 4164      5F7400
 4165              	.LASF120:
 4166 0052 72657476 		.ascii	"retval\000"
 4166      616C00
 4167              	.LASF119:
 4168 0059 73697A65 		.ascii	"size_wo_nul\000"
 4168      5F776F5F 
 4168      6E756C00 
 4169              	.LASF13:
 4170 0065 6C6F6E67 		.ascii	"long long unsigned int\000"
 4170      206C6F6E 
 4170      6720756E 
 4170      7369676E 
 4170      65642069 
 4171              	.LASF85:
 4172 007c 65786974 		.ascii	"exitcode\000"
 4172      636F6465 
 4172      00
 4173              	.LASF75:
 4174 0085 6D61696E 		.ascii	"mainthread\000"
 4174      74687265 
 4174      616400
 4175              	.LASF65:
 4176 0090 76697274 		.ascii	"virtual_timers_list_t\000"
 4176      75616C5F 
 4176      74696D65 
 4176      72735F6C 
 4176      6973745F 
 4177              	.LASF121:
 4178 00a6 49544D5F 		.ascii	"ITM_RxBuffer\000"
 4178      52784275 
 4178      66666572 
 4178      00
ARM GAS  /tmp/cc7i0CK9.s 			page 75


 4179              	.LASF124:
 4180 00b3 2F686F6D 		.ascii	"/home/bhimebau/forge/annsynth/src\000"
 4180      652F6268 
 4180      696D6562 
 4180      61752F66 
 4180      6F726765 
 4181              	.LASF48:
 4182 00d5 63685F74 		.ascii	"ch_threads_queue\000"
 4182      68726561 
 4182      64735F71 
 4182      75657565 
 4182      00
 4183              	.LASF29:
 4184 00e6 705F7072 		.ascii	"p_prio\000"
 4184      696F00
 4185              	.LASF11:
 4186 00ed 6C6F6E67 		.ascii	"long long int\000"
 4186      206C6F6E 
 4186      6720696E 
 4186      7400
 4187              	.LASF1:
 4188 00fb 7369676E 		.ascii	"signed char\000"
 4188      65642063 
 4188      68617200 
 4189              	.LASF10:
 4190 0107 6C6F6E67 		.ascii	"long unsigned int\000"
 4190      20756E73 
 4190      69676E65 
 4190      6420696E 
 4190      7400
 4191              	.LASF43:
 4192 0119 705F6D70 		.ascii	"p_mpool\000"
 4192      6F6F6C00 
 4193              	.LASF116:
 4194 0121 746D7062 		.ascii	"tmpbuf\000"
 4194      756600
 4195              	.LASF72:
 4196 0128 63685F73 		.ascii	"ch_system\000"
 4196      79737465 
 4196      6D00
 4197              	.LASF8:
 4198 0132 6C6F6E67 		.ascii	"long int\000"
 4198      20696E74 
 4198      00
 4199              	.LASF20:
 4200 013b 74737461 		.ascii	"tstate_t\000"
 4200      74655F74 
 4200      00
 4201              	.LASF100:
 4202 0144 5F5F7661 		.ascii	"__va_list\000"
 4202      5F6C6973 
 4202      7400
 4203              	.LASF104:
 4204 014e 62756666 		.ascii	"buffer\000"
 4204      657200
 4205              	.LASF31:
 4206 0155 705F6E65 		.ascii	"p_newer\000"
ARM GAS  /tmp/cc7i0CK9.s 			page 76


 4206      77657200 
 4207              	.LASF54:
 4208 015d 725F6E65 		.ascii	"r_newer\000"
 4208      77657200 
 4209              	.LASF78:
 4210 0165 72656761 		.ascii	"regarm_t\000"
 4210      726D5F74 
 4210      00
 4211              	.LASF61:
 4212 016e 76745F70 		.ascii	"vt_prev\000"
 4212      72657600 
 4213              	.LASF74:
 4214 0176 76746C69 		.ascii	"vtlist\000"
 4214      737400
 4215              	.LASF111:
 4216 017d 66696C6C 		.ascii	"filler\000"
 4216      657200
 4217              	.LASF114:
 4218 0184 69735F6C 		.ascii	"is_long\000"
 4218      6F6E6700 
 4219              	.LASF93:
 4220 018c 6D757465 		.ascii	"mutex_t\000"
 4220      785F7400 
 4221              	.LASF97:
 4222 0194 42617365 		.ascii	"BaseSequentialStream\000"
 4222      53657175 
 4222      656E7469 
 4222      616C5374 
 4222      7265616D 
 4223              	.LASF89:
 4224 01a9 6D757465 		.ascii	"mutex\000"
 4224      7800
 4225              	.LASF76:
 4226 01af 69646C65 		.ascii	"idle_thread_wa\000"
 4226      5F746872 
 4226      6561645F 
 4226      776100
 4227              	.LASF0:
 4228 01be 756E7369 		.ascii	"unsigned int\000"
 4228      676E6564 
 4228      20696E74 
 4228      00
 4229              	.LASF60:
 4230 01cb 76745F6E 		.ascii	"vt_next\000"
 4230      65787400 
 4231              	.LASF62:
 4232 01d3 76745F64 		.ascii	"vt_delta\000"
 4232      656C7461 
 4232      00
 4233              	.LASF38:
 4234 01dc 705F6D73 		.ascii	"p_msgqueue\000"
 4234      67717565 
 4234      756500
 4235              	.LASF115:
 4236 01e7 6C656674 		.ascii	"left_align\000"
 4236      5F616C69 
 4236      676E00
ARM GAS  /tmp/cc7i0CK9.s 			page 77


 4237              	.LASF113:
 4238 01f2 77696474 		.ascii	"width\000"
 4238      6800
 4239              	.LASF6:
 4240 01f8 73686F72 		.ascii	"short unsigned int\000"
 4240      7420756E 
 4240      7369676E 
 4240      65642069 
 4240      6E7400
 4241              	.LASF45:
 4242 020b 63685F74 		.ascii	"ch_thread\000"
 4242      68726561 
 4242      6400
 4243              	.LASF23:
 4244 0215 6D73675F 		.ascii	"msg_t\000"
 4244      7400
 4245              	.LASF96:
 4246 021b 72656164 		.ascii	"read\000"
 4246      00
 4247              	.LASF19:
 4248 0220 746D6F64 		.ascii	"tmode_t\000"
 4248      655F7400 
 4249              	.LASF50:
 4250 0228 63685F72 		.ascii	"ch_ready_list\000"
 4250      65616479 
 4250      5F6C6973 
 4250      7400
 4251              	.LASF24:
 4252 0236 6576656E 		.ascii	"eventmask_t\000"
 4252      746D6173 
 4252      6B5F7400 
 4253              	.LASF7:
 4254 0242 5F5F696E 		.ascii	"__int32_t\000"
 4254      7433325F 
 4254      7400
 4255              	.LASF79:
 4256 024c 73746B61 		.ascii	"stkalign_t\000"
 4256      6C69676E 
 4256      5F7400
 4257              	.LASF126:
 4258 0257 6D734F62 		.ascii	"msObjectInit\000"
 4258      6A656374 
 4258      496E6974 
 4258      00
 4259              	.LASF95:
 4260 0264 77726974 		.ascii	"write\000"
 4260      6500
 4261              	.LASF37:
 4262 026a 705F7761 		.ascii	"p_waiting\000"
 4262      6974696E 
 4262      6700
 4263              	.LASF77:
 4264 0274 73697A65 		.ascii	"sizetype\000"
 4264      74797065 
 4264      00
 4265              	.LASF66:
 4266 027d 63685F76 		.ascii	"ch_virtual_timers_list\000"
ARM GAS  /tmp/cc7i0CK9.s 			page 78


 4266      69727475 
 4266      616C5F74 
 4266      696D6572 
 4266      735F6C69 
 4267              	.LASF125:
 4268 0294 756E7369 		.ascii	"unsigned_common\000"
 4268      676E6564 
 4268      5F636F6D 
 4268      6D6F6E00 
 4269              	.LASF110:
 4270 02a4 64697669 		.ascii	"divisor\000"
 4270      736F7200 
 4271              	.LASF99:
 4272 02ac 5F5F676E 		.ascii	"__gnuc_va_list\000"
 4272      75635F76 
 4272      615F6C69 
 4272      737400
 4273              	.LASF67:
 4274 02bb 76745F6C 		.ascii	"vt_lasttime\000"
 4274      61737474 
 4274      696D6500 
 4275              	.LASF32:
 4276 02c7 705F6F6C 		.ascii	"p_older\000"
 4276      64657200 
 4277              	.LASF53:
 4278 02cf 725F6374 		.ascii	"r_ctx\000"
 4278      7800
 4279              	.LASF83:
 4280 02d5 746D5F63 		.ascii	"tm_calibration_t\000"
 4280      616C6962 
 4280      72617469 
 4280      6F6E5F74 
 4280      00
 4281              	.LASF56:
 4282 02e6 725F6375 		.ascii	"r_current\000"
 4282      7272656E 
 4282      7400
 4283              	.LASF55:
 4284 02f0 725F6F6C 		.ascii	"r_older\000"
 4284      64657200 
 4285              	.LASF122:
 4286 02f8 474E5520 		.ascii	"GNU C 4.9.3 20141119 (release) [ARM/embedded-4_9-br"
 4286      4320342E 
 4286      392E3320 
 4286      32303134 
 4286      31313139 
 4287 032b 616E6368 		.ascii	"anch revision 218278] -mcpu=cortex-m4 -mfloat-abi=h"
 4287      20726576 
 4287      6973696F 
 4287      6E203231 
 4287      38323738 
 4288 035e 61726420 		.ascii	"ard -mfpu=fpv4-sp-d16 -mno-thumb-interwork -mthumb "
 4288      2D6D6670 
 4288      753D6670 
 4288      76342D73 
 4288      702D6431 
 4289 0391 2D676764 		.ascii	"-ggdb -O2 -fomit-frame-pointer -falign-functions=16"
ARM GAS  /tmp/cc7i0CK9.s 			page 79


 4289      62202D4F 
 4289      32202D66 
 4289      6F6D6974 
 4289      2D667261 
 4290 03c4 202D6666 		.ascii	" -ffunction-sections -fdata-sections -fno-common -f"
 4290      756E6374 
 4290      696F6E2D 
 4290      73656374 
 4290      696F6E73 
 4291 03f7 73696E67 		.ascii	"single-precision-constant\000"
 4291      6C652D70 
 4291      72656369 
 4291      73696F6E 
 4291      2D636F6E 
 4292              	.LASF103:
 4293 0411 4D656D53 		.ascii	"MemStreamVMT\000"
 4293      74726561 
 4293      6D564D54 
 4293      00
 4294              	.LASF12:
 4295 041e 5F5F7569 		.ascii	"__uint64_t\000"
 4295      6E743634 
 4295      5F7400
 4296              	.LASF58:
 4297 0429 76697274 		.ascii	"virtual_timer_t\000"
 4297      75616C5F 
 4297      74696D65 
 4297      725F7400 
 4298              	.LASF28:
 4299 0439 705F7072 		.ascii	"p_prev\000"
 4299      657600
 4300              	.LASF22:
 4301 0440 74707269 		.ascii	"tprio_t\000"
 4301      6F5F7400 
 4302              	.LASF106:
 4303 0448 4D656D6F 		.ascii	"MemoryStream\000"
 4303      72795374 
 4303      7265616D 
 4303      00
 4304              	.LASF33:
 4305 0455 705F6E61 		.ascii	"p_name\000"
 4305      6D6500
 4306              	.LASF69:
 4307 045c 63685F73 		.ascii	"ch_system_debug\000"
 4307      79737465 
 4307      6D5F6465 
 4307      62756700 
 4308              	.LASF98:
 4309 046c 5F426F6F 		.ascii	"_Bool\000"
 4309      6C00
 4310              	.LASF15:
 4311 0472 696E7433 		.ascii	"int32_t\000"
 4311      325F7400 
 4312              	.LASF4:
 4313 047a 756E7369 		.ascii	"unsigned char\000"
 4313      676E6564 
 4313      20636861 
ARM GAS  /tmp/cc7i0CK9.s 			page 80


 4313      7200
 4314              	.LASF90:
 4315 0488 6D5F7175 		.ascii	"m_queue\000"
 4315      65756500 
 4316              	.LASF123:
 4317 0490 2E2E2F43 		.ascii	"../ChibiOS/os/hal/lib/streams/chprintf.c\000"
 4317      68696269 
 4317      4F532F6F 
 4317      732F6861 
 4317      6C2F6C69 
 4318              	.LASF41:
 4319 04b9 705F6D74 		.ascii	"p_mtxlist\000"
 4319      786C6973 
 4319      7400
 4320              	.LASF5:
 4321 04c3 73686F72 		.ascii	"short int\000"
 4321      7420696E 
 4321      7400
 4322              	.LASF34:
 4323 04cd 705F7374 		.ascii	"p_state\000"
 4323      61746500 
 4324              	.LASF52:
 4325 04d5 725F7072 		.ascii	"r_prio\000"
 4325      696F00
 4326              	.LASF87:
 4327 04dc 65776D61 		.ascii	"ewmask\000"
 4327      736B00
 4328              	.LASF27:
 4329 04e3 705F6E65 		.ascii	"p_next\000"
 4329      787400
 4330              	.LASF94:
 4331 04ea 42617365 		.ascii	"BaseSequentialStreamVMT\000"
 4331      53657175 
 4331      656E7469 
 4331      616C5374 
 4331      7265616D 
 4332              	.LASF35:
 4333 0502 705F666C 		.ascii	"p_flags\000"
 4333      61677300 
 4334              	.LASF107:
 4335 050a 72616469 		.ascii	"radix\000"
 4335      7800
 4336              	.LASF59:
 4337 0510 63685F76 		.ascii	"ch_virtual_timer\000"
 4337      69727475 
 4337      616C5F74 
 4337      696D6572 
 4337      00
 4338              	.LASF40:
 4339 0521 705F6570 		.ascii	"p_epending\000"
 4339      656E6469 
 4339      6E6700
 4340              	.LASF16:
 4341 052c 75696E74 		.ascii	"uint32_t\000"
 4341      33325F74 
 4341      00
 4342              	.LASF51:
ARM GAS  /tmp/cc7i0CK9.s 			page 81


 4343 0535 725F7175 		.ascii	"r_queue\000"
 4343      65756500 
 4344              	.LASF46:
 4345 053d 63685F74 		.ascii	"ch_threads_list\000"
 4345      68726561 
 4345      64735F6C 
 4345      69737400 
 4346              	.LASF118:
 4347 054d 6368736E 		.ascii	"chsnprintf\000"
 4347      7072696E 
 4347      746600
 4348              	.LASF88:
 4349 0558 63686172 		.ascii	"char\000"
 4349      00
 4350              	.LASF112:
 4351 055d 70726563 		.ascii	"precision\000"
 4351      6973696F 
 4351      6E00
 4352              	.LASF26:
 4353 0567 74687265 		.ascii	"thread_t\000"
 4353      61645F74 
 4353      00
 4354              	.LASF92:
 4355 0570 6D5F6E65 		.ascii	"m_next\000"
 4355      787400
 4356              	.LASF25:
 4357 0577 73797374 		.ascii	"systime_t\000"
 4357      696D655F 
 4357      7400
 4358              	.LASF42:
 4359 0581 705F7265 		.ascii	"p_realprio\000"
 4359      616C7072 
 4359      696F00
 4360              	.LASF57:
 4361 058c 76746675 		.ascii	"vtfunc_t\000"
 4361      6E635F74 
 4361      00
 4362              	.LASF9:
 4363 0595 5F5F7569 		.ascii	"__uint32_t\000"
 4363      6E743332 
 4363      5F7400
 4364              	.LASF70:
 4365 05a0 70616E69 		.ascii	"panic_msg\000"
 4365      635F6D73 
 4365      6700
 4366              	.LASF82:
 4367 05aa 6F666673 		.ascii	"offset\000"
 4367      657400
 4368              	.LASF101:
 4369 05b1 5F5F6170 		.ascii	"__ap\000"
 4369      00
 4370              	.LASF80:
 4371 05b6 636F6E74 		.ascii	"context\000"
 4371      65787400 
 4372              	.LASF71:
 4373 05be 63685F73 		.ascii	"ch_system_t\000"
 4373      79737465 
ARM GAS  /tmp/cc7i0CK9.s 			page 82


 4373      6D5F7400 
 4374              	.LASF18:
 4375 05ca 7274636E 		.ascii	"rtcnt_t\000"
 4375      745F7400 
 4376              	.LASF64:
 4377 05d2 76745F70 		.ascii	"vt_par\000"
 4377      617200
 4378              	.LASF47:
 4379 05d9 74687265 		.ascii	"threads_queue_t\000"
 4379      6164735F 
 4379      71756575 
 4379      655F7400 
 4380              	.LASF84:
 4381 05e9 7264796D 		.ascii	"rdymsg\000"
 4381      736700
 4382              	.LASF36:
 4383 05f0 705F7265 		.ascii	"p_refs\000"
 4383      667300
 4384              	.LASF108:
 4385 05f7 63685F6C 		.ascii	"ch_ltoa\000"
 4385      746F6100 
 4386              	.LASF73:
 4387 05ff 726C6973 		.ascii	"rlist\000"
 4387      7400
 4388              	.LASF14:
 4389 0605 75696E74 		.ascii	"uint8_t\000"
 4389      385F7400 
 4390              	.LASF117:
 4391 060d 63687670 		.ascii	"chvprintf\000"
 4391      72696E74 
 4391      6600
 4392              	.LASF86:
 4393 0617 77746F62 		.ascii	"wtobjp\000"
 4393      6A7000
 4394              	.LASF109:
 4395 061e 6C6F6E67 		.ascii	"long_to_string_with_divisor\000"
 4395      5F746F5F 
 4395      73747269 
 4395      6E675F77 
 4395      6974685F 
 4396              	.LASF105:
 4397 063a 73697A65 		.ascii	"size\000"
 4397      00
 4398              	.LASF44:
 4399 063f 74687265 		.ascii	"threads_list_t\000"
 4399      6164735F 
 4399      6C697374 
 4399      5F7400
 4400              	.LASF39:
 4401 064e 705F6D73 		.ascii	"p_msg\000"
 4401      6700
 4402              	.LASF91:
 4403 0654 6D5F6F77 		.ascii	"m_owner\000"
 4403      6E657200 
 4404              	.LASF30:
 4405 065c 705F6374 		.ascii	"p_ctx\000"
 4405      7800
ARM GAS  /tmp/cc7i0CK9.s 			page 83


 4406              	.LASF63:
 4407 0662 76745F66 		.ascii	"vt_func\000"
 4407      756E6300 
 4408              		.ident	"GCC: (GNU Tools for ARM Embedded Processors) 4.9.3 20141119 (release) [ARM/embedded-4_9-br
ARM GAS  /tmp/cc7i0CK9.s 			page 84


DEFINED SYMBOLS
                            *ABS*:00000000 chprintf.c
     /tmp/cc7i0CK9.s:21     .text.long_to_string_with_divisor.constprop.0:00000000 $t
     /tmp/cc7i0CK9.s:26     .text.long_to_string_with_divisor.constprop.0:00000000 long_to_string_with_divisor.constprop.0
     /tmp/cc7i0CK9.s:105    .text.chvprintf:00000000 $t
     /tmp/cc7i0CK9.s:111    .text.chvprintf:00000000 chvprintf
     /tmp/cc7i0CK9.s:264    .text.chvprintf:000000b8 $d
     /tmp/cc7i0CK9.s:318    .text.chvprintf:00000122 $t
     /tmp/cc7i0CK9.s:366    .text.chvprintf:00000164 $d
     /tmp/cc7i0CK9.s:741    .text.chvprintf:00000308 $d
     /tmp/cc7i0CK9.s:746    .text.chsnprintf:00000000 $t
     /tmp/cc7i0CK9.s:752    .text.chsnprintf:00000000 chsnprintf
     /tmp/cc7i0CK9.s:864    .rodata.str1.4:00000000 $d
                     .debug_frame:00000010 $d
     /tmp/cc7i0CK9.s:745    .text.chvprintf:0000030c $t
     /tmp/cc7i0CK9.s:420    .text.chvprintf:00000199 $d
     /tmp/cc7i0CK9.s:420    .text.chvprintf:0000019a $t

UNDEFINED SYMBOLS
msObjectInit
