ARM GAS  /tmp/ccw5AbCP.s 			page 1


   1              		.syntax unified
   2              		.cpu cortex-m4
   3              		.eabi_attribute 27, 3
   4              		.eabi_attribute 28, 1
   5              		.fpu fpv4-sp-d16
   6              		.eabi_attribute 20, 1
   7              		.eabi_attribute 21, 1
   8              		.eabi_attribute 23, 3
   9              		.eabi_attribute 24, 1
  10              		.eabi_attribute 25, 1
  11              		.eabi_attribute 26, 1
  12              		.eabi_attribute 30, 2
  13              		.eabi_attribute 34, 1
  14              		.eabi_attribute 18, 4
  15              		.thumb
  16              		.file	"chqueues.c"
  17              		.text
  18              	.Ltext0:
  19              		.cfi_sections	.debug_frame
  20              		.section	.text.chIQObjectInit,"ax",%progbits
  21              		.align	2
  22              		.p2align 4,,15
  23              		.global	chIQObjectInit
  24              		.thumb
  25              		.thumb_func
  26              		.type	chIQObjectInit, %function
  27              	chIQObjectInit:
  28              	.LFB226:
  29              		.file 1 "../ChibiOS/os/rt/src/chqueues.c"
  30              		.loc 1 88 0
  31              		.cfi_startproc
  32              		@ args = 4, pretend = 0, frame = 0
  33              		@ frame_needed = 0, uses_anonymous_args = 0
  34              		@ link register save eliminated.
  35              	.LVL0:
  36 0000 30B4     		push	{r4, r5}
  37              		.cfi_def_cfa_offset 8
  38              		.cfi_offset 4, -8
  39              		.cfi_offset 5, -4
  40              		.loc 1 88 0
  41 0002 029C     		ldr	r4, [sp, #8]
  42              		.loc 1 95 0
  43 0004 0462     		str	r4, [r0, #32]
  44              		.loc 1 91 0
  45 0006 0025     		movs	r5, #0
  46              		.loc 1 93 0
  47 0008 0A44     		add	r2, r2, r1
  48              	.LVL1:
  49              		.loc 1 91 0
  50 000a 8560     		str	r5, [r0, #8]
  51              		.loc 1 93 0
  52 000c 0261     		str	r2, [r0, #16]
  53              	.LBB108:
  54              	.LBB109:
  55              	.LBB110:
  56              		.file 2 "../ChibiOS/os/rt/include/chschd.h"
  57              		.loc 2 574 0
ARM GAS  /tmp/ccw5AbCP.s 			page 2


  58 000e 4060     		str	r0, [r0, #4]
  59 0010 0060     		str	r0, [r0]
  60              	.LBE110:
  61              	.LBE109:
  62              	.LBE108:
  63              		.loc 1 92 0
  64 0012 4161     		str	r1, [r0, #20]
  65 0014 8161     		str	r1, [r0, #24]
  66 0016 C160     		str	r1, [r0, #12]
  67              		.loc 1 94 0
  68 0018 C361     		str	r3, [r0, #28]
  69              		.loc 1 96 0
  70 001a 30BC     		pop	{r4, r5}
  71              		.cfi_restore 5
  72              		.cfi_restore 4
  73              		.cfi_def_cfa_offset 0
  74              	.LVL2:
  75 001c 7047     		bx	lr
  76              		.cfi_endproc
  77              	.LFE226:
  78              		.size	chIQObjectInit, .-chIQObjectInit
  79 001e 00BF     		.section	.text.chIQResetI,"ax",%progbits
  80              		.align	2
  81              		.p2align 4,,15
  82              		.global	chIQResetI
  83              		.thumb
  84              		.thumb_func
  85              		.type	chIQResetI, %function
  86              	chIQResetI:
  87              	.LFB227:
  88              		.loc 1 109 0
  89              		.cfi_startproc
  90              		@ args = 0, pretend = 0, frame = 0
  91              		@ frame_needed = 0, uses_anonymous_args = 0
  92              		@ link register save eliminated.
  93              	.LVL3:
  94              		.loc 1 114 0
  95 0000 0021     		movs	r1, #0
  96              		.loc 1 113 0
  97 0002 C268     		ldr	r2, [r0, #12]
  98              		.loc 1 114 0
  99 0004 8160     		str	r1, [r0, #8]
 100              		.loc 1 113 0
 101 0006 4261     		str	r2, [r0, #20]
 102 0008 8261     		str	r2, [r0, #24]
 103              		.loc 1 115 0
 104 000a 6FF00101 		mvn	r1, #1
 105 000e FFF7FEBF 		b	chThdDequeueAllI
 106              	.LVL4:
 107              		.cfi_endproc
 108              	.LFE227:
 109              		.size	chIQResetI, .-chIQResetI
 110 0012 00BFAFF3 		.section	.text.chIQPutI,"ax",%progbits
 110      0080AFF3 
 110      0080AFF3 
 110      0080
 111              		.align	2
ARM GAS  /tmp/ccw5AbCP.s 			page 3


 112              		.p2align 4,,15
 113              		.global	chIQPutI
 114              		.thumb
 115              		.thumb_func
 116              		.type	chIQPutI, %function
 117              	chIQPutI:
 118              	.LFB228:
 119              		.loc 1 131 0
 120              		.cfi_startproc
 121              		@ args = 0, pretend = 0, frame = 0
 122              		@ frame_needed = 0, uses_anonymous_args = 0
 123              	.LVL5:
 124              	.LBB111:
 125              	.LBB112:
 126              		.file 3 "../ChibiOS/os/rt/include/chqueues.h"
 127              		.loc 3 321 0
 128 0000 8369     		ldr	r3, [r0, #24]
 129 0002 4269     		ldr	r2, [r0, #20]
 130 0004 9A42     		cmp	r2, r3
 131              	.LBE112:
 132              	.LBE111:
 133              		.loc 1 131 0
 134 0006 10B5     		push	{r4, lr}
 135              		.cfi_def_cfa_offset 8
 136              		.cfi_offset 4, -8
 137              		.cfi_offset 14, -4
 138              	.LBB115:
 139              	.LBB113:
 140              		.loc 3 321 0
 141 0008 8368     		ldr	r3, [r0, #8]
 142 000a 0FD0     		beq	.L14
 143              	.L7:
 144              	.LBE113:
 145              	.LBE115:
 146              		.loc 1 139 0
 147 000c 0133     		adds	r3, r3, #1
 148              		.loc 1 140 0
 149 000e 541C     		adds	r4, r2, #1
 150              		.loc 1 139 0
 151 0010 8360     		str	r3, [r0, #8]
 152              		.loc 1 140 0
 153 0012 4461     		str	r4, [r0, #20]
 154 0014 1170     		strb	r1, [r2]
 155              		.loc 1 141 0
 156 0016 4269     		ldr	r2, [r0, #20]
 157 0018 0369     		ldr	r3, [r0, #16]
 158 001a 9A42     		cmp	r2, r3
 159 001c 01D3     		bcc	.L9
 160              		.loc 1 142 0
 161 001e C368     		ldr	r3, [r0, #12]
 162 0020 4361     		str	r3, [r0, #20]
 163              	.L9:
 164              		.loc 1 145 0
 165 0022 0021     		movs	r1, #0
 166              	.LVL6:
 167 0024 FFF7FEFF 		bl	chThdDequeueNextI
 168              	.LVL7:
ARM GAS  /tmp/ccw5AbCP.s 			page 4


 169              		.loc 1 147 0
 170 0028 0020     		movs	r0, #0
 171 002a 10BD     		pop	{r4, pc}
 172              	.LVL8:
 173              	.L14:
 174              	.LBB116:
 175              	.LBB114:
 176              		.loc 3 321 0
 177 002c 002B     		cmp	r3, #0
 178 002e EDD0     		beq	.L7
 179              	.LBE114:
 180              	.LBE116:
 181              		.loc 1 136 0
 182 0030 6FF00300 		mvn	r0, #3
 183              	.LVL9:
 184 0034 10BD     		pop	{r4, pc}
 185              		.cfi_endproc
 186              	.LFE228:
 187              		.size	chIQPutI, .-chIQPutI
 188 0036 00BFAFF3 		.section	.text.chIQGetTimeout,"ax",%progbits
 188      0080AFF3 
 188      0080
 189              		.align	2
 190              		.p2align 4,,15
 191              		.global	chIQGetTimeout
 192              		.thumb
 193              		.thumb_func
 194              		.type	chIQGetTimeout, %function
 195              	chIQGetTimeout:
 196              	.LFB229:
 197              		.loc 1 170 0
 198              		.cfi_startproc
 199              		@ args = 0, pretend = 0, frame = 0
 200              		@ frame_needed = 0, uses_anonymous_args = 0
 201              	.LVL10:
 202 0000 70B5     		push	{r4, r5, r6, lr}
 203              		.cfi_def_cfa_offset 16
 204              		.cfi_offset 4, -16
 205              		.cfi_offset 5, -12
 206              		.cfi_offset 6, -8
 207              		.cfi_offset 14, -4
 208              	.LBB117:
 209              	.LBB118:
 210              	.LBB119:
 211              	.LBB120:
 212              		.file 4 "../ChibiOS/os/ext/CMSIS/include/core_cmFunc.h"
 213              		.loc 4 546 0
 214 0002 2023     		movs	r3, #32
 215              	.LBE120:
 216              	.LBE119:
 217              	.LBE118:
 218              	.LBE117:
 219              		.loc 1 170 0
 220 0004 0E46     		mov	r6, r1
 221 0006 0446     		mov	r4, r0
 222              	.LBB124:
 223              	.LBB123:
ARM GAS  /tmp/ccw5AbCP.s 			page 5


 224              	.LBB122:
 225              	.LBB121:
 226              		.loc 4 546 0
 227              	@ 546 "../ChibiOS/os/ext/CMSIS/include/core_cmFunc.h" 1
 228 0008 83F31188 		MSR basepri, r3
 229              	@ 0 "" 2
 230              		.thumb
 231              	.LBE121:
 232              	.LBE122:
 233              	.LBE123:
 234              	.LBE124:
 235              		.loc 1 174 0
 236 000c C369     		ldr	r3, [r0, #28]
 237 000e 2BB1     		cbz	r3, .L17
 238              		.loc 1 175 0
 239 0010 9847     		blx	r3
 240              	.LVL11:
 241 0012 03E0     		b	.L17
 242              	.LVL12:
 243              	.L19:
 244              	.LBB125:
 245              		.loc 1 180 0
 246 0014 FFF7FEFF 		bl	chThdEnqueueTimeoutS
 247              	.LVL13:
 248 0018 0028     		cmp	r0, #0
 249 001a 15DB     		blt	.L26
 250              	.LVL14:
 251              	.L17:
 252 001c A568     		ldr	r5, [r4, #8]
 253              	.LVL15:
 254 001e 2046     		mov	r0, r4
 255 0020 3146     		mov	r1, r6
 256              	.LBE125:
 257              		.loc 1 178 0
 258 0022 002D     		cmp	r5, #0
 259 0024 F6D0     		beq	.L19
 260              	.LVL16:
 261              		.loc 1 187 0
 262 0026 A269     		ldr	r2, [r4, #24]
 263              		.loc 1 188 0
 264 0028 2169     		ldr	r1, [r4, #16]
 265              	.LVL17:
 266              		.loc 1 187 0
 267 002a 531C     		adds	r3, r2, #1
 268              		.loc 1 188 0
 269 002c 8B42     		cmp	r3, r1
 270              		.loc 1 186 0
 271 002e 05F1FF35 		add	r5, r5, #-1
 272              		.loc 1 187 0
 273 0032 A361     		str	r3, [r4, #24]
 274              		.loc 1 186 0
 275 0034 A560     		str	r5, [r4, #8]
 276              		.loc 1 189 0
 277 0036 28BF     		it	cs
 278 0038 E368     		ldrcs	r3, [r4, #12]
 279              		.loc 1 187 0
 280 003a 1078     		ldrb	r0, [r2]	@ zero_extendqisi2
ARM GAS  /tmp/ccw5AbCP.s 			page 6


 281              	.LVL18:
 282              		.loc 1 189 0
 283 003c 28BF     		it	cs
 284 003e A361     		strcs	r3, [r4, #24]
 285              	.LVL19:
 286              	.LBB131:
 287              	.LBB132:
 288              	.LBB133:
 289              	.LBB134:
 290              	.LBB135:
 291              		.loc 4 546 0
 292 0040 0023     		movs	r3, #0
 293              	@ 546 "../ChibiOS/os/ext/CMSIS/include/core_cmFunc.h" 1
 294 0042 83F31188 		MSR basepri, r3
 295              	@ 0 "" 2
 296              		.thumb
 297              	.LBE135:
 298              	.LBE134:
 299              	.LBE133:
 300              	.LBE132:
 301              	.LBE131:
 302              		.loc 1 194 0
 303 0046 70BD     		pop	{r4, r5, r6, pc}
 304              	.LVL20:
 305              	.L26:
 306              	.LBB136:
 307              	.LBB126:
 308              	.LBB127:
 309              	.LBB128:
 310              	.LBB129:
 311              	.LBB130:
 312              		.loc 4 546 0
 313              	@ 546 "../ChibiOS/os/ext/CMSIS/include/core_cmFunc.h" 1
 314 0048 85F31188 		MSR basepri, r5
 315              	@ 0 "" 2
 316              		.thumb
 317              	.LBE130:
 318              	.LBE129:
 319              	.LBE128:
 320              	.LBE127:
 321              	.LBE126:
 322              		.loc 1 182 0
 323 004c 70BD     		pop	{r4, r5, r6, pc}
 324              	.LBE136:
 325              		.cfi_endproc
 326              	.LFE229:
 327              		.size	chIQGetTimeout, .-chIQGetTimeout
 328 004e 00BF     		.section	.text.chIQReadTimeout,"ax",%progbits
 329              		.align	2
 330              		.p2align 4,,15
 331              		.global	chIQReadTimeout
 332              		.thumb
 333              		.thumb_func
 334              		.type	chIQReadTimeout, %function
 335              	chIQReadTimeout:
 336              	.LFB230:
 337              		.loc 1 221 0
ARM GAS  /tmp/ccw5AbCP.s 			page 7


 338              		.cfi_startproc
 339              		@ args = 0, pretend = 0, frame = 8
 340              		@ frame_needed = 0, uses_anonymous_args = 0
 341              	.LVL21:
 342 0000 2DE9F04F 		push	{r4, r5, r6, r7, r8, r9, r10, fp, lr}
 343              		.cfi_def_cfa_offset 36
 344              		.cfi_offset 4, -36
 345              		.cfi_offset 5, -32
 346              		.cfi_offset 6, -28
 347              		.cfi_offset 7, -24
 348              		.cfi_offset 8, -20
 349              		.cfi_offset 9, -16
 350              		.cfi_offset 10, -12
 351              		.cfi_offset 11, -8
 352              		.cfi_offset 14, -4
 353 0004 0446     		mov	r4, r0
 354 0006 83B0     		sub	sp, sp, #12
 355              		.cfi_def_cfa_offset 48
 356              		.loc 1 221 0
 357 0008 8946     		mov	r9, r1
 358 000a 9346     		mov	fp, r2
 359 000c 1D46     		mov	r5, r3
 360              		.loc 1 222 0
 361 000e D0F81C80 		ldr	r8, [r0, #28]
 362              	.LVL22:
 363              	.LBB137:
 364              	.LBB138:
 365              	.LBB139:
 366              	.LBB140:
 367              		.loc 4 546 0
 368 0012 2027     		movs	r7, #32
 369              	@ 546 "../ChibiOS/os/ext/CMSIS/include/core_cmFunc.h" 1
 370 0014 87F31188 		MSR basepri, r7
 371              	@ 0 "" 2
 372              		.thumb
 373              	.LBE140:
 374              	.LBE139:
 375              	.LBE138:
 376              	.LBE137:
 377              		.loc 1 223 0
 378 0018 0026     		movs	r6, #0
 379              	.LBB141:
 380              	.LBB142:
 381              	.LBB143:
 382              	.LBB144:
 383              		.loc 4 546 0
 384 001a 0197     		str	r7, [sp, #4]
 385              	.LBE144:
 386              	.LBE143:
 387              	.LBE142:
 388              	.LBE141:
 389              	.LBB148:
 390              	.LBB149:
 391              	.LBB150:
 392              	.LBB151:
 393              	.LBB152:
 394 001c B246     		mov	r10, r6
ARM GAS  /tmp/ccw5AbCP.s 			page 8


 395              	.LVL23:
 396              	.L33:
 397              	.LBE152:
 398              	.LBE151:
 399              	.LBE150:
 400              	.LBE149:
 401              	.LBE148:
 402              		.loc 1 229 0
 403 001e B8F1000F 		cmp	r8, #0
 404 0022 05D0     		beq	.L29
 405              		.loc 1 230 0
 406 0024 2046     		mov	r0, r4
 407              	.LVL24:
 408 0026 C047     		blx	r8
 409              	.LVL25:
 410 0028 02E0     		b	.L29
 411              	.LVL26:
 412              	.L31:
 413              		.loc 1 234 0
 414 002a FFF7FEFF 		bl	chThdEnqueueTimeoutS
 415              	.LVL27:
 416 002e D8B9     		cbnz	r0, .L40
 417              	.LVL28:
 418              	.L29:
 419 0030 A768     		ldr	r7, [r4, #8]
 420              	.LVL29:
 421 0032 2046     		mov	r0, r4
 422 0034 2946     		mov	r1, r5
 423              		.loc 1 233 0
 424 0036 002F     		cmp	r7, #0
 425 0038 F7D0     		beq	.L31
 426              	.LVL30:
 427              		.loc 1 241 0
 428 003a A269     		ldr	r2, [r4, #24]
 429              		.loc 1 240 0
 430 003c 7B1E     		subs	r3, r7, #1
 431              		.loc 1 241 0
 432 003e 511C     		adds	r1, r2, #1
 433              	.LVL31:
 434 0040 A161     		str	r1, [r4, #24]
 435              		.loc 1 240 0
 436 0042 A360     		str	r3, [r4, #8]
 437              		.loc 1 241 0
 438 0044 1378     		ldrb	r3, [r2]	@ zero_extendqisi2
 439 0046 09F8013B 		strb	r3, [r9], #1
 440              	.LVL32:
 441              		.loc 1 242 0
 442 004a 2369     		ldr	r3, [r4, #16]
 443 004c A269     		ldr	r2, [r4, #24]
 444 004e 9A42     		cmp	r2, r3
 445              		.loc 1 243 0
 446 0050 24BF     		itt	cs
 447 0052 E368     		ldrcs	r3, [r4, #12]
 448 0054 A361     		strcs	r3, [r4, #24]
 449              	.LVL33:
 450              	.LBB157:
 451              	.LBB156:
ARM GAS  /tmp/ccw5AbCP.s 			page 9


 452              	.LBB155:
 453              	.LBB154:
 454              	.LBB153:
 455              		.loc 4 546 0
 456              	@ 546 "../ChibiOS/os/ext/CMSIS/include/core_cmFunc.h" 1
 457 0056 8AF31188 		MSR basepri, r10
 458              	@ 0 "" 2
 459              		.thumb
 460              	.LBE153:
 461              	.LBE154:
 462              	.LBE155:
 463              	.LBE156:
 464              	.LBE157:
 465              		.loc 1 246 0
 466 005a 0136     		adds	r6, r6, #1
 467              	.LVL34:
 468              		.loc 1 247 0
 469 005c B345     		cmp	fp, r6
 470 005e 05D0     		beq	.L30
 471              	.LVL35:
 472              	.LBB158:
 473              	.LBB147:
 474              	.LBB146:
 475              	.LBB145:
 476              		.loc 4 546 0
 477 0060 019B     		ldr	r3, [sp, #4]
 478              	@ 546 "../ChibiOS/os/ext/CMSIS/include/core_cmFunc.h" 1
 479 0062 83F31188 		MSR basepri, r3
 480              	@ 0 "" 2
 481              		.thumb
 482 0066 DAE7     		b	.L33
 483              	.LVL36:
 484              	.L40:
 485              	.LBE145:
 486              	.LBE146:
 487              	.LBE147:
 488              	.LBE158:
 489              	.LBB159:
 490              	.LBB160:
 491              	.LBB161:
 492              	.LBB162:
 493              	.LBB163:
 494              	@ 546 "../ChibiOS/os/ext/CMSIS/include/core_cmFunc.h" 1
 495 0068 87F31188 		MSR basepri, r7
 496              	@ 0 "" 2
 497              	.LVL37:
 498              		.thumb
 499              	.L30:
 500              	.LBE163:
 501              	.LBE162:
 502              	.LBE161:
 503              	.LBE160:
 504              	.LBE159:
 505              		.loc 1 253 0
 506 006c 3046     		mov	r0, r6
 507 006e 03B0     		add	sp, sp, #12
 508              		.cfi_def_cfa_offset 36
ARM GAS  /tmp/ccw5AbCP.s 			page 10


 509              		@ sp needed
 510 0070 BDE8F08F 		pop	{r4, r5, r6, r7, r8, r9, r10, fp, pc}
 511              		.cfi_endproc
 512              	.LFE230:
 513              		.size	chIQReadTimeout, .-chIQReadTimeout
 514 0074 AFF30080 		.section	.text.chOQObjectInit,"ax",%progbits
 514      AFF30080 
 514      AFF30080 
 515              		.align	2
 516              		.p2align 4,,15
 517              		.global	chOQObjectInit
 518              		.thumb
 519              		.thumb_func
 520              		.type	chOQObjectInit, %function
 521              	chOQObjectInit:
 522              	.LFB231:
 523              		.loc 1 272 0
 524              		.cfi_startproc
 525              		@ args = 4, pretend = 0, frame = 0
 526              		@ frame_needed = 0, uses_anonymous_args = 0
 527              		@ link register save eliminated.
 528              	.LVL38:
 529 0000 30B4     		push	{r4, r5}
 530              		.cfi_def_cfa_offset 8
 531              		.cfi_offset 4, -8
 532              		.cfi_offset 5, -4
 533              		.loc 1 272 0
 534 0002 029C     		ldr	r4, [sp, #8]
 535              		.loc 1 279 0
 536 0004 0462     		str	r4, [r0, #32]
 537              		.loc 1 277 0
 538 0006 8D18     		adds	r5, r1, r2
 539 0008 0561     		str	r5, [r0, #16]
 540              	.LBB164:
 541              	.LBB165:
 542              	.LBB166:
 543              		.loc 2 574 0
 544 000a 4060     		str	r0, [r0, #4]
 545 000c 0060     		str	r0, [r0]
 546              	.LBE166:
 547              	.LBE165:
 548              	.LBE164:
 549              		.loc 1 275 0
 550 000e 8260     		str	r2, [r0, #8]
 551              		.loc 1 276 0
 552 0010 4161     		str	r1, [r0, #20]
 553 0012 8161     		str	r1, [r0, #24]
 554 0014 C160     		str	r1, [r0, #12]
 555              		.loc 1 278 0
 556 0016 C361     		str	r3, [r0, #28]
 557              		.loc 1 280 0
 558 0018 30BC     		pop	{r4, r5}
 559              		.cfi_restore 5
 560              		.cfi_restore 4
 561              		.cfi_def_cfa_offset 0
 562              	.LVL39:
 563 001a 7047     		bx	lr
ARM GAS  /tmp/ccw5AbCP.s 			page 11


 564              		.cfi_endproc
 565              	.LFE231:
 566              		.size	chOQObjectInit, .-chOQObjectInit
 567 001c AFF30080 		.section	.text.chOQResetI,"ax",%progbits
 568              		.align	2
 569              		.p2align 4,,15
 570              		.global	chOQResetI
 571              		.thumb
 572              		.thumb_func
 573              		.type	chOQResetI, %function
 574              	chOQResetI:
 575              	.LFB232:
 576              		.loc 1 293 0
 577              		.cfi_startproc
 578              		@ args = 0, pretend = 0, frame = 0
 579              		@ frame_needed = 0, uses_anonymous_args = 0
 580              		@ link register save eliminated.
 581              	.LVL40:
 582 0000 10B4     		push	{r4}
 583              		.cfi_def_cfa_offset 4
 584              		.cfi_offset 4, -4
 585              		.loc 1 298 0
 586 0002 0269     		ldr	r2, [r0, #16]
 587              		.loc 1 297 0
 588 0004 C468     		ldr	r4, [r0, #12]
 589 0006 4461     		str	r4, [r0, #20]
 590              		.loc 1 298 0
 591 0008 121B     		subs	r2, r2, r4
 592              		.loc 1 297 0
 593 000a 8461     		str	r4, [r0, #24]
 594              		.loc 1 299 0
 595 000c 6FF00101 		mvn	r1, #1
 596              		.loc 1 298 0
 597 0010 8260     		str	r2, [r0, #8]
 598              		.loc 1 300 0
 599 0012 5DF8044B 		ldr	r4, [sp], #4
 600              		.cfi_restore 4
 601              		.cfi_def_cfa_offset 0
 602              		.loc 1 299 0
 603 0016 FFF7FEBF 		b	chThdDequeueAllI
 604              	.LVL41:
 605              		.cfi_endproc
 606              	.LFE232:
 607              		.size	chOQResetI, .-chOQResetI
 608 001a 00BFAFF3 		.section	.text.chOQPutTimeout,"ax",%progbits
 608      0080
 609              		.align	2
 610              		.p2align 4,,15
 611              		.global	chOQPutTimeout
 612              		.thumb
 613              		.thumb_func
 614              		.type	chOQPutTimeout, %function
 615              	chOQPutTimeout:
 616              	.LFB233:
 617              		.loc 1 324 0
 618              		.cfi_startproc
 619              		@ args = 0, pretend = 0, frame = 0
ARM GAS  /tmp/ccw5AbCP.s 			page 12


 620              		@ frame_needed = 0, uses_anonymous_args = 0
 621              	.LVL42:
 622 0000 F8B5     		push	{r3, r4, r5, r6, r7, lr}
 623              		.cfi_def_cfa_offset 24
 624              		.cfi_offset 3, -24
 625              		.cfi_offset 4, -20
 626              		.cfi_offset 5, -16
 627              		.cfi_offset 6, -12
 628              		.cfi_offset 7, -8
 629              		.cfi_offset 14, -4
 630              		.loc 1 324 0
 631 0002 0446     		mov	r4, r0
 632 0004 0F46     		mov	r7, r1
 633 0006 1646     		mov	r6, r2
 634              	.LBB167:
 635              	.LBB168:
 636              	.LBB169:
 637              	.LBB170:
 638              		.loc 4 546 0
 639 0008 2023     		movs	r3, #32
 640              	@ 546 "../ChibiOS/os/ext/CMSIS/include/core_cmFunc.h" 1
 641 000a 83F31188 		MSR basepri, r3
 642              	@ 0 "" 2
 643              		.thumb
 644 000e 03E0     		b	.L46
 645              	.LVL43:
 646              	.L48:
 647              	.LBE170:
 648              	.LBE169:
 649              	.LBE168:
 650              	.LBE167:
 651              	.LBB171:
 652              		.loc 1 330 0
 653 0010 FFF7FEFF 		bl	chThdEnqueueTimeoutS
 654              	.LVL44:
 655 0014 0028     		cmp	r0, #0
 656 0016 18DB     		blt	.L56
 657              	.LVL45:
 658              	.L46:
 659 0018 A568     		ldr	r5, [r4, #8]
 660              	.LVL46:
 661 001a 2046     		mov	r0, r4
 662 001c 3146     		mov	r1, r6
 663              	.LBE171:
 664              		.loc 1 327 0
 665 001e 002D     		cmp	r5, #0
 666 0020 F6D0     		beq	.L48
 667              	.LVL47:
 668              		.loc 1 337 0
 669 0022 6369     		ldr	r3, [r4, #20]
 670              		.loc 1 336 0
 671 0024 013D     		subs	r5, r5, #1
 672              		.loc 1 337 0
 673 0026 5A1C     		adds	r2, r3, #1
 674 0028 6261     		str	r2, [r4, #20]
 675              		.loc 1 336 0
 676 002a A560     		str	r5, [r4, #8]
ARM GAS  /tmp/ccw5AbCP.s 			page 13


 677              		.loc 1 337 0
 678 002c 1F70     		strb	r7, [r3]
 679              		.loc 1 338 0
 680 002e 2369     		ldr	r3, [r4, #16]
 681 0030 6269     		ldr	r2, [r4, #20]
 682 0032 9A42     		cmp	r2, r3
 683              		.loc 1 339 0
 684 0034 24BF     		itt	cs
 685 0036 E368     		ldrcs	r3, [r4, #12]
 686 0038 6361     		strcs	r3, [r4, #20]
 687              		.loc 1 342 0
 688 003a E369     		ldr	r3, [r4, #28]
 689 003c 0BB1     		cbz	r3, .L50
 690              		.loc 1 343 0
 691 003e 2046     		mov	r0, r4
 692              	.LVL48:
 693 0040 9847     		blx	r3
 694              	.LVL49:
 695              	.L50:
 696              	.LBB177:
 697              	.LBB178:
 698              	.LBB179:
 699              	.LBB180:
 700              	.LBB181:
 701              		.loc 4 546 0
 702 0042 0020     		movs	r0, #0
 703              	@ 546 "../ChibiOS/os/ext/CMSIS/include/core_cmFunc.h" 1
 704 0044 80F31188 		MSR basepri, r0
 705              	@ 0 "" 2
 706              		.thumb
 707              	.LBE181:
 708              	.LBE180:
 709              	.LBE179:
 710              	.LBE178:
 711              	.LBE177:
 712              		.loc 1 348 0
 713 0048 F8BD     		pop	{r3, r4, r5, r6, r7, pc}
 714              	.LVL50:
 715              	.L56:
 716              	.LBB182:
 717              	.LBB172:
 718              	.LBB173:
 719              	.LBB174:
 720              	.LBB175:
 721              	.LBB176:
 722              		.loc 4 546 0
 723              	@ 546 "../ChibiOS/os/ext/CMSIS/include/core_cmFunc.h" 1
 724 004a 85F31188 		MSR basepri, r5
 725              	@ 0 "" 2
 726              		.thumb
 727              	.LBE176:
 728              	.LBE175:
 729              	.LBE174:
 730              	.LBE173:
 731              	.LBE172:
 732              		.loc 1 332 0
 733 004e F8BD     		pop	{r3, r4, r5, r6, r7, pc}
ARM GAS  /tmp/ccw5AbCP.s 			page 14


 734              	.LBE182:
 735              		.cfi_endproc
 736              	.LFE233:
 737              		.size	chOQPutTimeout, .-chOQPutTimeout
 738              		.section	.text.chOQGetI,"ax",%progbits
 739              		.align	2
 740              		.p2align 4,,15
 741              		.global	chOQGetI
 742              		.thumb
 743              		.thumb_func
 744              		.type	chOQGetI, %function
 745              	chOQGetI:
 746              	.LFB234:
 747              		.loc 1 360 0
 748              		.cfi_startproc
 749              		@ args = 0, pretend = 0, frame = 0
 750              		@ frame_needed = 0, uses_anonymous_args = 0
 751              	.LVL51:
 752 0000 38B5     		push	{r3, r4, r5, lr}
 753              		.cfi_def_cfa_offset 16
 754              		.cfi_offset 3, -16
 755              		.cfi_offset 4, -12
 756              		.cfi_offset 5, -8
 757              		.cfi_offset 14, -4
 758              	.LBB183:
 759              	.LBB184:
 760              		.loc 3 387 0
 761 0002 8269     		ldr	r2, [r0, #24]
 762 0004 4369     		ldr	r3, [r0, #20]
 763 0006 9342     		cmp	r3, r2
 764 0008 8368     		ldr	r3, [r0, #8]
 765 000a 0ED0     		beq	.L66
 766              	.L60:
 767              	.LBE184:
 768              	.LBE183:
 769              		.loc 1 371 0
 770 000c 0569     		ldr	r5, [r0, #16]
 771              		.loc 1 370 0
 772 000e 511C     		adds	r1, r2, #1
 773              		.loc 1 369 0
 774 0010 0133     		adds	r3, r3, #1
 775 0012 8360     		str	r3, [r0, #8]
 776              		.loc 1 370 0
 777 0014 8161     		str	r1, [r0, #24]
 778              		.loc 1 371 0
 779 0016 A942     		cmp	r1, r5
 780              		.loc 1 370 0
 781 0018 1478     		ldrb	r4, [r2]	@ zero_extendqisi2
 782              	.LVL52:
 783              		.loc 1 371 0
 784 001a 01D3     		bcc	.L62
 785              		.loc 1 372 0
 786 001c C368     		ldr	r3, [r0, #12]
 787 001e 8361     		str	r3, [r0, #24]
 788              	.L62:
 789              		.loc 1 375 0
 790 0020 0021     		movs	r1, #0
ARM GAS  /tmp/ccw5AbCP.s 			page 15


 791 0022 FFF7FEFF 		bl	chThdDequeueNextI
 792              	.LVL53:
 793              		.loc 1 377 0
 794 0026 2046     		mov	r0, r4
 795 0028 38BD     		pop	{r3, r4, r5, pc}
 796              	.LVL54:
 797              	.L66:
 798              	.LBB186:
 799              	.LBB185:
 800              		.loc 3 387 0
 801 002a 002B     		cmp	r3, #0
 802 002c EED0     		beq	.L60
 803              	.LBE185:
 804              	.LBE186:
 805              		.loc 1 366 0
 806 002e 6FF00200 		mvn	r0, #2
 807              	.LVL55:
 808 0032 38BD     		pop	{r3, r4, r5, pc}
 809              		.cfi_endproc
 810              	.LFE234:
 811              		.size	chOQGetI, .-chOQGetI
 812 0034 AFF30080 		.section	.text.chOQWriteTimeout,"ax",%progbits
 812      AFF30080 
 812      AFF30080 
 813              		.align	2
 814              		.p2align 4,,15
 815              		.global	chOQWriteTimeout
 816              		.thumb
 817              		.thumb_func
 818              		.type	chOQWriteTimeout, %function
 819              	chOQWriteTimeout:
 820              	.LFB235:
 821              		.loc 1 405 0
 822              		.cfi_startproc
 823              		@ args = 0, pretend = 0, frame = 8
 824              		@ frame_needed = 0, uses_anonymous_args = 0
 825              	.LVL56:
 826 0000 2DE9F04F 		push	{r4, r5, r6, r7, r8, r9, r10, fp, lr}
 827              		.cfi_def_cfa_offset 36
 828              		.cfi_offset 4, -36
 829              		.cfi_offset 5, -32
 830              		.cfi_offset 6, -28
 831              		.cfi_offset 7, -24
 832              		.cfi_offset 8, -20
 833              		.cfi_offset 9, -16
 834              		.cfi_offset 10, -12
 835              		.cfi_offset 11, -8
 836              		.cfi_offset 14, -4
 837 0004 83B0     		sub	sp, sp, #12
 838              		.cfi_def_cfa_offset 48
 839              		.loc 1 405 0
 840 0006 0446     		mov	r4, r0
 841 0008 8B46     		mov	fp, r1
 842 000a 1646     		mov	r6, r2
 843 000c 0193     		str	r3, [sp, #4]
 844              		.loc 1 406 0
 845 000e D0F81C80 		ldr	r8, [r0, #28]
ARM GAS  /tmp/ccw5AbCP.s 			page 16


 846              	.LVL57:
 847              	.LBB187:
 848              	.LBB188:
 849              	.LBB189:
 850              	.LBB190:
 851              		.loc 4 546 0
 852 0012 4FF02009 		mov	r9, #32
 853              	@ 546 "../ChibiOS/os/ext/CMSIS/include/core_cmFunc.h" 1
 854 0016 89F31188 		MSR basepri, r9
 855              	@ 0 "" 2
 856              		.thumb
 857              	.LBE190:
 858              	.LBE189:
 859              	.LBE188:
 860              	.LBE187:
 861              		.loc 1 407 0
 862 001a 0027     		movs	r7, #0
 863              	.LBB191:
 864              	.LBB192:
 865              	.LBB193:
 866              	.LBB194:
 867              		.loc 4 546 0
 868 001c CDF80090 		str	r9, [sp]
 869              	.LBE194:
 870              	.LBE193:
 871              	.LBE192:
 872              	.LBE191:
 873              	.LBB198:
 874              	.LBB199:
 875              	.LBB200:
 876              	.LBB201:
 877              	.LBB202:
 878 0020 BA46     		mov	r10, r7
 879              	.LVL58:
 880              	.L68:
 881 0022 A568     		ldr	r5, [r4, #8]
 882              	.LVL59:
 883              	.LBE202:
 884              	.LBE201:
 885              	.LBE200:
 886              	.LBE199:
 887              	.LBE198:
 888              		.loc 1 420 0
 889 0024 0BF10109 		add	r9, fp, #1
 890              	.LVL60:
 891              		.loc 1 419 0
 892 0028 6A1E     		subs	r2, r5, #1
 893              		.loc 1 426 0
 894 002a 2046     		mov	r0, r4
 895              		.loc 1 413 0
 896 002c 0DB3     		cbz	r5, .L71
 897              	.LVL61:
 898              	.L84:
 899              		.loc 1 420 0
 900 002e 6369     		ldr	r3, [r4, #20]
 901              		.loc 1 419 0
 902 0030 A260     		str	r2, [r4, #8]
ARM GAS  /tmp/ccw5AbCP.s 			page 17


 903              		.loc 1 420 0
 904 0032 5A1C     		adds	r2, r3, #1
 905 0034 6261     		str	r2, [r4, #20]
 906 0036 9BF80020 		ldrb	r2, [fp]	@ zero_extendqisi2
 907 003a 1A70     		strb	r2, [r3]
 908              		.loc 1 421 0
 909 003c 2369     		ldr	r3, [r4, #16]
 910 003e 6269     		ldr	r2, [r4, #20]
 911 0040 9A42     		cmp	r2, r3
 912              		.loc 1 422 0
 913 0042 24BF     		itt	cs
 914 0044 E368     		ldrcs	r3, [r4, #12]
 915 0046 6361     		strcs	r3, [r4, #20]
 916              		.loc 1 425 0
 917 0048 B8F1000F 		cmp	r8, #0
 918 004c 00D0     		beq	.L73
 919              		.loc 1 426 0
 920 004e C047     		blx	r8
 921              	.LVL62:
 922              	.L73:
 923              	.LBB207:
 924              	.LBB206:
 925              	.LBB205:
 926              	.LBB204:
 927              	.LBB203:
 928              		.loc 4 546 0
 929              	@ 546 "../ChibiOS/os/ext/CMSIS/include/core_cmFunc.h" 1
 930 0050 8AF31188 		MSR basepri, r10
 931              	@ 0 "" 2
 932              	.LVL63:
 933              		.thumb
 934              	.LBE203:
 935              	.LBE204:
 936              	.LBE205:
 937              	.LBE206:
 938              	.LBE207:
 939              		.loc 1 431 0
 940 0054 013E     		subs	r6, r6, #1
 941              	.LVL64:
 942              		.loc 1 430 0
 943 0056 07F10107 		add	r7, r7, #1
 944              	.LVL65:
 945              		.loc 1 431 0
 946 005a 12D0     		beq	.L70
 947              	.LBB208:
 948              	.LBB197:
 949              	.LBB196:
 950              	.LBB195:
 951              		.loc 4 546 0
 952 005c 009B     		ldr	r3, [sp]
 953              	@ 546 "../ChibiOS/os/ext/CMSIS/include/core_cmFunc.h" 1
 954 005e 83F31188 		MSR basepri, r3
 955              	@ 0 "" 2
 956              		.thumb
 957 0062 A568     		ldr	r5, [r4, #8]
 958              	.LBE195:
 959              	.LBE196:
ARM GAS  /tmp/ccw5AbCP.s 			page 18


 960              	.LBE197:
 961              	.LBE208:
 962              		.loc 1 420 0
 963 0064 CB46     		mov	fp, r9
 964              	.LVL66:
 965              		.loc 1 419 0
 966 0066 6A1E     		subs	r2, r5, #1
 967              		.loc 1 420 0
 968 0068 0BF10109 		add	r9, fp, #1
 969              	.LVL67:
 970              		.loc 1 426 0
 971 006c 2046     		mov	r0, r4
 972              		.loc 1 413 0
 973 006e 002D     		cmp	r5, #0
 974 0070 DDD1     		bne	.L84
 975              	.LVL68:
 976              	.L71:
 977              		.loc 1 414 0
 978 0072 2046     		mov	r0, r4
 979              	.LVL69:
 980 0074 0199     		ldr	r1, [sp, #4]
 981 0076 FFF7FEFF 		bl	chThdEnqueueTimeoutS
 982              	.LVL70:
 983 007a 0028     		cmp	r0, #0
 984 007c D1D0     		beq	.L68
 985              	.LVL71:
 986              	.LBB209:
 987              	.LBB210:
 988              	.LBB211:
 989              	.LBB212:
 990              	.LBB213:
 991              		.loc 4 546 0
 992              	@ 546 "../ChibiOS/os/ext/CMSIS/include/core_cmFunc.h" 1
 993 007e 85F31188 		MSR basepri, r5
 994              	@ 0 "" 2
 995              	.LVL72:
 996              		.thumb
 997              	.L70:
 998              	.LBE213:
 999              	.LBE212:
 1000              	.LBE211:
 1001              	.LBE210:
 1002              	.LBE209:
 1003              		.loc 1 436 0
 1004 0082 3846     		mov	r0, r7
 1005 0084 03B0     		add	sp, sp, #12
 1006              		.cfi_def_cfa_offset 36
 1007              		@ sp needed
 1008 0086 BDE8F08F 		pop	{r4, r5, r6, r7, r8, r9, r10, fp, pc}
 1009              		.cfi_endproc
 1010              	.LFE235:
 1011              		.size	chOQWriteTimeout, .-chOQWriteTimeout
 1012 008a 00BFAFF3 		.text
 1012      0080
 1013              	.Letext0:
 1014              		.file 5 "/l/arm2/gcc-arm-none-eabi-4_9-2014q4/lib/gcc/arm-none-eabi/4.9.3/include/stddef.h"
 1015              		.file 6 "/l/arm2/gcc-arm-none-eabi-4_9-2014q4/arm-none-eabi/include/machine/_default_types.h"
ARM GAS  /tmp/ccw5AbCP.s 			page 19


 1016              		.file 7 "/l/arm2/gcc-arm-none-eabi-4_9-2014q4/arm-none-eabi/include/stdint.h"
 1017              		.file 8 "../ChibiOS/os/rt/ports/ARMCMx/compilers/GCC/chtypes.h"
 1018              		.file 9 "../ChibiOS/os/rt/include/chsystypes.h"
 1019              		.file 10 "../ChibiOS/os/rt/ports/ARMCMx/chcore.h"
 1020              		.file 11 "../ChibiOS/os/rt/ports/ARMCMx/chcore_v7m.h"
 1021              		.file 12 "../ChibiOS/os/rt/include/chtm.h"
 1022              		.file 13 "../ChibiOS/os/rt/include/chmtx.h"
 1023              		.file 14 "../ChibiOS/os/rt/include/chthreads.h"
 1024              		.file 15 "../ChibiOS/os/rt/include/chsys.h"
 1025              		.file 16 "../ChibiOS/os/ext/CMSIS/include/core_cm4.h"