ARM GAS  /tmp/cc3riPh8.s 			page 1


   1              		.syntax unified
   2              		.cpu cortex-m4
   3              		.eabi_attribute 27, 3
   4              		.eabi_attribute 28, 1
   5              		.fpu fpv4-sp-d16
   6              		.eabi_attribute 20, 1
   7              		.eabi_attribute 21, 1
   8              		.eabi_attribute 23, 3
   9              		.eabi_attribute 24, 1
  10              		.eabi_attribute 25, 1
  11              		.eabi_attribute 26, 1
  12              		.eabi_attribute 30, 2
  13              		.eabi_attribute 34, 1
  14              		.eabi_attribute 18, 4
  15              		.thumb
  16              		.file	"chsem.c"
  17              		.text
  18              	.Ltext0:
  19              		.cfi_sections	.debug_frame
  20              		.section	.text.chSemObjectInit,"ax",%progbits
  21              		.align	2
  22              		.p2align 4,,15
  23              		.global	chSemObjectInit
  24              		.thumb
  25              		.thumb_func
  26              		.type	chSemObjectInit, %function
  27              	chSemObjectInit:
  28              	.LFB226:
  29              		.file 1 "../ChibiOS/os/rt/src/chsem.c"
  30              		.loc 1 97 0
  31              		.cfi_startproc
  32              		@ args = 0, pretend = 0, frame = 0
  33              		@ frame_needed = 0, uses_anonymous_args = 0
  34              		@ link register save eliminated.
  35              	.LVL0:
  36              	.LBB90:
  37              	.LBB91:
  38              		.file 2 "../ChibiOS/os/rt/include/chschd.h"
  39              		.loc 2 574 0
  40 0000 4060     		str	r0, [r0, #4]
  41 0002 0060     		str	r0, [r0]
  42              	.LBE91:
  43              	.LBE90:
  44              		.loc 1 102 0
  45 0004 8160     		str	r1, [r0, #8]
  46 0006 7047     		bx	lr
  47              		.cfi_endproc
  48              	.LFE226:
  49              		.size	chSemObjectInit, .-chSemObjectInit
  50 0008 AFF30080 		.section	.text.chSemResetI,"ax",%progbits
  50      AFF30080 
  51              		.align	2
  52              		.p2align 4,,15
  53              		.global	chSemResetI
  54              		.thumb
  55              		.thumb_func
  56              		.type	chSemResetI, %function
ARM GAS  /tmp/cc3riPh8.s 			page 2


  57              	chSemResetI:
  58              	.LFB228:
  59              		.loc 1 147 0
  60              		.cfi_startproc
  61              		@ args = 0, pretend = 0, frame = 0
  62              		@ frame_needed = 0, uses_anonymous_args = 0
  63              	.LVL1:
  64 0000 70B5     		push	{r4, r5, r6, lr}
  65              		.cfi_def_cfa_offset 16
  66              		.cfi_offset 4, -16
  67              		.cfi_offset 5, -12
  68              		.cfi_offset 6, -8
  69              		.cfi_offset 14, -4
  70              		.loc 1 156 0
  71 0002 8568     		ldr	r5, [r0, #8]
  72              	.LVL2:
  73              		.loc 1 157 0
  74 0004 8160     		str	r1, [r0, #8]
  75              		.loc 1 158 0
  76 0006 0135     		adds	r5, r5, #1
  77              	.LVL3:
  78 0008 002D     		cmp	r5, #0
  79 000a 0CDC     		bgt	.L2
  80 000c 0446     		mov	r4, r0
  81              		.loc 1 159 0
  82 000e 6FF00106 		mvn	r6, #1
  83              	.LVL4:
  84              	.L4:
  85              	.LBB92:
  86              	.LBB93:
  87              		.loc 2 647 0
  88 0012 6068     		ldr	r0, [r4, #4]
  89              	.LVL5:
  90              		.loc 2 649 0
  91 0014 4368     		ldr	r3, [r0, #4]
  92 0016 6360     		str	r3, [r4, #4]
  93 0018 1C60     		str	r4, [r3]
  94              	.LBE93:
  95              	.LBE92:
  96              		.loc 1 159 0
  97 001a FFF7FEFF 		bl	chSchReadyI
  98              	.LVL6:
  99              		.loc 1 158 0
 100 001e 0135     		adds	r5, r5, #1
 101              	.LVL7:
 102 0020 012D     		cmp	r5, #1
 103              		.loc 1 159 0
 104 0022 0662     		str	r6, [r0, #32]
 105              	.LVL8:
 106              		.loc 1 158 0
 107 0024 F5D1     		bne	.L4
 108              	.LVL9:
 109              	.L2:
 110 0026 70BD     		pop	{r4, r5, r6, pc}
 111              		.cfi_endproc
 112              	.LFE228:
 113              		.size	chSemResetI, .-chSemResetI
ARM GAS  /tmp/cc3riPh8.s 			page 3


 114 0028 AFF30080 		.section	.text.chSemReset,"ax",%progbits
 114      AFF30080 
 115              		.align	2
 116              		.p2align 4,,15
 117              		.global	chSemReset
 118              		.thumb
 119              		.thumb_func
 120              		.type	chSemReset, %function
 121              	chSemReset:
 122              	.LFB227:
 123              		.loc 1 120 0
 124              		.cfi_startproc
 125              		@ args = 0, pretend = 0, frame = 0
 126              		@ frame_needed = 0, uses_anonymous_args = 0
 127              	.LVL10:
 128 0000 08B5     		push	{r3, lr}
 129              		.cfi_def_cfa_offset 8
 130              		.cfi_offset 3, -8
 131              		.cfi_offset 14, -4
 132              	.LBB94:
 133              	.LBB95:
 134              	.LBB96:
 135              	.LBB97:
 136              		.file 3 "../ChibiOS/os/ext/CMSIS/include/core_cmFunc.h"
 137              		.loc 3 546 0
 138 0002 2023     		movs	r3, #32
 139              	@ 546 "../ChibiOS/os/ext/CMSIS/include/core_cmFunc.h" 1
 140 0004 83F31188 		MSR basepri, r3
 141              	@ 0 "" 2
 142              		.thumb
 143              	.LBE97:
 144              	.LBE96:
 145              	.LBE95:
 146              	.LBE94:
 147              		.loc 1 123 0
 148 0008 FFF7FEFF 		bl	chSemResetI
 149              	.LVL11:
 150              		.loc 1 124 0
 151 000c FFF7FEFF 		bl	chSchRescheduleS
 152              	.LVL12:
 153              	.LBB98:
 154              	.LBB99:
 155              	.LBB100:
 156              	.LBB101:
 157              	.LBB102:
 158              		.loc 3 546 0
 159 0010 0023     		movs	r3, #0
 160              	@ 546 "../ChibiOS/os/ext/CMSIS/include/core_cmFunc.h" 1
 161 0012 83F31188 		MSR basepri, r3
 162              	@ 0 "" 2
 163              		.thumb
 164 0016 08BD     		pop	{r3, pc}
 165              	.LBE102:
 166              	.LBE101:
 167              	.LBE100:
 168              	.LBE99:
 169              	.LBE98:
ARM GAS  /tmp/cc3riPh8.s 			page 4


 170              		.cfi_endproc
 171              	.LFE227:
 172              		.size	chSemReset, .-chSemReset
 173 0018 AFF30080 		.section	.text.chSemWait,"ax",%progbits
 173      AFF30080 
 174              		.align	2
 175              		.p2align 4,,15
 176              		.global	chSemWait
 177              		.thumb
 178              		.thumb_func
 179              		.type	chSemWait, %function
 180              	chSemWait:
 181              	.LFB229:
 182              		.loc 1 175 0
 183              		.cfi_startproc
 184              		@ args = 0, pretend = 0, frame = 0
 185              		@ frame_needed = 0, uses_anonymous_args = 0
 186              	.LVL13:
 187              	.LBB118:
 188              	.LBB119:
 189              	.LBB120:
 190              	.LBB121:
 191              		.loc 3 546 0
 192 0000 2023     		movs	r3, #32
 193              	@ 546 "../ChibiOS/os/ext/CMSIS/include/core_cmFunc.h" 1
 194 0002 83F31188 		MSR basepri, r3
 195              	@ 0 "" 2
 196              	.LVL14:
 197              		.thumb
 198              	.LBE121:
 199              	.LBE120:
 200              	.LBE119:
 201              	.LBE118:
 202              	.LBB122:
 203              	.LBB123:
 204              		.loc 1 205 0
 205 0006 8368     		ldr	r3, [r0, #8]
 206 0008 013B     		subs	r3, r3, #1
 207 000a 002B     		cmp	r3, #0
 208 000c 8360     		str	r3, [r0, #8]
 209 000e 04DB     		blt	.L16
 210              		.loc 1 213 0
 211 0010 0020     		movs	r0, #0
 212              	.LVL15:
 213              	.LBE123:
 214              	.LBE122:
 215              	.LBB131:
 216              	.LBB132:
 217              	.LBB133:
 218              	.LBB134:
 219              	.LBB135:
 220              		.loc 3 546 0
 221 0012 0023     		movs	r3, #0
 222              	@ 546 "../ChibiOS/os/ext/CMSIS/include/core_cmFunc.h" 1
 223 0014 83F31188 		MSR basepri, r3
 224              	@ 0 "" 2
 225              		.thumb
ARM GAS  /tmp/cc3riPh8.s 			page 5


 226              	.LBE135:
 227              	.LBE134:
 228              	.LBE133:
 229              	.LBE132:
 230              	.LBE131:
 231              		.loc 1 183 0
 232 0018 7047     		bx	lr
 233              	.LVL16:
 234              	.L16:
 235              		.loc 1 175 0
 236 001a 10B5     		push	{r4, lr}
 237              		.cfi_def_cfa_offset 8
 238              		.cfi_offset 4, -8
 239              		.cfi_offset 14, -4
 240              	.LBB140:
 241              	.LBB130:
 242              	.LBB124:
 243              	.LBB125:
 244              		.loc 1 206 0
 245 001c 084C     		ldr	r4, .L17
 246 001e A269     		ldr	r2, [r4, #24]
 247 0020 1062     		str	r0, [r2, #32]
 248              	.LBB126:
 249              	.LBB127:
 250              		.loc 2 634 0
 251 0022 4168     		ldr	r1, [r0, #4]
 252 0024 5160     		str	r1, [r2, #4]
 253 0026 0346     		mov	r3, r0
 254              	.LVL17:
 255              		.loc 2 633 0
 256 0028 1060     		str	r0, [r2]
 257              		.loc 2 635 0
 258 002a 5A60     		str	r2, [r3, #4]
 259              	.LBE127:
 260              	.LBE126:
 261              		.loc 1 208 0
 262 002c 0520     		movs	r0, #5
 263              	.LVL18:
 264              	.LBB129:
 265              	.LBB128:
 266              		.loc 2 635 0
 267 002e 0A60     		str	r2, [r1]
 268              	.LBE128:
 269              	.LBE129:
 270              		.loc 1 208 0
 271 0030 FFF7FEFF 		bl	chSchGoSleepS
 272              	.LVL19:
 273              		.loc 1 210 0
 274 0034 A369     		ldr	r3, [r4, #24]
 275 0036 186A     		ldr	r0, [r3, #32]
 276              	.LVL20:
 277              	.LBE125:
 278              	.LBE124:
 279              	.LBE130:
 280              	.LBE140:
 281              	.LBB141:
 282              	.LBB139:
ARM GAS  /tmp/cc3riPh8.s 			page 6


 283              	.LBB138:
 284              	.LBB137:
 285              	.LBB136:
 286              		.loc 3 546 0
 287 0038 0023     		movs	r3, #0
 288              	@ 546 "../ChibiOS/os/ext/CMSIS/include/core_cmFunc.h" 1
 289 003a 83F31188 		MSR basepri, r3
 290              	@ 0 "" 2
 291              		.thumb
 292              	.LBE136:
 293              	.LBE137:
 294              	.LBE138:
 295              	.LBE139:
 296              	.LBE141:
 297              		.loc 1 183 0
 298 003e 10BD     		pop	{r4, pc}
 299              	.L18:
 300              		.align	2
 301              	.L17:
 302 0040 00000000 		.word	ch
 303              		.cfi_endproc
 304              	.LFE229:
 305              		.size	chSemWait, .-chSemWait
 306 0044 AFF30080 		.section	.text.chSemWaitS,"ax",%progbits
 306      AFF30080 
 306      AFF30080 
 307              		.align	2
 308              		.p2align 4,,15
 309              		.global	chSemWaitS
 310              		.thumb
 311              		.thumb_func
 312              		.type	chSemWaitS, %function
 313              	chSemWaitS:
 314              	.LFB230:
 315              		.loc 1 197 0
 316              		.cfi_startproc
 317              		@ args = 0, pretend = 0, frame = 0
 318              		@ frame_needed = 0, uses_anonymous_args = 0
 319              	.LVL21:
 320              		.loc 1 205 0
 321 0000 8368     		ldr	r3, [r0, #8]
 322 0002 013B     		subs	r3, r3, #1
 323 0004 002B     		cmp	r3, #0
 324 0006 8360     		str	r3, [r0, #8]
 325 0008 01DB     		blt	.L24
 326              		.loc 1 213 0
 327 000a 0020     		movs	r0, #0
 328              	.LVL22:
 329 000c 7047     		bx	lr
 330              	.LVL23:
 331              	.L24:
 332              		.loc 1 197 0
 333 000e 10B5     		push	{r4, lr}
 334              		.cfi_def_cfa_offset 8
 335              		.cfi_offset 4, -8
 336              		.cfi_offset 14, -4
 337              	.LBB146:
ARM GAS  /tmp/cc3riPh8.s 			page 7


 338              	.LBB147:
 339              		.loc 1 206 0
 340 0010 074C     		ldr	r4, .L25
 341 0012 A269     		ldr	r2, [r4, #24]
 342 0014 1062     		str	r0, [r2, #32]
 343              	.LBB148:
 344              	.LBB149:
 345              		.loc 2 634 0
 346 0016 4168     		ldr	r1, [r0, #4]
 347 0018 5160     		str	r1, [r2, #4]
 348 001a 0346     		mov	r3, r0
 349              	.LVL24:
 350              		.loc 2 633 0
 351 001c 1060     		str	r0, [r2]
 352              		.loc 2 635 0
 353 001e 5A60     		str	r2, [r3, #4]
 354              	.LBE149:
 355              	.LBE148:
 356              		.loc 1 208 0
 357 0020 0520     		movs	r0, #5
 358              	.LVL25:
 359              	.LBB151:
 360              	.LBB150:
 361              		.loc 2 635 0
 362 0022 0A60     		str	r2, [r1]
 363              	.LBE150:
 364              	.LBE151:
 365              		.loc 1 208 0
 366 0024 FFF7FEFF 		bl	chSchGoSleepS
 367              	.LVL26:
 368              		.loc 1 210 0
 369 0028 A369     		ldr	r3, [r4, #24]
 370 002a 186A     		ldr	r0, [r3, #32]
 371 002c 10BD     		pop	{r4, pc}
 372              	.L26:
 373 002e 00BF     		.align	2
 374              	.L25:
 375 0030 00000000 		.word	ch
 376              	.LBE147:
 377              	.LBE146:
 378              		.cfi_endproc
 379              	.LFE230:
 380              		.size	chSemWaitS, .-chSemWaitS
 381 0034 AFF30080 		.section	.text.chSemWaitTimeoutS,"ax",%progbits
 381      AFF30080 
 381      AFF30080 
 382              		.align	2
 383              		.p2align 4,,15
 384              		.global	chSemWaitTimeoutS
 385              		.thumb
 386              		.thumb_func
 387              		.type	chSemWaitTimeoutS, %function
 388              	chSemWaitTimeoutS:
 389              	.LFB232:
 390              		.loc 1 264 0
 391              		.cfi_startproc
 392              		@ args = 0, pretend = 0, frame = 0
ARM GAS  /tmp/cc3riPh8.s 			page 8


 393              		@ frame_needed = 0, uses_anonymous_args = 0
 394              		@ link register save eliminated.
 395              	.LVL27:
 396 0000 0346     		mov	r3, r0
 397              		.loc 1 272 0
 398 0002 8068     		ldr	r0, [r0, #8]
 399              	.LVL28:
 400 0004 421E     		subs	r2, r0, #1
 401 0006 002A     		cmp	r2, #0
 402 0008 9A60     		str	r2, [r3, #8]
 403 000a 01DB     		blt	.L33
 404              		.loc 1 284 0
 405 000c 0020     		movs	r0, #0
 406 000e 7047     		bx	lr
 407              	.L33:
 408              		.loc 1 264 0
 409 0010 10B4     		push	{r4}
 410              		.cfi_def_cfa_offset 4
 411              		.cfi_offset 4, -4
 412              		.loc 1 273 0
 413 0012 61B1     		cbz	r1, .L34
 414              	.LVL29:
 415              	.LBB156:
 416              	.LBB157:
 417              		.loc 1 278 0
 418 0014 094A     		ldr	r2, .L35
 419 0016 9269     		ldr	r2, [r2, #24]
 420 0018 1362     		str	r3, [r2, #32]
 421              	.LVL30:
 422              	.LBB158:
 423              	.LBB159:
 424              		.loc 2 634 0
 425 001a 5C68     		ldr	r4, [r3, #4]
 426              	.LBE159:
 427              	.LBE158:
 428              		.loc 1 281 0
 429 001c 0520     		movs	r0, #5
 430              	.LBB161:
 431              	.LBB160:
 432              		.loc 2 634 0
 433 001e 82E81800 		stmia	r2, {r3, r4}
 434              		.loc 2 635 0
 435 0022 5A60     		str	r2, [r3, #4]
 436 0024 2260     		str	r2, [r4]
 437              	.LBE160:
 438              	.LBE161:
 439              	.LBE157:
 440              	.LBE156:
 441              		.loc 1 285 0
 442 0026 5DF8044B 		ldr	r4, [sp], #4
 443              		.cfi_remember_state
 444              		.cfi_restore 4
 445              		.cfi_def_cfa_offset 0
 446              	.LBB163:
 447              	.LBB162:
 448              		.loc 1 281 0
 449 002a FFF7FEBF 		b	chSchGoSleepTimeoutS
ARM GAS  /tmp/cc3riPh8.s 			page 9


 450              	.LVL31:
 451              	.L34:
 452              		.cfi_restore_state
 453              	.LBE162:
 454              	.LBE163:
 455              		.loc 1 274 0
 456 002e 9860     		str	r0, [r3, #8]
 457              		.loc 1 285 0
 458 0030 5DF8044B 		ldr	r4, [sp], #4
 459              		.cfi_restore 4
 460              		.cfi_def_cfa_offset 0
 461              		.loc 1 276 0
 462 0034 4FF0FF30 		mov	r0, #-1
 463              		.loc 1 285 0
 464 0038 7047     		bx	lr
 465              	.L36:
 466 003a 00BF     		.align	2
 467              	.L35:
 468 003c 00000000 		.word	ch
 469              		.cfi_endproc
 470              	.LFE232:
 471              		.size	chSemWaitTimeoutS, .-chSemWaitTimeoutS
 472              		.section	.text.chSemWaitTimeout,"ax",%progbits
 473              		.align	2
 474              		.p2align 4,,15
 475              		.global	chSemWaitTimeout
 476              		.thumb
 477              		.thumb_func
 478              		.type	chSemWaitTimeout, %function
 479              	chSemWaitTimeout:
 480              	.LFB231:
 481              		.loc 1 235 0
 482              		.cfi_startproc
 483              		@ args = 0, pretend = 0, frame = 0
 484              		@ frame_needed = 0, uses_anonymous_args = 0
 485              	.LVL32:
 486 0000 08B5     		push	{r3, lr}
 487              		.cfi_def_cfa_offset 8
 488              		.cfi_offset 3, -8
 489              		.cfi_offset 14, -4
 490              	.LBB164:
 491              	.LBB165:
 492              	.LBB166:
 493              	.LBB167:
 494              		.loc 3 546 0
 495 0002 2023     		movs	r3, #32
 496              	@ 546 "../ChibiOS/os/ext/CMSIS/include/core_cmFunc.h" 1
 497 0004 83F31188 		MSR basepri, r3
 498              	@ 0 "" 2
 499              		.thumb
 500              	.LBE167:
 501              	.LBE166:
 502              	.LBE165:
 503              	.LBE164:
 504              		.loc 1 239 0
 505 0008 FFF7FEFF 		bl	chSemWaitTimeoutS
 506              	.LVL33:
ARM GAS  /tmp/cc3riPh8.s 			page 10


 507              	.LBB168:
 508              	.LBB169:
 509              	.LBB170:
 510              	.LBB171:
 511              	.LBB172:
 512              		.loc 3 546 0
 513 000c 0023     		movs	r3, #0
 514              	@ 546 "../ChibiOS/os/ext/CMSIS/include/core_cmFunc.h" 1
 515 000e 83F31188 		MSR basepri, r3
 516              	@ 0 "" 2
 517              		.thumb
 518              	.LBE172:
 519              	.LBE171:
 520              	.LBE170:
 521              	.LBE169:
 522              	.LBE168:
 523              		.loc 1 243 0
 524 0012 08BD     		pop	{r3, pc}
 525              		.cfi_endproc
 526              	.LFE231:
 527              		.size	chSemWaitTimeout, .-chSemWaitTimeout
 528 0014 AFF30080 		.section	.text.chSemSignal,"ax",%progbits
 528      AFF30080 
 528      AFF30080 
 529              		.align	2
 530              		.p2align 4,,15
 531              		.global	chSemSignal
 532              		.thumb
 533              		.thumb_func
 534              		.type	chSemSignal, %function
 535              	chSemSignal:
 536              	.LFB233:
 537              		.loc 1 294 0
 538              		.cfi_startproc
 539              		@ args = 0, pretend = 0, frame = 0
 540              		@ frame_needed = 0, uses_anonymous_args = 0
 541              	.LVL34:
 542 0000 08B5     		push	{r3, lr}
 543              		.cfi_def_cfa_offset 8
 544              		.cfi_offset 3, -8
 545              		.cfi_offset 14, -4
 546              	.LBB173:
 547              	.LBB174:
 548              	.LBB175:
 549              	.LBB176:
 550              		.loc 3 546 0
 551 0002 2023     		movs	r3, #32
 552              	@ 546 "../ChibiOS/os/ext/CMSIS/include/core_cmFunc.h" 1
 553 0004 83F31188 		MSR basepri, r3
 554              	@ 0 "" 2
 555              		.thumb
 556              	.LBE176:
 557              	.LBE175:
 558              	.LBE174:
 559              	.LBE173:
 560              		.loc 1 302 0
 561 0008 8368     		ldr	r3, [r0, #8]
ARM GAS  /tmp/cc3riPh8.s 			page 11


 562 000a 0133     		adds	r3, r3, #1
 563 000c 002B     		cmp	r3, #0
 564 000e 8360     		str	r3, [r0, #8]
 565 0010 03DD     		ble	.L42
 566              	.LVL35:
 567              	.LBB177:
 568              	.LBB178:
 569              	.LBB179:
 570              	.LBB180:
 571              	.LBB181:
 572              		.loc 3 546 0
 573 0012 0023     		movs	r3, #0
 574              	@ 546 "../ChibiOS/os/ext/CMSIS/include/core_cmFunc.h" 1
 575 0014 83F31188 		MSR basepri, r3
 576              	@ 0 "" 2
 577              		.thumb
 578 0018 08BD     		pop	{r3, pc}
 579              	.LVL36:
 580              	.L42:
 581 001a 0346     		mov	r3, r0
 582              	.LVL37:
 583              	.LBE181:
 584              	.LBE180:
 585              	.LBE179:
 586              	.LBE178:
 587              	.LBE177:
 588              	.LBB186:
 589              	.LBB187:
 590              		.loc 2 639 0
 591 001c 0068     		ldr	r0, [r0]
 592              	.LVL38:
 593              		.loc 2 641 0
 594 001e 0268     		ldr	r2, [r0]
 595 0020 1A60     		str	r2, [r3]
 596              	.LBE187:
 597              	.LBE186:
 598              		.loc 1 303 0
 599 0022 0021     		movs	r1, #0
 600              	.LBB189:
 601              	.LBB188:
 602              		.loc 2 641 0
 603 0024 5360     		str	r3, [r2, #4]
 604              	.LBE188:
 605              	.LBE189:
 606              		.loc 1 303 0
 607 0026 FFF7FEFF 		bl	chSchWakeupS
 608              	.LVL39:
 609              	.LBB190:
 610              	.LBB185:
 611              	.LBB184:
 612              	.LBB183:
 613              	.LBB182:
 614              		.loc 3 546 0
 615 002a 0023     		movs	r3, #0
 616              	@ 546 "../ChibiOS/os/ext/CMSIS/include/core_cmFunc.h" 1
 617 002c 83F31188 		MSR basepri, r3
 618              	@ 0 "" 2
ARM GAS  /tmp/cc3riPh8.s 			page 12


 619              		.thumb
 620 0030 08BD     		pop	{r3, pc}
 621              	.LBE182:
 622              	.LBE183:
 623              	.LBE184:
 624              	.LBE185:
 625              	.LBE190:
 626              		.cfi_endproc
 627              	.LFE233:
 628              		.size	chSemSignal, .-chSemSignal
 629 0032 00BFAFF3 		.section	.text.chSemSignalI,"ax",%progbits
 629      0080AFF3 
 629      0080AFF3 
 629      0080
 630              		.align	2
 631              		.p2align 4,,15
 632              		.global	chSemSignalI
 633              		.thumb
 634              		.thumb_func
 635              		.type	chSemSignalI, %function
 636              	chSemSignalI:
 637              	.LFB234:
 638              		.loc 1 319 0
 639              		.cfi_startproc
 640              		@ args = 0, pretend = 0, frame = 0
 641              		@ frame_needed = 0, uses_anonymous_args = 0
 642              		@ link register save eliminated.
 643              	.LVL40:
 644              		.loc 1 327 0
 645 0000 8368     		ldr	r3, [r0, #8]
 646 0002 0133     		adds	r3, r3, #1
 647 0004 002B     		cmp	r3, #0
 648 0006 8360     		str	r3, [r0, #8]
 649 0008 00DD     		ble	.L45
 650 000a 7047     		bx	lr
 651              	.L45:
 652              	.LVL41:
 653              	.LBB191:
 654              	.LBB192:
 655              	.LBB193:
 656              		.loc 2 639 0
 657 000c 0368     		ldr	r3, [r0]
 658              	.LVL42:
 659              		.loc 2 641 0
 660 000e 1A68     		ldr	r2, [r3]
 661 0010 0260     		str	r2, [r0]
 662              	.LBE193:
 663              	.LBE192:
 664              		.loc 1 331 0
 665 0012 0021     		movs	r1, #0
 666              	.LBB195:
 667              	.LBB194:
 668              		.loc 2 641 0
 669 0014 5060     		str	r0, [r2, #4]
 670              	.LBE194:
 671              	.LBE195:
 672              		.loc 1 332 0
ARM GAS  /tmp/cc3riPh8.s 			page 13


 673 0016 1846     		mov	r0, r3
 674              	.LVL43:
 675              		.loc 1 331 0
 676 0018 1962     		str	r1, [r3, #32]
 677              		.loc 1 332 0
 678 001a FFF7FEBF 		b	chSchReadyI
 679              	.LVL44:
 680              	.LBE191:
 681              		.cfi_endproc
 682              	.LFE234:
 683              		.size	chSemSignalI, .-chSemSignalI
 684 001e 00BF     		.section	.text.chSemAddCounterI,"ax",%progbits
 685              		.align	2
 686              		.p2align 4,,15
 687              		.global	chSemAddCounterI
 688              		.thumb
 689              		.thumb_func
 690              		.type	chSemAddCounterI, %function
 691              	chSemAddCounterI:
 692              	.LFB235:
 693              		.loc 1 349 0
 694              		.cfi_startproc
 695              		@ args = 0, pretend = 0, frame = 0
 696              		@ frame_needed = 0, uses_anonymous_args = 0
 697              	.LVL45:
 698 0000 70B5     		push	{r4, r5, r6, lr}
 699              		.cfi_def_cfa_offset 16
 700              		.cfi_offset 4, -16
 701              		.cfi_offset 5, -12
 702              		.cfi_offset 6, -8
 703              		.cfi_offset 14, -4
 704              		.loc 1 357 0
 705 0002 0C1E     		subs	r4, r1, #0
 706 0004 12DD     		ble	.L46
 707 0006 0546     		mov	r5, r0
 708              		.loc 1 359 0
 709 0008 0026     		movs	r6, #0
 710 000a 01E0     		b	.L49
 711              	.LVL46:
 712              	.L48:
 713              		.loc 1 357 0
 714 000c 013C     		subs	r4, r4, #1
 715              	.LVL47:
 716 000e 0DD0     		beq	.L46
 717              	.LVL48:
 718              	.L49:
 719              		.loc 1 358 0
 720 0010 AB68     		ldr	r3, [r5, #8]
 721 0012 0133     		adds	r3, r3, #1
 722 0014 002B     		cmp	r3, #0
 723 0016 AB60     		str	r3, [r5, #8]
 724 0018 F8DC     		bgt	.L48
 725              	.LVL49:
 726              	.LBB196:
 727              	.LBB197:
 728              		.loc 2 639 0
 729 001a 2868     		ldr	r0, [r5]
ARM GAS  /tmp/cc3riPh8.s 			page 14


 730              	.LVL50:
 731              		.loc 2 641 0
 732 001c 0368     		ldr	r3, [r0]
 733 001e 2B60     		str	r3, [r5]
 734 0020 5D60     		str	r5, [r3, #4]
 735              	.LBE197:
 736              	.LBE196:
 737              		.loc 1 359 0
 738 0022 FFF7FEFF 		bl	chSchReadyI
 739              	.LVL51:
 740              		.loc 1 357 0
 741 0026 013C     		subs	r4, r4, #1
 742              	.LVL52:
 743              		.loc 1 359 0
 744 0028 0662     		str	r6, [r0, #32]
 745              	.LVL53:
 746              		.loc 1 357 0
 747 002a F1D1     		bne	.L49
 748              	.LVL54:
 749              	.L46:
 750 002c 70BD     		pop	{r4, r5, r6, pc}
 751              		.cfi_endproc
 752              	.LFE235:
 753              		.size	chSemAddCounterI, .-chSemAddCounterI
 754 002e 00BF     		.section	.text.chSemSignalWait,"ax",%progbits
 755              		.align	2
 756              		.p2align 4,,15
 757              		.global	chSemSignalWait
 758              		.thumb
 759              		.thumb_func
 760              		.type	chSemSignalWait, %function
 761              	chSemSignalWait:
 762              	.LFB236:
 763              		.loc 1 378 0
 764              		.cfi_startproc
 765              		@ args = 0, pretend = 0, frame = 8
 766              		@ frame_needed = 0, uses_anonymous_args = 0
 767              	.LVL55:
 768 0000 10B5     		push	{r4, lr}
 769              		.cfi_def_cfa_offset 8
 770              		.cfi_offset 4, -8
 771              		.cfi_offset 14, -4
 772 0002 0246     		mov	r2, r0
 773 0004 82B0     		sub	sp, sp, #8
 774              		.cfi_def_cfa_offset 16
 775              	.LBB198:
 776              	.LBB199:
 777              	.LBB200:
 778              	.LBB201:
 779              		.loc 3 546 0
 780 0006 2023     		movs	r3, #32
 781              	@ 546 "../ChibiOS/os/ext/CMSIS/include/core_cmFunc.h" 1
 782 0008 83F31188 		MSR basepri, r3
 783              	@ 0 "" 2
 784              		.thumb
 785              	.LBE201:
 786              	.LBE200:
ARM GAS  /tmp/cc3riPh8.s 			page 15


 787              	.LBE199:
 788              	.LBE198:
 789              		.loc 1 390 0
 790 000c 8368     		ldr	r3, [r0, #8]
 791 000e 0133     		adds	r3, r3, #1
 792 0010 002B     		cmp	r3, #0
 793 0012 8360     		str	r3, [r0, #8]
 794 0014 1DDD     		ble	.L58
 795              	.LVL56:
 796              	.L54:
 797              		.loc 1 393 0
 798 0016 8B68     		ldr	r3, [r1, #8]
 799 0018 013B     		subs	r3, r3, #1
 800 001a 002B     		cmp	r3, #0
 801 001c 8B60     		str	r3, [r1, #8]
 802 001e 07DB     		blt	.L59
 803              		.loc 1 401 0
 804 0020 FFF7FEFF 		bl	chSchRescheduleS
 805              	.LVL57:
 806              		.loc 1 402 0
 807 0024 0020     		movs	r0, #0
 808              	.LVL58:
 809              	.LBB202:
 810              	.LBB203:
 811              	.LBB204:
 812              	.LBB205:
 813              	.LBB206:
 814              		.loc 3 546 0
 815 0026 0023     		movs	r3, #0
 816              	@ 546 "../ChibiOS/os/ext/CMSIS/include/core_cmFunc.h" 1
 817 0028 83F31188 		MSR basepri, r3
 818              	@ 0 "" 2
 819              		.thumb
 820              	.LBE206:
 821              	.LBE205:
 822              	.LBE204:
 823              	.LBE203:
 824              	.LBE202:
 825              		.loc 1 407 0
 826 002c 02B0     		add	sp, sp, #8
 827              		.cfi_remember_state
 828              		.cfi_def_cfa_offset 8
 829              		@ sp needed
 830 002e 10BD     		pop	{r4, pc}
 831              	.LVL59:
 832              	.L59:
 833              		.cfi_restore_state
 834              	.LBB211:
 835              		.loc 1 394 0
 836 0030 0D4A     		ldr	r2, .L60
 837              	.LBB212:
 838              	.LBB213:
 839              		.loc 2 634 0
 840 0032 4B68     		ldr	r3, [r1, #4]
 841              	.LBE213:
 842              	.LBE212:
 843              		.loc 1 394 0
ARM GAS  /tmp/cc3riPh8.s 			page 16


 844 0034 9469     		ldr	r4, [r2, #24]
 845              	.LVL60:
 846              		.loc 1 397 0
 847 0036 0520     		movs	r0, #5
 848              	.LBB215:
 849              	.LBB214:
 850              		.loc 2 634 0
 851 0038 84E80A00 		stmia	r4, {r1, r3}
 852              		.loc 2 635 0
 853 003c 4C60     		str	r4, [r1, #4]
 854 003e 1C60     		str	r4, [r3]
 855              	.LBE214:
 856              	.LBE215:
 857              		.loc 1 396 0
 858 0040 2162     		str	r1, [r4, #32]
 859              		.loc 1 397 0
 860 0042 FFF7FEFF 		bl	chSchGoSleepS
 861              	.LVL61:
 862              		.loc 1 398 0
 863 0046 206A     		ldr	r0, [r4, #32]
 864              	.LVL62:
 865              	.LBE211:
 866              	.LBB216:
 867              	.LBB210:
 868              	.LBB209:
 869              	.LBB208:
 870              	.LBB207:
 871              		.loc 3 546 0
 872 0048 0023     		movs	r3, #0
 873              	@ 546 "../ChibiOS/os/ext/CMSIS/include/core_cmFunc.h" 1
 874 004a 83F31188 		MSR basepri, r3
 875              	@ 0 "" 2
 876              		.thumb
 877              	.LBE207:
 878              	.LBE208:
 879              	.LBE209:
 880              	.LBE210:
 881              	.LBE216:
 882              		.loc 1 407 0
 883 004e 02B0     		add	sp, sp, #8
 884              		.cfi_remember_state
 885              		.cfi_def_cfa_offset 8
 886              		@ sp needed
 887 0050 10BD     		pop	{r4, pc}
 888              	.LVL63:
 889              	.L58:
 890              		.cfi_restore_state
 891              	.LBB217:
 892              	.LBB218:
 893              		.loc 2 639 0
 894 0052 0068     		ldr	r0, [r0]
 895              	.LVL64:
 896 0054 0191     		str	r1, [sp, #4]
 897              	.LVL65:
 898              		.loc 2 641 0
 899 0056 0368     		ldr	r3, [r0]
 900 0058 1360     		str	r3, [r2]
ARM GAS  /tmp/cc3riPh8.s 			page 17


 901 005a 5A60     		str	r2, [r3, #4]
 902              	.LBE218:
 903              	.LBE217:
 904              		.loc 1 391 0
 905 005c FFF7FEFF 		bl	chSchReadyI
 906              	.LVL66:
 907 0060 0023     		movs	r3, #0
 908 0062 0362     		str	r3, [r0, #32]
 909 0064 0199     		ldr	r1, [sp, #4]
 910 0066 D6E7     		b	.L54
 911              	.L61:
 912              		.align	2
 913              	.L60:
 914 0068 00000000 		.word	ch
 915              		.cfi_endproc
 916              	.LFE236:
 917              		.size	chSemSignalWait, .-chSemSignalWait
 918              		.text
 919              	.Letext0:
 920              		.file 4 "/l/arm2/gcc-arm-none-eabi-4_9-2014q4/arm-none-eabi/include/machine/_default_types.h"
 921              		.file 5 "/l/arm2/gcc-arm-none-eabi-4_9-2014q4/arm-none-eabi/include/stdint.h"
 922              		.file 6 "../ChibiOS/os/rt/ports/ARMCMx/compilers/GCC/chtypes.h"
 923              		.file 7 "../ChibiOS/os/rt/include/chsystypes.h"
 924              		.file 8 "../ChibiOS/os/rt/ports/ARMCMx/chcore.h"
 925              		.file 9 "../ChibiOS/os/rt/ports/ARMCMx/chcore_v7m.h"
 926              		.file 10 "../ChibiOS/os/rt/include/chtm.h"
 927              		.file 11 "../ChibiOS/os/rt/include/chmtx.h"
 928              		.file 12 "../ChibiOS/os/rt/include/chsem.h"
 929              		.file 13 "../ChibiOS/os/rt/include/chsys.h"
 930              		.file 14 "../ChibiOS/os/ext/CMSIS/include/core_cm4.h"