ARM GAS  /tmp/ccwqFjZd.s 			page 1


   1              		.syntax unified
   2              		.cpu cortex-m4
   3              		.eabi_attribute 27, 3
   4              		.eabi_attribute 28, 1
   5              		.fpu fpv4-sp-d16
   6              		.eabi_attribute 20, 1
   7              		.eabi_attribute 21, 1
   8              		.eabi_attribute 23, 3
   9              		.eabi_attribute 24, 1
  10              		.eabi_attribute 25, 1
  11              		.eabi_attribute 26, 1
  12              		.eabi_attribute 30, 2
  13              		.eabi_attribute 34, 1
  14              		.eabi_attribute 18, 4
  15              		.thumb
  16              		.file	"chsys.c"
  17              		.text
  18              	.Ltext0:
  19              		.cfi_sections	.debug_frame
  20              		.section	.text._idle_thread,"ax",%progbits
  21              		.align	2
  22              		.p2align 4,,15
  23              		.thumb
  24              		.thumb_func
  25              		.type	_idle_thread, %function
  26              	_idle_thread:
  27              	.LFB226:
  28              		.file 1 "../ChibiOS/os/rt/src/chsys.c"
  29              		.loc 1 65 0
  30              		.cfi_startproc
  31              		@ Volatile: function does not return.
  32              		@ args = 0, pretend = 0, frame = 0
  33              		@ frame_needed = 0, uses_anonymous_args = 0
  34              		@ link register save eliminated.
  35              	.LVL0:
  36              		.loc 1 68 0
  37 0000 024B     		ldr	r3, .L4
  38 0002 034A     		ldr	r2, .L4+4
  39 0004 9B69     		ldr	r3, [r3, #24]
  40 0006 9A61     		str	r2, [r3, #24]
  41              	.L2:
  42 0008 FEE7     		b	.L2
  43              	.L5:
  44 000a 00BF     		.align	2
  45              	.L4:
  46 000c 00000000 		.word	ch
  47 0010 00000000 		.word	.LC0
  48              		.cfi_endproc
  49              	.LFE226:
  50              		.size	_idle_thread, .-_idle_thread
  51 0014 AFF30080 		.section	.text.chSysInit,"ax",%progbits
  51      AFF30080 
  51      AFF30080 
  52              		.align	2
  53              		.p2align 4,,15
  54              		.global	chSysInit
  55              		.thumb
ARM GAS  /tmp/ccwqFjZd.s 			page 2


  56              		.thumb_func
  57              		.type	chSysInit, %function
  58              	chSysInit:
  59              	.LFB227:
  60              		.loc 1 90 0
  61              		.cfi_startproc
  62              		@ args = 0, pretend = 0, frame = 0
  63              		@ frame_needed = 0, uses_anonymous_args = 0
  64              	.LBB155:
  65              	.LBB156:
  66              		.file 2 "../ChibiOS/os/rt/ports/ARMCMx/chcore_v7m.h"
  67              		.loc 2 376 0
  68 0000 1F4B     		ldr	r3, .L8
  69              	.LBB157:
  70              	.LBB158:
  71              		.file 3 "../ChibiOS/os/ext/CMSIS/include/core_cm4.h"
  72              		.loc 3 1442 0
  73 0002 204A     		ldr	r2, .L8+4
  74              	.LBE158:
  75              	.LBE157:
  76              		.loc 2 383 0
  77 0004 2048     		ldr	r0, .L8+8
  78              	.LBE156:
  79              	.LBE155:
  80              		.loc 1 90 0
  81 0006 F0B5     		push	{r4, r5, r6, r7, lr}
  82              		.cfi_def_cfa_offset 20
  83              		.cfi_offset 4, -20
  84              		.cfi_offset 5, -16
  85              		.cfi_offset 6, -12
  86              		.cfi_offset 7, -8
  87              		.cfi_offset 14, -4
  88              	.LBB174:
  89              	.LBB171:
  90              		.loc 2 376 0
  91 0008 0024     		movs	r4, #0
  92 000a 9C60     		str	r4, [r3, #8]
  93              	.LVL1:
  94              	.LBB161:
  95              	.LBB159:
  96              		.loc 3 1440 0
  97 000c DF68     		ldr	r7, [r3, #12]
  98              	.LVL2:
  99              	.LBE159:
 100              	.LBE161:
 101              		.loc 2 382 0
 102 000e 1F4E     		ldr	r6, .L8+12
 103              	.LBE171:
 104              	.LBE174:
 105              		.loc 1 116 0
 106 0010 1F4D     		ldr	r5, .L8+16
 107              	.LBB175:
 108              	.LBB172:
 109              	.LBB162:
 110              	.LBB160:
 111              		.loc 3 1441 0
 112 0012 4FF6FF01 		movw	r1, #63743
ARM GAS  /tmp/ccwqFjZd.s 			page 3


 113 0016 3940     		ands	r1, r1, r7
 114              	.LVL3:
 115              		.loc 3 1442 0
 116 0018 0A43     		orrs	r2, r2, r1
 117              	.LVL4:
 118              		.loc 3 1445 0
 119 001a DA60     		str	r2, [r3, #12]
 120              	.LBE160:
 121              	.LBE162:
 122              		.loc 2 382 0
 123 001c F268     		ldr	r2, [r6, #12]
 124              	.LVL5:
 125 001e 42F08072 		orr	r2, r2, #16777216
 126 0022 F260     		str	r2, [r6, #12]
 127              	.LVL6:
 128              		.loc 2 383 0
 129 0024 0268     		ldr	r2, [r0]
 130              	.LBB163:
 131              	.LBB164:
 132              		.loc 3 1553 0
 133 0026 2021     		movs	r1, #32
 134              	.LVL7:
 135              	.LBE164:
 136              	.LBE163:
 137              		.loc 2 383 0
 138 0028 42F00102 		orr	r2, r2, #1
 139              	.LBB166:
 140              	.LBB167:
 141              		.loc 3 1553 0
 142 002c 1026     		movs	r6, #16
 143              	.LBE167:
 144              	.LBE166:
 145              		.loc 2 383 0
 146 002e 0260     		str	r2, [r0]
 147              	.LVL8:
 148              	.LBE172:
 149              	.LBE175:
 150              		.loc 1 90 0
 151 0030 83B0     		sub	sp, sp, #12
 152              		.cfi_def_cfa_offset 32
 153              	.LBB176:
 154              	.LBB173:
 155              	.LBB169:
 156              	.LBB168:
 157              		.loc 3 1553 0
 158 0032 DE77     		strb	r6, [r3, #31]
 159              	.LVL9:
 160              	.LBE168:
 161              	.LBE169:
 162              	.LBB170:
 163              	.LBB165:
 164 0034 83F82210 		strb	r1, [r3, #34]
 165              	.LBE165:
 166              	.LBE170:
 167              	.LBE173:
 168              	.LBE176:
 169              		.loc 1 96 0
ARM GAS  /tmp/ccwqFjZd.s 			page 4


 170 0038 FFF7FEFF 		bl	_scheduler_init
 171              	.LVL10:
 172              		.loc 1 97 0
 173 003c FFF7FEFF 		bl	_vt_init
 174              	.LVL11:
 175              		.loc 1 99 0
 176 0040 FFF7FEFF 		bl	_tm_init
 177              	.LVL12:
 178              		.loc 1 102 0
 179 0044 FFF7FEFF 		bl	_core_init
 180              	.LVL13:
 181              		.loc 1 105 0
 182 0048 FFF7FEFF 		bl	_heap_init
 183              	.LVL14:
 184              		.loc 1 116 0
 185 004c 2846     		mov	r0, r5
 186 004e 4021     		movs	r1, #64
 187 0050 FFF7FEFF 		bl	_thread_init
 188              	.LVL15:
 189 0054 A5F13003 		sub	r3, r5, #48
 190              		.loc 1 122 0
 191 0058 0122     		movs	r2, #1
 192              		.loc 1 116 0
 193 005a 9861     		str	r0, [r3, #24]
 194              		.loc 1 122 0
 195 005c 0277     		strb	r2, [r0, #28]
 196              	.LVL16:
 197              	.LBB177:
 198              	.LBB178:
 199              	.LBB179:
 200              	.LBB180:
 201              		.file 4 "../ChibiOS/os/ext/CMSIS/include/core_cmFunc.h"
 202              		.loc 4 546 0
 203              	@ 546 "../ChibiOS/os/ext/CMSIS/include/core_cmFunc.h" 1
 204 005e 84F31188 		MSR basepri, r4
 205              	@ 0 "" 2
 206              		.thumb
 207              	.LBE180:
 208              	.LBE179:
 209              	.LBB181:
 210              	.LBB182:
 211              		.loc 4 331 0
 212              	@ 331 "../ChibiOS/os/ext/CMSIS/include/core_cmFunc.h" 1
 213 0062 62B6     		cpsie i
 214              	@ 0 "" 2
 215              		.thumb
 216              	.LBE182:
 217              	.LBE181:
 218              	.LBE178:
 219              	.LBE177:
 220              		.loc 1 132 0
 221 0064 9B69     		ldr	r3, [r3, #24]
 222 0066 0B49     		ldr	r1, .L8+20
 223 0068 9961     		str	r1, [r3, #24]
 224              		.loc 1 138 0
 225 006a 05F14800 		add	r0, r5, #72
 226 006e 0094     		str	r4, [sp]
ARM GAS  /tmp/ccwqFjZd.s 			page 5


 227 0070 4FF4B071 		mov	r1, #352
 228 0074 084B     		ldr	r3, .L8+24
 229 0076 FFF7FEFF 		bl	chThdCreateStatic
 230              	.LVL17:
 231              		.loc 1 141 0
 232 007a 03B0     		add	sp, sp, #12
 233              		.cfi_def_cfa_offset 20
 234              		@ sp needed
 235 007c F0BD     		pop	{r4, r5, r6, r7, pc}
 236              	.LVL18:
 237              	.L9:
 238 007e 00BF     		.align	2
 239              	.L8:
 240 0080 00ED00E0 		.word	-536810240
 241 0084 0003FA05 		.word	100270848
 242 0088 001000E0 		.word	-536866816
 243 008c F0ED00E0 		.word	-536810000
 244 0090 30000000 		.word	ch+48
 245 0094 00000000 		.word	ch_debug
 246 0098 00000000 		.word	_idle_thread
 247              		.cfi_endproc
 248              	.LFE227:
 249              		.size	chSysInit, .-chSysInit
 250 009c AFF30080 		.section	.text.chSysHalt,"ax",%progbits
 251              		.align	2
 252              		.p2align 4,,15
 253              		.global	chSysHalt
 254              		.thumb
 255              		.thumb_func
 256              		.type	chSysHalt, %function
 257              	chSysHalt:
 258              	.LFB228:
 259              		.loc 1 155 0
 260              		.cfi_startproc
 261              		@ Volatile: function does not return.
 262              		@ args = 0, pretend = 0, frame = 0
 263              		@ frame_needed = 0, uses_anonymous_args = 0
 264              		@ link register save eliminated.
 265              	.LVL19:
 266              	.LBB183:
 267              	.LBB184:
 268              	.LBB185:
 269              		.loc 4 342 0
 270              	@ 342 "../ChibiOS/os/ext/CMSIS/include/core_cmFunc.h" 1
 271 0000 72B6     		cpsid i
 272              	@ 0 "" 2
 273              		.thumb
 274              	.LBE185:
 275              	.LBE184:
 276              	.LBE183:
 277              		.loc 1 164 0
 278 0002 014B     		ldr	r3, .L12
 279 0004 D862     		str	r0, [r3, #44]
 280              	.L11:
 281              		.loc 1 168 0 discriminator 1
 282 0006 FEE7     		b	.L11
 283              	.L13:
ARM GAS  /tmp/ccwqFjZd.s 			page 6


 284              		.align	2
 285              	.L12:
 286 0008 00000000 		.word	ch
 287              		.cfi_endproc
 288              	.LFE228:
 289              		.size	chSysHalt, .-chSysHalt
 290 000c AFF30080 		.section	.text.chSysTimerHandlerI,"ax",%progbits
 291              		.align	2
 292              		.p2align 4,,15
 293              		.global	chSysTimerHandlerI
 294              		.thumb
 295              		.thumb_func
 296              		.type	chSysTimerHandlerI, %function
 297              	chSysTimerHandlerI:
 298              	.LFB229:
 299              		.loc 1 182 0
 300              		.cfi_startproc
 301              		@ args = 0, pretend = 0, frame = 0
 302              		@ frame_needed = 0, uses_anonymous_args = 0
 303 0000 2DE9F041 		push	{r4, r5, r6, r7, r8, lr}
 304              		.cfi_def_cfa_offset 24
 305              		.cfi_offset 4, -24
 306              		.cfi_offset 5, -20
 307              		.cfi_offset 6, -16
 308              		.cfi_offset 7, -12
 309              		.cfi_offset 8, -8
 310              		.cfi_offset 14, -4
 311              	.LBB209:
 312              	.LBB210:
 313              	.LBB211:
 314              		.file 5 "../ChibiOS/os/rt/include/chvt.h"
 315              		.loc 5 475 0
 316 0004 1B4C     		ldr	r4, .L24
 317              	.LBB212:
 318              	.LBB213:
 319              	.LBB214:
 320              	.LBB215:
 321              		.file 6 "../ChibiOS/os/hal/ports/STM32/LLD/TIMv1/st_lld.h"
 322              		.loc 6 128 0
 323 0006 4FF08045 		mov	r5, #1073741824
 324              	.LBE215:
 325              	.LBE214:
 326              	.LBE213:
 327              	.LBE212:
 328              		.loc 5 479 0
 329 000a E369     		ldr	r3, [r4, #28]
 330              		.loc 5 475 0
 331 000c A26A     		ldr	r2, [r4, #40]
 332              	.LBB222:
 333              	.LBB220:
 334              	.LBB218:
 335              	.LBB216:
 336              		.loc 6 128 0
 337 000e 696A     		ldr	r1, [r5, #36]
 338              	.LVL20:
 339              	.LBE216:
 340              	.LBE218:
ARM GAS  /tmp/ccwqFjZd.s 			page 7


 341              	.LBE220:
 342              	.LBE222:
 343              		.loc 5 479 0
 344 0010 9868     		ldr	r0, [r3, #8]
 345              		.loc 5 475 0
 346 0012 8E1A     		subs	r6, r1, r2
 347              	.LVL21:
 348              		.loc 5 479 0
 349 0014 8642     		cmp	r6, r0
 350 0016 04F11C06 		add	r6, r4, #28
 351              	.LVL22:
 352 001a 19D3     		bcc	.L15
 353              		.loc 5 491 0
 354 001c 4FF00008 		mov	r8, #0
 355              	.LBB223:
 356              	.LBB224:
 357              	.LBB225:
 358              	.LBB226:
 359              	.LBB227:
 360              		.loc 4 546 0
 361 0020 2027     		movs	r7, #32
 362              	.LVL23:
 363              	.L16:
 364              	.LBE227:
 365              	.LBE226:
 366              	.LBE225:
 367              	.LBE224:
 368              	.LBE223:
 369              		.loc 5 488 0
 370 0022 1968     		ldr	r1, [r3]
 371              		.loc 5 490 0
 372 0024 D3F80CC0 		ldr	ip, [r3, #12]
 373              	.LVL24:
 374              		.loc 5 485 0
 375 0028 0244     		add	r2, r2, r0
 376 002a A262     		str	r2, [r4, #40]
 377              		.loc 5 488 0
 378 002c 4E60     		str	r6, [r1, #4]
 379              		.loc 5 489 0
 380 002e E161     		str	r1, [r4, #28]
 381              		.loc 5 491 0
 382 0030 C3F80C80 		str	r8, [r3, #12]
 383              	.LVL25:
 384              	.LBB232:
 385              	.LBB233:
 386              	.LBB234:
 387              	.LBB235:
 388              	.LBB236:
 389              		.loc 4 546 0
 390              	@ 546 "../ChibiOS/os/ext/CMSIS/include/core_cmFunc.h" 1
 391 0034 88F31188 		MSR basepri, r8
 392              	@ 0 "" 2
 393              		.thumb
 394              	.LBE236:
 395              	.LBE235:
 396              	.LBE234:
 397              	.LBE233:
ARM GAS  /tmp/ccwqFjZd.s 			page 8


 398              	.LBE232:
 399              		.loc 5 495 0
 400 0038 1869     		ldr	r0, [r3, #16]
 401 003a E047     		blx	ip
 402              	.LVL26:
 403              	.LBB237:
 404              	.LBB231:
 405              	.LBB230:
 406              	.LBB229:
 407              	.LBB228:
 408              		.loc 4 546 0
 409              	@ 546 "../ChibiOS/os/ext/CMSIS/include/core_cmFunc.h" 1
 410 003c 87F31188 		MSR basepri, r7
 411              	@ 0 "" 2
 412              		.thumb
 413              	.LBE228:
 414              	.LBE229:
 415              	.LBE230:
 416              	.LBE231:
 417              	.LBE237:
 418              		.loc 5 479 0
 419 0040 E369     		ldr	r3, [r4, #28]
 420              	.LBB238:
 421              	.LBB221:
 422              	.LBB219:
 423              	.LBB217:
 424              		.loc 6 128 0
 425 0042 696A     		ldr	r1, [r5, #36]
 426              	.LBE217:
 427              	.LBE219:
 428              	.LBE221:
 429              	.LBE238:
 430              		.loc 5 475 0
 431 0044 A26A     		ldr	r2, [r4, #40]
 432              	.LVL27:
 433              		.loc 5 479 0
 434 0046 9868     		ldr	r0, [r3, #8]
 435              		.loc 5 475 0
 436 0048 C2EB010E 		rsb	lr, r2, r1
 437              	.LVL28:
 438              		.loc 5 479 0
 439 004c 8645     		cmp	lr, r0
 440 004e E8D2     		bcs	.L16
 441              	.LVL29:
 442              	.L15:
 443              	.LBE211:
 444              		.loc 5 498 0
 445 0050 B342     		cmp	r3, r6
 446 0052 0BD0     		beq	.L23
 447              		.loc 5 506 0
 448 0054 0128     		cmp	r0, #1
 449 0056 04D0     		beq	.L18
 450              	.LVL30:
 451              	.LBB239:
 452              	.LBB240:
 453              		.file 7 "../ChibiOS/os/rt/ports/ARMCMx/chcore_timer.h"
 454              		.loc 7 95 0
ARM GAS  /tmp/ccwqFjZd.s 			page 9


 455 0058 0844     		add	r0, r0, r1
 456              	.LVL31:
 457              	.LBE240:
 458              	.LBE239:
 459              	.LBE210:
 460              	.LBE209:
 461              		.loc 1 199 0
 462 005a BDE8F041 		pop	{r4, r5, r6, r7, r8, lr}
 463              		.cfi_remember_state
 464              		.cfi_restore 14
 465              		.cfi_restore 8
 466              		.cfi_restore 7
 467              		.cfi_restore 6
 468              		.cfi_restore 5
 469              		.cfi_restore 4
 470              		.cfi_def_cfa_offset 0
 471              	.LBB252:
 472              	.LBB249:
 473              	.LBB242:
 474              	.LBB241:
 475              		.loc 7 95 0
 476 005e FFF7FEBF 		b	stSetAlarm
 477              	.LVL32:
 478              	.L18:
 479              		.cfi_restore_state
 480              	.LBE241:
 481              	.LBE242:
 482              	.LBB243:
 483              	.LBB244:
 484 0062 881C     		adds	r0, r1, #2
 485              	.LVL33:
 486              	.LBE244:
 487              	.LBE243:
 488              	.LBE249:
 489              	.LBE252:
 490              		.loc 1 199 0
 491 0064 BDE8F041 		pop	{r4, r5, r6, r7, r8, lr}
 492              		.cfi_remember_state
 493              		.cfi_restore 14
 494              		.cfi_restore 8
 495              		.cfi_restore 7
 496              		.cfi_restore 6
 497              		.cfi_restore 5
 498              		.cfi_restore 4
 499              		.cfi_def_cfa_offset 0
 500              	.LBB253:
 501              	.LBB250:
 502              	.LBB246:
 503              	.LBB245:
 504              		.loc 7 95 0
 505 0068 FFF7FEBF 		b	stSetAlarm
 506              	.LVL34:
 507              	.L23:
 508              		.cfi_restore_state
 509              	.LBE245:
 510              	.LBE246:
 511              	.LBE250:
ARM GAS  /tmp/ccwqFjZd.s 			page 10


 512              	.LBE253:
 513              		.loc 1 199 0
 514 006c BDE8F041 		pop	{r4, r5, r6, r7, r8, lr}
 515              		.cfi_restore 14
 516              		.cfi_restore 8
 517              		.cfi_restore 7
 518              		.cfi_restore 6
 519              		.cfi_restore 5
 520              		.cfi_restore 4
 521              		.cfi_def_cfa_offset 0
 522              	.LBB254:
 523              	.LBB251:
 524              	.LBB247:
 525              	.LBB248:
 526              		.loc 7 83 0
 527 0070 FFF7FEBF 		b	stStopAlarm
 528              	.LVL35:
 529              	.L25:
 530              		.align	2
 531              	.L24:
 532 0074 00000000 		.word	ch
 533              	.LBE248:
 534              	.LBE247:
 535              	.LBE251:
 536              	.LBE254:
 537              		.cfi_endproc
 538              	.LFE229:
 539              		.size	chSysTimerHandlerI, .-chSysTimerHandlerI
 540 0078 AFF30080 		.section	.text.chSysGetStatusAndLockX,"ax",%progbits
 540      AFF30080 
 541              		.align	2
 542              		.p2align 4,,15
 543              		.global	chSysGetStatusAndLockX
 544              		.thumb
 545              		.thumb_func
 546              		.type	chSysGetStatusAndLockX, %function
 547              	chSysGetStatusAndLockX:
 548              	.LFB230:
 549              		.loc 1 214 0
 550              		.cfi_startproc
 551              		@ args = 0, pretend = 0, frame = 0
 552              		@ frame_needed = 0, uses_anonymous_args = 0
 553              		@ link register save eliminated.
 554              	.LBB255:
 555              	.LBB256:
 556              	.LBB257:
 557              	.LBB258:
 558              		.loc 4 533 0
 559              	@ 533 "../ChibiOS/os/ext/CMSIS/include/core_cmFunc.h" 1
 560 0000 EFF31280 		MRS r0, basepri_max
 561              	@ 0 "" 2
 562              	.LVL36:
 563              		.thumb
 564              	.LBE258:
 565              	.LBE257:
 566              	.LBE256:
 567              	.LBE255:
ARM GAS  /tmp/ccwqFjZd.s 			page 11


 568              		.loc 1 217 0
 569 0004 20B9     		cbnz	r0, .L27
 570              	.LBB259:
 571              	.LBB260:
 572              	.LBB261:
 573              	.LBB262:
 574              		.loc 4 383 0
 575              	@ 383 "../ChibiOS/os/ext/CMSIS/include/core_cmFunc.h" 1
 576 0006 EFF30583 		MRS r3, ipsr
 577              	@ 0 "" 2
 578              	.LVL37:
 579              		.thumb
 580              	.LBE262:
 581              	.LBE261:
 582              	.LBE260:
 583              	.LBE259:
 584              	.LBB263:
 585              	.LBB264:
 586              	.LBB265:
 587              	.LBB266:
 588              		.loc 4 546 0
 589 000a 2023     		movs	r3, #32
 590              	.LVL38:
 591              	@ 546 "../ChibiOS/os/ext/CMSIS/include/core_cmFunc.h" 1
 592 000c 83F31188 		MSR basepri, r3
 593              	@ 0 "" 2
 594              	.LVL39:
 595              		.thumb
 596              	.L27:
 597              	.LBE266:
 598              	.LBE265:
 599              	.LBE264:
 600              	.LBE263:
 601              		.loc 1 226 0
 602 0010 7047     		bx	lr
 603              		.cfi_endproc
 604              	.LFE230:
 605              		.size	chSysGetStatusAndLockX, .-chSysGetStatusAndLockX
 606 0012 00BFAFF3 		.section	.text.chSysRestoreStatusX,"ax",%progbits
 606      0080AFF3 
 606      0080AFF3 
 606      0080
 607              		.align	2
 608              		.p2align 4,,15
 609              		.global	chSysRestoreStatusX
 610              		.thumb
 611              		.thumb_func
 612              		.type	chSysRestoreStatusX, %function
 613              	chSysRestoreStatusX:
 614              	.LFB231:
 615              		.loc 1 237 0
 616              		.cfi_startproc
 617              		@ args = 0, pretend = 0, frame = 0
 618              		@ frame_needed = 0, uses_anonymous_args = 0
 619              	.LVL40:
 620              		.loc 1 239 0
 621 0000 68B9     		cbnz	r0, .L33
ARM GAS  /tmp/ccwqFjZd.s 			page 12


 622              		.loc 1 237 0
 623 0002 10B5     		push	{r4, lr}
 624              		.cfi_def_cfa_offset 8
 625              		.cfi_offset 4, -8
 626              		.cfi_offset 14, -4
 627              	.LBB267:
 628              	.LBB268:
 629              	.LBB269:
 630              	.LBB270:
 631              		.loc 4 383 0
 632              	@ 383 "../ChibiOS/os/ext/CMSIS/include/core_cmFunc.h" 1
 633 0004 EFF30584 		MRS r4, ipsr
 634              	@ 0 "" 2
 635              	.LVL41:
 636              		.thumb
 637              	.LBE270:
 638              	.LBE269:
 639              		.loc 2 435 0
 640 0008 C4F30804 		ubfx	r4, r4, #0, #9
 641              	.LVL42:
 642              	.LBE268:
 643              	.LBE267:
 644              		.loc 1 240 0
 645 000c 14B1     		cbz	r4, .L31
 646              	.LVL43:
 647              	.LBB271:
 648              	.LBB272:
 649              	.LBB273:
 650              	.LBB274:
 651              	.LBB275:
 652              		.loc 4 546 0
 653              	@ 546 "../ChibiOS/os/ext/CMSIS/include/core_cmFunc.h" 1
 654 000e 80F31188 		MSR basepri, r0
 655              	@ 0 "" 2
 656              		.thumb
 657 0012 10BD     		pop	{r4, pc}
 658              	.LVL44:
 659              	.L31:
 660              	.LBE275:
 661              	.LBE274:
 662              	.LBE273:
 663              	.LBE272:
 664              	.LBE271:
 665              		.loc 1 244 0
 666 0014 FFF7FEFF 		bl	chSchRescheduleS
 667              	.LVL45:
 668              	.LBB276:
 669              	.LBB277:
 670              	.LBB278:
 671              	.LBB279:
 672              	.LBB280:
 673              		.loc 4 546 0
 674              	@ 546 "../ChibiOS/os/ext/CMSIS/include/core_cmFunc.h" 1
 675 0018 84F31188 		MSR basepri, r4
 676              	@ 0 "" 2
 677              		.thumb
 678 001c 10BD     		pop	{r4, pc}
ARM GAS  /tmp/ccwqFjZd.s 			page 13


 679              	.LVL46:
 680              	.L33:
 681              		.cfi_def_cfa_offset 0
 682              		.cfi_restore 4
 683              		.cfi_restore 14
 684 001e 7047     		bx	lr
 685              	.LBE280:
 686              	.LBE279:
 687              	.LBE278:
 688              	.LBE277:
 689              	.LBE276:
 690              		.cfi_endproc
 691              	.LFE231:
 692              		.size	chSysRestoreStatusX, .-chSysRestoreStatusX
 693              		.section	.text.chSysIsCounterWithinX,"ax",%progbits
 694              		.align	2
 695              		.p2align 4,,15
 696              		.global	chSysIsCounterWithinX
 697              		.thumb
 698              		.thumb_func
 699              		.type	chSysIsCounterWithinX, %function
 700              	chSysIsCounterWithinX:
 701              	.LFB232:
 702              		.loc 1 269 0
 703              		.cfi_startproc
 704              		@ args = 0, pretend = 0, frame = 0
 705              		@ frame_needed = 0, uses_anonymous_args = 0
 706              		@ link register save eliminated.
 707              	.LVL47:
 708              		.loc 1 271 0
 709 0000 8A42     		cmp	r2, r1
 710 0002 06D9     		bls	.L35
 711              		.loc 1 271 0 is_stmt 0 discriminator 1
 712 0004 8142     		cmp	r1, r0
 713 0006 08D8     		bhi	.L42
 714              	.L41:
 715 0008 8242     		cmp	r2, r0
 716 000a 94BF     		ite	ls
 717 000c 0020     		movls	r0, #0
 718              	.LVL48:
 719 000e 0120     		movhi	r0, #1
 720 0010 7047     		bx	lr
 721              	.LVL49:
 722              	.L35:
 723              		.loc 1 272 0 is_stmt 1
 724 0012 8142     		cmp	r1, r0
 725 0014 F8D8     		bhi	.L41
 726 0016 0120     		movs	r0, #1
 727              	.LVL50:
 728              		.loc 1 273 0
 729 0018 7047     		bx	lr
 730              	.LVL51:
 731              	.L42:
 732 001a 0020     		movs	r0, #0
 733              	.LVL52:
 734 001c 7047     		bx	lr
 735              		.cfi_endproc
ARM GAS  /tmp/ccwqFjZd.s 			page 14


 736              	.LFE232:
 737              		.size	chSysIsCounterWithinX, .-chSysIsCounterWithinX
 738 001e 00BF     		.section	.text.chSysPolledDelayX,"ax",%progbits
 739              		.align	2
 740              		.p2align 4,,15
 741              		.global	chSysPolledDelayX
 742              		.thumb
 743              		.thumb_func
 744              		.type	chSysPolledDelayX, %function
 745              	chSysPolledDelayX:
 746              	.LFB233:
 747              		.loc 1 286 0
 748              		.cfi_startproc
 749              		@ args = 0, pretend = 0, frame = 0
 750              		@ frame_needed = 0, uses_anonymous_args = 0
 751              		@ link register save eliminated.
 752              	.LVL53:
 753              	.LBB281:
 754              	.LBB282:
 755              		.loc 2 547 0
 756 0000 0849     		ldr	r1, .L54
 757 0002 4A68     		ldr	r2, [r1, #4]
 758              	.LBE282:
 759              	.LBE281:
 760              		.loc 1 288 0
 761 0004 1044     		add	r0, r0, r2
 762              	.LVL54:
 763              	.L52:
 764              	.LBB283:
 765              	.LBB284:
 766              		.loc 1 271 0 discriminator 1
 767 0006 9042     		cmp	r0, r2
 768              	.LBE284:
 769              	.LBE283:
 770              	.LBB286:
 771              	.LBB287:
 772              		.loc 2 547 0 discriminator 1
 773 0008 4B68     		ldr	r3, [r1, #4]
 774              	.LVL55:
 775              	.LBE287:
 776              	.LBE286:
 777              	.LBB288:
 778              	.LBB285:
 779              		.loc 1 271 0 discriminator 1
 780 000a 02D9     		bls	.L44
 781              		.loc 1 271 0 is_stmt 0
 782 000c 9342     		cmp	r3, r2
 783 000e 02D2     		bcs	.L53
 784 0010 7047     		bx	lr
 785              	.L44:
 786              		.loc 1 272 0 is_stmt 1
 787 0012 9342     		cmp	r3, r2
 788 0014 F7D2     		bcs	.L52
 789              	.L53:
 790 0016 8342     		cmp	r3, r0
 791 0018 2CBF     		ite	cs
 792 001a 0023     		movcs	r3, #0
ARM GAS  /tmp/ccwqFjZd.s 			page 15


 793              	.LVL56:
 794 001c 0123     		movcc	r3, #1
 795              	.LBE285:
 796              	.LBE288:
 797              		.loc 1 290 0
 798 001e 002B     		cmp	r3, #0
 799 0020 F1D1     		bne	.L52
 800 0022 7047     		bx	lr
 801              	.L55:
 802              		.align	2
 803              	.L54:
 804 0024 001000E0 		.word	-536866816
 805              		.cfi_endproc
 806              	.LFE233:
 807              		.size	chSysPolledDelayX, .-chSysPolledDelayX
 808 0028 AFF30080 		.section	.rodata.str1.4,"aMS",%progbits,1
 808      AFF30080 
 809              		.align	2
 810              	.LC0:
 811 0000 69646C65 		.ascii	"idle\000"
 811      00
 812 0005 000000   		.text
 813              	.Letext0:
 814              		.file 8 "/l/arm2/gcc-arm-none-eabi-4_9-2014q4/lib/gcc/arm-none-eabi/4.9.3/include/stddef.h"
 815              		.file 9 "/l/arm2/gcc-arm-none-eabi-4_9-2014q4/arm-none-eabi/include/machine/_default_types.h"
 816              		.file 10 "/l/arm2/gcc-arm-none-eabi-4_9-2014q4/arm-none-eabi/include/stdint.h"
 817              		.file 11 "../ChibiOS/os/rt/ports/ARMCMx/compilers/GCC/chtypes.h"
 818              		.file 12 "../ChibiOS/os/rt/include/chsystypes.h"
 819              		.file 13 "../ChibiOS/os/rt/include/chschd.h"
 820              		.file 14 "../ChibiOS/os/ext/CMSIS/ST/stm32f303xc.h"
 821              		.file 15 "../ChibiOS/os/rt/ports/ARMCMx/chcore.h"
 822              		.file 16 "../ChibiOS/os/hal/ports/STM32/LLD/TIMv1/stm32_tim.h"
 823              		.file 17 "../ChibiOS/os/rt/include/chtm.h"
 824              		.file 18 "../ChibiOS/os/rt/include/chmtx.h"
 825              		.file 19 "../ChibiOS/os/rt/include/chthreads.h"
 826              		.file 20 "../ChibiOS/os/rt/include/chregistry.h"
 827              		.file 21 "../ChibiOS/os/rt/include/chsys.h"
 828              		.file 22 "../ChibiOS/os/rt/include/chmemcore.h"
 829              		.file 23 "../ChibiOS/os/rt/include/chheap.h"
 830              		.file 24 "../ChibiOS/os/hal/include/st.h"