ARM GAS  /tmp/ccX4Ejsh.s 			page 1


   1              		.syntax unified
   2              		.cpu cortex-m4
   3              		.eabi_attribute 27, 3
   4              		.eabi_attribute 28, 1
   5              		.fpu fpv4-sp-d16
   6              		.eabi_attribute 20, 1
   7              		.eabi_attribute 21, 1
   8              		.eabi_attribute 23, 3
   9              		.eabi_attribute 24, 1
  10              		.eabi_attribute 25, 1
  11              		.eabi_attribute 26, 1
  12              		.eabi_attribute 30, 2
  13              		.eabi_attribute 34, 1
  14              		.eabi_attribute 18, 4
  15              		.thumb
  16              		.file	"chtm.c"
  17              		.text
  18              	.Ltext0:
  19              		.cfi_sections	.debug_frame
  20              		.section	.text.chTMObjectInit,"ax",%progbits
  21              		.align	2
  22              		.p2align 4,,15
  23              		.global	chTMObjectInit
  24              		.thumb
  25              		.thumb_func
  26              		.type	chTMObjectInit, %function
  27              	chTMObjectInit:
  28              	.LFB228:
  29              		.file 1 "../ChibiOS/os/rt/src/chtm.c"
  30              		.loc 1 97 0
  31              		.cfi_startproc
  32              		@ args = 0, pretend = 0, frame = 0
  33              		@ frame_needed = 0, uses_anonymous_args = 0
  34              		@ link register save eliminated.
  35              	.LVL0:
  36              		.loc 1 103 0
  37 0000 0022     		movs	r2, #0
  38 0002 0023     		movs	r3, #0
  39 0004 C0E90423 		strd	r2, [r0, #16]
  40              		.loc 1 100 0
  41 0008 0023     		movs	r3, #0
  42 000a 4FF0FF32 		mov	r2, #-1
  43 000e 80E80C00 		stmia	r0, {r2, r3}
  44              		.loc 1 101 0
  45 0012 8360     		str	r3, [r0, #8]
  46              		.loc 1 102 0
  47 0014 C360     		str	r3, [r0, #12]
  48 0016 7047     		bx	lr
  49              		.cfi_endproc
  50              	.LFE228:
  51              		.size	chTMObjectInit, .-chTMObjectInit
  52 0018 AFF30080 		.section	.text.chTMStartMeasurementX,"ax",%progbits
  52      AFF30080 
  53              		.align	2
  54              		.p2align 4,,15
  55              		.global	chTMStartMeasurementX
  56              		.thumb
ARM GAS  /tmp/ccX4Ejsh.s 			page 2


  57              		.thumb_func
  58              		.type	chTMStartMeasurementX, %function
  59              	chTMStartMeasurementX:
  60              	.LFB229:
  61              		.loc 1 114 0
  62              		.cfi_startproc
  63              		@ args = 0, pretend = 0, frame = 0
  64              		@ frame_needed = 0, uses_anonymous_args = 0
  65              		@ link register save eliminated.
  66              	.LVL1:
  67              	.LBB14:
  68              	.LBB15:
  69              		.file 2 "../ChibiOS/os/rt/ports/ARMCMx/chcore_v7m.h"
  70              		.loc 2 547 0
  71 0000 014B     		ldr	r3, .L3
  72 0002 5B68     		ldr	r3, [r3, #4]
  73              	.LBE15:
  74              	.LBE14:
  75              		.loc 1 116 0
  76 0004 8360     		str	r3, [r0, #8]
  77 0006 7047     		bx	lr
  78              	.L4:
  79              		.align	2
  80              	.L3:
  81 0008 001000E0 		.word	-536866816
  82              		.cfi_endproc
  83              	.LFE229:
  84              		.size	chTMStartMeasurementX, .-chTMStartMeasurementX
  85 000c AFF30080 		.section	.text.chTMStopMeasurementX,"ax",%progbits
  86              		.align	2
  87              		.p2align 4,,15
  88              		.global	chTMStopMeasurementX
  89              		.thumb
  90              		.thumb_func
  91              		.type	chTMStopMeasurementX, %function
  92              	chTMStopMeasurementX:
  93              	.LFB230:
  94              		.loc 1 127 0
  95              		.cfi_startproc
  96              		@ args = 0, pretend = 0, frame = 0
  97              		@ frame_needed = 0, uses_anonymous_args = 0
  98              		@ link register save eliminated.
  99              	.LVL2:
 100              	.LBB16:
 101              	.LBB17:
 102              		.loc 2 547 0
 103 0000 0F4B     		ldr	r3, .L11
 104              	.LBE17:
 105              	.LBE16:
 106              		.loc 1 129 0
 107 0002 1049     		ldr	r1, .L11+4
 108              	.LBB19:
 109              	.LBB18:
 110              		.loc 2 547 0
 111 0004 5A68     		ldr	r2, [r3, #4]
 112              	.LBE18:
 113              	.LBE19:
ARM GAS  /tmp/ccX4Ejsh.s 			page 3


 114              	.LBB20:
 115              	.LBB21:
 116              		.loc 1 58 0
 117 0006 8368     		ldr	r3, [r0, #8]
 118              	.LBE21:
 119              	.LBE20:
 120              		.loc 1 127 0
 121 0008 F0B4     		push	{r4, r5, r6, r7}
 122              		.cfi_def_cfa_offset 16
 123              		.cfi_offset 4, -16
 124              		.cfi_offset 5, -12
 125              		.cfi_offset 6, -8
 126              		.cfi_offset 7, -4
 127              		.loc 1 129 0
 128 000a 4F6F     		ldr	r7, [r1, #116]
 129              	.LVL3:
 130              	.LBB24:
 131              	.LBB22:
 132              		.loc 1 57 0
 133 000c C668     		ldr	r6, [r0, #12]
 134              		.loc 1 60 0
 135 000e 4168     		ldr	r1, [r0, #4]
 136              		.loc 1 59 0
 137 0010 D0E90445 		ldrd	r4, [r0, #16]
 138              		.loc 1 58 0
 139 0014 D31A     		subs	r3, r2, r3
 140 0016 DB1B     		subs	r3, r3, r7
 141              		.loc 1 59 0
 142 0018 E418     		adds	r4, r4, r3
 143 001a 45F10005 		adc	r5, r5, #0
 144              		.loc 1 57 0
 145 001e 0136     		adds	r6, r6, #1
 146              		.loc 1 60 0
 147 0020 8B42     		cmp	r3, r1
 148              		.loc 1 57 0
 149 0022 C660     		str	r6, [r0, #12]
 150              		.loc 1 58 0
 151 0024 8360     		str	r3, [r0, #8]
 152              		.loc 1 59 0
 153 0026 C0E90445 		strd	r4, [r0, #16]
 154              		.loc 1 60 0
 155 002a 05D8     		bhi	.L10
 156              		.loc 1 63 0
 157 002c 0268     		ldr	r2, [r0]
 158              	.LVL4:
 159 002e 9342     		cmp	r3, r2
 160              		.loc 1 64 0
 161 0030 38BF     		it	cc
 162 0032 0360     		strcc	r3, [r0]
 163              	.LBE22:
 164              	.LBE24:
 165              		.loc 1 130 0
 166 0034 F0BC     		pop	{r4, r5, r6, r7}
 167              		.cfi_remember_state
 168              		.cfi_restore 7
 169              		.cfi_restore 6
 170              		.cfi_restore 5
ARM GAS  /tmp/ccX4Ejsh.s 			page 4


 171              		.cfi_restore 4
 172              		.cfi_def_cfa_offset 0
 173              	.LVL5:
 174 0036 7047     		bx	lr
 175              	.LVL6:
 176              	.L10:
 177              		.cfi_restore_state
 178              	.LBB25:
 179              	.LBB23:
 180              		.loc 1 61 0
 181 0038 4360     		str	r3, [r0, #4]
 182              	.LBE23:
 183              	.LBE25:
 184              		.loc 1 130 0
 185 003a F0BC     		pop	{r4, r5, r6, r7}
 186              		.cfi_restore 4
 187              		.cfi_restore 5
 188              		.cfi_restore 6
 189              		.cfi_restore 7
 190              		.cfi_def_cfa_offset 0
 191              	.LVL7:
 192 003c 7047     		bx	lr
 193              	.L12:
 194 003e 00BF     		.align	2
 195              	.L11:
 196 0040 001000E0 		.word	-536866816
 197 0044 00000000 		.word	ch
 198              		.cfi_endproc
 199              	.LFE230:
 200              		.size	chTMStopMeasurementX, .-chTMStopMeasurementX
 201 0048 AFF30080 		.section	.text._tm_init,"ax",%progbits
 201      AFF30080 
 202              		.align	2
 203              		.p2align 4,,15
 204              		.global	_tm_init
 205              		.thumb
 206              		.thumb_func
 207              		.type	_tm_init, %function
 208              	_tm_init:
 209              	.LFB227:
 210              		.loc 1 77 0
 211              		.cfi_startproc
 212              		@ args = 0, pretend = 0, frame = 24
 213              		@ frame_needed = 0, uses_anonymous_args = 0
 214 0000 D0B5     		push	{r4, r6, r7, lr}
 215              		.cfi_def_cfa_offset 16
 216              		.cfi_offset 4, -16
 217              		.cfi_offset 6, -12
 218              		.cfi_offset 7, -8
 219              		.cfi_offset 14, -4
 220              		.loc 1 83 0
 221 0002 0C4C     		ldr	r4, .L15
 222              		.loc 1 77 0
 223 0004 86B0     		sub	sp, sp, #24
 224              		.cfi_def_cfa_offset 40
 225              		.loc 1 83 0
 226 0006 0023     		movs	r3, #0
ARM GAS  /tmp/ccX4Ejsh.s 			page 5


 227              	.LBB26:
 228              	.LBB27:
 229              		.loc 1 99 0
 230 0008 4FF0FF32 		mov	r2, #-1
 231              	.LBE27:
 232              	.LBE26:
 233              		.loc 1 85 0
 234 000c 6846     		mov	r0, sp
 235              	.LBB30:
 236              	.LBB28:
 237              		.loc 1 103 0
 238 000e 0026     		movs	r6, #0
 239 0010 0027     		movs	r7, #0
 240              	.LBE28:
 241              	.LBE30:
 242              		.loc 1 83 0
 243 0012 6367     		str	r3, [r4, #116]
 244              	.LVL8:
 245              	.LBB31:
 246              	.LBB29:
 247              		.loc 1 100 0
 248 0014 0193     		str	r3, [sp, #4]
 249              		.loc 1 101 0
 250 0016 0293     		str	r3, [sp, #8]
 251              		.loc 1 102 0
 252 0018 0393     		str	r3, [sp, #12]
 253              		.loc 1 99 0
 254 001a 0092     		str	r2, [sp]
 255              		.loc 1 103 0
 256 001c CDE90467 		strd	r6, [sp, #16]
 257              	.LBE29:
 258              	.LBE31:
 259              		.loc 1 85 0
 260 0020 FFF7FEFF 		bl	chTMStartMeasurementX
 261              	.LVL9:
 262              		.loc 1 86 0
 263 0024 6846     		mov	r0, sp
 264 0026 FFF7FEFF 		bl	chTMStopMeasurementX
 265              	.LVL10:
 266              		.loc 1 87 0
 267 002a 029B     		ldr	r3, [sp, #8]
 268 002c 6367     		str	r3, [r4, #116]
 269              		.loc 1 88 0
 270 002e 06B0     		add	sp, sp, #24
 271              		.cfi_def_cfa_offset 16
 272              	.LVL11:
 273              		@ sp needed
 274 0030 D0BD     		pop	{r4, r6, r7, pc}
 275              	.LVL12:
 276              	.L16:
 277 0032 00BF     		.align	2
 278              	.L15:
 279 0034 00000000 		.word	ch
 280              		.cfi_endproc
 281              	.LFE227:
 282              		.size	_tm_init, .-_tm_init
 283 0038 AFF30080 		.section	.text.chTMChainMeasurementToX,"ax",%progbits
ARM GAS  /tmp/ccX4Ejsh.s 			page 6


 283      AFF30080 
 284              		.align	2
 285              		.p2align 4,,15
 286              		.global	chTMChainMeasurementToX
 287              		.thumb
 288              		.thumb_func
 289              		.type	chTMChainMeasurementToX, %function
 290              	chTMChainMeasurementToX:
 291              	.LFB231:
 292              		.loc 1 145 0
 293              		.cfi_startproc
 294              		@ args = 0, pretend = 0, frame = 0
 295              		@ frame_needed = 0, uses_anonymous_args = 0
 296              		@ link register save eliminated.
 297              	.LVL13:
 298              	.LBB32:
 299              	.LBB33:
 300              		.loc 2 547 0
 301 0000 0E4B     		ldr	r3, .L22
 302              	.LBE33:
 303              	.LBE32:
 304              	.LBB35:
 305              	.LBB36:
 306              		.loc 1 60 0
 307 0002 4268     		ldr	r2, [r0, #4]
 308              	.LBE36:
 309              	.LBE35:
 310              	.LBB39:
 311              	.LBB34:
 312              		.loc 2 547 0
 313 0004 5B68     		ldr	r3, [r3, #4]
 314              	.LBE34:
 315              	.LBE39:
 316              		.loc 1 145 0
 317 0006 70B4     		push	{r4, r5, r6}
 318              		.cfi_def_cfa_offset 12
 319              		.cfi_offset 4, -12
 320              		.cfi_offset 5, -8
 321              		.cfi_offset 6, -4
 322              		.loc 1 148 0
 323 0008 8B60     		str	r3, [r1, #8]
 324              	.LVL14:
 325              	.LBB40:
 326              	.LBB37:
 327              		.loc 1 59 0
 328 000a D0E90445 		ldrd	r4, [r0, #16]
 329              		.loc 1 58 0
 330 000e 8668     		ldr	r6, [r0, #8]
 331              		.loc 1 57 0
 332 0010 C168     		ldr	r1, [r0, #12]
 333              	.LVL15:
 334              		.loc 1 58 0
 335 0012 9B1B     		subs	r3, r3, r6
 336              	.LVL16:
 337              		.loc 1 59 0
 338 0014 E418     		adds	r4, r4, r3
 339 0016 45F10005 		adc	r5, r5, #0
ARM GAS  /tmp/ccX4Ejsh.s 			page 7


 340              		.loc 1 57 0
 341 001a 0131     		adds	r1, r1, #1
 342              		.loc 1 60 0
 343 001c 9342     		cmp	r3, r2
 344              		.loc 1 57 0
 345 001e C160     		str	r1, [r0, #12]
 346              		.loc 1 58 0
 347 0020 8360     		str	r3, [r0, #8]
 348              	.LVL17:
 349              		.loc 1 59 0
 350 0022 C0E90445 		strd	r4, [r0, #16]
 351              		.loc 1 60 0
 352 0026 05D8     		bhi	.L21
 353              		.loc 1 63 0
 354 0028 0268     		ldr	r2, [r0]
 355 002a 9342     		cmp	r3, r2
 356              		.loc 1 64 0
 357 002c 38BF     		it	cc
 358 002e 0360     		strcc	r3, [r0]
 359              	.LBE37:
 360              	.LBE40:
 361              		.loc 1 152 0
 362 0030 70BC     		pop	{r4, r5, r6}
 363              		.cfi_remember_state
 364              		.cfi_restore 6
 365              		.cfi_restore 5
 366              		.cfi_restore 4
 367              		.cfi_def_cfa_offset 0
 368 0032 7047     		bx	lr
 369              	.L21:
 370              		.cfi_restore_state
 371              	.LBB41:
 372              	.LBB38:
 373              		.loc 1 61 0
 374 0034 4360     		str	r3, [r0, #4]
 375              	.LBE38:
 376              	.LBE41:
 377              		.loc 1 152 0
 378 0036 70BC     		pop	{r4, r5, r6}
 379              		.cfi_restore 4
 380              		.cfi_restore 5
 381              		.cfi_restore 6
 382              		.cfi_def_cfa_offset 0
 383 0038 7047     		bx	lr
 384              	.L23:
 385 003a 00BF     		.align	2
 386              	.L22:
 387 003c 001000E0 		.word	-536866816
 388              		.cfi_endproc
 389              	.LFE231:
 390              		.size	chTMChainMeasurementToX, .-chTMChainMeasurementToX
 391              		.text
 392              	.Letext0:
 393              		.file 3 "/l/arm2/gcc-arm-none-eabi-4_9-2014q4/arm-none-eabi/include/machine/_default_types.h"
 394              		.file 4 "/l/arm2/gcc-arm-none-eabi-4_9-2014q4/arm-none-eabi/include/stdint.h"
 395              		.file 5 "../ChibiOS/os/rt/ports/ARMCMx/compilers/GCC/chtypes.h"
 396              		.file 6 "../ChibiOS/os/rt/include/chsystypes.h"
ARM GAS  /tmp/ccX4Ejsh.s 			page 8


 397              		.file 7 "../ChibiOS/os/rt/include/chschd.h"
 398              		.file 8 "../ChibiOS/os/ext/CMSIS/include/core_cm4.h"
 399              		.file 9 "../ChibiOS/os/rt/ports/ARMCMx/chcore.h"
 400              		.file 10 "../ChibiOS/os/rt/include/chtm.h"
 401              		.file 11 "../ChibiOS/os/rt/include/chmtx.h"