ARM GAS  /tmp/ccrGlqJD.s 			page 1


   1              		.syntax unified
   2              		.cpu cortex-m4
   3              		.eabi_attribute 27, 3
   4              		.eabi_attribute 28, 1
   5              		.fpu fpv4-sp-d16
   6              		.eabi_attribute 20, 1
   7              		.eabi_attribute 21, 1
   8              		.eabi_attribute 23, 3
   9              		.eabi_attribute 24, 1
  10              		.eabi_attribute 25, 1
  11              		.eabi_attribute 26, 1
  12              		.eabi_attribute 30, 2
  13              		.eabi_attribute 34, 1
  14              		.eabi_attribute 18, 4
  15              		.thumb
  16              		.file	"chvt.c"
  17              		.text
  18              	.Ltext0:
  19              		.cfi_sections	.debug_frame
  20              		.section	.text._vt_init,"ax",%progbits
  21              		.align	2
  22              		.p2align 4,,15
  23              		.global	_vt_init
  24              		.thumb
  25              		.thumb_func
  26              		.type	_vt_init, %function
  27              	_vt_init:
  28              	.LFB226:
  29              		.file 1 "../ChibiOS/os/rt/src/chvt.c"
  30              		.loc 1 61 0
  31              		.cfi_startproc
  32              		@ args = 0, pretend = 0, frame = 0
  33              		@ frame_needed = 0, uses_anonymous_args = 0
  34              		@ link register save eliminated.
  35              		.loc 1 63 0
  36 0000 054B     		ldr	r3, .L2
  37              		.loc 1 64 0
  38 0002 4FF0FF30 		mov	r0, #-1
  39              		.loc 1 63 0
  40 0006 03F11C02 		add	r2, r3, #28
  41              		.loc 1 68 0
  42 000a 0021     		movs	r1, #0
  43              		.loc 1 64 0
  44 000c 5862     		str	r0, [r3, #36]
  45              		.loc 1 68 0
  46 000e 9962     		str	r1, [r3, #40]
  47              		.loc 1 63 0
  48 0010 1A62     		str	r2, [r3, #32]
  49 0012 DA61     		str	r2, [r3, #28]
  50 0014 7047     		bx	lr
  51              	.L3:
  52 0016 00BF     		.align	2
  53              	.L2:
  54 0018 00000000 		.word	ch
  55              		.cfi_endproc
  56              	.LFE226:
  57              		.size	_vt_init, .-_vt_init
ARM GAS  /tmp/ccrGlqJD.s 			page 2


  58 001c AFF30080 		.section	.text.chVTDoSetI,"ax",%progbits
  59              		.align	2
  60              		.p2align 4,,15
  61              		.global	chVTDoSetI
  62              		.thumb
  63              		.thumb_func
  64              		.type	chVTDoSetI, %function
  65              	chVTDoSetI:
  66              	.LFB227:
  67              		.loc 1 95 0
  68              		.cfi_startproc
  69              		@ args = 0, pretend = 0, frame = 0
  70              		@ frame_needed = 0, uses_anonymous_args = 0
  71              	.LVL0:
  72 0000 F8B5     		push	{r3, r4, r5, r6, r7, lr}
  73              		.cfi_def_cfa_offset 24
  74              		.cfi_offset 3, -24
  75              		.cfi_offset 4, -20
  76              		.cfi_offset 5, -16
  77              		.cfi_offset 6, -12
  78              		.cfi_offset 7, -8
  79              		.cfi_offset 14, -4
  80              		.loc 1 103 0
  81 0002 1A4F     		ldr	r7, .L17
  82 0004 BE46     		mov	lr, r7
  83              	.LBB19:
  84              		.loc 1 112 0
  85 0006 0129     		cmp	r1, #1
  86 0008 8CBF     		ite	hi
  87 000a 0D46     		movhi	r5, r1
  88 000c 0225     		movls	r5, #2
  89              	.LBE19:
  90              		.loc 1 103 0
  91 000e 5EF81C4F 		ldr	r4, [lr, #28]!
  92              	.LVL1:
  93              		.loc 1 101 0
  94 0012 0361     		str	r3, [r0, #16]
  95              	.LBB32:
  96              	.LBB20:
  97              	.LBB21:
  98              	.LBB22:
  99              		.file 2 "../ChibiOS/os/hal/ports/STM32/LLD/TIMv1/st_lld.h"
 100              		.loc 2 128 0
 101 0014 4FF08043 		mov	r3, #1073741824
 102              	.LVL2:
 103              	.LBE22:
 104              	.LBE21:
 105              	.LBE20:
 106              		.loc 1 115 0
 107 0018 7445     		cmp	r4, lr
 108              	.LBE32:
 109              		.loc 1 102 0
 110 001a C260     		str	r2, [r0, #12]
 111              		.loc 1 95 0
 112 001c 0646     		mov	r6, r0
 113              	.LBB33:
 114              	.LBB25:
ARM GAS  /tmp/ccrGlqJD.s 			page 3


 115              	.LBB24:
 116              	.LBB23:
 117              		.loc 2 128 0
 118 001e 5A6A     		ldr	r2, [r3, #36]
 119              	.LVL3:
 120              	.LBE23:
 121              	.LBE24:
 122              	.LBE25:
 123              		.loc 1 115 0
 124 0020 1DD0     		beq	.L15
 125              		.loc 1 124 0
 126 0022 B86A     		ldr	r0, [r7, #40]
 127              	.LVL4:
 128              		.loc 1 128 0
 129 0024 A368     		ldr	r3, [r4, #8]
 130              		.loc 1 124 0
 131 0026 121A     		subs	r2, r2, r0
 132 0028 1544     		add	r5, r5, r2
 133              	.LVL5:
 134              		.loc 1 128 0
 135 002a 9D42     		cmp	r5, r3
 136 002c 03D2     		bcs	.L13
 137 002e 11E0     		b	.L16
 138              	.LVL6:
 139              	.L10:
 140              	.LBE33:
 141              		.loc 1 139 0
 142 0030 2468     		ldr	r4, [r4]
 143              	.LVL7:
 144              		.loc 1 138 0
 145 0032 ED1A     		subs	r5, r5, r3
 146              	.LVL8:
 147              		.loc 1 137 0
 148 0034 A368     		ldr	r3, [r4, #8]
 149              	.L13:
 150 0036 AB42     		cmp	r3, r5
 151 0038 FAD3     		bcc	.L10
 152              		.loc 1 143 0
 153 003a 6368     		ldr	r3, [r4, #4]
 154 003c 7360     		str	r3, [r6, #4]
 155 003e 3460     		str	r4, [r6]
 156              		.loc 1 144 0
 157 0040 6660     		str	r6, [r4, #4]
 158 0042 1E60     		str	r6, [r3]
 159              		.loc 1 145 0
 160 0044 B560     		str	r5, [r6, #8]
 161              		.loc 1 149 0
 162 0046 A168     		ldr	r1, [r4, #8]
 163              		.loc 1 150 0
 164 0048 4FF0FF33 		mov	r3, #-1
 165              		.loc 1 149 0
 166 004c 491B     		subs	r1, r1, r5
 167 004e A160     		str	r1, [r4, #8]
 168              		.loc 1 150 0
 169 0050 7B62     		str	r3, [r7, #36]
 170 0052 F8BD     		pop	{r3, r4, r5, r6, r7, pc}
 171              	.LVL9:
ARM GAS  /tmp/ccrGlqJD.s 			page 4


 172              	.L16:
 173              	.LBB34:
 174              	.LBB26:
 175              	.LBB27:
 176              		.file 3 "../ChibiOS/os/rt/ports/ARMCMx/chcore_timer.h"
 177              		.loc 3 95 0
 178 0054 2844     		add	r0, r0, r5
 179              	.LVL10:
 180 0056 FFF7FEFF 		bl	stSetAlarm
 181              	.LVL11:
 182 005a A368     		ldr	r3, [r4, #8]
 183 005c EBE7     		b	.L13
 184              	.LVL12:
 185              	.L15:
 186              	.LBE27:
 187              	.LBE26:
 188              	.LBB28:
 189              	.LBB29:
 190              		.loc 3 73 0
 191 005e A818     		adds	r0, r5, r2
 192              	.LVL13:
 193              	.LBE29:
 194              	.LBE28:
 195              		.loc 1 118 0
 196 0060 BA62     		str	r2, [r7, #40]
 197              	.LVL14:
 198              	.LBB31:
 199              	.LBB30:
 200              		.loc 3 73 0
 201 0062 FFF7FEFF 		bl	stStartAlarm
 202              	.LVL15:
 203 0066 7B6A     		ldr	r3, [r7, #36]
 204 0068 E5E7     		b	.L13
 205              	.L18:
 206 006a 00BF     		.align	2
 207              	.L17:
 208 006c 00000000 		.word	ch
 209              	.LBE30:
 210              	.LBE31:
 211              	.LBE34:
 212              		.cfi_endproc
 213              	.LFE227:
 214              		.size	chVTDoSetI, .-chVTDoSetI
 215              		.section	.text.chVTDoResetI,"ax",%progbits
 216              		.align	2
 217              		.p2align 4,,15
 218              		.global	chVTDoResetI
 219              		.thumb
 220              		.thumb_func
 221              		.type	chVTDoResetI, %function
 222              	chVTDoResetI:
 223              	.LFB228:
 224              		.loc 1 161 0
 225              		.cfi_startproc
 226              		@ args = 0, pretend = 0, frame = 0
 227              		@ frame_needed = 0, uses_anonymous_args = 0
 228              		@ link register save eliminated.
ARM GAS  /tmp/ccrGlqJD.s 			page 5


 229              	.LVL16:
 230              		.loc 1 168 0
 231 0000 0268     		ldr	r2, [r0]
 232 0002 8368     		ldr	r3, [r0, #8]
 233 0004 9168     		ldr	r1, [r2, #8]
 234              		.loc 1 161 0
 235 0006 30B4     		push	{r4, r5}
 236              		.cfi_def_cfa_offset 8
 237              		.cfi_offset 4, -8
 238              		.cfi_offset 5, -4
 239              		.loc 1 175 0
 240 0008 104C     		ldr	r4, .L24
 241              		.loc 1 169 0
 242 000a 4568     		ldr	r5, [r0, #4]
 243              		.loc 1 168 0
 244 000c 1944     		add	r1, r1, r3
 245              		.loc 1 179 0
 246 000e 2346     		mov	r3, r4
 247              		.loc 1 168 0
 248 0010 9160     		str	r1, [r2, #8]
 249              		.loc 1 169 0
 250 0012 2A60     		str	r2, [r5]
 251              		.loc 1 170 0
 252 0014 0168     		ldr	r1, [r0]
 253              		.loc 1 179 0
 254 0016 53F81C2F 		ldr	r2, [r3, #28]!
 255              		.loc 1 170 0
 256 001a 4D60     		str	r5, [r1, #4]
 257              		.loc 1 179 0
 258 001c 9A42     		cmp	r2, r3
 259              		.loc 1 171 0
 260 001e 4FF00005 		mov	r5, #0
 261              		.loc 1 175 0
 262 0022 4FF0FF31 		mov	r1, #-1
 263              		.loc 1 171 0
 264 0026 C560     		str	r5, [r0, #12]
 265              		.loc 1 175 0
 266 0028 6162     		str	r1, [r4, #36]
 267              		.loc 1 179 0
 268 002a 0BD0     		beq	.L23
 269              		.loc 1 186 0
 270 002c 9368     		ldr	r3, [r2, #8]
 271              		.loc 1 187 0
 272 002e A06A     		ldr	r0, [r4, #40]
 273              	.LVL17:
 274              		.loc 1 186 0
 275 0030 012B     		cmp	r3, #1
 276 0032 03D9     		bls	.L21
 277              	.LVL18:
 278              	.LBB35:
 279              	.LBB36:
 280              		.loc 3 95 0
 281 0034 1844     		add	r0, r0, r3
 282              	.LBE36:
 283              	.LBE35:
 284              		.loc 1 197 0
 285 0036 30BC     		pop	{r4, r5}
ARM GAS  /tmp/ccrGlqJD.s 			page 6


 286              		.cfi_remember_state
 287              		.cfi_restore 5
 288              		.cfi_restore 4
 289              		.cfi_def_cfa_offset 0
 290              	.LBB38:
 291              	.LBB37:
 292              		.loc 3 95 0
 293 0038 FFF7FEBF 		b	stSetAlarm
 294              	.LVL19:
 295              	.L21:
 296              		.cfi_restore_state
 297              	.LBE37:
 298              	.LBE38:
 299              	.LBB39:
 300              	.LBB40:
 301 003c 0230     		adds	r0, r0, #2
 302              	.LBE40:
 303              	.LBE39:
 304              		.loc 1 197 0
 305 003e 30BC     		pop	{r4, r5}
 306              		.cfi_remember_state
 307              		.cfi_restore 5
 308              		.cfi_restore 4
 309              		.cfi_def_cfa_offset 0
 310              	.LBB42:
 311              	.LBB41:
 312              		.loc 3 95 0
 313 0040 FFF7FEBF 		b	stSetAlarm
 314              	.LVL20:
 315              	.L23:
 316              		.cfi_restore_state
 317              	.LBE41:
 318              	.LBE42:
 319              		.loc 1 197 0
 320 0044 30BC     		pop	{r4, r5}
 321              		.cfi_restore 5
 322              		.cfi_restore 4
 323              		.cfi_def_cfa_offset 0
 324              	.LBB43:
 325              	.LBB44:
 326              		.loc 3 83 0
 327 0046 FFF7FEBF 		b	stStopAlarm
 328              	.LVL21:
 329              	.L25:
 330 004a 00BF     		.align	2
 331              	.L24:
 332 004c 00000000 		.word	ch
 333              	.LBE44:
 334              	.LBE43:
 335              		.cfi_endproc
 336              	.LFE228:
 337              		.size	chVTDoResetI, .-chVTDoResetI
 338              		.text
 339              	.Letext0:
 340              		.file 4 "/l/arm2/gcc-arm-none-eabi-4_9-2014q4/arm-none-eabi/include/machine/_default_types.h"
 341              		.file 5 "/l/arm2/gcc-arm-none-eabi-4_9-2014q4/arm-none-eabi/include/stdint.h"
 342              		.file 6 "../ChibiOS/os/rt/ports/ARMCMx/compilers/GCC/chtypes.h"
ARM GAS  /tmp/ccrGlqJD.s 			page 7


 343              		.file 7 "../ChibiOS/os/rt/include/chsystypes.h"
 344              		.file 8 "../ChibiOS/os/rt/include/chschd.h"
 345              		.file 9 "../ChibiOS/os/rt/ports/ARMCMx/chcore.h"
 346              		.file 10 "../ChibiOS/os/rt/ports/ARMCMx/chcore_v7m.h"
 347              		.file 11 "../ChibiOS/os/hal/ports/STM32/LLD/TIMv1/stm32_tim.h"
 348              		.file 12 "../ChibiOS/os/rt/include/chtm.h"
 349              		.file 13 "../ChibiOS/os/rt/include/chmtx.h"
 350              		.file 14 "../ChibiOS/os/hal/include/st.h"
 351              		.file 15 "../ChibiOS/os/ext/CMSIS/include/core_cm4.h"