ARM GAS  /tmp/ccmZJJ7t.s 			page 1


   1              		.syntax unified
   2              		.cpu cortex-m4
   3              		.eabi_attribute 27, 3
   4              		.eabi_attribute 28, 1
   5              		.fpu fpv4-sp-d16
   6              		.eabi_attribute 20, 1
   7              		.eabi_attribute 21, 1
   8              		.eabi_attribute 23, 3
   9              		.eabi_attribute 24, 1
  10              		.eabi_attribute 25, 1
  11              		.eabi_attribute 26, 1
  12              		.eabi_attribute 30, 2
  13              		.eabi_attribute 34, 1
  14              		.eabi_attribute 18, 4
  15              		.thumb
  16              		.file	"crt0.c"
  17              		.text
  18              	.Ltext0:
  19              		.cfi_sections	.debug_frame
  20              		.section	.text.__early_init,"ax",%progbits
  21              		.align	2
  22              		.p2align 4,,15
  23              		.weak	__early_init
  24              		.thumb
  25              		.thumb_func
  26              		.type	__early_init, %function
  27              	__early_init:
  28              	.LFB0:
  29              		.file 1 "../ChibiOS/os/common/ports/ARMCMx/compilers/GCC/crt0.c"
  30              		.loc 1 226 0
  31              		.cfi_startproc
  32              		@ args = 0, pretend = 0, frame = 0
  33              		@ frame_needed = 0, uses_anonymous_args = 0
  34              		@ link register save eliminated.
  35 0000 7047     		bx	lr
  36              		.cfi_endproc
  37              	.LFE0:
  38              		.size	__early_init, .-__early_init
  39 0002 00BFAFF3 		.section	.text.__late_init,"ax",%progbits
  39      0080AFF3 
  39      0080AFF3 
  39      0080
  40              		.align	2
  41              		.p2align 4,,15
  42              		.weak	__late_init
  43              		.thumb
  44              		.thumb_func
  45              		.type	__late_init, %function
  46              	__late_init:
  47              	.LFB1:
  48              		.loc 1 238 0
  49              		.cfi_startproc
  50              		@ args = 0, pretend = 0, frame = 0
  51              		@ frame_needed = 0, uses_anonymous_args = 0
  52              		@ link register save eliminated.
  53 0000 7047     		bx	lr
  54              		.cfi_endproc
ARM GAS  /tmp/ccmZJJ7t.s 			page 2


  55              	.LFE1:
  56              		.size	__late_init, .-__late_init
  57 0002 00BFAFF3 		.section	.text._default_exit,"ax",%progbits
  57      0080AFF3 
  57      0080AFF3 
  57      0080
  58              		.align	2
  59              		.p2align 4,,15
  60              		.weak	_default_exit
  61              		.thumb
  62              		.thumb_func
  63              		.type	_default_exit, %function
  64              	_default_exit:
  65              	.LFB2:
  66              		.loc 1 249 0
  67              		.cfi_startproc
  68              		@ Volatile: function does not return.
  69              		@ args = 0, pretend = 0, frame = 0
  70              		@ frame_needed = 0, uses_anonymous_args = 0
  71              		@ link register save eliminated.
  72              	.L4:
  73              		.loc 1 251 0 discriminator 1
  74 0000 FEE7     		b	.L4
  75              		.cfi_endproc
  76              	.LFE2:
  77              		.size	_default_exit, .-_default_exit
  78 0002 00BFAFF3 		.section	.text.Reset_Handler,"ax",%progbits
  78      0080AFF3 
  78      0080AFF3 
  78      0080
  79              		.align	2
  80              		.p2align 4,,15
  81              		.global	Reset_Handler
  82              		.thumb
  83              		.thumb_func
  84              		.type	Reset_Handler, %function
  85              	Reset_Handler:
  86              	.LFB3:
  87              		.loc 1 260 0
  88              		.cfi_startproc
  89              		@ Naked Function: prologue and epilogue provided by programmer.
  90              		@ args = 0, pretend = 0, frame = 0
  91              		@ frame_needed = 0, uses_anonymous_args = 0
  92              		.loc 1 266 0
  93              	@ 266 "../ChibiOS/os/common/ports/ARMCMx/compilers/GCC/crt0.c" 1
  94 0000 72B6     		cpsid   i
  95              	@ 0 "" 2
  96              		.loc 1 267 0
  97              		.thumb
  98 0002 374C     		ldr	r4, .L31
  99              	.LVL0:
 100              		.loc 1 268 0
 101              	@ 268 "../ChibiOS/os/common/ports/ARMCMx/compilers/GCC/crt0.c" 1
 102 0004 84F30988 		msr     PSP, r4
 103              	@ 0 "" 2
 104              		.loc 1 275 0
 105              		.thumb
ARM GAS  /tmp/ccmZJJ7t.s 			page 3


 106 0008 364A     		ldr	r2, .L31+4
 107              		.loc 1 272 0
 108 000a 3749     		ldr	r1, .L31+8
 109              		.loc 1 275 0
 110 000c 1368     		ldr	r3, [r2]
 111              		.loc 1 272 0
 112 000e 4FF04040 		mov	r0, #-1073741824
 113              		.loc 1 275 0
 114 0012 43F47003 		orr	r3, r3, #15728640
 115 0016 1360     		str	r3, [r2]
 116              	.LVL1:
 117              		.loc 1 272 0
 118 0018 0860     		str	r0, [r1]
 119              		.loc 1 279 0
 120 001a 0023     		movs	r3, #0
 121              	@ 279 "../ChibiOS/os/common/ports/ARMCMx/compilers/GCC/crt0.c" 1
 122 001c E1EE103A 		vmsr    FPSCR, r3
 123              	@ 0 "" 2
 124              		.loc 1 288 0
 125              		.thumb
 126 0020 0622     		movs	r2, #6
 127              		.loc 1 280 0
 128 0022 8B60     		str	r3, [r1, #8]
 129              	.LVL2:
 130              		.loc 1 288 0
 131              	@ 288 "../ChibiOS/os/common/ports/ARMCMx/compilers/GCC/crt0.c" 1
 132 0024 82F31488 		msr     CONTROL, r2
 133              	@ 0 "" 2
 134              		.loc 1 289 0
 135              	@ 289 "../ChibiOS/os/common/ports/ARMCMx/compilers/GCC/crt0.c" 1
 136 0028 BFF36F8F 		isb
 137              	@ 0 "" 2
 138              		.loc 1 292 0
 139              		.thumb
 140 002c FFF7FEFF 		bl	__early_init
 141              	.LVL3:
 142              	.LBB2:
 143              		.loc 1 296 0
 144 0030 2E4B     		ldr	r3, .L31+12
 145 0032 2F4A     		ldr	r2, .L31+16
 146 0034 9342     		cmp	r3, r2
 147 0036 0BD2     		bcs	.L10
 148 0038 D943     		mvns	r1, r3
 149 003a 0A44     		add	r2, r2, r1
 150 003c 22F00302 		bic	r2, r2, #3
 151 0040 0432     		adds	r2, r2, #4
 152 0042 1A44     		add	r2, r2, r3
 153 0044 4FF05531 		mov	r1, #1431655765
 154              	.LVL4:
 155              	.L9:
 156              		.loc 1 296 0 is_stmt 0 discriminator 3
 157 0048 43F8041B 		str	r1, [r3], #4
 158              	.LVL5:
 159 004c 9342     		cmp	r3, r2
 160 004e FBD1     		bne	.L9
 161              	.LVL6:
 162              	.L10:
ARM GAS  /tmp/ccmZJJ7t.s 			page 4


 163              	.LBE2:
 164              	.LBB3:
 165              		.loc 1 299 0 is_stmt 1
 166 0050 284B     		ldr	r3, .L31+20
 167 0052 A342     		cmp	r3, r4
 168 0054 0CD2     		bcs	.L8
 169 0056 284A     		ldr	r2, .L31+24
 170 0058 191D     		adds	r1, r3, #4
 171 005a 521A     		subs	r2, r2, r1
 172 005c 22F00302 		bic	r2, r2, #3
 173 0060 0432     		adds	r2, r2, #4
 174 0062 1A44     		add	r2, r2, r3
 175 0064 4FF05531 		mov	r1, #1431655765
 176              	.LVL7:
 177              	.L13:
 178              		.loc 1 299 0 is_stmt 0 discriminator 3
 179 0068 43F8041B 		str	r1, [r3], #4
 180              	.LVL8:
 181 006c 9342     		cmp	r3, r2
 182 006e FBD1     		bne	.L13
 183              	.LVL9:
 184              	.L8:
 185              	.LBE3:
 186              	.LBB4:
 187              		.loc 1 311 0 is_stmt 1
 188 0070 224A     		ldr	r2, .L31+28
 189 0072 234B     		ldr	r3, .L31+32
 190 0074 9A42     		cmp	r2, r3
 191 0076 0CD2     		bcs	.L12
 192 0078 D043     		mvns	r0, r2
 193 007a 1844     		add	r0, r0, r3
 194 007c 20F00300 		bic	r0, r0, #3
 195 0080 204B     		ldr	r3, .L31+36
 196 0082 0430     		adds	r0, r0, #4
 197 0084 1844     		add	r0, r0, r3
 198              	.LVL10:
 199              	.L16:
 200              		.loc 1 312 0
 201 0086 53F8041B 		ldr	r1, [r3], #4
 202              	.LVL11:
 203 008a 42F8041B 		str	r1, [r2], #4
 204              	.LVL12:
 205              		.loc 1 311 0
 206 008e 8342     		cmp	r3, r0
 207 0090 F9D1     		bne	.L16
 208              	.LVL13:
 209              	.L12:
 210              	.LBE4:
 211              	.LBB5:
 212              		.loc 1 318 0
 213 0092 1D4B     		ldr	r3, .L31+40
 214 0094 1D4A     		ldr	r2, .L31+44
 215 0096 9342     		cmp	r3, r2
 216 0098 0AD2     		bcs	.L15
 217 009a D943     		mvns	r1, r3
 218 009c 0A44     		add	r2, r2, r1
 219 009e 22F00302 		bic	r2, r2, #3
ARM GAS  /tmp/ccmZJJ7t.s 			page 5


 220 00a2 0432     		adds	r2, r2, #4
 221 00a4 1A44     		add	r2, r2, r3
 222 00a6 0021     		movs	r1, #0
 223              	.LVL14:
 224              	.L19:
 225              		.loc 1 318 0 is_stmt 0 discriminator 3
 226 00a8 43F8041B 		str	r1, [r3], #4
 227              	.LVL15:
 228 00ac 9342     		cmp	r3, r2
 229 00ae FBD1     		bne	.L19
 230              	.LVL16:
 231              	.L15:
 232              	.LBE5:
 233              	.LBB6:
 234              		.loc 1 328 0 is_stmt 1
 235 00b0 174D     		ldr	r5, .L31+48
 236 00b2 184C     		ldr	r4, .L31+52
 237              	.LBE6:
 238              		.loc 1 322 0
 239 00b4 FFF7FEFF 		bl	__late_init
 240              	.LVL17:
 241              	.LBB7:
 242              		.loc 1 328 0
 243 00b8 AC42     		cmp	r4, r5
 244 00ba 04D2     		bcs	.L18
 245              	.LVL18:
 246              	.L17:
 247              		.loc 1 329 0
 248 00bc 54F8043B 		ldr	r3, [r4], #4
 249              	.LVL19:
 250 00c0 9847     		blx	r3
 251              	.LVL20:
 252              		.loc 1 328 0
 253 00c2 AC42     		cmp	r4, r5
 254 00c4 FAD3     		bcc	.L17
 255              	.LVL21:
 256              	.L18:
 257              	.LBE7:
 258              	.LBB8:
 259              		.loc 1 342 0
 260 00c6 144D     		ldr	r5, .L31+56
 261 00c8 144C     		ldr	r4, .L31+60
 262              	.LBE8:
 263              		.loc 1 336 0
 264 00ca FFF7FEFF 		bl	main
 265              	.LVL22:
 266              	.LBB9:
 267              		.loc 1 342 0
 268 00ce AC42     		cmp	r4, r5
 269 00d0 04D2     		bcs	.L21
 270              	.LVL23:
 271              	.L20:
 272              		.loc 1 343 0
 273 00d2 54F8043B 		ldr	r3, [r4], #4
 274              	.LVL24:
 275 00d6 9847     		blx	r3
 276              	.LVL25:
ARM GAS  /tmp/ccmZJJ7t.s 			page 6


 277              		.loc 1 342 0
 278 00d8 AC42     		cmp	r4, r5
 279 00da FAD3     		bcc	.L20
 280              	.LVL26:
 281              	.L21:
 282              	.LBE9:
 283              		.loc 1 350 0
 284 00dc FFF7FEFF 		bl	_default_exit
 285              	.LVL27:
 286              	.L32:
 287              		.align	2
 288              	.L31:
 289 00e0 00000000 		.word	__process_stack_end__
 290 00e4 88ED00E0 		.word	-536810104
 291 00e8 34EF00E0 		.word	-536809676
 292 00ec 00000000 		.word	__main_stack_base__
 293 00f0 00000000 		.word	__main_stack_end__
 294 00f4 00000000 		.word	__process_stack_base__
 295 00f8 03000000 		.word	__process_stack_end__+3
 296 00fc 00000000 		.word	_data
 297 0100 00000000 		.word	_edata
 298 0104 00000000 		.word	_textdata
 299 0108 00000000 		.word	_bss_start
 300 010c 00000000 		.word	_bss_end
 301 0110 00000000 		.word	__init_array_end
 302 0114 00000000 		.word	__init_array_start
 303 0118 00000000 		.word	__fini_array_end
 304 011c 00000000 		.word	__fini_array_start
 305              		.cfi_endproc
 306              	.LFE3:
 307              		.size	Reset_Handler, .-Reset_Handler
 308              		.text
 309              	.Letext0:
 310              		.file 2 "/l/arm2/gcc-arm-none-eabi-4_9-2014q4/arm-none-eabi/include/machine/_default_types.h"
 311              		.file 3 "/l/arm2/gcc-arm-none-eabi-4_9-2014q4/arm-none-eabi/include/stdint.h"