ARM GAS  /tmp/ccDr56ja.s 			page 1


   1              		.syntax unified
   2              		.cpu cortex-m4
   3              		.eabi_attribute 27, 3
   4              		.eabi_attribute 28, 1
   5              		.fpu fpv4-sp-d16
   6              		.eabi_attribute 20, 1
   7              		.eabi_attribute 21, 1
   8              		.eabi_attribute 23, 3
   9              		.eabi_attribute 24, 1
  10              		.eabi_attribute 25, 1
  11              		.eabi_attribute 26, 1
  12              		.eabi_attribute 30, 2
  13              		.eabi_attribute 34, 1
  14              		.eabi_attribute 18, 4
  15              		.thumb
  16              		.file	"dac_driver_lld.c"
  17              		.text
  18              	.Ltext0:
  19              		.cfi_sections	.debug_frame
  20              		.section	.text.dac_lld_serve_tx_interrupt,"ax",%progbits
  21              		.align	2
  22              		.p2align 4,,15
  23              		.thumb
  24              		.thumb_func
  25              		.type	dac_lld_serve_tx_interrupt, %function
  26              	dac_lld_serve_tx_interrupt:
  27              	.LFB255:
  28              		.file 1 "../ChibiOS/../ChibiOS-Drivers/stm32/dac_driver_lld.c"
  29              		.loc 1 88 0
  30              		.cfi_startproc
  31              		@ args = 0, pretend = 0, frame = 0
  32              		@ frame_needed = 0, uses_anonymous_args = 0
  33              		@ link register save eliminated.
  34              	.LVL0:
  35 0000 7047     		bx	lr
  36              		.cfi_endproc
  37              	.LFE255:
  38              		.size	dac_lld_serve_tx_interrupt, .-dac_lld_serve_tx_interrupt
  39 0002 00BFAFF3 		.section	.text.dac_lld_init,"ax",%progbits
  39      0080AFF3 
  39      0080AFF3 
  39      0080
  40              		.align	2
  41              		.p2align 4,,15
  42              		.global	dac_lld_init
  43              		.thumb
  44              		.thumb_func
  45              		.type	dac_lld_init, %function
  46              	dac_lld_init:
  47              	.LFB256:
  48              		.loc 1 125 0
  49              		.cfi_startproc
  50              		@ args = 0, pretend = 0, frame = 0
  51              		@ frame_needed = 0, uses_anonymous_args = 0
  52              		.loc 1 125 0
  53 0000 2DE9F843 		push	{r3, r4, r5, r6, r7, r8, r9, lr}
  54              		.cfi_def_cfa_offset 32
ARM GAS  /tmp/ccDr56ja.s 			page 2


  55              		.cfi_offset 3, -32
  56              		.cfi_offset 4, -28
  57              		.cfi_offset 5, -24
  58              		.cfi_offset 6, -20
  59              		.cfi_offset 7, -16
  60              		.cfi_offset 8, -12
  61              		.cfi_offset 9, -8
  62              		.cfi_offset 14, -4
  63              		.loc 1 128 0
  64 0004 104D     		ldr	r5, .L4
  65              		.loc 1 142 0
  66 0006 114C     		ldr	r4, .L4+4
  67              		.loc 1 132 0
  68 0008 114E     		ldr	r6, .L4+8
  69              		.loc 1 129 0
  70 000a DFF85090 		ldr	r9, .L4+20
  71              		.loc 1 128 0
  72 000e 2846     		mov	r0, r5
  73 0010 FFF7FEFF 		bl	dacObjectInit
  74              	.LVL1:
  75              		.loc 1 131 0
  76 0014 4FF00A08 		mov	r8, #10
  77              		.loc 1 130 0
  78 0018 0E4B     		ldr	r3, .L4+12
  79 001a EB62     		str	r3, [r5, #44]
  80              		.loc 1 133 0
  81 001c 42F29A07 		movw	r7, #8346
  82              		.loc 1 142 0
  83 0020 2046     		mov	r0, r4
  84              		.loc 1 132 0
  85 0022 6E63     		str	r6, [r5, #52]
  86              		.loc 1 129 0
  87 0024 C5F82890 		str	r9, [r5, #40]
  88              		.loc 1 131 0
  89 0028 C5F83080 		str	r8, [r5, #48]
  90              		.loc 1 133 0
  91 002c AF63     		str	r7, [r5, #56]
  92              		.loc 1 146 0
  93 002e 0C36     		adds	r6, r6, #12
  94              		.loc 1 142 0
  95 0030 FFF7FEFF 		bl	dacObjectInit
  96              	.LVL2:
  97              		.loc 1 144 0
  98 0034 084B     		ldr	r3, .L4+16
  99              		.loc 1 143 0
 100 0036 C4F82890 		str	r9, [r4, #40]
 101              		.loc 1 146 0
 102 003a 6663     		str	r6, [r4, #52]
 103              		.loc 1 145 0
 104 003c C4F83080 		str	r8, [r4, #48]
 105              		.loc 1 147 0
 106 0040 A763     		str	r7, [r4, #56]
 107              		.loc 1 144 0
 108 0042 E362     		str	r3, [r4, #44]
 109 0044 BDE8F883 		pop	{r3, r4, r5, r6, r7, r8, r9, pc}
 110              	.L5:
 111              		.align	2
ARM GAS  /tmp/ccDr56ja.s 			page 3


 112              	.L4:
 113 0048 00000000 		.word	.LANCHOR0
 114 004c 00000000 		.word	.LANCHOR1
 115 0050 6C000000 		.word	_stm32_dma_streams+108
 116 0054 00100040 		.word	1073745920
 117 0058 00140040 		.word	1073746944
 118 005c 00740040 		.word	1073771520
 119              		.cfi_endproc
 120              	.LFE256:
 121              		.size	dac_lld_init, .-dac_lld_init
 122              		.section	.text.dac_lld_start,"ax",%progbits
 123              		.align	2
 124              		.p2align 4,,15
 125              		.global	dac_lld_start
 126              		.thumb
 127              		.thumb_func
 128              		.type	dac_lld_start, %function
 129              	dac_lld_start:
 130              	.LFB257:
 131              		.loc 1 177 0
 132              		.cfi_startproc
 133              		@ args = 0, pretend = 0, frame = 0
 134              		@ frame_needed = 0, uses_anonymous_args = 0
 135              		@ link register save eliminated.
 136              	.LVL3:
 137              		.loc 1 180 0
 138 0000 064B     		ldr	r3, .L11
 139 0002 9842     		cmp	r0, r3
 140 0004 03D0     		beq	.L9
 141              		.loc 1 185 0
 142 0006 064B     		ldr	r3, .L11+4
 143 0008 9842     		cmp	r0, r3
 144 000a 00D0     		beq	.L9
 145 000c 7047     		bx	lr
 146              	.L9:
 147              		.loc 1 186 0
 148 000e 054A     		ldr	r2, .L11+8
 149 0010 D369     		ldr	r3, [r2, #28]
 150 0012 43F00053 		orr	r3, r3, #536870912
 151 0016 D361     		str	r3, [r2, #28]
 152 0018 7047     		bx	lr
 153              	.L12:
 154 001a 00BF     		.align	2
 155              	.L11:
 156 001c 00000000 		.word	.LANCHOR0
 157 0020 00000000 		.word	.LANCHOR1
 158 0024 00100240 		.word	1073876992
 159              		.cfi_endproc
 160              	.LFE257:
 161              		.size	dac_lld_start, .-dac_lld_start
 162 0028 AFF30080 		.section	.text.dac_lld_stop,"ax",%progbits
 162      AFF30080 
 163              		.align	2
 164              		.p2align 4,,15
 165              		.global	dac_lld_stop
 166              		.thumb
 167              		.thumb_func
ARM GAS  /tmp/ccDr56ja.s 			page 4


 168              		.type	dac_lld_stop, %function
 169              	dac_lld_stop:
 170              	.LFB258:
 171              		.loc 1 203 0
 172              		.cfi_startproc
 173              		@ args = 0, pretend = 0, frame = 0
 174              		@ frame_needed = 0, uses_anonymous_args = 0
 175              		@ link register save eliminated.
 176              	.LVL4:
 177              		.loc 1 206 0
 178 0000 0E4B     		ldr	r3, .L19
 179 0002 9842     		cmp	r0, r3
 180 0004 0DD0     		beq	.L17
 181              		.loc 1 211 0
 182 0006 0E4B     		ldr	r3, .L19+4
 183 0008 9842     		cmp	r0, r3
 184 000a 10D0     		beq	.L18
 185              	.L15:
 186              		.loc 1 222 0
 187 000c 0D4B     		ldr	r3, .L19+8
 188 000e 1B68     		ldr	r3, [r3]
 189 0010 13F0011F 		tst	r3, #65537
 190 0014 04D1     		bne	.L13
 191              		.loc 1 224 0
 192 0016 0C4A     		ldr	r2, .L19+12
 193 0018 D369     		ldr	r3, [r2, #28]
 194 001a 23F00053 		bic	r3, r3, #536870912
 195 001e D361     		str	r3, [r2, #28]
 196              	.L13:
 197 0020 7047     		bx	lr
 198              	.L17:
 199              		.loc 1 207 0
 200 0022 826A     		ldr	r2, [r0, #40]
 201 0024 1368     		ldr	r3, [r2]
 202 0026 23F00103 		bic	r3, r3, #1
 203 002a 1360     		str	r3, [r2]
 204 002c EEE7     		b	.L15
 205              	.L18:
 206              		.loc 1 212 0
 207 002e 826A     		ldr	r2, [r0, #40]
 208 0030 1368     		ldr	r3, [r2]
 209 0032 5B0C     		lsrs	r3, r3, #17
 210 0034 5B04     		lsls	r3, r3, #17
 211 0036 1360     		str	r3, [r2]
 212 0038 E8E7     		b	.L15
 213              	.L20:
 214 003a 00BF     		.align	2
 215              	.L19:
 216 003c 00000000 		.word	.LANCHOR0
 217 0040 00000000 		.word	.LANCHOR1
 218 0044 00740040 		.word	1073771520
 219 0048 00100240 		.word	1073876992
 220              		.cfi_endproc
 221              	.LFE258:
 222              		.size	dac_lld_stop, .-dac_lld_stop
 223 004c AFF30080 		.section	.text.dac_lld_single_convert,"ax",%progbits
 224              		.align	2
ARM GAS  /tmp/ccDr56ja.s 			page 5


 225              		.p2align 4,,15
 226              		.global	dac_lld_single_convert
 227              		.thumb
 228              		.thumb_func
 229              		.type	dac_lld_single_convert, %function
 230              	dac_lld_single_convert:
 231              	.LFB259:
 232              		.loc 1 236 0
 233              		.cfi_startproc
 234              		@ args = 0, pretend = 0, frame = 0
 235              		@ frame_needed = 0, uses_anonymous_args = 0
 236              	.LVL5:
 237 0000 F0B5     		push	{r4, r5, r6, r7, lr}
 238              		.cfi_def_cfa_offset 20
 239              		.cfi_offset 4, -20
 240              		.cfi_offset 5, -16
 241              		.cfi_offset 6, -12
 242              		.cfi_offset 7, -8
 243              		.cfi_offset 14, -4
 244              		.loc 1 243 0
 245 0002 2B4E     		ldr	r6, .L42
 246 0004 B042     		cmp	r0, r6
 247 0006 3ED0     		beq	.L40
 248 0008 0027     		movs	r7, #0
 249 000a DFF8ACE0 		ldr	lr, .L42+8
 250              		.loc 1 238 0
 251 000e 3C46     		mov	r4, r7
 252              	.L22:
 253              	.LVL6:
 254              		.loc 1 249 0
 255 0010 0269     		ldr	r2, [r0, #16]
 256 0012 1378     		ldrb	r3, [r2]	@ zero_extendqisi2
 257 0014 052B     		cmp	r3, #5
 258 0016 3ED8     		bhi	.L23
 259 0018 DFE803F0 		tbb	[pc, r3]
 260              	.L25:
 261 001c 1B       		.byte	(.L24-.L25)/2
 262 001d 21       		.byte	(.L26-.L25)/2
 263 001e 27       		.byte	(.L27-.L25)/2
 264 001f 2D       		.byte	(.L28-.L25)/2
 265 0020 31       		.byte	(.L29-.L25)/2
 266 0021 03       		.byte	(.L30-.L25)/2
 267              		.p2align 1
 268              	.L30:
 269              		.loc 1 268 0
 270 0022 836A     		ldr	r3, [r0, #40]
 271 0024 03F12804 		add	r4, r3, #40
 272              	.LVL7:
 273              	.L32:
 274              		.loc 1 273 0
 275 0028 1D68     		ldr	r5, [r3]
 276              		.loc 1 274 0
 277 002a 5268     		ldr	r2, [r2, #4]
 278              		.loc 1 273 0
 279 002c 0EEA0505 		and	r5, lr, r5
 280 0030 1D60     		str	r5, [r3]
 281              		.loc 1 274 0
ARM GAS  /tmp/ccDr56ja.s 			page 6


 282 0032 1D68     		ldr	r5, [r3]
 283 0034 42F00102 		orr	r2, r2, #1
 284 0038 BA40     		lsls	r2, r2, r7
 285 003a 2A43     		orrs	r2, r2, r5
 286 003c 1A60     		str	r2, [r3]
 287              		.loc 1 276 0
 288 003e 04B1     		cbz	r4, .L31
 289              		.loc 1 277 0
 290 0040 2180     		strh	r1, [r4]	@ movhi
 291              	.LVL8:
 292              	.L31:
 293              		.loc 1 280 0
 294 0042 1C4A     		ldr	r2, .L42+4
 295 0044 9042     		cmp	r0, r2
 296 0046 23D0     		beq	.L41
 297              		.loc 1 285 0
 298 0048 B042     		cmp	r0, r6
 299              		.loc 1 286 0
 300 004a 04BF     		itt	eq
 301 004c 0222     		moveq	r2, #2
 302 004e 5A60     		streq	r2, [r3, #4]
 303 0050 F0BD     		pop	{r4, r5, r6, r7, pc}
 304              	.LVL9:
 305              	.L24:
 306              		.loc 1 252 0
 307 0052 836A     		ldr	r3, [r0, #40]
 308 0054 03F10805 		add	r5, r3, #8
 309 0058 05EB4404 		add	r4, r5, r4, lsl #1
 310              	.LVL10:
 311              		.loc 1 253 0
 312 005c E4E7     		b	.L32
 313              	.LVL11:
 314              	.L26:
 315              		.loc 1 255 0
 316 005e 836A     		ldr	r3, [r0, #40]
 317 0060 03F10C05 		add	r5, r3, #12
 318 0064 05EB4404 		add	r4, r5, r4, lsl #1
 319              	.LVL12:
 320              		.loc 1 256 0
 321 0068 DEE7     		b	.L32
 322              	.LVL13:
 323              	.L27:
 324              		.loc 1 258 0
 325 006a 836A     		ldr	r3, [r0, #40]
 326 006c 03F11005 		add	r5, r3, #16
 327 0070 05EB4404 		add	r4, r5, r4, lsl #1
 328              	.LVL14:
 329              		.loc 1 259 0
 330 0074 D8E7     		b	.L32
 331              	.LVL15:
 332              	.L28:
 333              		.loc 1 262 0
 334 0076 836A     		ldr	r3, [r0, #40]
 335 0078 03F12004 		add	r4, r3, #32
 336              	.LVL16:
 337              		.loc 1 263 0
 338 007c D4E7     		b	.L32
ARM GAS  /tmp/ccDr56ja.s 			page 7


 339              	.LVL17:
 340              	.L29:
 341              		.loc 1 265 0
 342 007e 836A     		ldr	r3, [r0, #40]
 343 0080 03F12404 		add	r4, r3, #36
 344              	.LVL18:
 345              		.loc 1 266 0
 346 0084 D0E7     		b	.L32
 347              	.LVL19:
 348              	.L40:
 349              		.loc 1 243 0
 350 0086 DFF834E0 		ldr	lr, .L42+12
 351 008a 1027     		movs	r7, #16
 352              		.loc 1 245 0
 353 008c 0C24     		movs	r4, #12
 354 008e BFE7     		b	.L22
 355              	.LVL20:
 356              	.L41:
 357              		.loc 1 281 0
 358 0090 0122     		movs	r2, #1
 359 0092 5A60     		str	r2, [r3, #4]
 360 0094 F0BD     		pop	{r4, r5, r6, r7, pc}
 361              	.LVL21:
 362              	.L23:
 363 0096 836A     		ldr	r3, [r0, #40]
 364              		.loc 1 274 0
 365 0098 5268     		ldr	r2, [r2, #4]
 366              		.loc 1 273 0
 367 009a 1D68     		ldr	r5, [r3]
 368 009c 0EEA0505 		and	r5, lr, r5
 369 00a0 1D60     		str	r5, [r3]
 370              		.loc 1 274 0
 371 00a2 1968     		ldr	r1, [r3]
 372              	.LVL22:
 373 00a4 42F00102 		orr	r2, r2, #1
 374 00a8 BA40     		lsls	r2, r2, r7
 375 00aa 0A43     		orrs	r2, r2, r1
 376 00ac 1A60     		str	r2, [r3]
 377 00ae C8E7     		b	.L31
 378              	.L43:
 379              		.align	2
 380              	.L42:
 381 00b0 00000000 		.word	.LANCHOR1
 382 00b4 00000000 		.word	.LANCHOR0
 383 00b8 01F0FFFF 		.word	-4095
 384 00bc FFFF01F0 		.word	-268304385
 385              		.cfi_endproc
 386              	.LFE259:
 387              		.size	dac_lld_single_convert, .-dac_lld_single_convert
 388              		.section	.text.dac_lld_start_conversion,"ax",%progbits
 389              		.align	2
 390              		.p2align 4,,15
 391              		.global	dac_lld_start_conversion
 392              		.thumb
 393              		.thumb_func
 394              		.type	dac_lld_start_conversion, %function
 395              	dac_lld_start_conversion:
ARM GAS  /tmp/ccDr56ja.s 			page 8


 396              	.LFB260:
 397              		.loc 1 308 0
 398              		.cfi_startproc
 399              		@ args = 0, pretend = 0, frame = 0
 400              		@ frame_needed = 0, uses_anonymous_args = 0
 401              	.LVL23:
 402 0000 2DE9F84F 		push	{r3, r4, r5, r6, r7, r8, r9, r10, fp, lr}
 403              		.cfi_def_cfa_offset 40
 404              		.cfi_offset 3, -40
 405              		.cfi_offset 4, -36
 406              		.cfi_offset 5, -32
 407              		.cfi_offset 6, -28
 408              		.cfi_offset 7, -24
 409              		.cfi_offset 8, -20
 410              		.cfi_offset 9, -16
 411              		.cfi_offset 10, -12
 412              		.cfi_offset 11, -8
 413              		.cfi_offset 14, -4
 414              		.loc 1 317 0
 415 0004 764B     		ldr	r3, .L66
 416 0006 9842     		cmp	r0, r3
 417              		.loc 1 308 0
 418 0008 0546     		mov	r5, r0
 419              		.loc 1 317 0
 420 000a 00F0BF80 		beq	.L63
 421              	.LVL24:
 422              		.loc 1 328 0
 423 000e 754B     		ldr	r3, .L66+4
 424 0010 9842     		cmp	r0, r3
 425 0012 00F0CC80 		beq	.L64
 426 0016 4FF0000E 		mov	lr, #0
 427 001a DFF8D8C1 		ldr	ip, .L66+20
 428 001e 7646     		mov	r6, lr
 429 0020 0427     		movs	r7, #4
 430              	.LVL25:
 431              	.L46:
 432 0022 6968     		ldr	r1, [r5, #4]
 433              		.loc 1 350 0
 434 0024 704A     		ldr	r2, .L66+8
 435 0026 0968     		ldr	r1, [r1]
 436 0028 EA63     		str	r2, [r5, #60]
 437              	.LVL26:
 438              		.loc 1 353 0
 439 002a 0023     		movs	r3, #0
 440              		.loc 1 359 0
 441 002c 4FF6FE70 		movw	r0, #65534
 442              	.LVL27:
 443 0030 B2FBF1F1 		udiv	r1, r2, r1
 444 0034 04E0     		b	.L49
 445              	.LVL28:
 446              	.L47:
 447              		.loc 1 359 0 is_stmt 0 discriminator 1
 448 0036 B2F5803F 		cmp	r2, #65536
 449 003a 1346     		mov	r3, r2
 450 003c 00F0A380 		beq	.L65
 451              	.LVL29:
 452              	.L49:
ARM GAS  /tmp/ccDr56ja.s 			page 9


 453              		.loc 1 356 0 is_stmt 1 discriminator 2
 454 0040 1A1D     		adds	r2, r3, #4
 455              	.LVL30:
 456              		.loc 1 357 0 discriminator 2
 457 0042 B1FBF2F4 		udiv	r4, r1, r2
 458              	.LVL31:
 459              		.loc 1 359 0 discriminator 2
 460 0046 8442     		cmp	r4, r0
 461 0048 F5D8     		bhi	.L47
 462 004a 0333     		adds	r3, r3, #3
 463              	.L48:
 464              		.loc 1 364 0
 465 004c D5F82C80 		ldr	r8, [r5, #44]
 466              		.loc 1 377 0
 467 0050 2A69     		ldr	r2, [r5, #16]
 468              	.LVL32:
 469              		.loc 1 376 0
 470 0052 D5F82890 		ldr	r9, [r5, #40]
 471              		.loc 1 377 0
 472 0056 D2F804A0 		ldr	r10, [r2, #4]
 473              		.loc 1 380 0
 474 005a 686B     		ldr	r0, [r5, #52]
 475 005c 296B     		ldr	r1, [r5, #48]
 476 005e 634A     		ldr	r2, .L66+12
 477              		.loc 1 364 0
 478 0060 4FF0000B 		mov	fp, #0
 479 0064 C8F800B0 		str	fp, [r8]
 480              		.loc 1 365 0
 481 0068 C8F82830 		str	r3, [r8, #40]
 482              		.loc 1 368 0
 483 006c 0123     		movs	r3, #1
 484              		.loc 1 366 0
 485 006e C8F80CB0 		str	fp, [r8, #12]
 486              		.loc 1 367 0
 487 0072 C8F82C40 		str	r4, [r8, #44]
 488              		.loc 1 368 0
 489 0076 C8F81430 		str	r3, [r8, #20]
 490              		.loc 1 369 0
 491 007a D8F80440 		ldr	r4, [r8, #4]
 492              	.LVL33:
 493 007e 4FF68F73 		movw	r3, #65423
 494 0082 2340     		ands	r3, r3, r4
 495 0084 C8F80430 		str	r3, [r8, #4]
 496              		.loc 1 370 0
 497 0088 D8F80430 		ldr	r3, [r8, #4]
 498 008c 43F02003 		orr	r3, r3, #32
 499 0090 C8F80430 		str	r3, [r8, #4]
 500              		.loc 1 371 0
 501 0094 C8F824B0 		str	fp, [r8, #36]
 502              		.loc 1 372 0
 503 0098 C8F810B0 		str	fp, [r8, #16]
 504              		.loc 1 376 0
 505 009c D9F80030 		ldr	r3, [r9]
 506 00a0 0CEA0303 		and	r3, ip, r3
 507 00a4 C9F80030 		str	r3, [r9]
 508              		.loc 1 377 0
 509 00a8 D9F80040 		ldr	r4, [r9]
ARM GAS  /tmp/ccDr56ja.s 			page 10


 510 00ac 4AF48053 		orr	r3, r10, #4096
 511 00b0 03FA0EF3 		lsl	r3, r3, lr
 512 00b4 2343     		orrs	r3, r3, r4
 513 00b6 C9F80030 		str	r3, [r9]
 514              		.loc 1 380 0
 515 00ba 2B46     		mov	r3, r5
 516 00bc FFF7FEFF 		bl	dmaStreamAllocate
 517              	.LVL34:
 518              		.loc 1 385 0
 519 00c0 2B69     		ldr	r3, [r5, #16]
 520 00c2 1B78     		ldrb	r3, [r3]	@ zero_extendqisi2
 521 00c4 052B     		cmp	r3, #5
 522 00c6 00F28580 		bhi	.L50
 523 00ca DFE803F0 		tbb	[pc, r3]
 524              	.L52:
 525 00ce 1F       		.byte	(.L51-.L52)/2
 526 00cf 2E       		.byte	(.L53-.L52)/2
 527 00d0 35       		.byte	(.L54-.L52)/2
 528 00d1 42       		.byte	(.L55-.L52)/2
 529 00d2 4F       		.byte	(.L56-.L52)/2
 530 00d3 03       		.byte	(.L57-.L52)/2
 531              		.p2align 1
 532              	.L57:
 533              		.loc 1 414 0
 534 00d4 6A6B     		ldr	r2, [r5, #52]
 535              		.loc 1 416 0
 536 00d6 AB6B     		ldr	r3, [r5, #56]
 537              		.loc 1 414 0
 538 00d8 A96A     		ldr	r1, [r5, #40]
 539 00da 1268     		ldr	r2, [r2]
 540 00dc 01F12800 		add	r0, r1, #40
 541              		.loc 1 416 0
 542 00e0 23F47063 		bic	r3, r3, #3840
 543              		.loc 1 414 0
 544 00e4 9060     		str	r0, [r2, #8]
 545              		.loc 1 415 0
 546 00e6 AB63     		str	r3, [r5, #56]
 547              	.LVL35:
 548              	.L58:
 549              		.loc 1 422 0
 550 00e8 A889     		ldrh	r0, [r5, #12]
 551              		.loc 1 421 0
 552 00ea AC68     		ldr	r4, [r5, #8]
 553 00ec D460     		str	r4, [r2, #12]
 554              		.loc 1 423 0
 555 00ee 43F02103 		orr	r3, r3, #33
 556              		.loc 1 422 0
 557 00f2 5060     		str	r0, [r2, #4]
 558              		.loc 1 423 0
 559 00f4 1360     		str	r3, [r2]
 560              		.loc 1 427 0
 561 00f6 0B68     		ldr	r3, [r1]
 562              		.loc 1 430 0
 563 00f8 EA6A     		ldr	r2, [r5, #44]
 564              		.loc 1 427 0
 565 00fa 1F43     		orrs	r7, r7, r3
 566 00fc 0F60     		str	r7, [r1]
ARM GAS  /tmp/ccDr56ja.s 			page 11


 567              		.loc 1 429 0
 568 00fe 0B68     		ldr	r3, [r1]
 569              		.loc 1 430 0
 570 0100 0120     		movs	r0, #1
 571              		.loc 1 429 0
 572 0102 0343     		orrs	r3, r3, r0
 573 0104 0B60     		str	r3, [r1]
 574              		.loc 1 430 0
 575 0106 1060     		str	r0, [r2]
 576 0108 BDE8F88F 		pop	{r3, r4, r5, r6, r7, r8, r9, r10, fp, pc}
 577              	.LVL36:
 578              	.L51:
 579              		.loc 1 388 0
 580 010c 6A6B     		ldr	r2, [r5, #52]
 581 010e A96A     		ldr	r1, [r5, #40]
 582              		.loc 1 389 0
 583 0110 AB6B     		ldr	r3, [r5, #56]
 584              		.loc 1 388 0
 585 0112 1268     		ldr	r2, [r2]
 586 0114 01F10800 		add	r0, r1, #8
 587              	.L62:
 588              		.loc 1 394 0
 589 0118 23F47063 		bic	r3, r3, #3840
 590              		.loc 1 393 0
 591 011c 00EB8606 		add	r6, r0, r6, lsl #2
 592              	.LVL37:
 593              		.loc 1 395 0
 594 0120 43F4A063 		orr	r3, r3, #1280
 595              		.loc 1 393 0
 596 0124 9660     		str	r6, [r2, #8]
 597              		.loc 1 394 0
 598 0126 AB63     		str	r3, [r5, #56]
 599              		.loc 1 396 0
 600 0128 DEE7     		b	.L58
 601              	.LVL38:
 602              	.L53:
 603              		.loc 1 393 0
 604 012a A96A     		ldr	r1, [r5, #40]
 605 012c 6A6B     		ldr	r2, [r5, #52]
 606              		.loc 1 394 0
 607 012e AB6B     		ldr	r3, [r5, #56]
 608              		.loc 1 393 0
 609 0130 1268     		ldr	r2, [r2]
 610 0132 01F10C00 		add	r0, r1, #12
 611 0136 EFE7     		b	.L62
 612              	.L54:
 613              		.loc 1 398 0
 614 0138 A96A     		ldr	r1, [r5, #40]
 615 013a 6A6B     		ldr	r2, [r5, #52]
 616              		.loc 1 400 0
 617 013c AB6B     		ldr	r3, [r5, #56]
 618              		.loc 1 398 0
 619 013e 1268     		ldr	r2, [r2]
 620 0140 01F11000 		add	r0, r1, #16
 621 0144 00EB8606 		add	r6, r0, r6, lsl #2
 622              	.LVL39:
 623              		.loc 1 400 0
ARM GAS  /tmp/ccDr56ja.s 			page 12


 624 0148 23F47063 		bic	r3, r3, #3840
 625              		.loc 1 398 0
 626 014c 9660     		str	r6, [r2, #8]
 627              		.loc 1 399 0
 628 014e AB63     		str	r3, [r5, #56]
 629              		.loc 1 401 0
 630 0150 CAE7     		b	.L58
 631              	.LVL40:
 632              	.L55:
 633              		.loc 1 405 0
 634 0152 AB6B     		ldr	r3, [r5, #56]
 635              		.loc 1 404 0
 636 0154 6A6B     		ldr	r2, [r5, #52]
 637 0156 A96A     		ldr	r1, [r5, #40]
 638 0158 1268     		ldr	r2, [r2]
 639              		.loc 1 405 0
 640 015a 23F47063 		bic	r3, r3, #3840
 641              		.loc 1 404 0
 642 015e 01F12000 		add	r0, r1, #32
 643              		.loc 1 406 0
 644 0162 43F4A063 		orr	r3, r3, #1280
 645              		.loc 1 404 0
 646 0166 9060     		str	r0, [r2, #8]
 647              		.loc 1 405 0
 648 0168 AB63     		str	r3, [r5, #56]
 649              		.loc 1 407 0
 650 016a BDE7     		b	.L58
 651              	.L56:
 652              		.loc 1 410 0
 653 016c AB6B     		ldr	r3, [r5, #56]
 654              		.loc 1 409 0
 655 016e 6A6B     		ldr	r2, [r5, #52]
 656 0170 A96A     		ldr	r1, [r5, #40]
 657 0172 1268     		ldr	r2, [r2]
 658              		.loc 1 410 0
 659 0174 23F47063 		bic	r3, r3, #3840
 660              		.loc 1 409 0
 661 0178 01F12400 		add	r0, r1, #36
 662              		.loc 1 411 0
 663 017c 43F4A063 		orr	r3, r3, #1280
 664              		.loc 1 409 0
 665 0180 9060     		str	r0, [r2, #8]
 666              		.loc 1 410 0
 667 0182 AB63     		str	r3, [r5, #56]
 668              		.loc 1 412 0
 669 0184 B0E7     		b	.L58
 670              	.LVL41:
 671              	.L65:
 672 0186 4FF6FF73 		movw	r3, #65535
 673 018a 5FE7     		b	.L48
 674              	.LVL42:
 675              	.L63:
 676              		.loc 1 322 0
 677 018c 184B     		ldr	r3, .L66+16
 678              		.loc 1 323 0
 679 018e DFF864C0 		ldr	ip, .L66+20
 680              		.loc 1 322 0
ARM GAS  /tmp/ccDr56ja.s 			page 13


 681 0192 DA69     		ldr	r2, [r3, #28]
 682 0194 42F01002 		orr	r2, r2, #16
 683 0198 DA61     		str	r2, [r3, #28]
 684              		.loc 1 323 0
 685 019a 1A69     		ldr	r2, [r3, #16]
 686 019c 0021     		movs	r1, #0
 687 019e 42F01002 		orr	r2, r2, #16
 688 01a2 1A61     		str	r2, [r3, #16]
 689 01a4 8E46     		mov	lr, r1
 690 01a6 0E46     		mov	r6, r1
 691 01a8 1961     		str	r1, [r3, #16]
 692              	.LVL43:
 693 01aa 0427     		movs	r7, #4
 694 01ac 39E7     		b	.L46
 695              	.L64:
 696              	.LVL44:
 697              		.loc 1 333 0
 698 01ae 104B     		ldr	r3, .L66+16
 699              		.loc 1 334 0
 700 01b0 DFF844C0 		ldr	ip, .L66+24
 701              		.loc 1 333 0
 702 01b4 DA69     		ldr	r2, [r3, #28]
 703 01b6 42F02002 		orr	r2, r2, #32
 704 01ba DA61     		str	r2, [r3, #28]
 705              		.loc 1 334 0
 706 01bc 1A69     		ldr	r2, [r3, #16]
 707 01be 0021     		movs	r1, #0
 708 01c0 42F02002 		orr	r2, r2, #32
 709 01c4 1A61     		str	r2, [r3, #16]
 710 01c6 4FF4A017 		mov	r7, #1310720
 711 01ca 1961     		str	r1, [r3, #16]
 712              	.LVL45:
 713 01cc 4FF0100E 		mov	lr, #16
 714              		.loc 1 331 0
 715 01d0 0C26     		movs	r6, #12
 716 01d2 26E7     		b	.L46
 717              	.LVL46:
 718              	.L50:
 719 01d4 6B6B     		ldr	r3, [r5, #52]
 720 01d6 A96A     		ldr	r1, [r5, #40]
 721 01d8 1A68     		ldr	r2, [r3]
 722 01da AB6B     		ldr	r3, [r5, #56]
 723 01dc 84E7     		b	.L58
 724              	.L67:
 725 01de 00BF     		.align	2
 726              	.L66:
 727 01e0 00000000 		.word	.LANCHOR0
 728 01e4 00000000 		.word	.LANCHOR1
 729 01e8 00A24A04 		.word	72000000
 730 01ec 00000000 		.word	dac_lld_serve_tx_interrupt
 731 01f0 00100240 		.word	1073876992
 732 01f4 01F0FFFF 		.word	-4095
 733 01f8 FFFF01F0 		.word	-268304385
 734              		.cfi_endproc
 735              	.LFE260:
 736              		.size	dac_lld_start_conversion, .-dac_lld_start_conversion
 737 01fc AFF30080 		.section	.text.dac_lld_stop_conversion,"ax",%progbits
ARM GAS  /tmp/ccDr56ja.s 			page 14


 738              		.align	2
 739              		.p2align 4,,15
 740              		.global	dac_lld_stop_conversion
 741              		.thumb
 742              		.thumb_func
 743              		.type	dac_lld_stop_conversion, %function
 744              	dac_lld_stop_conversion:
 745              	.LFB261:
 746              		.loc 1 434 0
 747              		.cfi_startproc
 748              		@ args = 0, pretend = 0, frame = 0
 749              		@ frame_needed = 0, uses_anonymous_args = 0
 750              	.LVL47:
 751              		.loc 1 437 0
 752 0000 C26A     		ldr	r2, [r0, #44]
 753 0002 1368     		ldr	r3, [r2]
 754 0004 23F00103 		bic	r3, r3, #1
 755              		.loc 1 434 0
 756 0008 10B5     		push	{r4, lr}
 757              		.cfi_def_cfa_offset 8
 758              		.cfi_offset 4, -8
 759              		.cfi_offset 14, -4
 760              		.loc 1 434 0
 761 000a 0446     		mov	r4, r0
 762              		.loc 1 440 0
 763 000c 406B     		ldr	r0, [r0, #52]
 764              	.LVL48:
 765              		.loc 1 437 0
 766 000e 1360     		str	r3, [r2]
 767              		.loc 1 440 0
 768 0010 FFF7FEFF 		bl	dmaStreamRelease
 769              	.LVL49:
 770              		.loc 1 443 0
 771 0014 094B     		ldr	r3, .L74
 772 0016 9C42     		cmp	r4, r3
 773 0018 09D0     		beq	.L72
 774              		.loc 1 448 0
 775 001a 094B     		ldr	r3, .L74+4
 776 001c 9C42     		cmp	r4, r3
 777 001e 00D0     		beq	.L73
 778 0020 10BD     		pop	{r4, pc}
 779              	.LVL50:
 780              	.L73:
 781              		.loc 1 449 0
 782 0022 084A     		ldr	r2, .L74+8
 783 0024 D369     		ldr	r3, [r2, #28]
 784 0026 23F02003 		bic	r3, r3, #32
 785 002a D361     		str	r3, [r2, #28]
 786 002c 10BD     		pop	{r4, pc}
 787              	.LVL51:
 788              	.L72:
 789              		.loc 1 444 0
 790 002e 054A     		ldr	r2, .L74+8
 791 0030 D369     		ldr	r3, [r2, #28]
 792 0032 23F01003 		bic	r3, r3, #16
 793 0036 D361     		str	r3, [r2, #28]
 794 0038 10BD     		pop	{r4, pc}
ARM GAS  /tmp/ccDr56ja.s 			page 15


 795              	.LVL52:
 796              	.L75:
 797 003a 00BF     		.align	2
 798              	.L74:
 799 003c 00000000 		.word	.LANCHOR0
 800 0040 00000000 		.word	.LANCHOR1
 801 0044 00100240 		.word	1073876992
 802              		.cfi_endproc
 803              	.LFE261:
 804              		.size	dac_lld_stop_conversion, .-dac_lld_stop_conversion
 805              		.global	DACD2
 806              		.global	DACD1
 807 0048 AFF30080 		.section	.bss.DACD1,"aw",%nobits
 807      AFF30080 
 808              		.align	2
 809              		.set	.LANCHOR0,. + 0
 810              		.type	DACD1, %object
 811              		.size	DACD1, 64
 812              	DACD1:
 813 0000 00000000 		.space	64
 813      00000000 
 813      00000000 
 813      00000000 
 813      00000000 
 814              		.section	.bss.DACD2,"aw",%nobits
 815              		.align	2
 816              		.set	.LANCHOR1,. + 0
 817              		.type	DACD2, %object
 818              		.size	DACD2, 64
 819              	DACD2:
 820 0000 00000000 		.space	64
 820      00000000 
 820      00000000 
 820      00000000 
 820      00000000 
 821              		.text
 822              	.Letext0:
 823              		.file 2 "/l/arm2/gcc-arm-none-eabi-4_9-2014q4/lib/gcc/arm-none-eabi/4.9.3/include/stddef.h"
 824              		.file 3 "/l/arm2/gcc-arm-none-eabi-4_9-2014q4/arm-none-eabi/include/machine/_default_types.h"
 825              		.file 4 "/l/arm2/gcc-arm-none-eabi-4_9-2014q4/arm-none-eabi/include/stdint.h"
 826              		.file 5 "../ChibiOS/os/rt/ports/ARMCMx/compilers/GCC/chtypes.h"
 827              		.file 6 "../ChibiOS/os/rt/include/chsystypes.h"
 828              		.file 7 "../ChibiOS/os/rt/include/chschd.h"
 829              		.file 8 "../ChibiOS/os/ext/CMSIS/ST/stm32f303xc.h"
 830              		.file 9 "../ChibiOS/os/rt/ports/ARMCMx/chcore.h"
 831              		.file 10 "../ChibiOS/os/rt/ports/ARMCMx/chcore_v7m.h"
 832              		.file 11 "../ChibiOS/os/hal/ports/STM32/LLD/TIMv1/stm32_tim.h"
 833              		.file 12 "../ChibiOS/os/rt/include/chtm.h"
 834              		.file 13 "../ChibiOS/os/rt/include/chmtx.h"
 835              		.file 14 "../ChibiOS/os/rt/include/chthreads.h"
 836              		.file 15 "../ChibiOS/os/hal/ports/STM32/STM32F3xx/stm32_dma.h"
 837              		.file 16 "../ChibiOS/../ChibiOS-Drivers/inc/dac_driver.h"
 838              		.file 17 "../ChibiOS/../ChibiOS-Drivers/stm32/dac_driver_lld.h"
 839              		.file 18 "../ChibiOS/os/ext/CMSIS/include/core_cm4.h"
 840              		.section	.debug_info,"",%progbits
 841              	.Ldebug_info0:
 842 0000 F00E0000 		.4byte	0xef0
ARM GAS  /tmp/ccDr56ja.s 			page 16


 843 0004 0400     		.2byte	0x4
 844 0006 00000000 		.4byte	.Ldebug_abbrev0
 845 000a 04       		.byte	0x4
 846 000b 01       		.uleb128 0x1
 847 000c DB010000 		.4byte	.LASF194
 848 0010 01       		.byte	0x1
 849 0011 82070000 		.4byte	.LASF195
 850 0015 04070000 		.4byte	.LASF196
 851 0019 00000000 		.4byte	.Ldebug_ranges0+0
 852 001d 00000000 		.4byte	0
 853 0021 00000000 		.4byte	.Ldebug_line0
 854 0025 02       		.uleb128 0x2
 855 0026 04       		.byte	0x4
 856 0027 05       		.byte	0x5
 857 0028 696E7400 		.ascii	"int\000"
 858 002c 03       		.uleb128 0x3
 859 002d 1A000000 		.4byte	.LASF2
 860 0031 02       		.byte	0x2
 861 0032 D4       		.byte	0xd4
 862 0033 37000000 		.4byte	0x37
 863 0037 04       		.uleb128 0x4
 864 0038 04       		.byte	0x4
 865 0039 07       		.byte	0x7
 866 003a 4D030000 		.4byte	.LASF0
 867 003e 04       		.uleb128 0x4
 868 003f 01       		.byte	0x1
 869 0040 06       		.byte	0x6
 870 0041 3A010000 		.4byte	.LASF1
 871 0045 03       		.uleb128 0x3
 872 0046 3A000000 		.4byte	.LASF3
 873 004a 03       		.byte	0x3
 874 004b 1D       		.byte	0x1d
 875 004c 50000000 		.4byte	0x50
 876 0050 04       		.uleb128 0x4
 877 0051 01       		.byte	0x1
 878 0052 08       		.byte	0x8
 879 0053 12060000 		.4byte	.LASF4
 880 0057 04       		.uleb128 0x4
 881 0058 02       		.byte	0x2
 882 0059 05       		.byte	0x5
 883 005a 49060000 		.4byte	.LASF5
 884 005e 03       		.uleb128 0x3
 885 005f 3D070000 		.4byte	.LASF6
 886 0063 03       		.byte	0x3
 887 0064 2B       		.byte	0x2b
 888 0065 69000000 		.4byte	0x69
 889 0069 04       		.uleb128 0x4
 890 006a 02       		.byte	0x2
 891 006b 07       		.byte	0x7
 892 006c C8010000 		.4byte	.LASF7
 893 0070 03       		.uleb128 0x3
 894 0071 E5000000 		.4byte	.LASF8
 895 0075 03       		.byte	0x3
 896 0076 3F       		.byte	0x3f
 897 0077 7B000000 		.4byte	0x7b
 898 007b 04       		.uleb128 0x4
 899 007c 04       		.byte	0x4
ARM GAS  /tmp/ccDr56ja.s 			page 17


 900 007d 05       		.byte	0x5
 901 007e 7F010000 		.4byte	.LASF9
 902 0082 03       		.uleb128 0x3
 903 0083 E2070000 		.4byte	.LASF10
 904 0087 03       		.byte	0x3
 905 0088 41       		.byte	0x41
 906 0089 8D000000 		.4byte	0x8d
 907 008d 04       		.uleb128 0x4
 908 008e 04       		.byte	0x4
 909 008f 07       		.byte	0x7
 910 0090 26070000 		.4byte	.LASF11
 911 0094 04       		.uleb128 0x4
 912 0095 08       		.byte	0x8
 913 0096 05       		.byte	0x5
 914 0097 1C030000 		.4byte	.LASF12
 915 009b 03       		.uleb128 0x3
 916 009c 9B040000 		.4byte	.LASF13
 917 00a0 03       		.byte	0x3
 918 00a1 5B       		.byte	0x5b
 919 00a2 A6000000 		.4byte	0xa6
 920 00a6 04       		.uleb128 0x4
 921 00a7 08       		.byte	0x8
 922 00a8 07       		.byte	0x7
 923 00a9 A4000000 		.4byte	.LASF14
 924 00ad 03       		.uleb128 0x3
 925 00ae C3080000 		.4byte	.LASF15
 926 00b2 04       		.byte	0x4
 927 00b3 15       		.byte	0x15
 928 00b4 45000000 		.4byte	0x45
 929 00b8 03       		.uleb128 0x3
 930 00b9 2F040000 		.4byte	.LASF16
 931 00bd 04       		.byte	0x4
 932 00be 21       		.byte	0x21
 933 00bf 5E000000 		.4byte	0x5e
 934 00c3 03       		.uleb128 0x3
 935 00c4 0A060000 		.4byte	.LASF17
 936 00c8 04       		.byte	0x4
 937 00c9 2C       		.byte	0x2c
 938 00ca 70000000 		.4byte	0x70
 939 00ce 03       		.uleb128 0x3
 940 00cf 6D080000 		.4byte	.LASF18
 941 00d3 04       		.byte	0x4
 942 00d4 2D       		.byte	0x2d
 943 00d5 82000000 		.4byte	0x82
 944 00d9 03       		.uleb128 0x3
 945 00da 31000000 		.4byte	.LASF19
 946 00de 04       		.byte	0x4
 947 00df 39       		.byte	0x39
 948 00e0 9B000000 		.4byte	0x9b
 949 00e4 05       		.uleb128 0x5
 950 00e5 C3000000 		.4byte	0xc3
 951 00e9 05       		.uleb128 0x5
 952 00ea CE000000 		.4byte	0xce
 953 00ee 03       		.uleb128 0x3
 954 00ef 4E080000 		.4byte	.LASF20
 955 00f3 05       		.byte	0x5
 956 00f4 45       		.byte	0x45
ARM GAS  /tmp/ccDr56ja.s 			page 18


 957 00f5 CE000000 		.4byte	0xce
 958 00f9 03       		.uleb128 0x3
 959 00fa F8080000 		.4byte	.LASF21
 960 00fe 05       		.byte	0x5
 961 00ff 48       		.byte	0x48
 962 0100 AD000000 		.4byte	0xad
 963 0104 03       		.uleb128 0x3
 964 0105 99010000 		.4byte	.LASF22
 965 0109 05       		.byte	0x5
 966 010a 49       		.byte	0x49
 967 010b AD000000 		.4byte	0xad
 968 010f 03       		.uleb128 0x3
 969 0110 00000000 		.4byte	.LASF23
 970 0114 05       		.byte	0x5
 971 0115 4A       		.byte	0x4a
 972 0116 AD000000 		.4byte	0xad
 973 011a 03       		.uleb128 0x3
 974 011b D9050000 		.4byte	.LASF24
 975 011f 05       		.byte	0x5
 976 0120 4C       		.byte	0x4c
 977 0121 CE000000 		.4byte	0xce
 978 0125 03       		.uleb128 0x3
 979 0126 04040000 		.4byte	.LASF25
 980 012a 05       		.byte	0x5
 981 012b 4D       		.byte	0x4d
 982 012c C3000000 		.4byte	0xc3
 983 0130 03       		.uleb128 0x3
 984 0131 46040000 		.4byte	.LASF26
 985 0135 05       		.byte	0x5
 986 0136 4F       		.byte	0x4f
 987 0137 CE000000 		.4byte	0xce
 988 013b 03       		.uleb128 0x3
 989 013c C4070000 		.4byte	.LASF27
 990 0140 06       		.byte	0x6
 991 0141 33       		.byte	0x33
 992 0142 CE000000 		.4byte	0xce
 993 0146 03       		.uleb128 0x3
 994 0147 74070000 		.4byte	.LASF28
 995 014b 06       		.byte	0x6
 996 014c 3F       		.byte	0x3f
 997 014d 51010000 		.4byte	0x151
 998 0151 06       		.uleb128 0x6
 999 0152 A2030000 		.4byte	.LASF47
 1000 0156 44       		.byte	0x44
 1001 0157 07       		.byte	0x7
 1002 0158 BE       		.byte	0xbe
 1003 0159 3E020000 		.4byte	0x23e
 1004 015d 07       		.uleb128 0x7
 1005 015e 0A050000 		.4byte	.LASF29
 1006 0162 07       		.byte	0x7
 1007 0163 BF       		.byte	0xbf
 1008 0164 FC080000 		.4byte	0x8fc
 1009 0168 00       		.byte	0
 1010 0169 07       		.uleb128 0x7
 1011 016a AB050000 		.4byte	.LASF30
 1012 016e 07       		.byte	0x7
 1013 016f C1       		.byte	0xc1
ARM GAS  /tmp/ccDr56ja.s 			page 19


 1014 0170 FC080000 		.4byte	0x8fc
 1015 0174 04       		.byte	0x4
 1016 0175 07       		.uleb128 0x7
 1017 0176 21010000 		.4byte	.LASF31
 1018 017a 07       		.byte	0x7
 1019 017b C3       		.byte	0xc3
 1020 017c 1A010000 		.4byte	0x11a
 1021 0180 08       		.byte	0x8
 1022 0181 07       		.uleb128 0x7
 1023 0182 60090000 		.4byte	.LASF32
 1024 0186 07       		.byte	0x7
 1025 0187 C4       		.byte	0xc4
 1026 0188 5A060000 		.4byte	0x65a
 1027 018c 0C       		.byte	0xc
 1028 018d 07       		.uleb128 0x7
 1029 018e B9010000 		.4byte	.LASF33
 1030 0192 07       		.byte	0x7
 1031 0193 C6       		.byte	0xc6
 1032 0194 FC080000 		.4byte	0x8fc
 1033 0198 10       		.byte	0x10
 1034 0199 07       		.uleb128 0x7
 1035 019a 1D050000 		.4byte	.LASF34
 1036 019e 07       		.byte	0x7
 1037 019f C7       		.byte	0xc7
 1038 01a0 FC080000 		.4byte	0x8fc
 1039 01a4 14       		.byte	0x14
 1040 01a5 07       		.uleb128 0x7
 1041 01a6 EC080000 		.4byte	.LASF35
 1042 01aa 07       		.byte	0x7
 1043 01ab CE       		.byte	0xce
 1044 01ac 3A090000 		.4byte	0x93a
 1045 01b0 18       		.byte	0x18
 1046 01b1 07       		.uleb128 0x7
 1047 01b2 46010000 		.4byte	.LASF36
 1048 01b6 07       		.byte	0x7
 1049 01b7 D9       		.byte	0xd9
 1050 01b8 04010000 		.4byte	0x104
 1051 01bc 1C       		.byte	0x1c
 1052 01bd 07       		.uleb128 0x7
 1053 01be 8A060000 		.4byte	.LASF37
 1054 01c2 07       		.byte	0x7
 1055 01c3 DD       		.byte	0xdd
 1056 01c4 F9000000 		.4byte	0xf9
 1057 01c8 1D       		.byte	0x1d
 1058 01c9 07       		.uleb128 0x7
 1059 01ca 92080000 		.4byte	.LASF38
 1060 01ce 07       		.byte	0x7
 1061 01cf E2       		.byte	0xe2
 1062 01d0 0F010000 		.4byte	0x10f
 1063 01d4 1E       		.byte	0x1e
 1064 01d5 08       		.uleb128 0x8
 1065 01d6 705F7500 		.ascii	"p_u\000"
 1066 01da 07       		.byte	0x7
 1067 01db 1401     		.2byte	0x114
 1068 01dd 02090000 		.4byte	0x902
 1069 01e1 20       		.byte	0x20
 1070 01e2 09       		.uleb128 0x9
ARM GAS  /tmp/ccDr56ja.s 			page 20


 1071 01e3 C4040000 		.4byte	.LASF39
 1072 01e7 07       		.byte	0x7
 1073 01e8 1901     		.2byte	0x119
 1074 01ea 3E020000 		.4byte	0x23e
 1075 01ee 24       		.byte	0x24
 1076 01ef 09       		.uleb128 0x9
 1077 01f0 8B030000 		.4byte	.LASF40
 1078 01f4 07       		.byte	0x7
 1079 01f5 1F01     		.2byte	0x11f
 1080 01f7 62020000 		.4byte	0x262
 1081 01fb 28       		.byte	0x28
 1082 01fc 09       		.uleb128 0x9
 1083 01fd 20060000 		.4byte	.LASF41
 1084 0201 07       		.byte	0x7
 1085 0202 2301     		.2byte	0x123
 1086 0204 25010000 		.4byte	0x125
 1087 0208 30       		.byte	0x30
 1088 0209 09       		.uleb128 0x9
 1089 020a C5060000 		.4byte	.LASF42
 1090 020e 07       		.byte	0x7
 1091 020f 2901     		.2byte	0x129
 1092 0211 30010000 		.4byte	0x130
 1093 0215 34       		.byte	0x34
 1094 0216 09       		.uleb128 0x9
 1095 0217 3F060000 		.4byte	.LASF43
 1096 021b 07       		.byte	0x7
 1097 021c 3001     		.2byte	0x130
 1098 021e 7D090000 		.4byte	0x97d
 1099 0222 38       		.byte	0x38
 1100 0223 09       		.uleb128 0x9
 1101 0224 CE070000 		.4byte	.LASF44
 1102 0228 07       		.byte	0x7
 1103 0229 3401     		.2byte	0x134
 1104 022b 1A010000 		.4byte	0x11a
 1105 022f 3C       		.byte	0x3c
 1106 0230 09       		.uleb128 0x9
 1107 0231 FC020000 		.4byte	.LASF45
 1108 0235 07       		.byte	0x7
 1109 0236 3A01     		.2byte	0x13a
 1110 0238 15030000 		.4byte	0x315
 1111 023c 40       		.byte	0x40
 1112 023d 00       		.byte	0
 1113 023e 03       		.uleb128 0x3
 1114 023f 8C040000 		.4byte	.LASF46
 1115 0243 06       		.byte	0x6
 1116 0244 44       		.byte	0x44
 1117 0245 49020000 		.4byte	0x249
 1118 0249 06       		.uleb128 0x6
 1119 024a ED060000 		.4byte	.LASF48
 1120 024e 04       		.byte	0x4
 1121 024f 07       		.byte	0x7
 1122 0250 AC       		.byte	0xac
 1123 0251 62020000 		.4byte	0x262
 1124 0255 07       		.uleb128 0x7
 1125 0256 0A050000 		.4byte	.LASF29
 1126 025a 07       		.byte	0x7
 1127 025b AD       		.byte	0xad
ARM GAS  /tmp/ccDr56ja.s 			page 21


 1128 025c FC080000 		.4byte	0x8fc
 1129 0260 00       		.byte	0
 1130 0261 00       		.byte	0
 1131 0262 03       		.uleb128 0x3
 1132 0263 76080000 		.4byte	.LASF49
 1133 0267 06       		.byte	0x6
 1134 0268 4B       		.byte	0x4b
 1135 0269 6D020000 		.4byte	0x26d
 1136 026d 06       		.uleb128 0x6
 1137 026e 64000000 		.4byte	.LASF50
 1138 0272 08       		.byte	0x8
 1139 0273 07       		.byte	0x7
 1140 0274 B3       		.byte	0xb3
 1141 0275 92020000 		.4byte	0x292
 1142 0279 07       		.uleb128 0x7
 1143 027a 0A050000 		.4byte	.LASF29
 1144 027e 07       		.byte	0x7
 1145 027f B4       		.byte	0xb4
 1146 0280 FC080000 		.4byte	0x8fc
 1147 0284 00       		.byte	0
 1148 0285 07       		.uleb128 0x7
 1149 0286 AB050000 		.4byte	.LASF30
 1150 028a 07       		.byte	0x7
 1151 028b B5       		.byte	0xb5
 1152 028c FC080000 		.4byte	0x8fc
 1153 0290 04       		.byte	0x4
 1154 0291 00       		.byte	0
 1155 0292 03       		.uleb128 0x3
 1156 0293 08000000 		.4byte	.LASF51
 1157 0297 06       		.byte	0x6
 1158 0298 52       		.byte	0x52
 1159 0299 9D020000 		.4byte	0x29d
 1160 029d 0A       		.uleb128 0xa
 1161 029e 38040000 		.4byte	.LASF52
 1162 02a2 1C       		.byte	0x1c
 1163 02a3 07       		.byte	0x7
 1164 02a4 7201     		.2byte	0x172
 1165 02a6 F9020000 		.4byte	0x2f9
 1166 02aa 09       		.uleb128 0x9
 1167 02ab E5060000 		.4byte	.LASF53
 1168 02af 07       		.byte	0x7
 1169 02b0 7301     		.2byte	0x173
 1170 02b2 62020000 		.4byte	0x262
 1171 02b6 00       		.byte	0
 1172 02b7 09       		.uleb128 0x9
 1173 02b8 7C060000 		.4byte	.LASF54
 1174 02bc 07       		.byte	0x7
 1175 02bd 7401     		.2byte	0x174
 1176 02bf 1A010000 		.4byte	0x11a
 1177 02c3 08       		.byte	0x8
 1178 02c4 09       		.uleb128 0x9
 1179 02c5 25050000 		.4byte	.LASF55
 1180 02c9 07       		.byte	0x7
 1181 02ca 7601     		.2byte	0x176
 1182 02cc 5A060000 		.4byte	0x65a
 1183 02d0 0C       		.byte	0xc
 1184 02d1 09       		.uleb128 0x9
ARM GAS  /tmp/ccDr56ja.s 			page 22


 1185 02d2 F4020000 		.4byte	.LASF56
 1186 02d6 07       		.byte	0x7
 1187 02d7 7901     		.2byte	0x179
 1188 02d9 FC080000 		.4byte	0x8fc
 1189 02dd 10       		.byte	0x10
 1190 02de 09       		.uleb128 0x9
 1191 02df 58050000 		.4byte	.LASF57
 1192 02e3 07       		.byte	0x7
 1193 02e4 7A01     		.2byte	0x17a
 1194 02e6 FC080000 		.4byte	0x8fc
 1195 02ea 14       		.byte	0x14
 1196 02eb 09       		.uleb128 0x9
 1197 02ec 4E050000 		.4byte	.LASF58
 1198 02f0 07       		.byte	0x7
 1199 02f1 7D01     		.2byte	0x17d
 1200 02f3 FC080000 		.4byte	0x8fc
 1201 02f7 18       		.byte	0x18
 1202 02f8 00       		.byte	0
 1203 02f9 03       		.uleb128 0x3
 1204 02fa D9070000 		.4byte	.LASF59
 1205 02fe 06       		.byte	0x6
 1206 02ff 57       		.byte	0x57
 1207 0300 04030000 		.4byte	0x304
 1208 0304 0B       		.uleb128 0xb
 1209 0305 04       		.byte	0x4
 1210 0306 0A030000 		.4byte	0x30a
 1211 030a 0C       		.uleb128 0xc
 1212 030b 15030000 		.4byte	0x315
 1213 030f 0D       		.uleb128 0xd
 1214 0310 15030000 		.4byte	0x315
 1215 0314 00       		.byte	0
 1216 0315 0E       		.uleb128 0xe
 1217 0316 04       		.byte	0x4
 1218 0317 03       		.uleb128 0x3
 1219 0318 9B050000 		.4byte	.LASF60
 1220 031c 06       		.byte	0x6
 1221 031d 5C       		.byte	0x5c
 1222 031e 22030000 		.4byte	0x322
 1223 0322 0A       		.uleb128 0xa
 1224 0323 3D080000 		.4byte	.LASF61
 1225 0327 14       		.byte	0x14
 1226 0328 07       		.byte	0x7
 1227 0329 4D01     		.2byte	0x14d
 1228 032b 71030000 		.4byte	0x371
 1229 032f 09       		.uleb128 0x9
 1230 0330 5A030000 		.4byte	.LASF62
 1231 0334 07       		.byte	0x7
 1232 0335 4E01     		.2byte	0x14e
 1233 0337 83090000 		.4byte	0x983
 1234 033b 00       		.byte	0
 1235 033c 09       		.uleb128 0x9
 1236 033d 0D030000 		.4byte	.LASF63
 1237 0341 07       		.byte	0x7
 1238 0342 4F01     		.2byte	0x14f
 1239 0344 83090000 		.4byte	0x983
 1240 0348 04       		.byte	0x4
 1241 0349 09       		.uleb128 0x9
ARM GAS  /tmp/ccDr56ja.s 			page 23


 1242 034a 82030000 		.4byte	.LASF64
 1243 034e 07       		.byte	0x7
 1244 034f 5001     		.2byte	0x150
 1245 0351 3B010000 		.4byte	0x13b
 1246 0355 08       		.byte	0x8
 1247 0356 09       		.uleb128 0x9
 1248 0357 66090000 		.4byte	.LASF65
 1249 035b 07       		.byte	0x7
 1250 035c 5101     		.2byte	0x151
 1251 035e F9020000 		.4byte	0x2f9
 1252 0362 0C       		.byte	0xc
 1253 0363 09       		.uleb128 0x9
 1254 0364 66080000 		.4byte	.LASF66
 1255 0368 07       		.byte	0x7
 1256 0369 5301     		.2byte	0x153
 1257 036b 15030000 		.4byte	0x315
 1258 036f 10       		.byte	0x10
 1259 0370 00       		.byte	0
 1260 0371 03       		.uleb128 0x3
 1261 0372 EF000000 		.4byte	.LASF67
 1262 0376 06       		.byte	0x6
 1263 0377 61       		.byte	0x61
 1264 0378 7C030000 		.4byte	0x37c
 1265 037c 0A       		.uleb128 0xa
 1266 037d EA040000 		.4byte	.LASF68
 1267 0381 10       		.byte	0x10
 1268 0382 07       		.byte	0x7
 1269 0383 5D01     		.2byte	0x15d
 1270 0385 BE030000 		.4byte	0x3be
 1271 0389 09       		.uleb128 0x9
 1272 038a 5A030000 		.4byte	.LASF62
 1273 038e 07       		.byte	0x7
 1274 038f 5E01     		.2byte	0x15e
 1275 0391 83090000 		.4byte	0x983
 1276 0395 00       		.byte	0
 1277 0396 09       		.uleb128 0x9
 1278 0397 0D030000 		.4byte	.LASF63
 1279 039b 07       		.byte	0x7
 1280 039c 6001     		.2byte	0x160
 1281 039e 83090000 		.4byte	0x983
 1282 03a2 04       		.byte	0x4
 1283 03a3 09       		.uleb128 0x9
 1284 03a4 82030000 		.4byte	.LASF64
 1285 03a8 07       		.byte	0x7
 1286 03a9 6201     		.2byte	0x162
 1287 03ab 3B010000 		.4byte	0x13b
 1288 03af 08       		.byte	0x8
 1289 03b0 09       		.uleb128 0x9
 1290 03b1 11050000 		.4byte	.LASF69
 1291 03b5 07       		.byte	0x7
 1292 03b6 6A01     		.2byte	0x16a
 1293 03b8 3B010000 		.4byte	0x13b
 1294 03bc 0C       		.byte	0xc
 1295 03bd 00       		.byte	0
 1296 03be 03       		.uleb128 0x3
 1297 03bf 75000000 		.4byte	.LASF70
 1298 03c3 06       		.byte	0x6
ARM GAS  /tmp/ccDr56ja.s 			page 24


 1299 03c4 66       		.byte	0x66
 1300 03c5 C9030000 		.4byte	0x3c9
 1301 03c9 0A       		.uleb128 0xa
 1302 03ca F4050000 		.4byte	.LASF71
 1303 03ce 04       		.byte	0x4
 1304 03cf 07       		.byte	0x7
 1305 03d0 8401     		.2byte	0x184
 1306 03d2 E4030000 		.4byte	0x3e4
 1307 03d6 09       		.uleb128 0x9
 1308 03d7 03080000 		.4byte	.LASF72
 1309 03db 07       		.byte	0x7
 1310 03dc 8C01     		.2byte	0x18c
 1311 03de 89090000 		.4byte	0x989
 1312 03e2 00       		.byte	0
 1313 03e3 00       		.byte	0
 1314 03e4 03       		.uleb128 0x3
 1315 03e5 0A040000 		.4byte	.LASF73
 1316 03e9 06       		.byte	0x6
 1317 03ea 6B       		.byte	0x6b
 1318 03eb EF030000 		.4byte	0x3ef
 1319 03ef 0F       		.uleb128 0xf
 1320 03f0 75010000 		.4byte	.LASF74
 1321 03f4 D801     		.2byte	0x1d8
 1322 03f6 07       		.byte	0x7
 1323 03f7 A401     		.2byte	0x1a4
 1324 03f9 4B040000 		.4byte	0x44b
 1325 03fd 09       		.uleb128 0x9
 1326 03fe B1080000 		.4byte	.LASF75
 1327 0402 07       		.byte	0x7
 1328 0403 A801     		.2byte	0x1a8
 1329 0405 92020000 		.4byte	0x292
 1330 0409 00       		.byte	0
 1331 040a 09       		.uleb128 0x9
 1332 040b 15030000 		.4byte	.LASF76
 1333 040f 07       		.byte	0x7
 1334 0410 AC01     		.2byte	0x1ac
 1335 0412 71030000 		.4byte	0x371
 1336 0416 1C       		.byte	0x1c
 1337 0417 08       		.uleb128 0x8
 1338 0418 64626700 		.ascii	"dbg\000"
 1339 041c 07       		.byte	0x7
 1340 041d B001     		.2byte	0x1b0
 1341 041f BE030000 		.4byte	0x3be
 1342 0423 2C       		.byte	0x2c
 1343 0424 09       		.uleb128 0x9
 1344 0425 9B060000 		.4byte	.LASF77
 1345 0429 07       		.byte	0x7
 1346 042a B401     		.2byte	0x1b4
 1347 042c 46010000 		.4byte	0x146
 1348 0430 30       		.byte	0x30
 1349 0431 08       		.uleb128 0x8
 1350 0432 746D00   		.ascii	"tm\000"
 1351 0435 07       		.byte	0x7
 1352 0436 B901     		.2byte	0x1b9
 1353 0438 F1080000 		.4byte	0x8f1
 1354 043c 74       		.byte	0x74
 1355 043d 09       		.uleb128 0x9
ARM GAS  /tmp/ccDr56ja.s 			page 25


 1356 043e 30030000 		.4byte	.LASF78
 1357 0442 07       		.byte	0x7
 1358 0443 C501     		.2byte	0x1c5
 1359 0445 8E090000 		.4byte	0x98e
 1360 0449 78       		.byte	0x78
 1361 044a 00       		.byte	0
 1362 044b 04       		.uleb128 0x4
 1363 044c 04       		.byte	0x4
 1364 044d 07       		.byte	0x7
 1365 044e CE040000 		.4byte	.LASF79
 1366 0452 10       		.uleb128 0x10
 1367 0453 CE000000 		.4byte	0xce
 1368 0457 62040000 		.4byte	0x462
 1369 045b 11       		.uleb128 0x11
 1370 045c 4B040000 		.4byte	0x44b
 1371 0460 01       		.byte	0x1
 1372 0461 00       		.byte	0
 1373 0462 10       		.uleb128 0x10
 1374 0463 CE000000 		.4byte	0xce
 1375 0467 72040000 		.4byte	0x472
 1376 046b 11       		.uleb128 0x11
 1377 046c 4B040000 		.4byte	0x44b
 1378 0470 03       		.byte	0x3
 1379 0471 00       		.byte	0
 1380 0472 12       		.uleb128 0x12
 1381 0473 38       		.byte	0x38
 1382 0474 08       		.byte	0x8
 1383 0475 4001     		.2byte	0x140
 1384 0477 30050000 		.4byte	0x530
 1385 047b 08       		.uleb128 0x8
 1386 047c 435200   		.ascii	"CR\000"
 1387 047f 08       		.byte	0x8
 1388 0480 4201     		.2byte	0x142
 1389 0482 E9000000 		.4byte	0xe9
 1390 0486 00       		.byte	0
 1391 0487 09       		.uleb128 0x9
 1392 0488 9E080000 		.4byte	.LASF80
 1393 048c 08       		.byte	0x8
 1394 048d 4301     		.2byte	0x143
 1395 048f E9000000 		.4byte	0xe9
 1396 0493 04       		.byte	0x4
 1397 0494 09       		.uleb128 0x9
 1398 0495 D5060000 		.4byte	.LASF81
 1399 0499 08       		.byte	0x8
 1400 049a 4401     		.2byte	0x144
 1401 049c E9000000 		.4byte	0xe9
 1402 04a0 08       		.byte	0x8
 1403 04a1 09       		.uleb128 0x9
 1404 04a2 FB070000 		.4byte	.LASF82
 1405 04a6 08       		.byte	0x8
 1406 04a7 4501     		.2byte	0x145
 1407 04a9 E9000000 		.4byte	0xe9
 1408 04ad 0C       		.byte	0xc
 1409 04ae 09       		.uleb128 0x9
 1410 04af BB000000 		.4byte	.LASF83
 1411 04b3 08       		.byte	0x8
 1412 04b4 4601     		.2byte	0x146
ARM GAS  /tmp/ccDr56ja.s 			page 26


 1413 04b6 E9000000 		.4byte	0xe9
 1414 04ba 10       		.byte	0x10
 1415 04bb 09       		.uleb128 0x9
 1416 04bc DD060000 		.4byte	.LASF84
 1417 04c0 08       		.byte	0x8
 1418 04c1 4701     		.2byte	0x147
 1419 04c3 E9000000 		.4byte	0xe9
 1420 04c7 14       		.byte	0x14
 1421 04c8 09       		.uleb128 0x9
 1422 04c9 00090000 		.4byte	.LASF85
 1423 04cd 08       		.byte	0x8
 1424 04ce 4801     		.2byte	0x148
 1425 04d0 E9000000 		.4byte	0xe9
 1426 04d4 18       		.byte	0x18
 1427 04d5 09       		.uleb128 0x9
 1428 04d6 C2000000 		.4byte	.LASF86
 1429 04da 08       		.byte	0x8
 1430 04db 4901     		.2byte	0x149
 1431 04dd E9000000 		.4byte	0xe9
 1432 04e1 1C       		.byte	0x1c
 1433 04e2 09       		.uleb128 0x9
 1434 04e3 67070000 		.4byte	.LASF87
 1435 04e7 08       		.byte	0x8
 1436 04e8 4A01     		.2byte	0x14a
 1437 04ea E9000000 		.4byte	0xe9
 1438 04ee 20       		.byte	0x20
 1439 04ef 09       		.uleb128 0x9
 1440 04f0 08090000 		.4byte	.LASF88
 1441 04f4 08       		.byte	0x8
 1442 04f5 4B01     		.2byte	0x14b
 1443 04f7 E9000000 		.4byte	0xe9
 1444 04fb 24       		.byte	0x24
 1445 04fc 09       		.uleb128 0x9
 1446 04fd FD060000 		.4byte	.LASF89
 1447 0501 08       		.byte	0x8
 1448 0502 4C01     		.2byte	0x14c
 1449 0504 E9000000 		.4byte	0xe9
 1450 0508 28       		.byte	0x28
 1451 0509 09       		.uleb128 0x9
 1452 050a 79050000 		.4byte	.LASF90
 1453 050e 08       		.byte	0x8
 1454 050f 4D01     		.2byte	0x14d
 1455 0511 E9000000 		.4byte	0xe9
 1456 0515 2C       		.byte	0x2c
 1457 0516 09       		.uleb128 0x9
 1458 0517 7E050000 		.4byte	.LASF91
 1459 051b 08       		.byte	0x8
 1460 051c 4E01     		.2byte	0x14e
 1461 051e E9000000 		.4byte	0xe9
 1462 0522 30       		.byte	0x30
 1463 0523 08       		.uleb128 0x8
 1464 0524 535200   		.ascii	"SR\000"
 1465 0527 08       		.byte	0x8
 1466 0528 4F01     		.2byte	0x14f
 1467 052a E9000000 		.4byte	0xe9
 1468 052e 34       		.byte	0x34
 1469 052f 00       		.byte	0
ARM GAS  /tmp/ccDr56ja.s 			page 27


 1470 0530 13       		.uleb128 0x13
 1471 0531 86080000 		.4byte	.LASF92
 1472 0535 08       		.byte	0x8
 1473 0536 5001     		.2byte	0x150
 1474 0538 72040000 		.4byte	0x472
 1475 053c 12       		.uleb128 0x12
 1476 053d 10       		.byte	0x10
 1477 053e 08       		.byte	0x8
 1478 053f 6201     		.2byte	0x162
 1479 0541 7A050000 		.4byte	0x57a
 1480 0545 08       		.uleb128 0x8
 1481 0546 43435200 		.ascii	"CCR\000"
 1482 054a 08       		.byte	0x8
 1483 054b 6401     		.2byte	0x164
 1484 054d E9000000 		.4byte	0xe9
 1485 0551 00       		.byte	0
 1486 0552 09       		.uleb128 0x9
 1487 0553 A6080000 		.4byte	.LASF93
 1488 0557 08       		.byte	0x8
 1489 0558 6501     		.2byte	0x165
 1490 055a E9000000 		.4byte	0xe9
 1491 055e 04       		.byte	0x4
 1492 055f 09       		.uleb128 0x9
 1493 0560 7D030000 		.4byte	.LASF94
 1494 0564 08       		.byte	0x8
 1495 0565 6601     		.2byte	0x166
 1496 0567 E9000000 		.4byte	0xe9
 1497 056b 08       		.byte	0x8
 1498 056c 09       		.uleb128 0x9
 1499 056d 73040000 		.4byte	.LASF95
 1500 0571 08       		.byte	0x8
 1501 0572 6701     		.2byte	0x167
 1502 0574 E9000000 		.4byte	0xe9
 1503 0578 0C       		.byte	0xc
 1504 0579 00       		.byte	0
 1505 057a 13       		.uleb128 0x13
 1506 057b C6030000 		.4byte	.LASF96
 1507 057f 08       		.byte	0x8
 1508 0580 6801     		.2byte	0x168
 1509 0582 3C050000 		.4byte	0x53c
 1510 0586 12       		.uleb128 0x12
 1511 0587 34       		.byte	0x34
 1512 0588 08       		.byte	0x8
 1513 0589 FC01     		.2byte	0x1fc
 1514 058b 38060000 		.4byte	0x638
 1515 058f 08       		.uleb128 0x8
 1516 0590 435200   		.ascii	"CR\000"
 1517 0593 08       		.byte	0x8
 1518 0594 FE01     		.2byte	0x1fe
 1519 0596 E9000000 		.4byte	0xe9
 1520 059a 00       		.byte	0
 1521 059b 09       		.uleb128 0x9
 1522 059c F3080000 		.4byte	.LASF97
 1523 05a0 08       		.byte	0x8
 1524 05a1 FF01     		.2byte	0x1ff
 1525 05a3 E9000000 		.4byte	0xe9
 1526 05a7 04       		.byte	0x4
ARM GAS  /tmp/ccDr56ja.s 			page 28


 1527 05a8 08       		.uleb128 0x8
 1528 05a9 43495200 		.ascii	"CIR\000"
 1529 05ad 08       		.byte	0x8
 1530 05ae 0002     		.2byte	0x200
 1531 05b0 E9000000 		.4byte	0xe9
 1532 05b4 08       		.byte	0x8
 1533 05b5 09       		.uleb128 0x9
 1534 05b6 90010000 		.4byte	.LASF98
 1535 05ba 08       		.byte	0x8
 1536 05bb 0102     		.2byte	0x201
 1537 05bd E9000000 		.4byte	0xe9
 1538 05c1 0C       		.byte	0xc
 1539 05c2 09       		.uleb128 0x9
 1540 05c3 83040000 		.4byte	.LASF99
 1541 05c7 08       		.byte	0x8
 1542 05c8 0202     		.2byte	0x202
 1543 05ca E9000000 		.4byte	0xe9
 1544 05ce 10       		.byte	0x10
 1545 05cf 09       		.uleb128 0x9
 1546 05d0 6E090000 		.4byte	.LASF100
 1547 05d4 08       		.byte	0x8
 1548 05d5 0302     		.2byte	0x203
 1549 05d7 E9000000 		.4byte	0xe9
 1550 05db 14       		.byte	0x14
 1551 05dc 09       		.uleb128 0x9
 1552 05dd A6060000 		.4byte	.LASF101
 1553 05e1 08       		.byte	0x8
 1554 05e2 0402     		.2byte	0x204
 1555 05e4 E9000000 		.4byte	0xe9
 1556 05e8 18       		.byte	0x18
 1557 05e9 09       		.uleb128 0x9
 1558 05ea 14080000 		.4byte	.LASF102
 1559 05ee 08       		.byte	0x8
 1560 05ef 0502     		.2byte	0x205
 1561 05f1 E9000000 		.4byte	0xe9
 1562 05f5 1C       		.byte	0x1c
 1563 05f6 09       		.uleb128 0x9
 1564 05f7 AC080000 		.4byte	.LASF103
 1565 05fb 08       		.byte	0x8
 1566 05fc 0602     		.2byte	0x206
 1567 05fe E9000000 		.4byte	0xe9
 1568 0602 20       		.byte	0x20
 1569 0603 08       		.uleb128 0x8
 1570 0604 43535200 		.ascii	"CSR\000"
 1571 0608 08       		.byte	0x8
 1572 0609 0702     		.2byte	0x207
 1573 060b E9000000 		.4byte	0xe9
 1574 060f 24       		.byte	0x24
 1575 0610 09       		.uleb128 0x9
 1576 0611 46050000 		.4byte	.LASF104
 1577 0615 08       		.byte	0x8
 1578 0616 0802     		.2byte	0x208
 1579 0618 E9000000 		.4byte	0xe9
 1580 061c 28       		.byte	0x28
 1581 061d 09       		.uleb128 0x9
 1582 061e B7080000 		.4byte	.LASF105
 1583 0622 08       		.byte	0x8
ARM GAS  /tmp/ccDr56ja.s 			page 29


 1584 0623 0902     		.2byte	0x209
 1585 0625 E9000000 		.4byte	0xe9
 1586 0629 2C       		.byte	0x2c
 1587 062a 09       		.uleb128 0x9
 1588 062b BD080000 		.4byte	.LASF106
 1589 062f 08       		.byte	0x8
 1590 0630 0A02     		.2byte	0x20a
 1591 0632 E9000000 		.4byte	0xe9
 1592 0636 30       		.byte	0x30
 1593 0637 00       		.byte	0
 1594 0638 13       		.uleb128 0x13
 1595 0639 96030000 		.4byte	.LASF107
 1596 063d 08       		.byte	0x8
 1597 063e 0B02     		.2byte	0x20b
 1598 0640 86050000 		.4byte	0x586
 1599 0644 03       		.uleb128 0x3
 1600 0645 04030000 		.4byte	.LASF108
 1601 0649 09       		.byte	0x9
 1602 064a 85       		.byte	0x85
 1603 064b 15030000 		.4byte	0x315
 1604 064f 03       		.uleb128 0x3
 1605 0650 78040000 		.4byte	.LASF109
 1606 0654 09       		.byte	0x9
 1607 0655 8D       		.byte	0x8d
 1608 0656 D9000000 		.4byte	0xd9
 1609 065a 06       		.uleb128 0x6
 1610 065b 35080000 		.4byte	.LASF110
 1611 065f 04       		.byte	0x4
 1612 0660 09       		.byte	0x9
 1613 0661 A9       		.byte	0xa9
 1614 0662 73060000 		.4byte	0x673
 1615 0666 14       		.uleb128 0x14
 1616 0667 72313300 		.ascii	"r13\000"
 1617 066b 09       		.byte	0x9
 1618 066c AA       		.byte	0xaa
 1619 066d B4070000 		.4byte	0x7b4
 1620 0671 00       		.byte	0
 1621 0672 00       		.byte	0
 1622 0673 06       		.uleb128 0x6
 1623 0674 58000000 		.4byte	.LASF111
 1624 0678 64       		.byte	0x64
 1625 0679 0A       		.byte	0xa
 1626 067a F4       		.byte	0xf4
 1627 067b B4070000 		.4byte	0x7b4
 1628 067f 14       		.uleb128 0x14
 1629 0680 73313600 		.ascii	"s16\000"
 1630 0684 0A       		.byte	0xa
 1631 0685 F6       		.byte	0xf6
 1632 0686 44060000 		.4byte	0x644
 1633 068a 00       		.byte	0
 1634 068b 14       		.uleb128 0x14
 1635 068c 73313700 		.ascii	"s17\000"
 1636 0690 0A       		.byte	0xa
 1637 0691 F7       		.byte	0xf7
 1638 0692 44060000 		.4byte	0x644
 1639 0696 04       		.byte	0x4
 1640 0697 14       		.uleb128 0x14
ARM GAS  /tmp/ccDr56ja.s 			page 30


 1641 0698 73313800 		.ascii	"s18\000"
 1642 069c 0A       		.byte	0xa
 1643 069d F8       		.byte	0xf8
 1644 069e 44060000 		.4byte	0x644
 1645 06a2 08       		.byte	0x8
 1646 06a3 14       		.uleb128 0x14
 1647 06a4 73313900 		.ascii	"s19\000"
 1648 06a8 0A       		.byte	0xa
 1649 06a9 F9       		.byte	0xf9
 1650 06aa 44060000 		.4byte	0x644
 1651 06ae 0C       		.byte	0xc
 1652 06af 14       		.uleb128 0x14
 1653 06b0 73323000 		.ascii	"s20\000"
 1654 06b4 0A       		.byte	0xa
 1655 06b5 FA       		.byte	0xfa
 1656 06b6 44060000 		.4byte	0x644
 1657 06ba 10       		.byte	0x10
 1658 06bb 14       		.uleb128 0x14
 1659 06bc 73323100 		.ascii	"s21\000"
 1660 06c0 0A       		.byte	0xa
 1661 06c1 FB       		.byte	0xfb
 1662 06c2 44060000 		.4byte	0x644
 1663 06c6 14       		.byte	0x14
 1664 06c7 14       		.uleb128 0x14
 1665 06c8 73323200 		.ascii	"s22\000"
 1666 06cc 0A       		.byte	0xa
 1667 06cd FC       		.byte	0xfc
 1668 06ce 44060000 		.4byte	0x644
 1669 06d2 18       		.byte	0x18
 1670 06d3 14       		.uleb128 0x14
 1671 06d4 73323300 		.ascii	"s23\000"
 1672 06d8 0A       		.byte	0xa
 1673 06d9 FD       		.byte	0xfd
 1674 06da 44060000 		.4byte	0x644
 1675 06de 1C       		.byte	0x1c
 1676 06df 14       		.uleb128 0x14
 1677 06e0 73323400 		.ascii	"s24\000"
 1678 06e4 0A       		.byte	0xa
 1679 06e5 FE       		.byte	0xfe
 1680 06e6 44060000 		.4byte	0x644
 1681 06ea 20       		.byte	0x20
 1682 06eb 14       		.uleb128 0x14
 1683 06ec 73323500 		.ascii	"s25\000"
 1684 06f0 0A       		.byte	0xa
 1685 06f1 FF       		.byte	0xff
 1686 06f2 44060000 		.4byte	0x644
 1687 06f6 24       		.byte	0x24
 1688 06f7 08       		.uleb128 0x8
 1689 06f8 73323600 		.ascii	"s26\000"
 1690 06fc 0A       		.byte	0xa
 1691 06fd 0001     		.2byte	0x100
 1692 06ff 44060000 		.4byte	0x644
 1693 0703 28       		.byte	0x28
 1694 0704 08       		.uleb128 0x8
 1695 0705 73323700 		.ascii	"s27\000"
 1696 0709 0A       		.byte	0xa
 1697 070a 0101     		.2byte	0x101
ARM GAS  /tmp/ccDr56ja.s 			page 31


 1698 070c 44060000 		.4byte	0x644
 1699 0710 2C       		.byte	0x2c
 1700 0711 08       		.uleb128 0x8
 1701 0712 73323800 		.ascii	"s28\000"
 1702 0716 0A       		.byte	0xa
 1703 0717 0201     		.2byte	0x102
 1704 0719 44060000 		.4byte	0x644
 1705 071d 30       		.byte	0x30
 1706 071e 08       		.uleb128 0x8
 1707 071f 73323900 		.ascii	"s29\000"
 1708 0723 0A       		.byte	0xa
 1709 0724 0301     		.2byte	0x103
 1710 0726 44060000 		.4byte	0x644
 1711 072a 34       		.byte	0x34
 1712 072b 08       		.uleb128 0x8
 1713 072c 73333000 		.ascii	"s30\000"
 1714 0730 0A       		.byte	0xa
 1715 0731 0401     		.2byte	0x104
 1716 0733 44060000 		.4byte	0x644
 1717 0737 38       		.byte	0x38
 1718 0738 08       		.uleb128 0x8
 1719 0739 73333100 		.ascii	"s31\000"
 1720 073d 0A       		.byte	0xa
 1721 073e 0501     		.2byte	0x105
 1722 0740 44060000 		.4byte	0x644
 1723 0744 3C       		.byte	0x3c
 1724 0745 08       		.uleb128 0x8
 1725 0746 723400   		.ascii	"r4\000"
 1726 0749 0A       		.byte	0xa
 1727 074a 0701     		.2byte	0x107
 1728 074c 44060000 		.4byte	0x644
 1729 0750 40       		.byte	0x40
 1730 0751 08       		.uleb128 0x8
 1731 0752 723500   		.ascii	"r5\000"
 1732 0755 0A       		.byte	0xa
 1733 0756 0801     		.2byte	0x108
 1734 0758 44060000 		.4byte	0x644
 1735 075c 44       		.byte	0x44
 1736 075d 08       		.uleb128 0x8
 1737 075e 723600   		.ascii	"r6\000"
 1738 0761 0A       		.byte	0xa
 1739 0762 0901     		.2byte	0x109
 1740 0764 44060000 		.4byte	0x644
 1741 0768 48       		.byte	0x48
 1742 0769 08       		.uleb128 0x8
 1743 076a 723700   		.ascii	"r7\000"
 1744 076d 0A       		.byte	0xa
 1745 076e 0A01     		.2byte	0x10a
 1746 0770 44060000 		.4byte	0x644
 1747 0774 4C       		.byte	0x4c
 1748 0775 08       		.uleb128 0x8
 1749 0776 723800   		.ascii	"r8\000"
 1750 0779 0A       		.byte	0xa
 1751 077a 0B01     		.2byte	0x10b
 1752 077c 44060000 		.4byte	0x644
 1753 0780 50       		.byte	0x50
 1754 0781 08       		.uleb128 0x8
ARM GAS  /tmp/ccDr56ja.s 			page 32


 1755 0782 723900   		.ascii	"r9\000"
 1756 0785 0A       		.byte	0xa
 1757 0786 0C01     		.2byte	0x10c
 1758 0788 44060000 		.4byte	0x644
 1759 078c 54       		.byte	0x54
 1760 078d 08       		.uleb128 0x8
 1761 078e 72313000 		.ascii	"r10\000"
 1762 0792 0A       		.byte	0xa
 1763 0793 0D01     		.2byte	0x10d
 1764 0795 44060000 		.4byte	0x644
 1765 0799 58       		.byte	0x58
 1766 079a 08       		.uleb128 0x8
 1767 079b 72313100 		.ascii	"r11\000"
 1768 079f 0A       		.byte	0xa
 1769 07a0 0E01     		.2byte	0x10e
 1770 07a2 44060000 		.4byte	0x644
 1771 07a6 5C       		.byte	0x5c
 1772 07a7 08       		.uleb128 0x8
 1773 07a8 6C7200   		.ascii	"lr\000"
 1774 07ab 0A       		.byte	0xa
 1775 07ac 0F01     		.2byte	0x10f
 1776 07ae 44060000 		.4byte	0x644
 1777 07b2 60       		.byte	0x60
 1778 07b3 00       		.byte	0
 1779 07b4 0B       		.uleb128 0xb
 1780 07b5 04       		.byte	0x4
 1781 07b6 73060000 		.4byte	0x673
 1782 07ba 12       		.uleb128 0x12
 1783 07bb 60       		.byte	0x60
 1784 07bc 0B       		.byte	0xb
 1785 07bd 9E01     		.2byte	0x19e
 1786 07bf C6080000 		.4byte	0x8c6
 1787 07c3 08       		.uleb128 0x8
 1788 07c4 43523100 		.ascii	"CR1\000"
 1789 07c8 0B       		.byte	0xb
 1790 07c9 9F01     		.2byte	0x19f
 1791 07cb E9000000 		.4byte	0xe9
 1792 07cf 00       		.byte	0
 1793 07d0 08       		.uleb128 0x8
 1794 07d1 43523200 		.ascii	"CR2\000"
 1795 07d5 0B       		.byte	0xb
 1796 07d6 A001     		.2byte	0x1a0
 1797 07d8 E9000000 		.4byte	0xe9
 1798 07dc 04       		.byte	0x4
 1799 07dd 09       		.uleb128 0x9
 1800 07de F9030000 		.4byte	.LASF112
 1801 07e2 0B       		.byte	0xb
 1802 07e3 A101     		.2byte	0x1a1
 1803 07e5 E9000000 		.4byte	0xe9
 1804 07e9 08       		.byte	0x8
 1805 07ea 09       		.uleb128 0x9
 1806 07eb 15000000 		.4byte	.LASF113
 1807 07ef 0B       		.byte	0xb
 1808 07f0 A201     		.2byte	0x1a2
 1809 07f2 E9000000 		.4byte	0xe9
 1810 07f6 0C       		.byte	0xc
 1811 07f7 08       		.uleb128 0x8
ARM GAS  /tmp/ccDr56ja.s 			page 33


 1812 07f8 535200   		.ascii	"SR\000"
 1813 07fb 0B       		.byte	0xb
 1814 07fc A301     		.2byte	0x1a3
 1815 07fe E9000000 		.4byte	0xe9
 1816 0802 10       		.byte	0x10
 1817 0803 08       		.uleb128 0x8
 1818 0804 45475200 		.ascii	"EGR\000"
 1819 0808 0B       		.byte	0xb
 1820 0809 A401     		.2byte	0x1a4
 1821 080b E9000000 		.4byte	0xe9
 1822 080f 14       		.byte	0x14
 1823 0810 09       		.uleb128 0x9
 1824 0811 28010000 		.4byte	.LASF114
 1825 0815 0B       		.byte	0xb
 1826 0816 A501     		.2byte	0x1a5
 1827 0818 E9000000 		.4byte	0xe9
 1828 081c 18       		.byte	0x18
 1829 081d 09       		.uleb128 0x9
 1830 081e 2E010000 		.4byte	.LASF115
 1831 0822 0B       		.byte	0xb
 1832 0823 A601     		.2byte	0x1a6
 1833 0825 E9000000 		.4byte	0xe9
 1834 0829 1C       		.byte	0x1c
 1835 082a 09       		.uleb128 0x9
 1836 082b 7D070000 		.4byte	.LASF116
 1837 082f 0B       		.byte	0xb
 1838 0830 A701     		.2byte	0x1a7
 1839 0832 E9000000 		.4byte	0xe9
 1840 0836 20       		.byte	0x20
 1841 0837 08       		.uleb128 0x8
 1842 0838 434E5400 		.ascii	"CNT\000"
 1843 083c 0B       		.byte	0xb
 1844 083d A801     		.2byte	0x1a8
 1845 083f E9000000 		.4byte	0xe9
 1846 0843 24       		.byte	0x24
 1847 0844 08       		.uleb128 0x8
 1848 0845 50534300 		.ascii	"PSC\000"
 1849 0849 0B       		.byte	0xb
 1850 084a A901     		.2byte	0x1a9
 1851 084c E9000000 		.4byte	0xe9
 1852 0850 28       		.byte	0x28
 1853 0851 08       		.uleb128 0x8
 1854 0852 41525200 		.ascii	"ARR\000"
 1855 0856 0B       		.byte	0xb
 1856 0857 AA01     		.2byte	0x1aa
 1857 0859 E9000000 		.4byte	0xe9
 1858 085d 2C       		.byte	0x2c
 1859 085e 08       		.uleb128 0x8
 1860 085f 52435200 		.ascii	"RCR\000"
 1861 0863 0B       		.byte	0xb
 1862 0864 AB01     		.2byte	0x1ab
 1863 0866 E9000000 		.4byte	0xe9
 1864 086a 30       		.byte	0x30
 1865 086b 08       		.uleb128 0x8
 1866 086c 43435200 		.ascii	"CCR\000"
 1867 0870 0B       		.byte	0xb
 1868 0871 AC01     		.2byte	0x1ac
ARM GAS  /tmp/ccDr56ja.s 			page 34


 1869 0873 C6080000 		.4byte	0x8c6
 1870 0877 34       		.byte	0x34
 1871 0878 09       		.uleb128 0x9
 1872 0879 12010000 		.4byte	.LASF117
 1873 087d 0B       		.byte	0xb
 1874 087e AD01     		.2byte	0x1ad
 1875 0880 E9000000 		.4byte	0xe9
 1876 0884 44       		.byte	0x44
 1877 0885 08       		.uleb128 0x8
 1878 0886 44435200 		.ascii	"DCR\000"
 1879 088a 0B       		.byte	0xb
 1880 088b AE01     		.2byte	0x1ae
 1881 088d E9000000 		.4byte	0xe9
 1882 0891 48       		.byte	0x48
 1883 0892 09       		.uleb128 0x9
 1884 0893 6F070000 		.4byte	.LASF118
 1885 0897 0B       		.byte	0xb
 1886 0898 AF01     		.2byte	0x1af
 1887 089a E9000000 		.4byte	0xe9
 1888 089e 4C       		.byte	0x4c
 1889 089f 08       		.uleb128 0x8
 1890 08a0 4F5200   		.ascii	"OR\000"
 1891 08a3 0B       		.byte	0xb
 1892 08a4 B001     		.2byte	0x1b0
 1893 08a6 E9000000 		.4byte	0xe9
 1894 08aa 50       		.byte	0x50
 1895 08ab 09       		.uleb128 0x9
 1896 08ac 34010000 		.4byte	.LASF119
 1897 08b0 0B       		.byte	0xb
 1898 08b1 B101     		.2byte	0x1b1
 1899 08b3 E9000000 		.4byte	0xe9
 1900 08b7 54       		.byte	0x54
 1901 08b8 09       		.uleb128 0x9
 1902 08b9 C0060000 		.4byte	.LASF120
 1903 08bd 0B       		.byte	0xb
 1904 08be B201     		.2byte	0x1b2
 1905 08c0 CB080000 		.4byte	0x8cb
 1906 08c4 58       		.byte	0x58
 1907 08c5 00       		.byte	0
 1908 08c6 05       		.uleb128 0x5
 1909 08c7 62040000 		.4byte	0x462
 1910 08cb 05       		.uleb128 0x5
 1911 08cc 52040000 		.4byte	0x452
 1912 08d0 13       		.uleb128 0x13
 1913 08d1 23040000 		.4byte	.LASF121
 1914 08d5 0B       		.byte	0xb
 1915 08d6 B301     		.2byte	0x1b3
 1916 08d8 BA070000 		.4byte	0x7ba
 1917 08dc 15       		.uleb128 0x15
 1918 08dd 04       		.byte	0x4
 1919 08de 0C       		.byte	0xc
 1920 08df 38       		.byte	0x38
 1921 08e0 F1080000 		.4byte	0x8f1
 1922 08e4 07       		.uleb128 0x7
 1923 08e5 0D080000 		.4byte	.LASF122
 1924 08e9 0C       		.byte	0xc
 1925 08ea 3C       		.byte	0x3c
ARM GAS  /tmp/ccDr56ja.s 			page 35


 1926 08eb EE000000 		.4byte	0xee
 1927 08ef 00       		.byte	0
 1928 08f0 00       		.byte	0
 1929 08f1 03       		.uleb128 0x3
 1930 08f2 35050000 		.4byte	.LASF123
 1931 08f6 0C       		.byte	0xc
 1932 08f7 3D       		.byte	0x3d
 1933 08f8 DC080000 		.4byte	0x8dc
 1934 08fc 0B       		.uleb128 0xb
 1935 08fd 04       		.byte	0x4
 1936 08fe 46010000 		.4byte	0x146
 1937 0902 16       		.uleb128 0x16
 1938 0903 04       		.byte	0x4
 1939 0904 07       		.byte	0x7
 1940 0905 F6       		.byte	0xf6
 1941 0906 3A090000 		.4byte	0x93a
 1942 090a 17       		.uleb128 0x17
 1943 090b 2A000000 		.4byte	.LASF124
 1944 090f 07       		.byte	0x7
 1945 0910 FD       		.byte	0xfd
 1946 0911 25010000 		.4byte	0x125
 1947 0915 18       		.uleb128 0x18
 1948 0916 C9000000 		.4byte	.LASF125
 1949 091a 07       		.byte	0x7
 1950 091b 0401     		.2byte	0x104
 1951 091d 25010000 		.4byte	0x125
 1952 0921 18       		.uleb128 0x18
 1953 0922 E5080000 		.4byte	.LASF126
 1954 0926 07       		.byte	0x7
 1955 0927 0B01     		.2byte	0x10b
 1956 0929 15030000 		.4byte	0x315
 1957 092d 18       		.uleb128 0x18
 1958 092e 83060000 		.4byte	.LASF127
 1959 0932 07       		.byte	0x7
 1960 0933 1201     		.2byte	0x112
 1961 0935 30010000 		.4byte	0x130
 1962 0939 00       		.byte	0
 1963 093a 0B       		.uleb128 0xb
 1964 093b 04       		.byte	0x4
 1965 093c 40090000 		.4byte	0x940
 1966 0940 19       		.uleb128 0x19
 1967 0941 45090000 		.4byte	0x945
 1968 0945 04       		.uleb128 0x4
 1969 0946 01       		.byte	0x1
 1970 0947 08       		.byte	0x8
 1971 0948 38070000 		.4byte	.LASF128
 1972 094c 06       		.uleb128 0x6
 1973 094d E1050000 		.4byte	.LASF129
 1974 0951 10       		.byte	0x10
 1975 0952 0D       		.byte	0xd
 1976 0953 39       		.byte	0x39
 1977 0954 7D090000 		.4byte	0x97d
 1978 0958 07       		.uleb128 0x7
 1979 0959 4E010000 		.4byte	.LASF130
 1980 095d 0D       		.byte	0xd
 1981 095e 3A       		.byte	0x3a
 1982 095f 62020000 		.4byte	0x262
ARM GAS  /tmp/ccDr56ja.s 			page 36


 1983 0963 00       		.byte	0
 1984 0964 07       		.uleb128 0x7
 1985 0965 46090000 		.4byte	.LASF131
 1986 0969 0D       		.byte	0xd
 1987 096a 3C       		.byte	0x3c
 1988 096b FC080000 		.4byte	0x8fc
 1989 096f 08       		.byte	0x8
 1990 0970 07       		.uleb128 0x7
 1991 0971 6D030000 		.4byte	.LASF132
 1992 0975 0D       		.byte	0xd
 1993 0976 3E       		.byte	0x3e
 1994 0977 B4090000 		.4byte	0x9b4
 1995 097b 0C       		.byte	0xc
 1996 097c 00       		.byte	0
 1997 097d 0B       		.uleb128 0xb
 1998 097e 04       		.byte	0x4
 1999 097f 4C090000 		.4byte	0x94c
 2000 0983 0B       		.uleb128 0xb
 2001 0984 04       		.byte	0x4
 2002 0985 17030000 		.4byte	0x317
 2003 0989 05       		.uleb128 0x5
 2004 098a 3A090000 		.4byte	0x93a
 2005 098e 10       		.uleb128 0x10
 2006 098f 4F060000 		.4byte	0x64f
 2007 0993 9E090000 		.4byte	0x99e
 2008 0997 11       		.uleb128 0x11
 2009 0998 4B040000 		.4byte	0x44b
 2010 099c 2B       		.byte	0x2b
 2011 099d 00       		.byte	0
 2012 099e 03       		.uleb128 0x3
 2013 099f D7040000 		.4byte	.LASF133
 2014 09a3 0E       		.byte	0xe
 2015 09a4 32       		.byte	0x32
 2016 09a5 FC080000 		.4byte	0x8fc
 2017 09a9 03       		.uleb128 0x3
 2018 09aa 3E090000 		.4byte	.LASF134
 2019 09ae 0D       		.byte	0xd
 2020 09af 34       		.byte	0x34
 2021 09b0 4C090000 		.4byte	0x94c
 2022 09b4 0B       		.uleb128 0xb
 2023 09b5 04       		.byte	0x4
 2024 09b6 A9090000 		.4byte	0x9a9
 2025 09ba 15       		.uleb128 0x15
 2026 09bb 0C       		.byte	0xc
 2027 09bc 0F       		.byte	0xf
 2028 09bd C1       		.byte	0xc1
 2029 09be FF090000 		.4byte	0x9ff
 2030 09c2 07       		.uleb128 0x7
 2031 09c3 AE060000 		.4byte	.LASF135
 2032 09c7 0F       		.byte	0xf
 2033 09c8 C2       		.byte	0xc2
 2034 09c9 FF090000 		.4byte	0x9ff
 2035 09cd 00       		.byte	0
 2036 09ce 07       		.uleb128 0x7
 2037 09cf D0060000 		.4byte	.LASF136
 2038 09d3 0F       		.byte	0xf
 2039 09d4 C3       		.byte	0xc3
ARM GAS  /tmp/ccDr56ja.s 			page 37


 2040 09d5 050A0000 		.4byte	0xa05
 2041 09d9 04       		.byte	0x4
 2042 09da 07       		.uleb128 0x7
 2043 09db DA030000 		.4byte	.LASF137
 2044 09df 0F       		.byte	0xf
 2045 09e0 C4       		.byte	0xc4
 2046 09e1 AD000000 		.4byte	0xad
 2047 09e5 08       		.byte	0x8
 2048 09e6 07       		.uleb128 0x7
 2049 09e7 5C080000 		.4byte	.LASF138
 2050 09eb 0F       		.byte	0xf
 2051 09ec C6       		.byte	0xc6
 2052 09ed AD000000 		.4byte	0xad
 2053 09f1 09       		.byte	0x9
 2054 09f2 07       		.uleb128 0x7
 2055 09f3 9D000000 		.4byte	.LASF139
 2056 09f7 0F       		.byte	0xf
 2057 09f8 C7       		.byte	0xc7
 2058 09f9 AD000000 		.4byte	0xad
 2059 09fd 0A       		.byte	0xa
 2060 09fe 00       		.byte	0
 2061 09ff 0B       		.uleb128 0xb
 2062 0a00 04       		.byte	0x4
 2063 0a01 7A050000 		.4byte	0x57a
 2064 0a05 0B       		.uleb128 0xb
 2065 0a06 04       		.byte	0x4
 2066 0a07 E9000000 		.4byte	0xe9
 2067 0a0b 03       		.uleb128 0x3
 2068 0a0c B2050000 		.4byte	.LASF140
 2069 0a10 0F       		.byte	0xf
 2070 0a11 C8       		.byte	0xc8
 2071 0a12 BA090000 		.4byte	0x9ba
 2072 0a16 03       		.uleb128 0x3
 2073 0a17 60010000 		.4byte	.LASF141
 2074 0a1b 0F       		.byte	0xf
 2075 0a1c D1       		.byte	0xd1
 2076 0a1d 210A0000 		.4byte	0xa21
 2077 0a21 0B       		.uleb128 0xb
 2078 0a22 04       		.byte	0x4
 2079 0a23 270A0000 		.4byte	0xa27
 2080 0a27 0C       		.uleb128 0xc
 2081 0a28 370A0000 		.4byte	0xa37
 2082 0a2c 0D       		.uleb128 0xd
 2083 0a2d 15030000 		.4byte	0x315
 2084 0a31 0D       		.uleb128 0xd
 2085 0a32 CE000000 		.4byte	0xce
 2086 0a36 00       		.byte	0
 2087 0a37 04       		.uleb128 0x4
 2088 0a38 01       		.byte	0x1
 2089 0a39 02       		.byte	0x2
 2090 0a3a 04060000 		.4byte	.LASF142
 2091 0a3e 0B       		.uleb128 0xb
 2092 0a3f 04       		.byte	0x4
 2093 0a40 440A0000 		.4byte	0xa44
 2094 0a44 19       		.uleb128 0x19
 2095 0a45 0B0A0000 		.4byte	0xa0b
 2096 0a49 0B       		.uleb128 0xb
ARM GAS  /tmp/ccDr56ja.s 			page 38


 2097 0a4a 04       		.byte	0x4
 2098 0a4b D0080000 		.4byte	0x8d0
 2099 0a4f 1A       		.uleb128 0x1a
 2100 0a50 01       		.byte	0x1
 2101 0a51 10       		.byte	0x10
 2102 0a52 4A       		.byte	0x4a
 2103 0a53 7C0A0000 		.4byte	0xa7c
 2104 0a57 1B       		.uleb128 0x1b
 2105 0a58 53060000 		.4byte	.LASF143
 2106 0a5c 00       		.sleb128 0
 2107 0a5d 1B       		.uleb128 0x1b
 2108 0a5e 21000000 		.4byte	.LASF144
 2109 0a62 01       		.sleb128 1
 2110 0a63 1B       		.uleb128 0x1b
 2111 0a64 69040000 		.4byte	.LASF145
 2112 0a68 02       		.sleb128 2
 2113 0a69 1B       		.uleb128 0x1b
 2114 0a6a 60050000 		.4byte	.LASF146
 2115 0a6e 03       		.sleb128 3
 2116 0a6f 1B       		.uleb128 0x1b
 2117 0a70 AC010000 		.4byte	.LASF147
 2118 0a74 04       		.sleb128 4
 2119 0a75 1B       		.uleb128 0x1b
 2120 0a76 A2010000 		.4byte	.LASF148
 2121 0a7a 05       		.sleb128 5
 2122 0a7b 00       		.byte	0
 2123 0a7c 03       		.uleb128 0x3
 2124 0a7d 90050000 		.4byte	.LASF149
 2125 0a81 10       		.byte	0x10
 2126 0a82 51       		.byte	0x51
 2127 0a83 4F0A0000 		.4byte	0xa4f
 2128 0a87 03       		.uleb128 0x3
 2129 0a88 B6060000 		.4byte	.LASF150
 2130 0a8c 11       		.byte	0x11
 2131 0a8d F9       		.byte	0xf9
 2132 0a8e 920A0000 		.4byte	0xa92
 2133 0a92 0A       		.uleb128 0xa
 2134 0a93 B6060000 		.4byte	.LASF150
 2135 0a97 40       		.byte	0x40
 2136 0a98 11       		.byte	0x11
 2137 0a99 3C01     		.2byte	0x13c
 2138 0a9b 490B0000 		.4byte	0xb49
 2139 0a9f 09       		.uleb128 0x9
 2140 0aa0 6F010000 		.4byte	.LASF151
 2141 0aa4 11       		.byte	0x11
 2142 0aa5 4001     		.2byte	0x140
 2143 0aa7 7C0A0000 		.4byte	0xa7c
 2144 0aab 00       		.byte	0
 2145 0aac 09       		.uleb128 0x9
 2146 0aad B7040000 		.4byte	.LASF152
 2147 0ab1 11       		.byte	0x11
 2148 0ab2 4401     		.2byte	0x144
 2149 0ab4 2B0C0000 		.4byte	0xc2b
 2150 0ab8 04       		.byte	0x4
 2151 0ab9 09       		.uleb128 0x9
 2152 0aba BC040000 		.4byte	.LASF153
 2153 0abe 11       		.byte	0x11
ARM GAS  /tmp/ccDr56ja.s 			page 39


 2154 0abf 4801     		.2byte	0x148
 2155 0ac1 360C0000 		.4byte	0xc36
 2156 0ac5 08       		.byte	0x8
 2157 0ac6 09       		.uleb128 0x9
 2158 0ac7 FE030000 		.4byte	.LASF154
 2159 0acb 11       		.byte	0x11
 2160 0acc 4C01     		.2byte	0x14c
 2161 0ace B8000000 		.4byte	0xb8
 2162 0ad2 0C       		.byte	0xc
 2163 0ad3 09       		.uleb128 0x9
 2164 0ad4 60070000 		.4byte	.LASF155
 2165 0ad8 11       		.byte	0x11
 2166 0ad9 5001     		.2byte	0x150
 2167 0adb 410C0000 		.4byte	0xc41
 2168 0adf 10       		.byte	0x10
 2169 0ae0 09       		.uleb128 0x9
 2170 0ae1 1C090000 		.4byte	.LASF156
 2171 0ae5 11       		.byte	0x11
 2172 0ae6 5501     		.2byte	0x155
 2173 0ae8 9E090000 		.4byte	0x99e
 2174 0aec 14       		.byte	0x14
 2175 0aed 09       		.uleb128 0x9
 2176 0aee E1050000 		.4byte	.LASF129
 2177 0af2 11       		.byte	0x11
 2178 0af3 5B01     		.2byte	0x15b
 2179 0af5 A9090000 		.4byte	0x9a9
 2180 0af9 18       		.byte	0x18
 2181 0afa 08       		.uleb128 0x8
 2182 0afb 64616300 		.ascii	"dac\000"
 2183 0aff 11       		.byte	0x11
 2184 0b00 6401     		.2byte	0x164
 2185 0b02 4C0C0000 		.4byte	0xc4c
 2186 0b06 28       		.byte	0x28
 2187 0b07 08       		.uleb128 0x8
 2188 0b08 74696D00 		.ascii	"tim\000"
 2189 0b0c 11       		.byte	0x11
 2190 0b0d 6801     		.2byte	0x168
 2191 0b0f 490A0000 		.4byte	0xa49
 2192 0b13 2C       		.byte	0x2c
 2193 0b14 09       		.uleb128 0x9
 2194 0b15 88010000 		.4byte	.LASF157
 2195 0b19 11       		.byte	0x11
 2196 0b1a 6C01     		.2byte	0x16c
 2197 0b1c CE000000 		.4byte	0xce
 2198 0b20 30       		.byte	0x30
 2199 0b21 08       		.uleb128 0x8
 2200 0b22 646D6100 		.ascii	"dma\000"
 2201 0b26 11       		.byte	0x11
 2202 0b27 7001     		.2byte	0x170
 2203 0b29 3E0A0000 		.4byte	0xa3e
 2204 0b2d 34       		.byte	0x34
 2205 0b2e 09       		.uleb128 0x9
 2206 0b2f DD080000 		.4byte	.LASF158
 2207 0b33 11       		.byte	0x11
 2208 0b34 7401     		.2byte	0x174
 2209 0b36 CE000000 		.4byte	0xce
 2210 0b3a 38       		.byte	0x38
ARM GAS  /tmp/ccDr56ja.s 			page 40


 2211 0b3b 09       		.uleb128 0x9
 2212 0b3c 10090000 		.4byte	.LASF159
 2213 0b40 11       		.byte	0x11
 2214 0b41 7801     		.2byte	0x178
 2215 0b43 CE000000 		.4byte	0xce
 2216 0b47 3C       		.byte	0x3c
 2217 0b48 00       		.byte	0
 2218 0b49 03       		.uleb128 0x3
 2219 0b4a CB080000 		.4byte	.LASF160
 2220 0b4e 11       		.byte	0x11
 2221 0b4f FE       		.byte	0xfe
 2222 0b50 B8000000 		.4byte	0xb8
 2223 0b54 13       		.uleb128 0x13
 2224 0b55 3F030000 		.4byte	.LASF161
 2225 0b59 11       		.byte	0x11
 2226 0b5a 0601     		.2byte	0x106
 2227 0b5c 600B0000 		.4byte	0xb60
 2228 0b60 0B       		.uleb128 0xb
 2229 0b61 04       		.byte	0x4
 2230 0b62 660B0000 		.4byte	0xb66
 2231 0b66 0C       		.uleb128 0xc
 2232 0b67 710B0000 		.4byte	0xb71
 2233 0b6b 0D       		.uleb128 0xd
 2234 0b6c 710B0000 		.4byte	0xb71
 2235 0b70 00       		.byte	0
 2236 0b71 0B       		.uleb128 0xb
 2237 0b72 04       		.byte	0x4
 2238 0b73 870A0000 		.4byte	0xa87
 2239 0b77 1C       		.uleb128 0x1c
 2240 0b78 01       		.byte	0x1
 2241 0b79 11       		.byte	0x11
 2242 0b7a 0801     		.2byte	0x108
 2243 0b7c A50B0000 		.4byte	0xba5
 2244 0b80 1B       		.uleb128 0x1b
 2245 0b81 5E060000 		.4byte	.LASF162
 2246 0b85 00       		.sleb128 0
 2247 0b86 1B       		.uleb128 0x1b
 2248 0b87 44000000 		.4byte	.LASF163
 2249 0b8b 01       		.sleb128 1
 2250 0b8c 1B       		.uleb128 0x1b
 2251 0b8d C5050000 		.4byte	.LASF164
 2252 0b91 02       		.sleb128 2
 2253 0b92 1B       		.uleb128 0x1b
 2254 0b93 AC030000 		.4byte	.LASF165
 2255 0b97 03       		.sleb128 3
 2256 0b98 1B       		.uleb128 0x1b
 2257 0b99 1C080000 		.4byte	.LASF166
 2258 0b9d 04       		.sleb128 4
 2259 0b9e 1B       		.uleb128 0x1b
 2260 0b9f 26060000 		.4byte	.LASF167
 2261 0ba3 05       		.sleb128 5
 2262 0ba4 00       		.byte	0
 2263 0ba5 13       		.uleb128 0x13
 2264 0ba6 83050000 		.4byte	.LASF168
 2265 0baa 11       		.byte	0x11
 2266 0bab 1101     		.2byte	0x111
 2267 0bad 770B0000 		.4byte	0xb77
ARM GAS  /tmp/ccDr56ja.s 			page 41


 2268 0bb1 12       		.uleb128 0x12
 2269 0bb2 10       		.byte	0x10
 2270 0bb3 11       		.byte	0x11
 2271 0bb4 1601     		.2byte	0x116
 2272 0bb6 EF0B0000 		.4byte	0xbef
 2273 0bba 09       		.uleb128 0x9
 2274 0bbb 17010000 		.4byte	.LASF169
 2275 0bbf 11       		.byte	0x11
 2276 0bc0 1A01     		.2byte	0x11a
 2277 0bc2 CE000000 		.4byte	0xce
 2278 0bc6 00       		.byte	0
 2279 0bc7 09       		.uleb128 0x9
 2280 0bc8 B7070000 		.4byte	.LASF170
 2281 0bcc 11       		.byte	0x11
 2282 0bcd 1E01     		.2byte	0x11e
 2283 0bcf CE000000 		.4byte	0xce
 2284 0bd3 04       		.byte	0x4
 2285 0bd4 09       		.uleb128 0x9
 2286 0bd5 C1010000 		.4byte	.LASF171
 2287 0bd9 11       		.byte	0x11
 2288 0bda 2201     		.2byte	0x122
 2289 0bdc 540B0000 		.4byte	0xb54
 2290 0be0 08       		.byte	0x8
 2291 0be1 09       		.uleb128 0x9
 2292 0be2 73060000 		.4byte	.LASF172
 2293 0be6 11       		.byte	0x11
 2294 0be7 2601     		.2byte	0x126
 2295 0be9 540B0000 		.4byte	0xb54
 2296 0bed 0C       		.byte	0xc
 2297 0bee 00       		.byte	0
 2298 0bef 13       		.uleb128 0x13
 2299 0bf0 E1030000 		.4byte	.LASF173
 2300 0bf4 11       		.byte	0x11
 2301 0bf5 2801     		.2byte	0x128
 2302 0bf7 B10B0000 		.4byte	0xbb1
 2303 0bfb 12       		.uleb128 0x12
 2304 0bfc 08       		.byte	0x8
 2305 0bfd 11       		.byte	0x11
 2306 0bfe 2D01     		.2byte	0x12d
 2307 0c00 1F0C0000 		.4byte	0xc1f
 2308 0c04 09       		.uleb128 0x9
 2309 0c05 99080000 		.4byte	.LASF174
 2310 0c09 11       		.byte	0x11
 2311 0c0a 3101     		.2byte	0x131
 2312 0c0c A50B0000 		.4byte	0xba5
 2313 0c10 00       		.byte	0
 2314 0c11 09       		.uleb128 0x9
 2315 0c12 74030000 		.4byte	.LASF175
 2316 0c16 11       		.byte	0x11
 2317 0c17 3601     		.2byte	0x136
 2318 0c19 CE000000 		.4byte	0xce
 2319 0c1d 04       		.byte	0x4
 2320 0c1e 00       		.byte	0
 2321 0c1f 13       		.uleb128 0x13
 2322 0c20 2B050000 		.4byte	.LASF176
 2323 0c24 11       		.byte	0x11
 2324 0c25 3701     		.2byte	0x137
ARM GAS  /tmp/ccDr56ja.s 			page 42


 2325 0c27 FB0B0000 		.4byte	0xbfb
 2326 0c2b 0B       		.uleb128 0xb
 2327 0c2c 04       		.byte	0x4
 2328 0c2d 310C0000 		.4byte	0xc31
 2329 0c31 19       		.uleb128 0x19
 2330 0c32 EF0B0000 		.4byte	0xbef
 2331 0c36 0B       		.uleb128 0xb
 2332 0c37 04       		.byte	0x4
 2333 0c38 3C0C0000 		.4byte	0xc3c
 2334 0c3c 19       		.uleb128 0x19
 2335 0c3d 490B0000 		.4byte	0xb49
 2336 0c41 0B       		.uleb128 0xb
 2337 0c42 04       		.byte	0x4
 2338 0c43 470C0000 		.4byte	0xc47
 2339 0c47 19       		.uleb128 0x19
 2340 0c48 1F0C0000 		.4byte	0xc1f
 2341 0c4c 0B       		.uleb128 0xb
 2342 0c4d 04       		.byte	0x4
 2343 0c4e 30050000 		.4byte	0x530
 2344 0c52 1D       		.uleb128 0x1d
 2345 0c53 23090000 		.4byte	.LASF197
 2346 0c57 01       		.byte	0x1
 2347 0c58 58       		.byte	0x58
 2348 0c59 00000000 		.4byte	.LFB255
 2349 0c5d 02000000 		.4byte	.LFE255-.LFB255
 2350 0c61 01       		.uleb128 0x1
 2351 0c62 9C       		.byte	0x9c
 2352 0c63 820C0000 		.4byte	0xc82
 2353 0c67 1E       		.uleb128 0x1e
 2354 0c68 5B010000 		.4byte	.LASF177
 2355 0c6c 01       		.byte	0x1
 2356 0c6d 58       		.byte	0x58
 2357 0c6e 710B0000 		.4byte	0xb71
 2358 0c72 01       		.uleb128 0x1
 2359 0c73 50       		.byte	0x50
 2360 0c74 1E       		.uleb128 0x1e
 2361 0c75 D7080000 		.4byte	.LASF178
 2362 0c79 01       		.byte	0x1
 2363 0c7a 58       		.byte	0x58
 2364 0c7b CE000000 		.4byte	0xce
 2365 0c7f 01       		.uleb128 0x1
 2366 0c80 51       		.byte	0x51
 2367 0c81 00       		.byte	0
 2368 0c82 1F       		.uleb128 0x1f
 2369 0c83 E7050000 		.4byte	.LASF179
 2370 0c87 01       		.byte	0x1
 2371 0c88 7D       		.byte	0x7d
 2372 0c89 00000000 		.4byte	.LFB256
 2373 0c8d 60000000 		.4byte	.LFE256-.LFB256
 2374 0c91 01       		.uleb128 0x1
 2375 0c92 9C       		.byte	0x9c
 2376 0c93 BC0C0000 		.4byte	0xcbc
 2377 0c97 20       		.uleb128 0x20
 2378 0c98 14000000 		.4byte	.LVL1
 2379 0c9c AE0E0000 		.4byte	0xeae
 2380 0ca0 AB0C0000 		.4byte	0xcab
 2381 0ca4 21       		.uleb128 0x21
ARM GAS  /tmp/ccDr56ja.s 			page 43


 2382 0ca5 01       		.uleb128 0x1
 2383 0ca6 50       		.byte	0x50
 2384 0ca7 02       		.uleb128 0x2
 2385 0ca8 75       		.byte	0x75
 2386 0ca9 00       		.sleb128 0
 2387 0caa 00       		.byte	0
 2388 0cab 22       		.uleb128 0x22
 2389 0cac 34000000 		.4byte	.LVL2
 2390 0cb0 AE0E0000 		.4byte	0xeae
 2391 0cb4 21       		.uleb128 0x21
 2392 0cb5 01       		.uleb128 0x1
 2393 0cb6 50       		.byte	0x50
 2394 0cb7 02       		.uleb128 0x2
 2395 0cb8 74       		.byte	0x74
 2396 0cb9 00       		.sleb128 0
 2397 0cba 00       		.byte	0
 2398 0cbb 00       		.byte	0
 2399 0cbc 1F       		.uleb128 0x1f
 2400 0cbd ED070000 		.4byte	.LASF180
 2401 0cc1 01       		.byte	0x1
 2402 0cc2 B1       		.byte	0xb1
 2403 0cc3 00000000 		.4byte	.LFB257
 2404 0cc7 28000000 		.4byte	.LFE257-.LFB257
 2405 0ccb 01       		.uleb128 0x1
 2406 0ccc 9C       		.byte	0x9c
 2407 0ccd DF0C0000 		.4byte	0xcdf
 2408 0cd1 1E       		.uleb128 0x1e
 2409 0cd2 5B010000 		.4byte	.LASF177
 2410 0cd6 01       		.byte	0x1
 2411 0cd7 B1       		.byte	0xb1
 2412 0cd8 710B0000 		.4byte	0xb71
 2413 0cdc 01       		.uleb128 0x1
 2414 0cdd 50       		.byte	0x50
 2415 0cde 00       		.byte	0
 2416 0cdf 1F       		.uleb128 0x1f
 2417 0ce0 16040000 		.4byte	.LASF181
 2418 0ce4 01       		.byte	0x1
 2419 0ce5 CB       		.byte	0xcb
 2420 0ce6 00000000 		.4byte	.LFB258
 2421 0cea 4C000000 		.4byte	.LFE258-.LFB258
 2422 0cee 01       		.uleb128 0x1
 2423 0cef 9C       		.byte	0x9c
 2424 0cf0 020D0000 		.4byte	0xd02
 2425 0cf4 1E       		.uleb128 0x1e
 2426 0cf5 5B010000 		.4byte	.LASF177
 2427 0cf9 01       		.byte	0x1
 2428 0cfa CB       		.byte	0xcb
 2429 0cfb 710B0000 		.4byte	0xb71
 2430 0cff 01       		.uleb128 0x1
 2431 0d00 50       		.byte	0x50
 2432 0d01 00       		.byte	0
 2433 0d02 1F       		.uleb128 0x1f
 2434 0d03 52040000 		.4byte	.LASF182
 2435 0d07 01       		.byte	0x1
 2436 0d08 EC       		.byte	0xec
 2437 0d09 00000000 		.4byte	.LFB259
 2438 0d0d C0000000 		.4byte	.LFE259-.LFB259
ARM GAS  /tmp/ccDr56ja.s 			page 44


 2439 0d11 01       		.uleb128 0x1
 2440 0d12 9C       		.byte	0x9c
 2441 0d13 610D0000 		.4byte	0xd61
 2442 0d17 1E       		.uleb128 0x1e
 2443 0d18 5B010000 		.4byte	.LASF177
 2444 0d1c 01       		.byte	0x1
 2445 0d1d EC       		.byte	0xec
 2446 0d1e 710B0000 		.4byte	0xb71
 2447 0d22 01       		.uleb128 0x1
 2448 0d23 50       		.byte	0x50
 2449 0d24 23       		.uleb128 0x23
 2450 0d25 2A030000 		.4byte	.LASF183
 2451 0d29 01       		.byte	0x1
 2452 0d2a EC       		.byte	0xec
 2453 0d2b 490B0000 		.4byte	0xb49
 2454 0d2f 00000000 		.4byte	.LLST0
 2455 0d33 24       		.uleb128 0x24
 2456 0d34 62030000 		.4byte	.LASF184
 2457 0d38 01       		.byte	0x1
 2458 0d39 EE       		.byte	0xee
 2459 0d3a CE000000 		.4byte	0xce
 2460 0d3e 53000000 		.4byte	.LLST1
 2461 0d42 24       		.uleb128 0x24
 2462 0d43 01050000 		.4byte	.LASF185
 2463 0d47 01       		.byte	0x1
 2464 0d48 EF       		.byte	0xef
 2465 0d49 CE000000 		.4byte	0xce
 2466 0d4d C0000000 		.4byte	.LLST2
 2467 0d51 24       		.uleb128 0x24
 2468 0d52 F4030000 		.4byte	.LASF186
 2469 0d56 01       		.byte	0x1
 2470 0d57 F0       		.byte	0xf0
 2471 0d58 610D0000 		.4byte	0xd61
 2472 0d5c E0000000 		.4byte	.LLST3
 2473 0d60 00       		.byte	0
 2474 0d61 0B       		.uleb128 0xb
 2475 0d62 04       		.byte	0x4
 2476 0d63 670D0000 		.4byte	0xd67
 2477 0d67 05       		.uleb128 0x5
 2478 0d68 490B0000 		.4byte	0xb49
 2479 0d6c 25       		.uleb128 0x25
 2480 0d6d 84000000 		.4byte	.LASF187
 2481 0d71 01       		.byte	0x1
 2482 0d72 3401     		.2byte	0x134
 2483 0d74 00000000 		.4byte	.LFB260
 2484 0d78 FC010000 		.4byte	.LFE260-.LFB260
 2485 0d7c 01       		.uleb128 0x1
 2486 0d7d 9C       		.byte	0x9c
 2487 0d7e 0F0E0000 		.4byte	0xe0f
 2488 0d82 26       		.uleb128 0x26
 2489 0d83 5B010000 		.4byte	.LASF177
 2490 0d87 01       		.byte	0x1
 2491 0d88 3401     		.2byte	0x134
 2492 0d8a 710B0000 		.4byte	0xb71
 2493 0d8e 8A010000 		.4byte	.LLST4
 2494 0d92 27       		.uleb128 0x27
 2495 0d93 61727200 		.ascii	"arr\000"
ARM GAS  /tmp/ccDr56ja.s 			page 45


 2496 0d97 01       		.byte	0x1
 2497 0d98 3601     		.2byte	0x136
 2498 0d9a CE000000 		.4byte	0xce
 2499 0d9e BE010000 		.4byte	.LLST5
 2500 0da2 27       		.uleb128 0x27
 2501 0da3 70736300 		.ascii	"psc\000"
 2502 0da7 01       		.byte	0x1
 2503 0da8 3601     		.2byte	0x136
 2504 0daa CE000000 		.4byte	0xce
 2505 0dae E7010000 		.4byte	.LLST6
 2506 0db2 28       		.uleb128 0x28
 2507 0db3 01050000 		.4byte	.LASF185
 2508 0db7 01       		.byte	0x1
 2509 0db8 3601     		.2byte	0x136
 2510 0dba CE000000 		.4byte	0xce
 2511 0dbe 27020000 		.4byte	.LLST7
 2512 0dc2 28       		.uleb128 0x28
 2513 0dc3 56010000 		.4byte	.LASF188
 2514 0dc7 01       		.byte	0x1
 2515 0dc8 3601     		.2byte	0x136
 2516 0dca CE000000 		.4byte	0xce
 2517 0dce 53020000 		.4byte	.LLST8
 2518 0dd2 28       		.uleb128 0x28
 2519 0dd3 62030000 		.4byte	.LASF184
 2520 0dd7 01       		.byte	0x1
 2521 0dd8 3601     		.2byte	0x136
 2522 0dda CE000000 		.4byte	0xce
 2523 0dde 7F020000 		.4byte	.LLST9
 2524 0de2 29       		.uleb128 0x29
 2525 0de3 6200     		.ascii	"b\000"
 2526 0de5 01       		.byte	0x1
 2527 0de6 3701     		.2byte	0x137
 2528 0de8 370A0000 		.4byte	0xa37
 2529 0dec 2A       		.uleb128 0x2a
 2530 0ded 92060000 		.4byte	.LASF198
 2531 0df1 1F0E0000 		.4byte	0xe1f
 2532 0df5 22       		.uleb128 0x22
 2533 0df6 C0000000 		.4byte	.LVL34
 2534 0dfa C00E0000 		.4byte	0xec0
 2535 0dfe 21       		.uleb128 0x21
 2536 0dff 01       		.uleb128 0x1
 2537 0e00 53       		.byte	0x53
 2538 0e01 02       		.uleb128 0x2
 2539 0e02 75       		.byte	0x75
 2540 0e03 00       		.sleb128 0
 2541 0e04 21       		.uleb128 0x21
 2542 0e05 01       		.uleb128 0x1
 2543 0e06 52       		.byte	0x52
 2544 0e07 05       		.uleb128 0x5
 2545 0e08 03       		.byte	0x3
 2546 0e09 00000000 		.4byte	dac_lld_serve_tx_interrupt
 2547 0e0d 00       		.byte	0
 2548 0e0e 00       		.byte	0
 2549 0e0f 10       		.uleb128 0x10
 2550 0e10 45090000 		.4byte	0x945
 2551 0e14 1F0E0000 		.4byte	0xe1f
 2552 0e18 11       		.uleb128 0x11
ARM GAS  /tmp/ccDr56ja.s 			page 46


 2553 0e19 4B040000 		.4byte	0x44b
 2554 0e1d 18       		.byte	0x18
 2555 0e1e 00       		.byte	0
 2556 0e1f 19       		.uleb128 0x19
 2557 0e20 0F0E0000 		.4byte	0xe0f
 2558 0e24 25       		.uleb128 0x25
 2559 0e25 48070000 		.4byte	.LASF189
 2560 0e29 01       		.byte	0x1
 2561 0e2a B201     		.2byte	0x1b2
 2562 0e2c 00000000 		.4byte	.LFB261
 2563 0e30 48000000 		.4byte	.LFE261-.LFB261
 2564 0e34 01       		.uleb128 0x1
 2565 0e35 9C       		.byte	0x9c
 2566 0e36 540E0000 		.4byte	0xe54
 2567 0e3a 26       		.uleb128 0x26
 2568 0e3b 5B010000 		.4byte	.LASF177
 2569 0e3f 01       		.byte	0x1
 2570 0e40 B201     		.2byte	0x1b2
 2571 0e42 710B0000 		.4byte	0xb71
 2572 0e46 E2020000 		.4byte	.LLST10
 2573 0e4a 2B       		.uleb128 0x2b
 2574 0e4b 14000000 		.4byte	.LVL49
 2575 0e4f E50E0000 		.4byte	0xee5
 2576 0e53 00       		.byte	0
 2577 0e54 2C       		.uleb128 0x2c
 2578 0e55 05010000 		.4byte	.LASF190
 2579 0e59 12       		.byte	0x12
 2580 0e5a A706     		.2byte	0x6a7
 2581 0e5c E4000000 		.4byte	0xe4
 2582 0e60 2D       		.uleb128 0x2d
 2583 0e61 636800   		.ascii	"ch\000"
 2584 0e64 07       		.byte	0x7
 2585 0e65 EB01     		.2byte	0x1eb
 2586 0e67 E4030000 		.4byte	0x3e4
 2587 0e6b 10       		.uleb128 0x10
 2588 0e6c 0B0A0000 		.4byte	0xa0b
 2589 0e70 7B0E0000 		.4byte	0xe7b
 2590 0e74 11       		.uleb128 0x11
 2591 0e75 4B040000 		.4byte	0x44b
 2592 0e79 0B       		.byte	0xb
 2593 0e7a 00       		.byte	0
 2594 0e7b 2C       		.uleb128 0x2c
 2595 0e7c D2000000 		.4byte	.LASF191
 2596 0e80 0F       		.byte	0xf
 2597 0e81 8401     		.2byte	0x184
 2598 0e83 870E0000 		.4byte	0xe87
 2599 0e87 19       		.uleb128 0x19
 2600 0e88 6B0E0000 		.4byte	0xe6b
 2601 0e8c 2E       		.uleb128 0x2e
 2602 0e8d 56080000 		.4byte	.LASF192
 2603 0e91 01       		.byte	0x1
 2604 0e92 3D       		.byte	0x3d
 2605 0e93 870A0000 		.4byte	0xa87
 2606 0e97 05       		.uleb128 0x5
 2607 0e98 03       		.byte	0x3
 2608 0e99 00000000 		.4byte	DACD1
 2609 0e9d 2E       		.uleb128 0x2e
ARM GAS  /tmp/ccDr56ja.s 			page 47


 2610 0e9e 16090000 		.4byte	.LASF193
 2611 0ea2 01       		.byte	0x1
 2612 0ea3 42       		.byte	0x42
 2613 0ea4 870A0000 		.4byte	0xa87
 2614 0ea8 05       		.uleb128 0x5
 2615 0ea9 03       		.byte	0x3
 2616 0eaa 00000000 		.4byte	DACD2
 2617 0eae 2F       		.uleb128 0x2f
 2618 0eaf 6B050000 		.4byte	.LASF199
 2619 0eb3 10       		.byte	0x10
 2620 0eb4 1001     		.2byte	0x110
 2621 0eb6 C00E0000 		.4byte	0xec0
 2622 0eba 0D       		.uleb128 0xd
 2623 0ebb 710B0000 		.4byte	0xb71
 2624 0ebf 00       		.byte	0
 2625 0ec0 30       		.uleb128 0x30
 2626 0ec1 4E090000 		.4byte	.LASF200
 2627 0ec5 0F       		.byte	0xf
 2628 0ec6 8B01     		.2byte	0x18b
 2629 0ec8 370A0000 		.4byte	0xa37
 2630 0ecc E50E0000 		.4byte	0xee5
 2631 0ed0 0D       		.uleb128 0xd
 2632 0ed1 3E0A0000 		.4byte	0xa3e
 2633 0ed5 0D       		.uleb128 0xd
 2634 0ed6 CE000000 		.4byte	0xce
 2635 0eda 0D       		.uleb128 0xd
 2636 0edb 160A0000 		.4byte	0xa16
 2637 0edf 0D       		.uleb128 0xd
 2638 0ee0 15030000 		.4byte	0x315
 2639 0ee4 00       		.byte	0
 2640 0ee5 31       		.uleb128 0x31
 2641 0ee6 A6040000 		.4byte	.LASF201
 2642 0eea 0F       		.byte	0xf
 2643 0eeb 8F01     		.2byte	0x18f
 2644 0eed 0D       		.uleb128 0xd
 2645 0eee 3E0A0000 		.4byte	0xa3e
 2646 0ef2 00       		.byte	0
 2647 0ef3 00       		.byte	0
 2648              		.section	.debug_abbrev,"",%progbits
 2649              	.Ldebug_abbrev0:
 2650 0000 01       		.uleb128 0x1
 2651 0001 11       		.uleb128 0x11
 2652 0002 01       		.byte	0x1
 2653 0003 25       		.uleb128 0x25
 2654 0004 0E       		.uleb128 0xe
 2655 0005 13       		.uleb128 0x13
 2656 0006 0B       		.uleb128 0xb
 2657 0007 03       		.uleb128 0x3
 2658 0008 0E       		.uleb128 0xe
 2659 0009 1B       		.uleb128 0x1b
 2660 000a 0E       		.uleb128 0xe
 2661 000b 55       		.uleb128 0x55
 2662 000c 17       		.uleb128 0x17
 2663 000d 11       		.uleb128 0x11
 2664 000e 01       		.uleb128 0x1
 2665 000f 10       		.uleb128 0x10
 2666 0010 17       		.uleb128 0x17
ARM GAS  /tmp/ccDr56ja.s 			page 48


 2667 0011 00       		.byte	0
 2668 0012 00       		.byte	0
 2669 0013 02       		.uleb128 0x2
 2670 0014 24       		.uleb128 0x24
 2671 0015 00       		.byte	0
 2672 0016 0B       		.uleb128 0xb
 2673 0017 0B       		.uleb128 0xb
 2674 0018 3E       		.uleb128 0x3e
 2675 0019 0B       		.uleb128 0xb
 2676 001a 03       		.uleb128 0x3
 2677 001b 08       		.uleb128 0x8
 2678 001c 00       		.byte	0
 2679 001d 00       		.byte	0
 2680 001e 03       		.uleb128 0x3
 2681 001f 16       		.uleb128 0x16
 2682 0020 00       		.byte	0
 2683 0021 03       		.uleb128 0x3
 2684 0022 0E       		.uleb128 0xe
 2685 0023 3A       		.uleb128 0x3a
 2686 0024 0B       		.uleb128 0xb
 2687 0025 3B       		.uleb128 0x3b
 2688 0026 0B       		.uleb128 0xb
 2689 0027 49       		.uleb128 0x49
 2690 0028 13       		.uleb128 0x13
 2691 0029 00       		.byte	0
 2692 002a 00       		.byte	0
 2693 002b 04       		.uleb128 0x4
 2694 002c 24       		.uleb128 0x24
 2695 002d 00       		.byte	0
 2696 002e 0B       		.uleb128 0xb
 2697 002f 0B       		.uleb128 0xb
 2698 0030 3E       		.uleb128 0x3e
 2699 0031 0B       		.uleb128 0xb
 2700 0032 03       		.uleb128 0x3
 2701 0033 0E       		.uleb128 0xe
 2702 0034 00       		.byte	0
 2703 0035 00       		.byte	0
 2704 0036 05       		.uleb128 0x5
 2705 0037 35       		.uleb128 0x35
 2706 0038 00       		.byte	0
 2707 0039 49       		.uleb128 0x49
 2708 003a 13       		.uleb128 0x13
 2709 003b 00       		.byte	0
 2710 003c 00       		.byte	0
 2711 003d 06       		.uleb128 0x6
 2712 003e 13       		.uleb128 0x13
 2713 003f 01       		.byte	0x1
 2714 0040 03       		.uleb128 0x3
 2715 0041 0E       		.uleb128 0xe
 2716 0042 0B       		.uleb128 0xb
 2717 0043 0B       		.uleb128 0xb
 2718 0044 3A       		.uleb128 0x3a
 2719 0045 0B       		.uleb128 0xb
 2720 0046 3B       		.uleb128 0x3b
 2721 0047 0B       		.uleb128 0xb
 2722 0048 01       		.uleb128 0x1
 2723 0049 13       		.uleb128 0x13
ARM GAS  /tmp/ccDr56ja.s 			page 49


 2724 004a 00       		.byte	0
 2725 004b 00       		.byte	0
 2726 004c 07       		.uleb128 0x7
 2727 004d 0D       		.uleb128 0xd
 2728 004e 00       		.byte	0
 2729 004f 03       		.uleb128 0x3
 2730 0050 0E       		.uleb128 0xe
 2731 0051 3A       		.uleb128 0x3a
 2732 0052 0B       		.uleb128 0xb
 2733 0053 3B       		.uleb128 0x3b
 2734 0054 0B       		.uleb128 0xb
 2735 0055 49       		.uleb128 0x49
 2736 0056 13       		.uleb128 0x13
 2737 0057 38       		.uleb128 0x38
 2738 0058 0B       		.uleb128 0xb
 2739 0059 00       		.byte	0
 2740 005a 00       		.byte	0
 2741 005b 08       		.uleb128 0x8
 2742 005c 0D       		.uleb128 0xd
 2743 005d 00       		.byte	0
 2744 005e 03       		.uleb128 0x3
 2745 005f 08       		.uleb128 0x8
 2746 0060 3A       		.uleb128 0x3a
 2747 0061 0B       		.uleb128 0xb
 2748 0062 3B       		.uleb128 0x3b
 2749 0063 05       		.uleb128 0x5
 2750 0064 49       		.uleb128 0x49
 2751 0065 13       		.uleb128 0x13
 2752 0066 38       		.uleb128 0x38
 2753 0067 0B       		.uleb128 0xb
 2754 0068 00       		.byte	0
 2755 0069 00       		.byte	0
 2756 006a 09       		.uleb128 0x9
 2757 006b 0D       		.uleb128 0xd
 2758 006c 00       		.byte	0
 2759 006d 03       		.uleb128 0x3
 2760 006e 0E       		.uleb128 0xe
 2761 006f 3A       		.uleb128 0x3a
 2762 0070 0B       		.uleb128 0xb
 2763 0071 3B       		.uleb128 0x3b
 2764 0072 05       		.uleb128 0x5
 2765 0073 49       		.uleb128 0x49
 2766 0074 13       		.uleb128 0x13
 2767 0075 38       		.uleb128 0x38
 2768 0076 0B       		.uleb128 0xb
 2769 0077 00       		.byte	0
 2770 0078 00       		.byte	0
 2771 0079 0A       		.uleb128 0xa
 2772 007a 13       		.uleb128 0x13
 2773 007b 01       		.byte	0x1
 2774 007c 03       		.uleb128 0x3
 2775 007d 0E       		.uleb128 0xe
 2776 007e 0B       		.uleb128 0xb
 2777 007f 0B       		.uleb128 0xb
 2778 0080 3A       		.uleb128 0x3a
 2779 0081 0B       		.uleb128 0xb
 2780 0082 3B       		.uleb128 0x3b
ARM GAS  /tmp/ccDr56ja.s 			page 50


 2781 0083 05       		.uleb128 0x5
 2782 0084 01       		.uleb128 0x1
 2783 0085 13       		.uleb128 0x13
 2784 0086 00       		.byte	0
 2785 0087 00       		.byte	0
 2786 0088 0B       		.uleb128 0xb
 2787 0089 0F       		.uleb128 0xf
 2788 008a 00       		.byte	0
 2789 008b 0B       		.uleb128 0xb
 2790 008c 0B       		.uleb128 0xb
 2791 008d 49       		.uleb128 0x49
 2792 008e 13       		.uleb128 0x13
 2793 008f 00       		.byte	0
 2794 0090 00       		.byte	0
 2795 0091 0C       		.uleb128 0xc
 2796 0092 15       		.uleb128 0x15
 2797 0093 01       		.byte	0x1
 2798 0094 27       		.uleb128 0x27
 2799 0095 19       		.uleb128 0x19
 2800 0096 01       		.uleb128 0x1
 2801 0097 13       		.uleb128 0x13
 2802 0098 00       		.byte	0
 2803 0099 00       		.byte	0
 2804 009a 0D       		.uleb128 0xd
 2805 009b 05       		.uleb128 0x5
 2806 009c 00       		.byte	0
 2807 009d 49       		.uleb128 0x49
 2808 009e 13       		.uleb128 0x13
 2809 009f 00       		.byte	0
 2810 00a0 00       		.byte	0
 2811 00a1 0E       		.uleb128 0xe
 2812 00a2 0F       		.uleb128 0xf
 2813 00a3 00       		.byte	0
 2814 00a4 0B       		.uleb128 0xb
 2815 00a5 0B       		.uleb128 0xb
 2816 00a6 00       		.byte	0
 2817 00a7 00       		.byte	0
 2818 00a8 0F       		.uleb128 0xf
 2819 00a9 13       		.uleb128 0x13
 2820 00aa 01       		.byte	0x1
 2821 00ab 03       		.uleb128 0x3
 2822 00ac 0E       		.uleb128 0xe
 2823 00ad 0B       		.uleb128 0xb
 2824 00ae 05       		.uleb128 0x5
 2825 00af 3A       		.uleb128 0x3a
 2826 00b0 0B       		.uleb128 0xb
 2827 00b1 3B       		.uleb128 0x3b
 2828 00b2 05       		.uleb128 0x5
 2829 00b3 01       		.uleb128 0x1
 2830 00b4 13       		.uleb128 0x13
 2831 00b5 00       		.byte	0
 2832 00b6 00       		.byte	0
 2833 00b7 10       		.uleb128 0x10
 2834 00b8 01       		.uleb128 0x1
 2835 00b9 01       		.byte	0x1
 2836 00ba 49       		.uleb128 0x49
 2837 00bb 13       		.uleb128 0x13
ARM GAS  /tmp/ccDr56ja.s 			page 51


 2838 00bc 01       		.uleb128 0x1
 2839 00bd 13       		.uleb128 0x13
 2840 00be 00       		.byte	0
 2841 00bf 00       		.byte	0
 2842 00c0 11       		.uleb128 0x11
 2843 00c1 21       		.uleb128 0x21
 2844 00c2 00       		.byte	0
 2845 00c3 49       		.uleb128 0x49
 2846 00c4 13       		.uleb128 0x13
 2847 00c5 2F       		.uleb128 0x2f
 2848 00c6 0B       		.uleb128 0xb
 2849 00c7 00       		.byte	0
 2850 00c8 00       		.byte	0
 2851 00c9 12       		.uleb128 0x12
 2852 00ca 13       		.uleb128 0x13
 2853 00cb 01       		.byte	0x1
 2854 00cc 0B       		.uleb128 0xb
 2855 00cd 0B       		.uleb128 0xb
 2856 00ce 3A       		.uleb128 0x3a
 2857 00cf 0B       		.uleb128 0xb
 2858 00d0 3B       		.uleb128 0x3b
 2859 00d1 05       		.uleb128 0x5
 2860 00d2 01       		.uleb128 0x1
 2861 00d3 13       		.uleb128 0x13
 2862 00d4 00       		.byte	0
 2863 00d5 00       		.byte	0
 2864 00d6 13       		.uleb128 0x13
 2865 00d7 16       		.uleb128 0x16
 2866 00d8 00       		.byte	0
 2867 00d9 03       		.uleb128 0x3
 2868 00da 0E       		.uleb128 0xe
 2869 00db 3A       		.uleb128 0x3a
 2870 00dc 0B       		.uleb128 0xb
 2871 00dd 3B       		.uleb128 0x3b
 2872 00de 05       		.uleb128 0x5
 2873 00df 49       		.uleb128 0x49
 2874 00e0 13       		.uleb128 0x13
 2875 00e1 00       		.byte	0
 2876 00e2 00       		.byte	0
 2877 00e3 14       		.uleb128 0x14
 2878 00e4 0D       		.uleb128 0xd
 2879 00e5 00       		.byte	0
 2880 00e6 03       		.uleb128 0x3
 2881 00e7 08       		.uleb128 0x8
 2882 00e8 3A       		.uleb128 0x3a
 2883 00e9 0B       		.uleb128 0xb
 2884 00ea 3B       		.uleb128 0x3b
 2885 00eb 0B       		.uleb128 0xb
 2886 00ec 49       		.uleb128 0x49
 2887 00ed 13       		.uleb128 0x13
 2888 00ee 38       		.uleb128 0x38
 2889 00ef 0B       		.uleb128 0xb
 2890 00f0 00       		.byte	0
 2891 00f1 00       		.byte	0
 2892 00f2 15       		.uleb128 0x15
 2893 00f3 13       		.uleb128 0x13
 2894 00f4 01       		.byte	0x1
ARM GAS  /tmp/ccDr56ja.s 			page 52


 2895 00f5 0B       		.uleb128 0xb
 2896 00f6 0B       		.uleb128 0xb
 2897 00f7 3A       		.uleb128 0x3a
 2898 00f8 0B       		.uleb128 0xb
 2899 00f9 3B       		.uleb128 0x3b
 2900 00fa 0B       		.uleb128 0xb
 2901 00fb 01       		.uleb128 0x1
 2902 00fc 13       		.uleb128 0x13
 2903 00fd 00       		.byte	0
 2904 00fe 00       		.byte	0
 2905 00ff 16       		.uleb128 0x16
 2906 0100 17       		.uleb128 0x17
 2907 0101 01       		.byte	0x1
 2908 0102 0B       		.uleb128 0xb
 2909 0103 0B       		.uleb128 0xb
 2910 0104 3A       		.uleb128 0x3a
 2911 0105 0B       		.uleb128 0xb
 2912 0106 3B       		.uleb128 0x3b
 2913 0107 0B       		.uleb128 0xb
 2914 0108 01       		.uleb128 0x1
 2915 0109 13       		.uleb128 0x13
 2916 010a 00       		.byte	0
 2917 010b 00       		.byte	0
 2918 010c 17       		.uleb128 0x17
 2919 010d 0D       		.uleb128 0xd
 2920 010e 00       		.byte	0
 2921 010f 03       		.uleb128 0x3
 2922 0110 0E       		.uleb128 0xe
 2923 0111 3A       		.uleb128 0x3a
 2924 0112 0B       		.uleb128 0xb
 2925 0113 3B       		.uleb128 0x3b
 2926 0114 0B       		.uleb128 0xb
 2927 0115 49       		.uleb128 0x49
 2928 0116 13       		.uleb128 0x13
 2929 0117 00       		.byte	0
 2930 0118 00       		.byte	0
 2931 0119 18       		.uleb128 0x18
 2932 011a 0D       		.uleb128 0xd
 2933 011b 00       		.byte	0
 2934 011c 03       		.uleb128 0x3
 2935 011d 0E       		.uleb128 0xe
 2936 011e 3A       		.uleb128 0x3a
 2937 011f 0B       		.uleb128 0xb
 2938 0120 3B       		.uleb128 0x3b
 2939 0121 05       		.uleb128 0x5
 2940 0122 49       		.uleb128 0x49
 2941 0123 13       		.uleb128 0x13
 2942 0124 00       		.byte	0
 2943 0125 00       		.byte	0
 2944 0126 19       		.uleb128 0x19
 2945 0127 26       		.uleb128 0x26
 2946 0128 00       		.byte	0
 2947 0129 49       		.uleb128 0x49
 2948 012a 13       		.uleb128 0x13
 2949 012b 00       		.byte	0
 2950 012c 00       		.byte	0
 2951 012d 1A       		.uleb128 0x1a
ARM GAS  /tmp/ccDr56ja.s 			page 53


 2952 012e 04       		.uleb128 0x4
 2953 012f 01       		.byte	0x1
 2954 0130 0B       		.uleb128 0xb
 2955 0131 0B       		.uleb128 0xb
 2956 0132 3A       		.uleb128 0x3a
 2957 0133 0B       		.uleb128 0xb
 2958 0134 3B       		.uleb128 0x3b
 2959 0135 0B       		.uleb128 0xb
 2960 0136 01       		.uleb128 0x1
 2961 0137 13       		.uleb128 0x13
 2962 0138 00       		.byte	0
 2963 0139 00       		.byte	0
 2964 013a 1B       		.uleb128 0x1b
 2965 013b 28       		.uleb128 0x28
 2966 013c 00       		.byte	0
 2967 013d 03       		.uleb128 0x3
 2968 013e 0E       		.uleb128 0xe
 2969 013f 1C       		.uleb128 0x1c
 2970 0140 0D       		.uleb128 0xd
 2971 0141 00       		.byte	0
 2972 0142 00       		.byte	0
 2973 0143 1C       		.uleb128 0x1c
 2974 0144 04       		.uleb128 0x4
 2975 0145 01       		.byte	0x1
 2976 0146 0B       		.uleb128 0xb
 2977 0147 0B       		.uleb128 0xb
 2978 0148 3A       		.uleb128 0x3a
 2979 0149 0B       		.uleb128 0xb
 2980 014a 3B       		.uleb128 0x3b
 2981 014b 05       		.uleb128 0x5
 2982 014c 01       		.uleb128 0x1
 2983 014d 13       		.uleb128 0x13
 2984 014e 00       		.byte	0
 2985 014f 00       		.byte	0
 2986 0150 1D       		.uleb128 0x1d
 2987 0151 2E       		.uleb128 0x2e
 2988 0152 01       		.byte	0x1
 2989 0153 03       		.uleb128 0x3
 2990 0154 0E       		.uleb128 0xe
 2991 0155 3A       		.uleb128 0x3a
 2992 0156 0B       		.uleb128 0xb
 2993 0157 3B       		.uleb128 0x3b
 2994 0158 0B       		.uleb128 0xb
 2995 0159 27       		.uleb128 0x27
 2996 015a 19       		.uleb128 0x19
 2997 015b 11       		.uleb128 0x11
 2998 015c 01       		.uleb128 0x1
 2999 015d 12       		.uleb128 0x12
 3000 015e 06       		.uleb128 0x6
 3001 015f 40       		.uleb128 0x40
 3002 0160 18       		.uleb128 0x18
 3003 0161 9742     		.uleb128 0x2117
 3004 0163 19       		.uleb128 0x19
 3005 0164 01       		.uleb128 0x1
 3006 0165 13       		.uleb128 0x13
 3007 0166 00       		.byte	0
 3008 0167 00       		.byte	0
ARM GAS  /tmp/ccDr56ja.s 			page 54


 3009 0168 1E       		.uleb128 0x1e
 3010 0169 05       		.uleb128 0x5
 3011 016a 00       		.byte	0
 3012 016b 03       		.uleb128 0x3
 3013 016c 0E       		.uleb128 0xe
 3014 016d 3A       		.uleb128 0x3a
 3015 016e 0B       		.uleb128 0xb
 3016 016f 3B       		.uleb128 0x3b
 3017 0170 0B       		.uleb128 0xb
 3018 0171 49       		.uleb128 0x49
 3019 0172 13       		.uleb128 0x13
 3020 0173 02       		.uleb128 0x2
 3021 0174 18       		.uleb128 0x18
 3022 0175 00       		.byte	0
 3023 0176 00       		.byte	0
 3024 0177 1F       		.uleb128 0x1f
 3025 0178 2E       		.uleb128 0x2e
 3026 0179 01       		.byte	0x1
 3027 017a 3F       		.uleb128 0x3f
 3028 017b 19       		.uleb128 0x19
 3029 017c 03       		.uleb128 0x3
 3030 017d 0E       		.uleb128 0xe
 3031 017e 3A       		.uleb128 0x3a
 3032 017f 0B       		.uleb128 0xb
 3033 0180 3B       		.uleb128 0x3b
 3034 0181 0B       		.uleb128 0xb
 3035 0182 27       		.uleb128 0x27
 3036 0183 19       		.uleb128 0x19
 3037 0184 11       		.uleb128 0x11
 3038 0185 01       		.uleb128 0x1
 3039 0186 12       		.uleb128 0x12
 3040 0187 06       		.uleb128 0x6
 3041 0188 40       		.uleb128 0x40
 3042 0189 18       		.uleb128 0x18
 3043 018a 9742     		.uleb128 0x2117
 3044 018c 19       		.uleb128 0x19
 3045 018d 01       		.uleb128 0x1
 3046 018e 13       		.uleb128 0x13
 3047 018f 00       		.byte	0
 3048 0190 00       		.byte	0
 3049 0191 20       		.uleb128 0x20
 3050 0192 898201   		.uleb128 0x4109
 3051 0195 01       		.byte	0x1
 3052 0196 11       		.uleb128 0x11
 3053 0197 01       		.uleb128 0x1
 3054 0198 31       		.uleb128 0x31
 3055 0199 13       		.uleb128 0x13
 3056 019a 01       		.uleb128 0x1
 3057 019b 13       		.uleb128 0x13
 3058 019c 00       		.byte	0
 3059 019d 00       		.byte	0
 3060 019e 21       		.uleb128 0x21
 3061 019f 8A8201   		.uleb128 0x410a
 3062 01a2 00       		.byte	0
 3063 01a3 02       		.uleb128 0x2
 3064 01a4 18       		.uleb128 0x18
 3065 01a5 9142     		.uleb128 0x2111
ARM GAS  /tmp/ccDr56ja.s 			page 55


 3066 01a7 18       		.uleb128 0x18
 3067 01a8 00       		.byte	0
 3068 01a9 00       		.byte	0
 3069 01aa 22       		.uleb128 0x22
 3070 01ab 898201   		.uleb128 0x4109
 3071 01ae 01       		.byte	0x1
 3072 01af 11       		.uleb128 0x11
 3073 01b0 01       		.uleb128 0x1
 3074 01b1 31       		.uleb128 0x31
 3075 01b2 13       		.uleb128 0x13
 3076 01b3 00       		.byte	0
 3077 01b4 00       		.byte	0
 3078 01b5 23       		.uleb128 0x23
 3079 01b6 05       		.uleb128 0x5
 3080 01b7 00       		.byte	0
 3081 01b8 03       		.uleb128 0x3
 3082 01b9 0E       		.uleb128 0xe
 3083 01ba 3A       		.uleb128 0x3a
 3084 01bb 0B       		.uleb128 0xb
 3085 01bc 3B       		.uleb128 0x3b
 3086 01bd 0B       		.uleb128 0xb
 3087 01be 49       		.uleb128 0x49
 3088 01bf 13       		.uleb128 0x13
 3089 01c0 02       		.uleb128 0x2
 3090 01c1 17       		.uleb128 0x17
 3091 01c2 00       		.byte	0
 3092 01c3 00       		.byte	0
 3093 01c4 24       		.uleb128 0x24
 3094 01c5 34       		.uleb128 0x34
 3095 01c6 00       		.byte	0
 3096 01c7 03       		.uleb128 0x3
 3097 01c8 0E       		.uleb128 0xe
 3098 01c9 3A       		.uleb128 0x3a
 3099 01ca 0B       		.uleb128 0xb
 3100 01cb 3B       		.uleb128 0x3b
 3101 01cc 0B       		.uleb128 0xb
 3102 01cd 49       		.uleb128 0x49
 3103 01ce 13       		.uleb128 0x13
 3104 01cf 02       		.uleb128 0x2
 3105 01d0 17       		.uleb128 0x17
 3106 01d1 00       		.byte	0
 3107 01d2 00       		.byte	0
 3108 01d3 25       		.uleb128 0x25
 3109 01d4 2E       		.uleb128 0x2e
 3110 01d5 01       		.byte	0x1
 3111 01d6 3F       		.uleb128 0x3f
 3112 01d7 19       		.uleb128 0x19
 3113 01d8 03       		.uleb128 0x3
 3114 01d9 0E       		.uleb128 0xe
 3115 01da 3A       		.uleb128 0x3a
 3116 01db 0B       		.uleb128 0xb
 3117 01dc 3B       		.uleb128 0x3b
 3118 01dd 05       		.uleb128 0x5
 3119 01de 27       		.uleb128 0x27
 3120 01df 19       		.uleb128 0x19
 3121 01e0 11       		.uleb128 0x11
 3122 01e1 01       		.uleb128 0x1
ARM GAS  /tmp/ccDr56ja.s 			page 56


 3123 01e2 12       		.uleb128 0x12
 3124 01e3 06       		.uleb128 0x6
 3125 01e4 40       		.uleb128 0x40
 3126 01e5 18       		.uleb128 0x18
 3127 01e6 9742     		.uleb128 0x2117
 3128 01e8 19       		.uleb128 0x19
 3129 01e9 01       		.uleb128 0x1
 3130 01ea 13       		.uleb128 0x13
 3131 01eb 00       		.byte	0
 3132 01ec 00       		.byte	0
 3133 01ed 26       		.uleb128 0x26
 3134 01ee 05       		.uleb128 0x5
 3135 01ef 00       		.byte	0
 3136 01f0 03       		.uleb128 0x3
 3137 01f1 0E       		.uleb128 0xe
 3138 01f2 3A       		.uleb128 0x3a
 3139 01f3 0B       		.uleb128 0xb
 3140 01f4 3B       		.uleb128 0x3b
 3141 01f5 05       		.uleb128 0x5
 3142 01f6 49       		.uleb128 0x49
 3143 01f7 13       		.uleb128 0x13
 3144 01f8 02       		.uleb128 0x2
 3145 01f9 17       		.uleb128 0x17
 3146 01fa 00       		.byte	0
 3147 01fb 00       		.byte	0
 3148 01fc 27       		.uleb128 0x27
 3149 01fd 34       		.uleb128 0x34
 3150 01fe 00       		.byte	0
 3151 01ff 03       		.uleb128 0x3
 3152 0200 08       		.uleb128 0x8
 3153 0201 3A       		.uleb128 0x3a
 3154 0202 0B       		.uleb128 0xb
 3155 0203 3B       		.uleb128 0x3b
 3156 0204 05       		.uleb128 0x5
 3157 0205 49       		.uleb128 0x49
 3158 0206 13       		.uleb128 0x13
 3159 0207 02       		.uleb128 0x2
 3160 0208 17       		.uleb128 0x17
 3161 0209 00       		.byte	0
 3162 020a 00       		.byte	0
 3163 020b 28       		.uleb128 0x28
 3164 020c 34       		.uleb128 0x34
 3165 020d 00       		.byte	0
 3166 020e 03       		.uleb128 0x3
 3167 020f 0E       		.uleb128 0xe
 3168 0210 3A       		.uleb128 0x3a
 3169 0211 0B       		.uleb128 0xb
 3170 0212 3B       		.uleb128 0x3b
 3171 0213 05       		.uleb128 0x5
 3172 0214 49       		.uleb128 0x49
 3173 0215 13       		.uleb128 0x13
 3174 0216 02       		.uleb128 0x2
 3175 0217 17       		.uleb128 0x17
 3176 0218 00       		.byte	0
 3177 0219 00       		.byte	0
 3178 021a 29       		.uleb128 0x29
 3179 021b 34       		.uleb128 0x34
ARM GAS  /tmp/ccDr56ja.s 			page 57


 3180 021c 00       		.byte	0
 3181 021d 03       		.uleb128 0x3
 3182 021e 08       		.uleb128 0x8
 3183 021f 3A       		.uleb128 0x3a
 3184 0220 0B       		.uleb128 0xb
 3185 0221 3B       		.uleb128 0x3b
 3186 0222 05       		.uleb128 0x5
 3187 0223 49       		.uleb128 0x49
 3188 0224 13       		.uleb128 0x13
 3189 0225 00       		.byte	0
 3190 0226 00       		.byte	0
 3191 0227 2A       		.uleb128 0x2a
 3192 0228 34       		.uleb128 0x34
 3193 0229 00       		.byte	0
 3194 022a 03       		.uleb128 0x3
 3195 022b 0E       		.uleb128 0xe
 3196 022c 49       		.uleb128 0x49
 3197 022d 13       		.uleb128 0x13
 3198 022e 34       		.uleb128 0x34
 3199 022f 19       		.uleb128 0x19
 3200 0230 00       		.byte	0
 3201 0231 00       		.byte	0
 3202 0232 2B       		.uleb128 0x2b
 3203 0233 898201   		.uleb128 0x4109
 3204 0236 00       		.byte	0
 3205 0237 11       		.uleb128 0x11
 3206 0238 01       		.uleb128 0x1
 3207 0239 31       		.uleb128 0x31
 3208 023a 13       		.uleb128 0x13
 3209 023b 00       		.byte	0
 3210 023c 00       		.byte	0
 3211 023d 2C       		.uleb128 0x2c
 3212 023e 34       		.uleb128 0x34
 3213 023f 00       		.byte	0
 3214 0240 03       		.uleb128 0x3
 3215 0241 0E       		.uleb128 0xe
 3216 0242 3A       		.uleb128 0x3a
 3217 0243 0B       		.uleb128 0xb
 3218 0244 3B       		.uleb128 0x3b
 3219 0245 05       		.uleb128 0x5
 3220 0246 49       		.uleb128 0x49
 3221 0247 13       		.uleb128 0x13
 3222 0248 3F       		.uleb128 0x3f
 3223 0249 19       		.uleb128 0x19
 3224 024a 3C       		.uleb128 0x3c
 3225 024b 19       		.uleb128 0x19
 3226 024c 00       		.byte	0
 3227 024d 00       		.byte	0
 3228 024e 2D       		.uleb128 0x2d
 3229 024f 34       		.uleb128 0x34
 3230 0250 00       		.byte	0
 3231 0251 03       		.uleb128 0x3
 3232 0252 08       		.uleb128 0x8
 3233 0253 3A       		.uleb128 0x3a
 3234 0254 0B       		.uleb128 0xb
 3235 0255 3B       		.uleb128 0x3b
 3236 0256 05       		.uleb128 0x5
ARM GAS  /tmp/ccDr56ja.s 			page 58


 3237 0257 49       		.uleb128 0x49
 3238 0258 13       		.uleb128 0x13
 3239 0259 3F       		.uleb128 0x3f
 3240 025a 19       		.uleb128 0x19
 3241 025b 3C       		.uleb128 0x3c
 3242 025c 19       		.uleb128 0x19
 3243 025d 00       		.byte	0
 3244 025e 00       		.byte	0
 3245 025f 2E       		.uleb128 0x2e
 3246 0260 34       		.uleb128 0x34
 3247 0261 00       		.byte	0
 3248 0262 03       		.uleb128 0x3
 3249 0263 0E       		.uleb128 0xe
 3250 0264 3A       		.uleb128 0x3a
 3251 0265 0B       		.uleb128 0xb
 3252 0266 3B       		.uleb128 0x3b
 3253 0267 0B       		.uleb128 0xb
 3254 0268 49       		.uleb128 0x49
 3255 0269 13       		.uleb128 0x13
 3256 026a 3F       		.uleb128 0x3f
 3257 026b 19       		.uleb128 0x19
 3258 026c 02       		.uleb128 0x2
 3259 026d 18       		.uleb128 0x18
 3260 026e 00       		.byte	0
 3261 026f 00       		.byte	0
 3262 0270 2F       		.uleb128 0x2f
 3263 0271 2E       		.uleb128 0x2e
 3264 0272 01       		.byte	0x1
 3265 0273 3F       		.uleb128 0x3f
 3266 0274 19       		.uleb128 0x19
 3267 0275 03       		.uleb128 0x3
 3268 0276 0E       		.uleb128 0xe
 3269 0277 3A       		.uleb128 0x3a
 3270 0278 0B       		.uleb128 0xb
 3271 0279 3B       		.uleb128 0x3b
 3272 027a 05       		.uleb128 0x5
 3273 027b 27       		.uleb128 0x27
 3274 027c 19       		.uleb128 0x19
 3275 027d 3C       		.uleb128 0x3c
 3276 027e 19       		.uleb128 0x19
 3277 027f 01       		.uleb128 0x1
 3278 0280 13       		.uleb128 0x13
 3279 0281 00       		.byte	0
 3280 0282 00       		.byte	0
 3281 0283 30       		.uleb128 0x30
 3282 0284 2E       		.uleb128 0x2e
 3283 0285 01       		.byte	0x1
 3284 0286 3F       		.uleb128 0x3f
 3285 0287 19       		.uleb128 0x19
 3286 0288 03       		.uleb128 0x3
 3287 0289 0E       		.uleb128 0xe
 3288 028a 3A       		.uleb128 0x3a
 3289 028b 0B       		.uleb128 0xb
 3290 028c 3B       		.uleb128 0x3b
 3291 028d 05       		.uleb128 0x5
 3292 028e 27       		.uleb128 0x27
 3293 028f 19       		.uleb128 0x19
ARM GAS  /tmp/ccDr56ja.s 			page 59


 3294 0290 49       		.uleb128 0x49
 3295 0291 13       		.uleb128 0x13
 3296 0292 3C       		.uleb128 0x3c
 3297 0293 19       		.uleb128 0x19
 3298 0294 01       		.uleb128 0x1
 3299 0295 13       		.uleb128 0x13
 3300 0296 00       		.byte	0
 3301 0297 00       		.byte	0
 3302 0298 31       		.uleb128 0x31
 3303 0299 2E       		.uleb128 0x2e
 3304 029a 01       		.byte	0x1
 3305 029b 3F       		.uleb128 0x3f
 3306 029c 19       		.uleb128 0x19
 3307 029d 03       		.uleb128 0x3
 3308 029e 0E       		.uleb128 0xe
 3309 029f 3A       		.uleb128 0x3a
 3310 02a0 0B       		.uleb128 0xb
 3311 02a1 3B       		.uleb128 0x3b
 3312 02a2 05       		.uleb128 0x5
 3313 02a3 27       		.uleb128 0x27
 3314 02a4 19       		.uleb128 0x19
 3315 02a5 3C       		.uleb128 0x3c
 3316 02a6 19       		.uleb128 0x19
 3317 02a7 00       		.byte	0
 3318 02a8 00       		.byte	0
 3319 02a9 00       		.byte	0
 3320              		.section	.debug_loc,"",%progbits
 3321              	.Ldebug_loc0:
 3322              	.LLST0:
 3323 0000 00000000 		.4byte	.LVL5
 3324 0004 42000000 		.4byte	.LVL8
 3325 0008 0100     		.2byte	0x1
 3326 000a 51       		.byte	0x51
 3327 000b 42000000 		.4byte	.LVL8
 3328 000f 52000000 		.4byte	.LVL9
 3329 0013 0400     		.2byte	0x4
 3330 0015 F3       		.byte	0xf3
 3331 0016 01       		.uleb128 0x1
 3332 0017 51       		.byte	0x51
 3333 0018 9F       		.byte	0x9f
 3334 0019 52000000 		.4byte	.LVL9
 3335 001d 90000000 		.4byte	.LVL20
 3336 0021 0100     		.2byte	0x1
 3337 0023 51       		.byte	0x51
 3338 0024 90000000 		.4byte	.LVL20
 3339 0028 96000000 		.4byte	.LVL21
 3340 002c 0400     		.2byte	0x4
 3341 002e F3       		.byte	0xf3
 3342 002f 01       		.uleb128 0x1
 3343 0030 51       		.byte	0x51
 3344 0031 9F       		.byte	0x9f
 3345 0032 96000000 		.4byte	.LVL21
 3346 0036 A4000000 		.4byte	.LVL22
 3347 003a 0100     		.2byte	0x1
 3348 003c 51       		.byte	0x51
 3349 003d A4000000 		.4byte	.LVL22
 3350 0041 C0000000 		.4byte	.LFE259
ARM GAS  /tmp/ccDr56ja.s 			page 60


 3351 0045 0400     		.2byte	0x4
 3352 0047 F3       		.byte	0xf3
 3353 0048 01       		.uleb128 0x1
 3354 0049 51       		.byte	0x51
 3355 004a 9F       		.byte	0x9f
 3356 004b 00000000 		.4byte	0
 3357 004f 00000000 		.4byte	0
 3358              	.LLST1:
 3359 0053 00000000 		.4byte	.LVL5
 3360 0057 10000000 		.4byte	.LVL6
 3361 005b 0200     		.2byte	0x2
 3362 005d 30       		.byte	0x30
 3363 005e 9F       		.byte	0x9f
 3364 005f 10000000 		.4byte	.LVL6
 3365 0063 28000000 		.4byte	.LVL7
 3366 0067 0100     		.2byte	0x1
 3367 0069 54       		.byte	0x54
 3368 006a 52000000 		.4byte	.LVL9
 3369 006e 5C000000 		.4byte	.LVL10
 3370 0072 0100     		.2byte	0x1
 3371 0074 54       		.byte	0x54
 3372 0075 5E000000 		.4byte	.LVL11
 3373 0079 68000000 		.4byte	.LVL12
 3374 007d 0100     		.2byte	0x1
 3375 007f 54       		.byte	0x54
 3376 0080 6A000000 		.4byte	.LVL13
 3377 0084 74000000 		.4byte	.LVL14
 3378 0088 0100     		.2byte	0x1
 3379 008a 54       		.byte	0x54
 3380 008b 76000000 		.4byte	.LVL15
 3381 008f 7C000000 		.4byte	.LVL16
 3382 0093 0100     		.2byte	0x1
 3383 0095 54       		.byte	0x54
 3384 0096 7E000000 		.4byte	.LVL17
 3385 009a 84000000 		.4byte	.LVL18
 3386 009e 0100     		.2byte	0x1
 3387 00a0 54       		.byte	0x54
 3388 00a1 86000000 		.4byte	.LVL19
 3389 00a5 90000000 		.4byte	.LVL20
 3390 00a9 0200     		.2byte	0x2
 3391 00ab 30       		.byte	0x30
 3392 00ac 9F       		.byte	0x9f
 3393 00ad 96000000 		.4byte	.LVL21
 3394 00b1 C0000000 		.4byte	.LFE259
 3395 00b5 0100     		.2byte	0x1
 3396 00b7 54       		.byte	0x54
 3397 00b8 00000000 		.4byte	0
 3398 00bc 00000000 		.4byte	0
 3399              	.LLST2:
 3400 00c0 00000000 		.4byte	.LVL5
 3401 00c4 10000000 		.4byte	.LVL6
 3402 00c8 0200     		.2byte	0x2
 3403 00ca 30       		.byte	0x30
 3404 00cb 9F       		.byte	0x9f
 3405 00cc 86000000 		.4byte	.LVL19
 3406 00d0 90000000 		.4byte	.LVL20
 3407 00d4 0200     		.2byte	0x2
ARM GAS  /tmp/ccDr56ja.s 			page 61


 3408 00d6 30       		.byte	0x30
 3409 00d7 9F       		.byte	0x9f
 3410 00d8 00000000 		.4byte	0
 3411 00dc 00000000 		.4byte	0
 3412              	.LLST3:
 3413 00e0 00000000 		.4byte	.LVL5
 3414 00e4 28000000 		.4byte	.LVL7
 3415 00e8 0200     		.2byte	0x2
 3416 00ea 30       		.byte	0x30
 3417 00eb 9F       		.byte	0x9f
 3418 00ec 28000000 		.4byte	.LVL7
 3419 00f0 42000000 		.4byte	.LVL8
 3420 00f4 0100     		.2byte	0x1
 3421 00f6 54       		.byte	0x54
 3422 00f7 52000000 		.4byte	.LVL9
 3423 00fb 5C000000 		.4byte	.LVL10
 3424 00ff 0200     		.2byte	0x2
 3425 0101 30       		.byte	0x30
 3426 0102 9F       		.byte	0x9f
 3427 0103 5C000000 		.4byte	.LVL10
 3428 0107 5E000000 		.4byte	.LVL11
 3429 010b 0100     		.2byte	0x1
 3430 010d 54       		.byte	0x54
 3431 010e 5E000000 		.4byte	.LVL11
 3432 0112 68000000 		.4byte	.LVL12
 3433 0116 0200     		.2byte	0x2
 3434 0118 30       		.byte	0x30
 3435 0119 9F       		.byte	0x9f
 3436 011a 68000000 		.4byte	.LVL12
 3437 011e 6A000000 		.4byte	.LVL13
 3438 0122 0100     		.2byte	0x1
 3439 0124 54       		.byte	0x54
 3440 0125 6A000000 		.4byte	.LVL13
 3441 0129 74000000 		.4byte	.LVL14
 3442 012d 0200     		.2byte	0x2
 3443 012f 30       		.byte	0x30
 3444 0130 9F       		.byte	0x9f
 3445 0131 74000000 		.4byte	.LVL14
 3446 0135 76000000 		.4byte	.LVL15
 3447 0139 0100     		.2byte	0x1
 3448 013b 54       		.byte	0x54
 3449 013c 76000000 		.4byte	.LVL15
 3450 0140 7C000000 		.4byte	.LVL16
 3451 0144 0200     		.2byte	0x2
 3452 0146 30       		.byte	0x30
 3453 0147 9F       		.byte	0x9f
 3454 0148 7C000000 		.4byte	.LVL16
 3455 014c 7E000000 		.4byte	.LVL17
 3456 0150 0100     		.2byte	0x1
 3457 0152 54       		.byte	0x54
 3458 0153 7E000000 		.4byte	.LVL17
 3459 0157 84000000 		.4byte	.LVL18
 3460 015b 0200     		.2byte	0x2
 3461 015d 30       		.byte	0x30
 3462 015e 9F       		.byte	0x9f
 3463 015f 84000000 		.4byte	.LVL18
 3464 0163 86000000 		.4byte	.LVL19
ARM GAS  /tmp/ccDr56ja.s 			page 62


 3465 0167 0100     		.2byte	0x1
 3466 0169 54       		.byte	0x54
 3467 016a 86000000 		.4byte	.LVL19
 3468 016e 90000000 		.4byte	.LVL20
 3469 0172 0200     		.2byte	0x2
 3470 0174 30       		.byte	0x30
 3471 0175 9F       		.byte	0x9f
 3472 0176 96000000 		.4byte	.LVL21
 3473 017a C0000000 		.4byte	.LFE259
 3474 017e 0200     		.2byte	0x2
 3475 0180 30       		.byte	0x30
 3476 0181 9F       		.byte	0x9f
 3477 0182 00000000 		.4byte	0
 3478 0186 00000000 		.4byte	0
 3479              	.LLST4:
 3480 018a 00000000 		.4byte	.LVL23
 3481 018e 30000000 		.4byte	.LVL27
 3482 0192 0100     		.2byte	0x1
 3483 0194 50       		.byte	0x50
 3484 0195 30000000 		.4byte	.LVL27
 3485 0199 8C010000 		.4byte	.LVL42
 3486 019d 0100     		.2byte	0x1
 3487 019f 55       		.byte	0x55
 3488 01a0 8C010000 		.4byte	.LVL42
 3489 01a4 D4010000 		.4byte	.LVL46
 3490 01a8 0100     		.2byte	0x1
 3491 01aa 50       		.byte	0x50
 3492 01ab D4010000 		.4byte	.LVL46
 3493 01af FC010000 		.4byte	.LFE260
 3494 01b3 0100     		.2byte	0x1
 3495 01b5 55       		.byte	0x55
 3496 01b6 00000000 		.4byte	0
 3497 01ba 00000000 		.4byte	0
 3498              	.LLST5:
 3499 01be 36000000 		.4byte	.LVL28
 3500 01c2 40000000 		.4byte	.LVL29
 3501 01c6 0100     		.2byte	0x1
 3502 01c8 54       		.byte	0x54
 3503 01c9 46000000 		.4byte	.LVL31
 3504 01cd 7E000000 		.4byte	.LVL33
 3505 01d1 0100     		.2byte	0x1
 3506 01d3 54       		.byte	0x54
 3507 01d4 86010000 		.4byte	.LVL41
 3508 01d8 8C010000 		.4byte	.LVL42
 3509 01dc 0100     		.2byte	0x1
 3510 01de 54       		.byte	0x54
 3511 01df 00000000 		.4byte	0
 3512 01e3 00000000 		.4byte	0
 3513              	.LLST6:
 3514 01e7 2A000000 		.4byte	.LVL26
 3515 01eb 36000000 		.4byte	.LVL28
 3516 01ef 0200     		.2byte	0x2
 3517 01f1 30       		.byte	0x30
 3518 01f2 9F       		.byte	0x9f
 3519 01f3 36000000 		.4byte	.LVL28
 3520 01f7 40000000 		.4byte	.LVL29
 3521 01fb 0100     		.2byte	0x1
ARM GAS  /tmp/ccDr56ja.s 			page 63


 3522 01fd 52       		.byte	0x52
 3523 01fe 40000000 		.4byte	.LVL29
 3524 0202 42000000 		.4byte	.LVL30
 3525 0206 0100     		.2byte	0x1
 3526 0208 53       		.byte	0x53
 3527 0209 42000000 		.4byte	.LVL30
 3528 020d 52000000 		.4byte	.LVL32
 3529 0211 0100     		.2byte	0x1
 3530 0213 52       		.byte	0x52
 3531 0214 86010000 		.4byte	.LVL41
 3532 0218 8C010000 		.4byte	.LVL42
 3533 021c 0100     		.2byte	0x1
 3534 021e 52       		.byte	0x52
 3535 021f 00000000 		.4byte	0
 3536 0223 00000000 		.4byte	0
 3537              	.LLST7:
 3538 0227 0E000000 		.4byte	.LVL24
 3539 022b 22000000 		.4byte	.LVL25
 3540 022f 0200     		.2byte	0x2
 3541 0231 30       		.byte	0x30
 3542 0232 9F       		.byte	0x9f
 3543 0233 8C010000 		.4byte	.LVL42
 3544 0237 AE010000 		.4byte	.LVL44
 3545 023b 0200     		.2byte	0x2
 3546 023d 30       		.byte	0x30
 3547 023e 9F       		.byte	0x9f
 3548 023f AE010000 		.4byte	.LVL44
 3549 0243 D4010000 		.4byte	.LVL46
 3550 0247 0200     		.2byte	0x2
 3551 0249 40       		.byte	0x40
 3552 024a 9F       		.byte	0x9f
 3553 024b 00000000 		.4byte	0
 3554 024f 00000000 		.4byte	0
 3555              	.LLST8:
 3556 0253 0E000000 		.4byte	.LVL24
 3557 0257 22000000 		.4byte	.LVL25
 3558 025b 0200     		.2byte	0x2
 3559 025d 34       		.byte	0x34
 3560 025e 9F       		.byte	0x9f
 3561 025f AA010000 		.4byte	.LVL43
 3562 0263 CC010000 		.4byte	.LVL45
 3563 0267 0200     		.2byte	0x2
 3564 0269 34       		.byte	0x34
 3565 026a 9F       		.byte	0x9f
 3566 026b CC010000 		.4byte	.LVL45
 3567 026f D4010000 		.4byte	.LVL46
 3568 0273 0200     		.2byte	0x2
 3569 0275 44       		.byte	0x44
 3570 0276 9F       		.byte	0x9f
 3571 0277 00000000 		.4byte	0
 3572 027b 00000000 		.4byte	0
 3573              	.LLST9:
 3574 027f 0E000000 		.4byte	.LVL24
 3575 0283 22000000 		.4byte	.LVL25
 3576 0287 0200     		.2byte	0x2
 3577 0289 30       		.byte	0x30
 3578 028a 9F       		.byte	0x9f
ARM GAS  /tmp/ccDr56ja.s 			page 64


 3579 028b 22000000 		.4byte	.LVL25
 3580 028f E8000000 		.4byte	.LVL35
 3581 0293 0100     		.2byte	0x1
 3582 0295 56       		.byte	0x56
 3583 0296 0C010000 		.4byte	.LVL36
 3584 029a 20010000 		.4byte	.LVL37
 3585 029e 0100     		.2byte	0x1
 3586 02a0 56       		.byte	0x56
 3587 02a1 2A010000 		.4byte	.LVL38
 3588 02a5 48010000 		.4byte	.LVL39
 3589 02a9 0100     		.2byte	0x1
 3590 02ab 56       		.byte	0x56
 3591 02ac 52010000 		.4byte	.LVL40
 3592 02b0 8C010000 		.4byte	.LVL42
 3593 02b4 0100     		.2byte	0x1
 3594 02b6 56       		.byte	0x56
 3595 02b7 8C010000 		.4byte	.LVL42
 3596 02bb AE010000 		.4byte	.LVL44
 3597 02bf 0200     		.2byte	0x2
 3598 02c1 30       		.byte	0x30
 3599 02c2 9F       		.byte	0x9f
 3600 02c3 AE010000 		.4byte	.LVL44
 3601 02c7 D4010000 		.4byte	.LVL46
 3602 02cb 0200     		.2byte	0x2
 3603 02cd 3C       		.byte	0x3c
 3604 02ce 9F       		.byte	0x9f
 3605 02cf D4010000 		.4byte	.LVL46
 3606 02d3 FC010000 		.4byte	.LFE260
 3607 02d7 0100     		.2byte	0x1
 3608 02d9 56       		.byte	0x56
 3609 02da 00000000 		.4byte	0
 3610 02de 00000000 		.4byte	0
 3611              	.LLST10:
 3612 02e2 00000000 		.4byte	.LVL47
 3613 02e6 0E000000 		.4byte	.LVL48
 3614 02ea 0100     		.2byte	0x1
 3615 02ec 50       		.byte	0x50
 3616 02ed 0E000000 		.4byte	.LVL48
 3617 02f1 3A000000 		.4byte	.LVL52
 3618 02f5 0100     		.2byte	0x1
 3619 02f7 54       		.byte	0x54
 3620 02f8 3A000000 		.4byte	.LVL52
 3621 02fc 48000000 		.4byte	.LFE261
 3622 0300 0400     		.2byte	0x4
 3623 0302 F3       		.byte	0xf3
 3624 0303 01       		.uleb128 0x1
 3625 0304 50       		.byte	0x50
 3626 0305 9F       		.byte	0x9f
 3627 0306 00000000 		.4byte	0
 3628 030a 00000000 		.4byte	0
 3629              		.section	.debug_aranges,"",%progbits
 3630 0000 4C000000 		.4byte	0x4c
 3631 0004 0200     		.2byte	0x2
 3632 0006 00000000 		.4byte	.Ldebug_info0
 3633 000a 04       		.byte	0x4
 3634 000b 00       		.byte	0
 3635 000c 0000     		.2byte	0
ARM GAS  /tmp/ccDr56ja.s 			page 65


 3636 000e 0000     		.2byte	0
 3637 0010 00000000 		.4byte	.LFB255
 3638 0014 02000000 		.4byte	.LFE255-.LFB255
 3639 0018 00000000 		.4byte	.LFB256
 3640 001c 60000000 		.4byte	.LFE256-.LFB256
 3641 0020 00000000 		.4byte	.LFB257
 3642 0024 28000000 		.4byte	.LFE257-.LFB257
 3643 0028 00000000 		.4byte	.LFB258
 3644 002c 4C000000 		.4byte	.LFE258-.LFB258
 3645 0030 00000000 		.4byte	.LFB259
 3646 0034 C0000000 		.4byte	.LFE259-.LFB259
 3647 0038 00000000 		.4byte	.LFB260
 3648 003c FC010000 		.4byte	.LFE260-.LFB260
 3649 0040 00000000 		.4byte	.LFB261
 3650 0044 48000000 		.4byte	.LFE261-.LFB261
 3651 0048 00000000 		.4byte	0
 3652 004c 00000000 		.4byte	0
 3653              		.section	.debug_ranges,"",%progbits
 3654              	.Ldebug_ranges0:
 3655 0000 00000000 		.4byte	.LFB255
 3656 0004 02000000 		.4byte	.LFE255
 3657 0008 00000000 		.4byte	.LFB256
 3658 000c 60000000 		.4byte	.LFE256
 3659 0010 00000000 		.4byte	.LFB257
 3660 0014 28000000 		.4byte	.LFE257
 3661 0018 00000000 		.4byte	.LFB258
 3662 001c 4C000000 		.4byte	.LFE258
 3663 0020 00000000 		.4byte	.LFB259
 3664 0024 C0000000 		.4byte	.LFE259
 3665 0028 00000000 		.4byte	.LFB260
 3666 002c FC010000 		.4byte	.LFE260
 3667 0030 00000000 		.4byte	.LFB261
 3668 0034 48000000 		.4byte	.LFE261
 3669 0038 00000000 		.4byte	0
 3670 003c 00000000 		.4byte	0
 3671              		.section	.debug_line,"",%progbits
 3672              	.Ldebug_line0:
 3673 0000 73040000 		.section	.debug_str,"MS",%progbits,1
 3673      02001803 
 3673      00000201 
 3673      FB0E0D00 
 3673      01010101 
 3674              	.LASF23:
 3675 0000 74726566 		.ascii	"trefs_t\000"
 3675      735F7400 
 3676              	.LASF51:
 3677 0008 72656164 		.ascii	"ready_list_t\000"
 3677      795F6C69 
 3677      73745F74 
 3677      00
 3678              	.LASF113:
 3679 0015 44494552 		.ascii	"DIER\000"
 3679      00
 3680              	.LASF2:
 3681 001a 73697A65 		.ascii	"size_t\000"
 3681      5F7400
 3682              	.LASF144:
ARM GAS  /tmp/ccDr56ja.s 			page 66


 3683 0021 4441435F 		.ascii	"DAC_STOP\000"
 3683      53544F50 
 3683      00
 3684              	.LASF124:
 3685 002a 7264796D 		.ascii	"rdymsg\000"
 3685      736700
 3686              	.LASF19:
 3687 0031 75696E74 		.ascii	"uint64_t\000"
 3687      36345F74 
 3687      00
 3688              	.LASF3:
 3689 003a 5F5F7569 		.ascii	"__uint8_t\000"
 3689      6E74385F 
 3689      7400
 3690              	.LASF163:
 3691 0044 4441435F 		.ascii	"DAC_DHRM_12BIT_LEFT\000"
 3691      4448524D 
 3691      5F313242 
 3691      49545F4C 
 3691      45465400 
 3692              	.LASF111:
 3693 0058 706F7274 		.ascii	"port_intctx\000"
 3693      5F696E74 
 3693      63747800 
 3694              	.LASF50:
 3695 0064 63685F74 		.ascii	"ch_threads_queue\000"
 3695      68726561 
 3695      64735F71 
 3695      75657565 
 3695      00
 3696              	.LASF70:
 3697 0075 73797374 		.ascii	"system_debug_t\000"
 3697      656D5F64 
 3697      65627567 
 3697      5F7400
 3698              	.LASF187:
 3699 0084 6461635F 		.ascii	"dac_lld_start_conversion\000"
 3699      6C6C645F 
 3699      73746172 
 3699      745F636F 
 3699      6E766572 
 3700              	.LASF139:
 3701 009d 76656374 		.ascii	"vector\000"
 3701      6F7200
 3702              	.LASF14:
 3703 00a4 6C6F6E67 		.ascii	"long long unsigned int\000"
 3703      206C6F6E 
 3703      6720756E 
 3703      7369676E 
 3703      65642069 
 3704              	.LASF83:
 3705 00bb 44485238 		.ascii	"DHR8R1\000"
 3705      523100
 3706              	.LASF86:
 3707 00c2 44485238 		.ascii	"DHR8R2\000"
 3707      523200
 3708              	.LASF125:
ARM GAS  /tmp/ccDr56ja.s 			page 67


 3709 00c9 65786974 		.ascii	"exitcode\000"
 3709      636F6465 
 3709      00
 3710              	.LASF191:
 3711 00d2 5F73746D 		.ascii	"_stm32_dma_streams\000"
 3711      33325F64 
 3711      6D615F73 
 3711      74726561 
 3711      6D7300
 3712              	.LASF8:
 3713 00e5 5F5F696E 		.ascii	"__int32_t\000"
 3713      7433325F 
 3713      7400
 3714              	.LASF67:
 3715 00ef 76697274 		.ascii	"virtual_timers_list_t\000"
 3715      75616C5F 
 3715      74696D65 
 3715      72735F6C 
 3715      6973745F 
 3716              	.LASF190:
 3717 0105 49544D5F 		.ascii	"ITM_RxBuffer\000"
 3717      52784275 
 3717      66666572 
 3717      00
 3718              	.LASF117:
 3719 0112 42445452 		.ascii	"BDTR\000"
 3719      00
 3720              	.LASF169:
 3721 0117 66726571 		.ascii	"frequency\000"
 3721      75656E63 
 3721      7900
 3722              	.LASF31:
 3723 0121 705F7072 		.ascii	"p_prio\000"
 3723      696F00
 3724              	.LASF114:
 3725 0128 43434D52 		.ascii	"CCMR1\000"
 3725      3100
 3726              	.LASF115:
 3727 012e 43434D52 		.ascii	"CCMR2\000"
 3727      3200
 3728              	.LASF119:
 3729 0134 43434D52 		.ascii	"CCMR3\000"
 3729      3300
 3730              	.LASF1:
 3731 013a 7369676E 		.ascii	"signed char\000"
 3731      65642063 
 3731      68617200 
 3732              	.LASF36:
 3733 0146 705F7374 		.ascii	"p_state\000"
 3733      61746500 
 3734              	.LASF130:
 3735 014e 6D5F7175 		.ascii	"m_queue\000"
 3735      65756500 
 3736              	.LASF188:
 3737 0156 7472676F 		.ascii	"trgo\000"
 3737      00
 3738              	.LASF177:
ARM GAS  /tmp/ccDr56ja.s 			page 68


 3739 015b 64616370 		.ascii	"dacp\000"
 3739      00
 3740              	.LASF141:
 3741 0160 73746D33 		.ascii	"stm32_dmaisr_t\000"
 3741      325F646D 
 3741      61697372 
 3741      5F7400
 3742              	.LASF151:
 3743 016f 73746174 		.ascii	"state\000"
 3743      6500
 3744              	.LASF74:
 3745 0175 63685F73 		.ascii	"ch_system\000"
 3745      79737465 
 3745      6D00
 3746              	.LASF9:
 3747 017f 6C6F6E67 		.ascii	"long int\000"
 3747      20696E74 
 3747      00
 3748              	.LASF157:
 3749 0188 69727170 		.ascii	"irqprio\000"
 3749      72696F00 
 3750              	.LASF98:
 3751 0190 41504232 		.ascii	"APB2RSTR\000"
 3751      52535452 
 3751      00
 3752              	.LASF22:
 3753 0199 74737461 		.ascii	"tstate_t\000"
 3753      74655F74 
 3753      00
 3754              	.LASF148:
 3755 01a2 4441435F 		.ascii	"DAC_ERROR\000"
 3755      4552524F 
 3755      5200
 3756              	.LASF147:
 3757 01ac 4441435F 		.ascii	"DAC_COMPLETE\000"
 3757      434F4D50 
 3757      4C455445 
 3757      00
 3758              	.LASF33:
 3759 01b9 705F6E65 		.ascii	"p_newer\000"
 3759      77657200 
 3760              	.LASF171:
 3761 01c1 656E645F 		.ascii	"end_cb\000"
 3761      636200
 3762              	.LASF7:
 3763 01c8 73686F72 		.ascii	"short unsigned int\000"
 3763      7420756E 
 3763      7369676E 
 3763      65642069 
 3763      6E7400
 3764              	.LASF194:
 3765 01db 474E5520 		.ascii	"GNU C 4.9.3 20141119 (release) [ARM/embedded-4_9-br"
 3765      4320342E 
 3765      392E3320 
 3765      32303134 
 3765      31313139 
 3766 020e 616E6368 		.ascii	"anch revision 218278] -mcpu=cortex-m4 -mfloat-abi=h"
ARM GAS  /tmp/ccDr56ja.s 			page 69


 3766      20726576 
 3766      6973696F 
 3766      6E203231 
 3766      38323738 
 3767 0241 61726420 		.ascii	"ard -mfpu=fpv4-sp-d16 -mno-thumb-interwork -mthumb "
 3767      2D6D6670 
 3767      753D6670 
 3767      76342D73 
 3767      702D6431 
 3768 0274 2D676764 		.ascii	"-ggdb -O2 -fomit-frame-pointer -falign-functions=16"
 3768      62202D4F 
 3768      32202D66 
 3768      6F6D6974 
 3768      2D667261 
 3769 02a7 202D6666 		.ascii	" -ffunction-sections -fdata-sections -fno-common -f"
 3769      756E6374 
 3769      696F6E2D 
 3769      73656374 
 3769      696F6E73 
 3770 02da 73696E67 		.ascii	"single-precision-constant\000"
 3770      6C652D70 
 3770      72656369 
 3770      73696F6E 
 3770      2D636F6E 
 3771              	.LASF56:
 3772 02f4 725F6E65 		.ascii	"r_newer\000"
 3772      77657200 
 3773              	.LASF45:
 3774 02fc 705F6D70 		.ascii	"p_mpool\000"
 3774      6F6F6C00 
 3775              	.LASF108:
 3776 0304 72656761 		.ascii	"regarm_t\000"
 3776      726D5F74 
 3776      00
 3777              	.LASF63:
 3778 030d 76745F70 		.ascii	"vt_prev\000"
 3778      72657600 
 3779              	.LASF76:
 3780 0315 76746C69 		.ascii	"vtlist\000"
 3780      737400
 3781              	.LASF12:
 3782 031c 6C6F6E67 		.ascii	"long long int\000"
 3782      206C6F6E 
 3782      6720696E 
 3782      7400
 3783              	.LASF183:
 3784 032a 76616C75 		.ascii	"value\000"
 3784      6500
 3785              	.LASF78:
 3786 0330 69646C65 		.ascii	"idle_thread_wa\000"
 3786      5F746872 
 3786      6561645F 
 3786      776100
 3787              	.LASF161:
 3788 033f 64616363 		.ascii	"daccallback_t\000"
 3788      616C6C62 
 3788      61636B5F 
ARM GAS  /tmp/ccDr56ja.s 			page 70


 3788      7400
 3789              	.LASF0:
 3790 034d 756E7369 		.ascii	"unsigned int\000"
 3790      676E6564 
 3790      20696E74 
 3790      00
 3791              	.LASF62:
 3792 035a 76745F6E 		.ascii	"vt_next\000"
 3792      65787400 
 3793              	.LASF184:
 3794 0362 64617461 		.ascii	"dataoffset\000"
 3794      6F666673 
 3794      657400
 3795              	.LASF132:
 3796 036d 6D5F6E65 		.ascii	"m_next\000"
 3796      787400
 3797              	.LASF175:
 3798 0374 63725F66 		.ascii	"cr_flags\000"
 3798      6C616773 
 3798      00
 3799              	.LASF94:
 3800 037d 43504152 		.ascii	"CPAR\000"
 3800      00
 3801              	.LASF64:
 3802 0382 76745F64 		.ascii	"vt_delta\000"
 3802      656C7461 
 3802      00
 3803              	.LASF40:
 3804 038b 705F6D73 		.ascii	"p_msgqueue\000"
 3804      67717565 
 3804      756500
 3805              	.LASF107:
 3806 0396 5243435F 		.ascii	"RCC_TypeDef\000"
 3806      54797065 
 3806      44656600 
 3807              	.LASF47:
 3808 03a2 63685F74 		.ascii	"ch_thread\000"
 3808      68726561 
 3808      6400
 3809              	.LASF165:
 3810 03ac 4441435F 		.ascii	"DAC_DHRM_12BIT_RIGHT_DUAL\000"
 3810      4448524D 
 3810      5F313242 
 3810      49545F52 
 3810      49474854 
 3811              	.LASF96:
 3812 03c6 444D415F 		.ascii	"DMA_Channel_TypeDef\000"
 3812      4368616E 
 3812      6E656C5F 
 3812      54797065 
 3812      44656600 
 3813              	.LASF137:
 3814 03da 69736869 		.ascii	"ishift\000"
 3814      667400
 3815              	.LASF173:
 3816 03e1 44414343 		.ascii	"DACConversionGroup\000"
 3816      6F6E7665 
ARM GAS  /tmp/ccDr56ja.s 			page 71


 3816      7273696F 
 3816      6E47726F 
 3816      757000
 3817              	.LASF186:
 3818 03f4 64617461 		.ascii	"data\000"
 3818      00
 3819              	.LASF112:
 3820 03f9 534D4352 		.ascii	"SMCR\000"
 3820      00
 3821              	.LASF154:
 3822 03fe 64657074 		.ascii	"depth\000"
 3822      6800
 3823              	.LASF25:
 3824 0404 6D73675F 		.ascii	"msg_t\000"
 3824      7400
 3825              	.LASF73:
 3826 040a 63685F73 		.ascii	"ch_system_t\000"
 3826      79737465 
 3826      6D5F7400 
 3827              	.LASF181:
 3828 0416 6461635F 		.ascii	"dac_lld_stop\000"
 3828      6C6C645F 
 3828      73746F70 
 3828      00
 3829              	.LASF121:
 3830 0423 73746D33 		.ascii	"stm32_tim_t\000"
 3830      325F7469 
 3830      6D5F7400 
 3831              	.LASF16:
 3832 042f 75696E74 		.ascii	"uint16_t\000"
 3832      31365F74 
 3832      00
 3833              	.LASF52:
 3834 0438 63685F72 		.ascii	"ch_ready_list\000"
 3834      65616479 
 3834      5F6C6973 
 3834      7400
 3835              	.LASF26:
 3836 0446 6576656E 		.ascii	"eventmask_t\000"
 3836      746D6173 
 3836      6B5F7400 
 3837              	.LASF182:
 3838 0452 6461635F 		.ascii	"dac_lld_single_convert\000"
 3838      6C6C645F 
 3838      73696E67 
 3838      6C655F63 
 3838      6F6E7665 
 3839              	.LASF145:
 3840 0469 4441435F 		.ascii	"DAC_READY\000"
 3840      52454144 
 3840      5900
 3841              	.LASF95:
 3842 0473 434D4152 		.ascii	"CMAR\000"
 3842      00
 3843              	.LASF109:
 3844 0478 73746B61 		.ascii	"stkalign_t\000"
 3844      6C69676E 
ARM GAS  /tmp/ccDr56ja.s 			page 72


 3844      5F7400
 3845              	.LASF99:
 3846 0483 41504231 		.ascii	"APB1RSTR\000"
 3846      52535452 
 3846      00
 3847              	.LASF46:
 3848 048c 74687265 		.ascii	"threads_list_t\000"
 3848      6164735F 
 3848      6C697374 
 3848      5F7400
 3849              	.LASF13:
 3850 049b 5F5F7569 		.ascii	"__uint64_t\000"
 3850      6E743634 
 3850      5F7400
 3851              	.LASF201:
 3852 04a6 646D6153 		.ascii	"dmaStreamRelease\000"
 3852      74726561 
 3852      6D52656C 
 3852      65617365 
 3852      00
 3853              	.LASF152:
 3854 04b7 67727070 		.ascii	"grpp\000"
 3854      00
 3855              	.LASF153:
 3856 04bc 73616D70 		.ascii	"samples\000"
 3856      6C657300 
 3857              	.LASF39:
 3858 04c4 705F7761 		.ascii	"p_waiting\000"
 3858      6974696E 
 3858      6700
 3859              	.LASF79:
 3860 04ce 73697A65 		.ascii	"sizetype\000"
 3860      74797065 
 3860      00
 3861              	.LASF133:
 3862 04d7 74687265 		.ascii	"thread_reference_t\000"
 3862      61645F72 
 3862      65666572 
 3862      656E6365 
 3862      5F7400
 3863              	.LASF68:
 3864 04ea 63685F76 		.ascii	"ch_virtual_timers_list\000"
 3864      69727475 
 3864      616C5F74 
 3864      696D6572 
 3864      735F6C69 
 3865              	.LASF185:
 3866 0501 72656773 		.ascii	"regshift\000"
 3866      68696674 
 3866      00
 3867              	.LASF29:
 3868 050a 705F6E65 		.ascii	"p_next\000"
 3868      787400
 3869              	.LASF69:
 3870 0511 76745F6C 		.ascii	"vt_lasttime\000"
 3870      61737474 
 3870      696D6500 
ARM GAS  /tmp/ccDr56ja.s 			page 73


 3871              	.LASF34:
 3872 051d 705F6F6C 		.ascii	"p_older\000"
 3872      64657200 
 3873              	.LASF55:
 3874 0525 725F6374 		.ascii	"r_ctx\000"
 3874      7800
 3875              	.LASF176:
 3876 052b 44414343 		.ascii	"DACConfig\000"
 3876      6F6E6669 
 3876      6700
 3877              	.LASF123:
 3878 0535 746D5F63 		.ascii	"tm_calibration_t\000"
 3878      616C6962 
 3878      72617469 
 3878      6F6E5F74 
 3878      00
 3879              	.LASF104:
 3880 0546 41484252 		.ascii	"AHBRSTR\000"
 3880      53545200 
 3881              	.LASF58:
 3882 054e 725F6375 		.ascii	"r_current\000"
 3882      7272656E 
 3882      7400
 3883              	.LASF57:
 3884 0558 725F6F6C 		.ascii	"r_older\000"
 3884      64657200 
 3885              	.LASF146:
 3886 0560 4441435F 		.ascii	"DAC_ACTIVE\000"
 3886      41435449 
 3886      564500
 3887              	.LASF199:
 3888 056b 6461634F 		.ascii	"dacObjectInit\000"
 3888      626A6563 
 3888      74496E69 
 3888      7400
 3889              	.LASF90:
 3890 0579 444F5231 		.ascii	"DOR1\000"
 3890      00
 3891              	.LASF91:
 3892 057e 444F5232 		.ascii	"DOR2\000"
 3892      00
 3893              	.LASF168:
 3894 0583 64616364 		.ascii	"dacdhrmode_t\000"
 3894      68726D6F 
 3894      64655F74 
 3894      00
 3895              	.LASF149:
 3896 0590 64616373 		.ascii	"dacstate_t\000"
 3896      74617465 
 3896      5F7400
 3897              	.LASF60:
 3898 059b 76697274 		.ascii	"virtual_timer_t\000"
 3898      75616C5F 
 3898      74696D65 
 3898      725F7400 
 3899              	.LASF30:
 3900 05ab 705F7072 		.ascii	"p_prev\000"
ARM GAS  /tmp/ccDr56ja.s 			page 74


 3900      657600
 3901              	.LASF140:
 3902 05b2 73746D33 		.ascii	"stm32_dma_stream_t\000"
 3902      325F646D 
 3902      615F7374 
 3902      7265616D 
 3902      5F7400
 3903              	.LASF164:
 3904 05c5 4441435F 		.ascii	"DAC_DHRM_8BIT_RIGHT\000"
 3904      4448524D 
 3904      5F384249 
 3904      545F5249 
 3904      47485400 
 3905              	.LASF24:
 3906 05d9 74707269 		.ascii	"tprio_t\000"
 3906      6F5F7400 
 3907              	.LASF129:
 3908 05e1 6D757465 		.ascii	"mutex\000"
 3908      7800
 3909              	.LASF179:
 3910 05e7 6461635F 		.ascii	"dac_lld_init\000"
 3910      6C6C645F 
 3910      696E6974 
 3910      00
 3911              	.LASF71:
 3912 05f4 63685F73 		.ascii	"ch_system_debug\000"
 3912      79737465 
 3912      6D5F6465 
 3912      62756700 
 3913              	.LASF142:
 3914 0604 5F426F6F 		.ascii	"_Bool\000"
 3914      6C00
 3915              	.LASF17:
 3916 060a 696E7433 		.ascii	"int32_t\000"
 3916      325F7400 
 3917              	.LASF4:
 3918 0612 756E7369 		.ascii	"unsigned char\000"
 3918      676E6564 
 3918      20636861 
 3918      7200
 3919              	.LASF41:
 3920 0620 705F6D73 		.ascii	"p_msg\000"
 3920      6700
 3921              	.LASF167:
 3922 0626 4441435F 		.ascii	"DAC_DHRM_8BIT_RIGHT_DUAL\000"
 3922      4448524D 
 3922      5F384249 
 3922      545F5249 
 3922      4748545F 
 3923              	.LASF43:
 3924 063f 705F6D74 		.ascii	"p_mtxlist\000"
 3924      786C6973 
 3924      7400
 3925              	.LASF5:
 3926 0649 73686F72 		.ascii	"short int\000"
 3926      7420696E 
 3926      7400
ARM GAS  /tmp/ccDr56ja.s 			page 75


 3927              	.LASF143:
 3928 0653 4441435F 		.ascii	"DAC_UNINIT\000"
 3928      554E494E 
 3928      495400
 3929              	.LASF162:
 3930 065e 4441435F 		.ascii	"DAC_DHRM_12BIT_RIGHT\000"
 3930      4448524D 
 3930      5F313242 
 3930      49545F52 
 3930      49474854 
 3931              	.LASF172:
 3932 0673 6572726F 		.ascii	"error_cb\000"
 3932      725F6362 
 3932      00
 3933              	.LASF54:
 3934 067c 725F7072 		.ascii	"r_prio\000"
 3934      696F00
 3935              	.LASF127:
 3936 0683 65776D61 		.ascii	"ewmask\000"
 3936      736B00
 3937              	.LASF37:
 3938 068a 705F666C 		.ascii	"p_flags\000"
 3938      61677300 
 3939              	.LASF198:
 3940 0692 5F5F6675 		.ascii	"__func__\000"
 3940      6E635F5F 
 3940      00
 3941              	.LASF77:
 3942 069b 6D61696E 		.ascii	"mainthread\000"
 3942      74687265 
 3942      616400
 3943              	.LASF101:
 3944 06a6 41504232 		.ascii	"APB2ENR\000"
 3944      454E5200 
 3945              	.LASF135:
 3946 06ae 6368616E 		.ascii	"channel\000"
 3946      6E656C00 
 3947              	.LASF150:
 3948 06b6 44414344 		.ascii	"DACDriver\000"
 3948      72697665 
 3948      7200
 3949              	.LASF120:
 3950 06c0 43435852 		.ascii	"CCXR\000"
 3950      00
 3951              	.LASF42:
 3952 06c5 705F6570 		.ascii	"p_epending\000"
 3952      656E6469 
 3952      6E6700
 3953              	.LASF136:
 3954 06d0 69666372 		.ascii	"ifcr\000"
 3954      00
 3955              	.LASF81:
 3956 06d5 44485231 		.ascii	"DHR12R1\000"
 3956      32523100 
 3957              	.LASF84:
 3958 06dd 44485231 		.ascii	"DHR12R2\000"
 3958      32523200 
ARM GAS  /tmp/ccDr56ja.s 			page 76


 3959              	.LASF53:
 3960 06e5 725F7175 		.ascii	"r_queue\000"
 3960      65756500 
 3961              	.LASF48:
 3962 06ed 63685F74 		.ascii	"ch_threads_list\000"
 3962      68726561 
 3962      64735F6C 
 3962      69737400 
 3963              	.LASF89:
 3964 06fd 44485238 		.ascii	"DHR8RD\000"
 3964      524400
 3965              	.LASF196:
 3966 0704 2F686F6D 		.ascii	"/home/bhimebau/forge/annsynth/src\000"
 3966      652F6268 
 3966      696D6562 
 3966      61752F66 
 3966      6F726765 
 3967              	.LASF11:
 3968 0726 6C6F6E67 		.ascii	"long unsigned int\000"
 3968      20756E73 
 3968      69676E65 
 3968      6420696E 
 3968      7400
 3969              	.LASF128:
 3970 0738 63686172 		.ascii	"char\000"
 3970      00
 3971              	.LASF6:
 3972 073d 5F5F7569 		.ascii	"__uint16_t\000"
 3972      6E743136 
 3972      5F7400
 3973              	.LASF189:
 3974 0748 6461635F 		.ascii	"dac_lld_stop_conversion\000"
 3974      6C6C645F 
 3974      73746F70 
 3974      5F636F6E 
 3974      76657273 
 3975              	.LASF155:
 3976 0760 636F6E66 		.ascii	"config\000"
 3976      696700
 3977              	.LASF87:
 3978 0767 44485231 		.ascii	"DHR12RD\000"
 3978      32524400 
 3979              	.LASF118:
 3980 076f 444D4152 		.ascii	"DMAR\000"
 3980      00
 3981              	.LASF28:
 3982 0774 74687265 		.ascii	"thread_t\000"
 3982      61645F74 
 3982      00
 3983              	.LASF116:
 3984 077d 43434552 		.ascii	"CCER\000"
 3984      00
 3985              	.LASF195:
 3986 0782 2E2E2F43 		.ascii	"../ChibiOS/../ChibiOS-Drivers/stm32/dac_driver_lld."
 3986      68696269 
 3986      4F532F2E 
 3986      2E2F4368 
ARM GAS  /tmp/ccDr56ja.s 			page 77


 3986      6962694F 
 3987 07b5 6300     		.ascii	"c\000"
 3988              	.LASF170:
 3989 07b7 6E756D5F 		.ascii	"num_channels\000"
 3989      6368616E 
 3989      6E656C73 
 3989      00
 3990              	.LASF27:
 3991 07c4 73797374 		.ascii	"systime_t\000"
 3991      696D655F 
 3991      7400
 3992              	.LASF44:
 3993 07ce 705F7265 		.ascii	"p_realprio\000"
 3993      616C7072 
 3993      696F00
 3994              	.LASF59:
 3995 07d9 76746675 		.ascii	"vtfunc_t\000"
 3995      6E635F74 
 3995      00
 3996              	.LASF10:
 3997 07e2 5F5F7569 		.ascii	"__uint32_t\000"
 3997      6E743332 
 3997      5F7400
 3998              	.LASF180:
 3999 07ed 6461635F 		.ascii	"dac_lld_start\000"
 3999      6C6C645F 
 3999      73746172 
 3999      7400
 4000              	.LASF82:
 4001 07fb 44485231 		.ascii	"DHR12L1\000"
 4001      324C3100 
 4002              	.LASF72:
 4003 0803 70616E69 		.ascii	"panic_msg\000"
 4003      635F6D73 
 4003      6700
 4004              	.LASF122:
 4005 080d 6F666673 		.ascii	"offset\000"
 4005      657400
 4006              	.LASF102:
 4007 0814 41504231 		.ascii	"APB1ENR\000"
 4007      454E5200 
 4008              	.LASF166:
 4009 081c 4441435F 		.ascii	"DAC_DHRM_12BIT_LEFT_DUAL\000"
 4009      4448524D 
 4009      5F313242 
 4009      49545F4C 
 4009      4546545F 
 4010              	.LASF110:
 4011 0835 636F6E74 		.ascii	"context\000"
 4011      65787400 
 4012              	.LASF61:
 4013 083d 63685F76 		.ascii	"ch_virtual_timer\000"
 4013      69727475 
 4013      616C5F74 
 4013      696D6572 
 4013      00
 4014              	.LASF20:
ARM GAS  /tmp/ccDr56ja.s 			page 78


 4015 084e 7274636E 		.ascii	"rtcnt_t\000"
 4015      745F7400 
 4016              	.LASF192:
 4017 0856 44414344 		.ascii	"DACD1\000"
 4017      3100
 4018              	.LASF138:
 4019 085c 73656C66 		.ascii	"selfindex\000"
 4019      696E6465 
 4019      7800
 4020              	.LASF66:
 4021 0866 76745F70 		.ascii	"vt_par\000"
 4021      617200
 4022              	.LASF18:
 4023 086d 75696E74 		.ascii	"uint32_t\000"
 4023      33325F74 
 4023      00
 4024              	.LASF49:
 4025 0876 74687265 		.ascii	"threads_queue_t\000"
 4025      6164735F 
 4025      71756575 
 4025      655F7400 
 4026              	.LASF92:
 4027 0886 4441435F 		.ascii	"DAC_TypeDef\000"
 4027      54797065 
 4027      44656600 
 4028              	.LASF38:
 4029 0892 705F7265 		.ascii	"p_refs\000"
 4029      667300
 4030              	.LASF174:
 4031 0899 6468726D 		.ascii	"dhrm\000"
 4031      00
 4032              	.LASF80:
 4033 089e 53575452 		.ascii	"SWTRIGR\000"
 4033      49475200 
 4034              	.LASF93:
 4035 08a6 434E4454 		.ascii	"CNDTR\000"
 4035      5200
 4036              	.LASF103:
 4037 08ac 42444352 		.ascii	"BDCR\000"
 4037      00
 4038              	.LASF75:
 4039 08b1 726C6973 		.ascii	"rlist\000"
 4039      7400
 4040              	.LASF105:
 4041 08b7 43464752 		.ascii	"CFGR2\000"
 4041      3200
 4042              	.LASF106:
 4043 08bd 43464752 		.ascii	"CFGR3\000"
 4043      3300
 4044              	.LASF15:
 4045 08c3 75696E74 		.ascii	"uint8_t\000"
 4045      385F7400 
 4046              	.LASF160:
 4047 08cb 64616373 		.ascii	"dacsample_t\000"
 4047      616D706C 
 4047      655F7400 
 4048              	.LASF178:
ARM GAS  /tmp/ccDr56ja.s 			page 79


 4049 08d7 666C6167 		.ascii	"flags\000"
 4049      7300
 4050              	.LASF158:
 4051 08dd 646D616D 		.ascii	"dmamode\000"
 4051      6F646500 
 4052              	.LASF126:
 4053 08e5 77746F62 		.ascii	"wtobjp\000"
 4053      6A7000
 4054              	.LASF35:
 4055 08ec 705F6E61 		.ascii	"p_name\000"
 4055      6D6500
 4056              	.LASF97:
 4057 08f3 43464752 		.ascii	"CFGR\000"
 4057      00
 4058              	.LASF21:
 4059 08f8 746D6F64 		.ascii	"tmode_t\000"
 4059      655F7400 
 4060              	.LASF85:
 4061 0900 44485231 		.ascii	"DHR12L2\000"
 4061      324C3200 
 4062              	.LASF88:
 4063 0908 44485231 		.ascii	"DHR12LD\000"
 4063      324C4400 
 4064              	.LASF159:
 4065 0910 636C6F63 		.ascii	"clock\000"
 4065      6B00
 4066              	.LASF193:
 4067 0916 44414344 		.ascii	"DACD2\000"
 4067      3200
 4068              	.LASF156:
 4069 091c 74687265 		.ascii	"thread\000"
 4069      616400
 4070              	.LASF197:
 4071 0923 6461635F 		.ascii	"dac_lld_serve_tx_interrupt\000"
 4071      6C6C645F 
 4071      73657276 
 4071      655F7478 
 4071      5F696E74 
 4072              	.LASF134:
 4073 093e 6D757465 		.ascii	"mutex_t\000"
 4073      785F7400 
 4074              	.LASF131:
 4075 0946 6D5F6F77 		.ascii	"m_owner\000"
 4075      6E657200 
 4076              	.LASF200:
 4077 094e 646D6153 		.ascii	"dmaStreamAllocate\000"
 4077      74726561 
 4077      6D416C6C 
 4077      6F636174 
 4077      6500
 4078              	.LASF32:
 4079 0960 705F6374 		.ascii	"p_ctx\000"
 4079      7800
 4080              	.LASF65:
 4081 0966 76745F66 		.ascii	"vt_func\000"
 4081      756E6300 
 4082              	.LASF100:
ARM GAS  /tmp/ccDr56ja.s 			page 80


 4083 096e 41484245 		.ascii	"AHBENR\000"
 4083      4E5200
 4084              		.ident	"GCC: (GNU Tools for ARM Embedded Processors) 4.9.3 20141119 (release) [ARM/embedded-4_9-br
ARM GAS  /tmp/ccDr56ja.s 			page 81


DEFINED SYMBOLS
                            *ABS*:00000000 dac_driver_lld.c
     /tmp/ccDr56ja.s:21     .text.dac_lld_serve_tx_interrupt:00000000 $t
     /tmp/ccDr56ja.s:26     .text.dac_lld_serve_tx_interrupt:00000000 dac_lld_serve_tx_interrupt
     /tmp/ccDr56ja.s:40     .text.dac_lld_init:00000000 $t
     /tmp/ccDr56ja.s:46     .text.dac_lld_init:00000000 dac_lld_init
     /tmp/ccDr56ja.s:113    .text.dac_lld_init:00000048 $d
     /tmp/ccDr56ja.s:123    .text.dac_lld_start:00000000 $t
     /tmp/ccDr56ja.s:129    .text.dac_lld_start:00000000 dac_lld_start
     /tmp/ccDr56ja.s:156    .text.dac_lld_start:0000001c $d
     /tmp/ccDr56ja.s:163    .text.dac_lld_stop:00000000 $t
     /tmp/ccDr56ja.s:169    .text.dac_lld_stop:00000000 dac_lld_stop
     /tmp/ccDr56ja.s:216    .text.dac_lld_stop:0000003c $d
     /tmp/ccDr56ja.s:224    .text.dac_lld_single_convert:00000000 $t
     /tmp/ccDr56ja.s:230    .text.dac_lld_single_convert:00000000 dac_lld_single_convert
     /tmp/ccDr56ja.s:261    .text.dac_lld_single_convert:0000001c $d
     /tmp/ccDr56ja.s:267    .text.dac_lld_single_convert:00000022 $t
     /tmp/ccDr56ja.s:381    .text.dac_lld_single_convert:000000b0 $d
     /tmp/ccDr56ja.s:389    .text.dac_lld_start_conversion:00000000 $t
     /tmp/ccDr56ja.s:395    .text.dac_lld_start_conversion:00000000 dac_lld_start_conversion
     /tmp/ccDr56ja.s:525    .text.dac_lld_start_conversion:000000ce $d
     /tmp/ccDr56ja.s:531    .text.dac_lld_start_conversion:000000d4 $t
     /tmp/ccDr56ja.s:727    .text.dac_lld_start_conversion:000001e0 $d
     /tmp/ccDr56ja.s:738    .text.dac_lld_stop_conversion:00000000 $t
     /tmp/ccDr56ja.s:744    .text.dac_lld_stop_conversion:00000000 dac_lld_stop_conversion
     /tmp/ccDr56ja.s:799    .text.dac_lld_stop_conversion:0000003c $d
     /tmp/ccDr56ja.s:819    .bss.DACD2:00000000 DACD2
     /tmp/ccDr56ja.s:812    .bss.DACD1:00000000 DACD1
     /tmp/ccDr56ja.s:808    .bss.DACD1:00000000 $d
     /tmp/ccDr56ja.s:815    .bss.DACD2:00000000 $d
                     .debug_frame:00000010 $d
     /tmp/ccDr56ja.s:162    .text.dac_lld_start:00000028 $t
     /tmp/ccDr56ja.s:223    .text.dac_lld_stop:0000004c $t
     /tmp/ccDr56ja.s:737    .text.dac_lld_start_conversion:000001fc $t
     /tmp/ccDr56ja.s:807    .text.dac_lld_stop_conversion:00000048 $t

UNDEFINED SYMBOLS
dacObjectInit
_stm32_dma_streams
dmaStreamAllocate
dmaStreamRelease
