ARM GAS  /tmp/ccDr56ja.s 			page 1


   1              		.syntax unified
   2              		.cpu cortex-m4
   3              		.eabi_attribute 27, 3
   4              		.eabi_attribute 28, 1
   5              		.fpu fpv4-sp-d16
   6              		.eabi_attribute 20, 1
   7              		.eabi_attribute 21, 1
   8              		.eabi_attribute 23, 3
   9              		.eabi_attribute 24, 1
  10              		.eabi_attribute 25, 1
  11              		.eabi_attribute 26, 1
  12              		.eabi_attribute 30, 2
  13              		.eabi_attribute 34, 1
  14              		.eabi_attribute 18, 4
  15              		.thumb
  16              		.file	"dac_driver_lld.c"
  17              		.text
  18              	.Ltext0:
  19              		.cfi_sections	.debug_frame
  20              		.section	.text.dac_lld_serve_tx_interrupt,"ax",%progbits
  21              		.align	2
  22              		.p2align 4,,15
  23              		.thumb
  24              		.thumb_func
  25              		.type	dac_lld_serve_tx_interrupt, %function
  26              	dac_lld_serve_tx_interrupt:
  27              	.LFB255:
  28              		.file 1 "../ChibiOS/../ChibiOS-Drivers/stm32/dac_driver_lld.c"
  29              		.loc 1 88 0
  30              		.cfi_startproc
  31              		@ args = 0, pretend = 0, frame = 0
  32              		@ frame_needed = 0, uses_anonymous_args = 0
  33              		@ link register save eliminated.
  34              	.LVL0:
  35 0000 7047     		bx	lr
  36              		.cfi_endproc
  37              	.LFE255:
  38              		.size	dac_lld_serve_tx_interrupt, .-dac_lld_serve_tx_interrupt
  39 0002 00BFAFF3 		.section	.text.dac_lld_init,"ax",%progbits
  39      0080AFF3 
  39      0080AFF3 
  39      0080
  40              		.align	2
  41              		.p2align 4,,15
  42              		.global	dac_lld_init
  43              		.thumb
  44              		.thumb_func
  45              		.type	dac_lld_init, %function
  46              	dac_lld_init:
  47              	.LFB256:
  48              		.loc 1 125 0
  49              		.cfi_startproc
  50              		@ args = 0, pretend = 0, frame = 0
  51              		@ frame_needed = 0, uses_anonymous_args = 0
  52              		.loc 1 125 0
  53 0000 2DE9F843 		push	{r3, r4, r5, r6, r7, r8, r9, lr}
  54              		.cfi_def_cfa_offset 32
ARM GAS  /tmp/ccDr56ja.s 			page 2


  55              		.cfi_offset 3, -32
  56              		.cfi_offset 4, -28
  57              		.cfi_offset 5, -24
  58              		.cfi_offset 6, -20
  59              		.cfi_offset 7, -16
  60              		.cfi_offset 8, -12
  61              		.cfi_offset 9, -8
  62              		.cfi_offset 14, -4
  63              		.loc 1 128 0
  64 0004 104D     		ldr	r5, .L4
  65              		.loc 1 142 0
  66 0006 114C     		ldr	r4, .L4+4
  67              		.loc 1 132 0
  68 0008 114E     		ldr	r6, .L4+8
  69              		.loc 1 129 0
  70 000a DFF85090 		ldr	r9, .L4+20
  71              		.loc 1 128 0
  72 000e 2846     		mov	r0, r5
  73 0010 FFF7FEFF 		bl	dacObjectInit
  74              	.LVL1:
  75              		.loc 1 131 0
  76 0014 4FF00A08 		mov	r8, #10
  77              		.loc 1 130 0
  78 0018 0E4B     		ldr	r3, .L4+12
  79 001a EB62     		str	r3, [r5, #44]
  80              		.loc 1 133 0
  81 001c 42F29A07 		movw	r7, #8346
  82              		.loc 1 142 0
  83 0020 2046     		mov	r0, r4
  84              		.loc 1 132 0
  85 0022 6E63     		str	r6, [r5, #52]
  86              		.loc 1 129 0
  87 0024 C5F82890 		str	r9, [r5, #40]
  88              		.loc 1 131 0
  89 0028 C5F83080 		str	r8, [r5, #48]
  90              		.loc 1 133 0
  91 002c AF63     		str	r7, [r5, #56]
  92              		.loc 1 146 0
  93 002e 0C36     		adds	r6, r6, #12
  94              		.loc 1 142 0
  95 0030 FFF7FEFF 		bl	dacObjectInit
  96              	.LVL2:
  97              		.loc 1 144 0
  98 0034 084B     		ldr	r3, .L4+16
  99              		.loc 1 143 0
 100 0036 C4F82890 		str	r9, [r4, #40]
 101              		.loc 1 146 0
 102 003a 6663     		str	r6, [r4, #52]
 103              		.loc 1 145 0
 104 003c C4F83080 		str	r8, [r4, #48]
 105              		.loc 1 147 0
 106 0040 A763     		str	r7, [r4, #56]
 107              		.loc 1 144 0
 108 0042 E362     		str	r3, [r4, #44]
 109 0044 BDE8F883 		pop	{r3, r4, r5, r6, r7, r8, r9, pc}
 110              	.L5:
 111              		.align	2
ARM GAS  /tmp/ccDr56ja.s 			page 3


 112              	.L4:
 113 0048 00000000 		.word	.LANCHOR0
 114 004c 00000000 		.word	.LANCHOR1
 115 0050 6C000000 		.word	_stm32_dma_streams+108
 116 0054 00100040 		.word	1073745920
 117 0058 00140040 		.word	1073746944
 118 005c 00740040 		.word	1073771520
 119              		.cfi_endproc
 120              	.LFE256:
 121              		.size	dac_lld_init, .-dac_lld_init
 122              		.section	.text.dac_lld_start,"ax",%progbits
 123              		.align	2
 124              		.p2align 4,,15
 125              		.global	dac_lld_start
 126              		.thumb
 127              		.thumb_func
 128              		.type	dac_lld_start, %function
 129              	dac_lld_start:
 130              	.LFB257:
 131              		.loc 1 177 0
 132              		.cfi_startproc
 133              		@ args = 0, pretend = 0, frame = 0
 134              		@ frame_needed = 0, uses_anonymous_args = 0
 135              		@ link register save eliminated.
 136              	.LVL3:
 137              		.loc 1 180 0
 138 0000 064B     		ldr	r3, .L11
 139 0002 9842     		cmp	r0, r3
 140 0004 03D0     		beq	.L9
 141              		.loc 1 185 0
 142 0006 064B     		ldr	r3, .L11+4
 143 0008 9842     		cmp	r0, r3
 144 000a 00D0     		beq	.L9
 145 000c 7047     		bx	lr
 146              	.L9:
 147              		.loc 1 186 0
 148 000e 054A     		ldr	r2, .L11+8
 149 0010 D369     		ldr	r3, [r2, #28]
 150 0012 43F00053 		orr	r3, r3, #536870912
 151 0016 D361     		str	r3, [r2, #28]
 152 0018 7047     		bx	lr
 153              	.L12:
 154 001a 00BF     		.align	2
 155              	.L11:
 156 001c 00000000 		.word	.LANCHOR0
 157 0020 00000000 		.word	.LANCHOR1
 158 0024 00100240 		.word	1073876992
 159              		.cfi_endproc
 160              	.LFE257:
 161              		.size	dac_lld_start, .-dac_lld_start
 162 0028 AFF30080 		.section	.text.dac_lld_stop,"ax",%progbits
 162      AFF30080 
 163              		.align	2
 164              		.p2align 4,,15
 165              		.global	dac_lld_stop
 166              		.thumb
 167              		.thumb_func
ARM GAS  /tmp/ccDr56ja.s 			page 4


 168              		.type	dac_lld_stop, %function
 169              	dac_lld_stop:
 170              	.LFB258:
 171              		.loc 1 203 0
 172              		.cfi_startproc
 173              		@ args = 0, pretend = 0, frame = 0
 174              		@ frame_needed = 0, uses_anonymous_args = 0
 175              		@ link register save eliminated.
 176              	.LVL4:
 177              		.loc 1 206 0
 178 0000 0E4B     		ldr	r3, .L19
 179 0002 9842     		cmp	r0, r3
 180 0004 0DD0     		beq	.L17
 181              		.loc 1 211 0
 182 0006 0E4B     		ldr	r3, .L19+4
 183 0008 9842     		cmp	r0, r3
 184 000a 10D0     		beq	.L18
 185              	.L15:
 186              		.loc 1 222 0
 187 000c 0D4B     		ldr	r3, .L19+8
 188 000e 1B68     		ldr	r3, [r3]
 189 0010 13F0011F 		tst	r3, #65537
 190 0014 04D1     		bne	.L13
 191              		.loc 1 224 0
 192 0016 0C4A     		ldr	r2, .L19+12
 193 0018 D369     		ldr	r3, [r2, #28]
 194 001a 23F00053 		bic	r3, r3, #536870912
 195 001e D361     		str	r3, [r2, #28]
 196              	.L13:
 197 0020 7047     		bx	lr
 198              	.L17:
 199              		.loc 1 207 0
 200 0022 826A     		ldr	r2, [r0, #40]
 201 0024 1368     		ldr	r3, [r2]
 202 0026 23F00103 		bic	r3, r3, #1
 203 002a 1360     		str	r3, [r2]
 204 002c EEE7     		b	.L15
 205              	.L18:
 206              		.loc 1 212 0
 207 002e 826A     		ldr	r2, [r0, #40]
 208 0030 1368     		ldr	r3, [r2]
 209 0032 5B0C     		lsrs	r3, r3, #17
 210 0034 5B04     		lsls	r3, r3, #17
 211 0036 1360     		str	r3, [r2]
 212 0038 E8E7     		b	.L15
 213              	.L20:
 214 003a 00BF     		.align	2
 215              	.L19:
 216 003c 00000000 		.word	.LANCHOR0
 217 0040 00000000 		.word	.LANCHOR1
 218 0044 00740040 		.word	1073771520
 219 0048 00100240 		.word	1073876992
 220              		.cfi_endproc
 221              	.LFE258:
 222              		.size	dac_lld_stop, .-dac_lld_stop
 223 004c AFF30080 		.section	.text.dac_lld_single_convert,"ax",%progbits
 224              		.align	2
ARM GAS  /tmp/ccDr56ja.s 			page 5


 225              		.p2align 4,,15
 226              		.global	dac_lld_single_convert
 227              		.thumb
 228              		.thumb_func
 229              		.type	dac_lld_single_convert, %function
 230              	dac_lld_single_convert:
 231              	.LFB259:
 232              		.loc 1 236 0
 233              		.cfi_startproc
 234              		@ args = 0, pretend = 0, frame = 0
 235              		@ frame_needed = 0, uses_anonymous_args = 0
 236              	.LVL5:
 237 0000 F0B5     		push	{r4, r5, r6, r7, lr}
 238              		.cfi_def_cfa_offset 20
 239              		.cfi_offset 4, -20
 240              		.cfi_offset 5, -16
 241              		.cfi_offset 6, -12
 242              		.cfi_offset 7, -8
 243              		.cfi_offset 14, -4
 244              		.loc 1 243 0
 245 0002 2B4E     		ldr	r6, .L42
 246 0004 B042     		cmp	r0, r6
 247 0006 3ED0     		beq	.L40
 248 0008 0027     		movs	r7, #0
 249 000a DFF8ACE0 		ldr	lr, .L42+8
 250              		.loc 1 238 0
 251 000e 3C46     		mov	r4, r7
 252              	.L22:
 253              	.LVL6:
 254              		.loc 1 249 0
 255 0010 0269     		ldr	r2, [r0, #16]
 256 0012 1378     		ldrb	r3, [r2]	@ zero_extendqisi2
 257 0014 052B     		cmp	r3, #5
 258 0016 3ED8     		bhi	.L23
 259 0018 DFE803F0 		tbb	[pc, r3]
 260              	.L25:
 261 001c 1B       		.byte	(.L24-.L25)/2
 262 001d 21       		.byte	(.L26-.L25)/2
 263 001e 27       		.byte	(.L27-.L25)/2
 264 001f 2D       		.byte	(.L28-.L25)/2
 265 0020 31       		.byte	(.L29-.L25)/2
 266 0021 03       		.byte	(.L30-.L25)/2
 267              		.p2align 1
 268              	.L30:
 269              		.loc 1 268 0
 270 0022 836A     		ldr	r3, [r0, #40]
 271 0024 03F12804 		add	r4, r3, #40
 272              	.LVL7:
 273              	.L32:
 274              		.loc 1 273 0
 275 0028 1D68     		ldr	r5, [r3]
 276              		.loc 1 274 0
 277 002a 5268     		ldr	r2, [r2, #4]
 278              		.loc 1 273 0
 279 002c 0EEA0505 		and	r5, lr, r5
 280 0030 1D60     		str	r5, [r3]
 281              		.loc 1 274 0
ARM GAS  /tmp/ccDr56ja.s 			page 6


 282 0032 1D68     		ldr	r5, [r3]
 283 0034 42F00102 		orr	r2, r2, #1
 284 0038 BA40     		lsls	r2, r2, r7
 285 003a 2A43     		orrs	r2, r2, r5
 286 003c 1A60     		str	r2, [r3]
 287              		.loc 1 276 0
 288 003e 04B1     		cbz	r4, .L31
 289              		.loc 1 277 0
 290 0040 2180     		strh	r1, [r4]	@ movhi
 291              	.LVL8:
 292              	.L31:
 293              		.loc 1 280 0
 294 0042 1C4A     		ldr	r2, .L42+4
 295 0044 9042     		cmp	r0, r2
 296 0046 23D0     		beq	.L41
 297              		.loc 1 285 0
 298 0048 B042     		cmp	r0, r6
 299              		.loc 1 286 0
 300 004a 04BF     		itt	eq
 301 004c 0222     		moveq	r2, #2
 302 004e 5A60     		streq	r2, [r3, #4]
 303 0050 F0BD     		pop	{r4, r5, r6, r7, pc}
 304              	.LVL9:
 305              	.L24:
 306              		.loc 1 252 0
 307 0052 836A     		ldr	r3, [r0, #40]
 308 0054 03F10805 		add	r5, r3, #8
 309 0058 05EB4404 		add	r4, r5, r4, lsl #1
 310              	.LVL10:
 311              		.loc 1 253 0
 312 005c E4E7     		b	.L32
 313              	.LVL11:
 314              	.L26:
 315              		.loc 1 255 0
 316 005e 836A     		ldr	r3, [r0, #40]
 317 0060 03F10C05 		add	r5, r3, #12
 318 0064 05EB4404 		add	r4, r5, r4, lsl #1
 319              	.LVL12:
 320              		.loc 1 256 0
 321 0068 DEE7     		b	.L32
 322              	.LVL13:
 323              	.L27:
 324              		.loc 1 258 0
 325 006a 836A     		ldr	r3, [r0, #40]
 326 006c 03F11005 		add	r5, r3, #16
 327 0070 05EB4404 		add	r4, r5, r4, lsl #1
 328              	.LVL14:
 329              		.loc 1 259 0
 330 0074 D8E7     		b	.L32
 331              	.LVL15:
 332              	.L28:
 333              		.loc 1 262 0
 334 0076 836A     		ldr	r3, [r0, #40]
 335 0078 03F12004 		add	r4, r3, #32
 336              	.LVL16:
 337              		.loc 1 263 0
 338 007c D4E7     		b	.L32
ARM GAS  /tmp/ccDr56ja.s 			page 7


 339              	.LVL17:
 340              	.L29:
 341              		.loc 1 265 0
 342 007e 836A     		ldr	r3, [r0, #40]
 343 0080 03F12404 		add	r4, r3, #36
 344              	.LVL18:
 345              		.loc 1 266 0
 346 0084 D0E7     		b	.L32
 347              	.LVL19:
 348              	.L40:
 349              		.loc 1 243 0
 350 0086 DFF834E0 		ldr	lr, .L42+12
 351 008a 1027     		movs	r7, #16
 352              		.loc 1 245 0
 353 008c 0C24     		movs	r4, #12
 354 008e BFE7     		b	.L22
 355              	.LVL20:
 356              	.L41:
 357              		.loc 1 281 0
 358 0090 0122     		movs	r2, #1
 359 0092 5A60     		str	r2, [r3, #4]
 360 0094 F0BD     		pop	{r4, r5, r6, r7, pc}
 361              	.LVL21:
 362              	.L23:
 363 0096 836A     		ldr	r3, [r0, #40]
 364              		.loc 1 274 0
 365 0098 5268     		ldr	r2, [r2, #4]
 366              		.loc 1 273 0
 367 009a 1D68     		ldr	r5, [r3]
 368 009c 0EEA0505 		and	r5, lr, r5
 369 00a0 1D60     		str	r5, [r3]
 370              		.loc 1 274 0
 371 00a2 1968     		ldr	r1, [r3]
 372              	.LVL22:
 373 00a4 42F00102 		orr	r2, r2, #1
 374 00a8 BA40     		lsls	r2, r2, r7
 375 00aa 0A43     		orrs	r2, r2, r1
 376 00ac 1A60     		str	r2, [r3]
 377 00ae C8E7     		b	.L31
 378              	.L43:
 379              		.align	2
 380              	.L42:
 381 00b0 00000000 		.word	.LANCHOR1
 382 00b4 00000000 		.word	.LANCHOR0
 383 00b8 01F0FFFF 		.word	-4095
 384 00bc FFFF01F0 		.word	-268304385
 385              		.cfi_endproc
 386              	.LFE259:
 387              		.size	dac_lld_single_convert, .-dac_lld_single_convert
 388              		.section	.text.dac_lld_start_conversion,"ax",%progbits
 389              		.align	2
 390              		.p2align 4,,15
 391              		.global	dac_lld_start_conversion
 392              		.thumb
 393              		.thumb_func
 394              		.type	dac_lld_start_conversion, %function
 395              	dac_lld_start_conversion:
ARM GAS  /tmp/ccDr56ja.s 			page 8


 396              	.LFB260:
 397              		.loc 1 308 0
 398              		.cfi_startproc
 399              		@ args = 0, pretend = 0, frame = 0
 400              		@ frame_needed = 0, uses_anonymous_args = 0
 401              	.LVL23:
 402 0000 2DE9F84F 		push	{r3, r4, r5, r6, r7, r8, r9, r10, fp, lr}
 403              		.cfi_def_cfa_offset 40
 404              		.cfi_offset 3, -40
 405              		.cfi_offset 4, -36
 406              		.cfi_offset 5, -32
 407              		.cfi_offset 6, -28
 408              		.cfi_offset 7, -24
 409              		.cfi_offset 8, -20
 410              		.cfi_offset 9, -16
 411              		.cfi_offset 10, -12
 412              		.cfi_offset 11, -8
 413              		.cfi_offset 14, -4
 414              		.loc 1 317 0
 415 0004 764B     		ldr	r3, .L66
 416 0006 9842     		cmp	r0, r3
 417              		.loc 1 308 0
 418 0008 0546     		mov	r5, r0
 419              		.loc 1 317 0
 420 000a 00F0BF80 		beq	.L63
 421              	.LVL24:
 422              		.loc 1 328 0
 423 000e 754B     		ldr	r3, .L66+4
 424 0010 9842     		cmp	r0, r3
 425 0012 00F0CC80 		beq	.L64
 426 0016 4FF0000E 		mov	lr, #0
 427 001a DFF8D8C1 		ldr	ip, .L66+20
 428 001e 7646     		mov	r6, lr
 429 0020 0427     		movs	r7, #4
 430              	.LVL25:
 431              	.L46:
 432 0022 6968     		ldr	r1, [r5, #4]
 433              		.loc 1 350 0
 434 0024 704A     		ldr	r2, .L66+8
 435 0026 0968     		ldr	r1, [r1]
 436 0028 EA63     		str	r2, [r5, #60]
 437              	.LVL26:
 438              		.loc 1 353 0
 439 002a 0023     		movs	r3, #0
 440              		.loc 1 359 0
 441 002c 4FF6FE70 		movw	r0, #65534
 442              	.LVL27:
 443 0030 B2FBF1F1 		udiv	r1, r2, r1
 444 0034 04E0     		b	.L49
 445              	.LVL28:
 446              	.L47:
 447              		.loc 1 359 0 is_stmt 0 discriminator 1
 448 0036 B2F5803F 		cmp	r2, #65536
 449 003a 1346     		mov	r3, r2
 450 003c 00F0A380 		beq	.L65
 451              	.LVL29:
 452              	.L49:
ARM GAS  /tmp/ccDr56ja.s 			page 9


 453              		.loc 1 356 0 is_stmt 1 discriminator 2
 454 0040 1A1D     		adds	r2, r3, #4
 455              	.LVL30:
 456              		.loc 1 357 0 discriminator 2
 457 0042 B1FBF2F4 		udiv	r4, r1, r2
 458              	.LVL31:
 459              		.loc 1 359 0 discriminator 2
 460 0046 8442     		cmp	r4, r0
 461 0048 F5D8     		bhi	.L47
 462 004a 0333     		adds	r3, r3, #3
 463              	.L48:
 464              		.loc 1 364 0
 465 004c D5F82C80 		ldr	r8, [r5, #44]
 466              		.loc 1 377 0
 467 0050 2A69     		ldr	r2, [r5, #16]
 468              	.LVL32:
 469              		.loc 1 376 0
 470 0052 D5F82890 		ldr	r9, [r5, #40]
 471              		.loc 1 377 0
 472 0056 D2F804A0 		ldr	r10, [r2, #4]
 473              		.loc 1 380 0
 474 005a 686B     		ldr	r0, [r5, #52]
 475 005c 296B     		ldr	r1, [r5, #48]
 476 005e 634A     		ldr	r2, .L66+12
 477              		.loc 1 364 0
 478 0060 4FF0000B 		mov	fp, #0
 479 0064 C8F800B0 		str	fp, [r8]
 480              		.loc 1 365 0
 481 0068 C8F82830 		str	r3, [r8, #40]
 482              		.loc 1 368 0
 483 006c 0123     		movs	r3, #1
 484              		.loc 1 366 0
 485 006e C8F80CB0 		str	fp, [r8, #12]
 486              		.loc 1 367 0
 487 0072 C8F82C40 		str	r4, [r8, #44]
 488              		.loc 1 368 0
 489 0076 C8F81430 		str	r3, [r8, #20]
 490              		.loc 1 369 0
 491 007a D8F80440 		ldr	r4, [r8, #4]
 492              	.LVL33:
 493 007e 4FF68F73 		movw	r3, #65423
 494 0082 2340     		ands	r3, r3, r4
 495 0084 C8F80430 		str	r3, [r8, #4]
 496              		.loc 1 370 0
 497 0088 D8F80430 		ldr	r3, [r8, #4]
 498 008c 43F02003 		orr	r3, r3, #32
 499 0090 C8F80430 		str	r3, [r8, #4]
 500              		.loc 1 371 0
 501 0094 C8F824B0 		str	fp, [r8, #36]
 502              		.loc 1 372 0
 503 0098 C8F810B0 		str	fp, [r8, #16]
 504              		.loc 1 376 0
 505 009c D9F80030 		ldr	r3, [r9]
 506 00a0 0CEA0303 		and	r3, ip, r3
 507 00a4 C9F80030 		str	r3, [r9]
 508              		.loc 1 377 0
 509 00a8 D9F80040 		ldr	r4, [r9]
ARM GAS  /tmp/ccDr56ja.s 			page 10


 510 00ac 4AF48053 		orr	r3, r10, #4096
 511 00b0 03FA0EF3 		lsl	r3, r3, lr
 512 00b4 2343     		orrs	r3, r3, r4
 513 00b6 C9F80030 		str	r3, [r9]
 514              		.loc 1 380 0
 515 00ba 2B46     		mov	r3, r5
 516 00bc FFF7FEFF 		bl	dmaStreamAllocate
 517              	.LVL34:
 518              		.loc 1 385 0
 519 00c0 2B69     		ldr	r3, [r5, #16]
 520 00c2 1B78     		ldrb	r3, [r3]	@ zero_extendqisi2
 521 00c4 052B     		cmp	r3, #5
 522 00c6 00F28580 		bhi	.L50
 523 00ca DFE803F0 		tbb	[pc, r3]
 524              	.L52:
 525 00ce 1F       		.byte	(.L51-.L52)/2
 526 00cf 2E       		.byte	(.L53-.L52)/2
 527 00d0 35       		.byte	(.L54-.L52)/2
 528 00d1 42       		.byte	(.L55-.L52)/2
 529 00d2 4F       		.byte	(.L56-.L52)/2
 530 00d3 03       		.byte	(.L57-.L52)/2
 531              		.p2align 1
 532              	.L57:
 533              		.loc 1 414 0
 534 00d4 6A6B     		ldr	r2, [r5, #52]
 535              		.loc 1 416 0
 536 00d6 AB6B     		ldr	r3, [r5, #56]
 537              		.loc 1 414 0
 538 00d8 A96A     		ldr	r1, [r5, #40]
 539 00da 1268     		ldr	r2, [r2]
 540 00dc 01F12800 		add	r0, r1, #40
 541              		.loc 1 416 0
 542 00e0 23F47063 		bic	r3, r3, #3840
 543              		.loc 1 414 0
 544 00e4 9060     		str	r0, [r2, #8]
 545              		.loc 1 415 0
 546 00e6 AB63     		str	r3, [r5, #56]
 547              	.LVL35:
 548              	.L58:
 549              		.loc 1 422 0
 550 00e8 A889     		ldrh	r0, [r5, #12]
 551              		.loc 1 421 0
 552 00ea AC68     		ldr	r4, [r5, #8]
 553 00ec D460     		str	r4, [r2, #12]
 554              		.loc 1 423 0
 555 00ee 43F02103 		orr	r3, r3, #33
 556              		.loc 1 422 0
 557 00f2 5060     		str	r0, [r2, #4]
 558              		.loc 1 423 0
 559 00f4 1360     		str	r3, [r2]
 560              		.loc 1 427 0
 561 00f6 0B68     		ldr	r3, [r1]
 562              		.loc 1 430 0
 563 00f8 EA6A     		ldr	r2, [r5, #44]
 564              		.loc 1 427 0
 565 00fa 1F43     		orrs	r7, r7, r3
 566 00fc 0F60     		str	r7, [r1]
ARM GAS  /tmp/ccDr56ja.s 			page 11


 567              		.loc 1 429 0
 568 00fe 0B68     		ldr	r3, [r1]
 569              		.loc 1 430 0
 570 0100 0120     		movs	r0, #1
 571              		.loc 1 429 0
 572 0102 0343     		orrs	r3, r3, r0
 573 0104 0B60     		str	r3, [r1]
 574              		.loc 1 430 0
 575 0106 1060     		str	r0, [r2]
 576 0108 BDE8F88F 		pop	{r3, r4, r5, r6, r7, r8, r9, r10, fp, pc}
 577              	.LVL36:
 578              	.L51:
 579              		.loc 1 388 0
 580 010c 6A6B     		ldr	r2, [r5, #52]
 581 010e A96A     		ldr	r1, [r5, #40]
 582              		.loc 1 389 0
 583 0110 AB6B     		ldr	r3, [r5, #56]
 584              		.loc 1 388 0
 585 0112 1268     		ldr	r2, [r2]
 586 0114 01F10800 		add	r0, r1, #8
 587              	.L62:
 588              		.loc 1 394 0
 589 0118 23F47063 		bic	r3, r3, #3840
 590              		.loc 1 393 0
 591 011c 00EB8606 		add	r6, r0, r6, lsl #2
 592              	.LVL37:
 593              		.loc 1 395 0
 594 0120 43F4A063 		orr	r3, r3, #1280
 595              		.loc 1 393 0
 596 0124 9660     		str	r6, [r2, #8]
 597              		.loc 1 394 0
 598 0126 AB63     		str	r3, [r5, #56]
 599              		.loc 1 396 0
 600 0128 DEE7     		b	.L58
 601              	.LVL38:
 602              	.L53:
 603              		.loc 1 393 0
 604 012a A96A     		ldr	r1, [r5, #40]
 605 012c 6A6B     		ldr	r2, [r5, #52]
 606              		.loc 1 394 0
 607 012e AB6B     		ldr	r3, [r5, #56]
 608              		.loc 1 393 0
 609 0130 1268     		ldr	r2, [r2]
 610 0132 01F10C00 		add	r0, r1, #12
 611 0136 EFE7     		b	.L62
 612              	.L54:
 613              		.loc 1 398 0
 614 0138 A96A     		ldr	r1, [r5, #40]
 615 013a 6A6B     		ldr	r2, [r5, #52]
 616              		.loc 1 400 0
 617 013c AB6B     		ldr	r3, [r5, #56]
 618              		.loc 1 398 0
 619 013e 1268     		ldr	r2, [r2]
 620 0140 01F11000 		add	r0, r1, #16
 621 0144 00EB8606 		add	r6, r0, r6, lsl #2
 622              	.LVL39:
 623              		.loc 1 400 0
ARM GAS  /tmp/ccDr56ja.s 			page 12


 624 0148 23F47063 		bic	r3, r3, #3840
 625              		.loc 1 398 0
 626 014c 9660     		str	r6, [r2, #8]
 627              		.loc 1 399 0
 628 014e AB63     		str	r3, [r5, #56]
 629              		.loc 1 401 0
 630 0150 CAE7     		b	.L58
 631              	.LVL40:
 632              	.L55:
 633              		.loc 1 405 0
 634 0152 AB6B     		ldr	r3, [r5, #56]
 635              		.loc 1 404 0
 636 0154 6A6B     		ldr	r2, [r5, #52]
 637 0156 A96A     		ldr	r1, [r5, #40]
 638 0158 1268     		ldr	r2, [r2]
 639              		.loc 1 405 0
 640 015a 23F47063 		bic	r3, r3, #3840
 641              		.loc 1 404 0
 642 015e 01F12000 		add	r0, r1, #32
 643              		.loc 1 406 0
 644 0162 43F4A063 		orr	r3, r3, #1280
 645              		.loc 1 404 0
 646 0166 9060     		str	r0, [r2, #8]
 647              		.loc 1 405 0
 648 0168 AB63     		str	r3, [r5, #56]
 649              		.loc 1 407 0
 650 016a BDE7     		b	.L58
 651              	.L56:
 652              		.loc 1 410 0
 653 016c AB6B     		ldr	r3, [r5, #56]
 654              		.loc 1 409 0
 655 016e 6A6B     		ldr	r2, [r5, #52]
 656 0170 A96A     		ldr	r1, [r5, #40]
 657 0172 1268     		ldr	r2, [r2]
 658              		.loc 1 410 0
 659 0174 23F47063 		bic	r3, r3, #3840
 660              		.loc 1 409 0
 661 0178 01F12400 		add	r0, r1, #36
 662              		.loc 1 411 0
 663 017c 43F4A063 		orr	r3, r3, #1280
 664              		.loc 1 409 0
 665 0180 9060     		str	r0, [r2, #8]
 666              		.loc 1 410 0
 667 0182 AB63     		str	r3, [r5, #56]
 668              		.loc 1 412 0
 669 0184 B0E7     		b	.L58
 670              	.LVL41:
 671              	.L65:
 672 0186 4FF6FF73 		movw	r3, #65535
 673 018a 5FE7     		b	.L48
 674              	.LVL42:
 675              	.L63:
 676              		.loc 1 322 0
 677 018c 184B     		ldr	r3, .L66+16
 678              		.loc 1 323 0
 679 018e DFF864C0 		ldr	ip, .L66+20
 680              		.loc 1 322 0
ARM GAS  /tmp/ccDr56ja.s 			page 13


 681 0192 DA69     		ldr	r2, [r3, #28]
 682 0194 42F01002 		orr	r2, r2, #16
 683 0198 DA61     		str	r2, [r3, #28]
 684              		.loc 1 323 0
 685 019a 1A69     		ldr	r2, [r3, #16]
 686 019c 0021     		movs	r1, #0
 687 019e 42F01002 		orr	r2, r2, #16
 688 01a2 1A61     		str	r2, [r3, #16]
 689 01a4 8E46     		mov	lr, r1
 690 01a6 0E46     		mov	r6, r1
 691 01a8 1961     		str	r1, [r3, #16]
 692              	.LVL43:
 693 01aa 0427     		movs	r7, #4
 694 01ac 39E7     		b	.L46
 695              	.L64:
 696              	.LVL44:
 697              		.loc 1 333 0
 698 01ae 104B     		ldr	r3, .L66+16
 699              		.loc 1 334 0
 700 01b0 DFF844C0 		ldr	ip, .L66+24
 701              		.loc 1 333 0
 702 01b4 DA69     		ldr	r2, [r3, #28]
 703 01b6 42F02002 		orr	r2, r2, #32
 704 01ba DA61     		str	r2, [r3, #28]
 705              		.loc 1 334 0
 706 01bc 1A69     		ldr	r2, [r3, #16]
 707 01be 0021     		movs	r1, #0
 708 01c0 42F02002 		orr	r2, r2, #32
 709 01c4 1A61     		str	r2, [r3, #16]
 710 01c6 4FF4A017 		mov	r7, #1310720
 711 01ca 1961     		str	r1, [r3, #16]
 712              	.LVL45:
 713 01cc 4FF0100E 		mov	lr, #16
 714              		.loc 1 331 0
 715 01d0 0C26     		movs	r6, #12
 716 01d2 26E7     		b	.L46
 717              	.LVL46:
 718              	.L50:
 719 01d4 6B6B     		ldr	r3, [r5, #52]
 720 01d6 A96A     		ldr	r1, [r5, #40]
 721 01d8 1A68     		ldr	r2, [r3]
 722 01da AB6B     		ldr	r3, [r5, #56]
 723 01dc 84E7     		b	.L58
 724              	.L67:
 725 01de 00BF     		.align	2
 726              	.L66:
 727 01e0 00000000 		.word	.LANCHOR0
 728 01e4 00000000 		.word	.LANCHOR1
 729 01e8 00A24A04 		.word	72000000
 730 01ec 00000000 		.word	dac_lld_serve_tx_interrupt
 731 01f0 00100240 		.word	1073876992
 732 01f4 01F0FFFF 		.word	-4095
 733 01f8 FFFF01F0 		.word	-268304385
 734              		.cfi_endproc
 735              	.LFE260:
 736              		.size	dac_lld_start_conversion, .-dac_lld_start_conversion
 737 01fc AFF30080 		.section	.text.dac_lld_stop_conversion,"ax",%progbits
ARM GAS  /tmp/ccDr56ja.s 			page 14


 738              		.align	2
 739              		.p2align 4,,15
 740              		.global	dac_lld_stop_conversion
 741              		.thumb
 742              		.thumb_func
 743              		.type	dac_lld_stop_conversion, %function
 744              	dac_lld_stop_conversion:
 745              	.LFB261:
 746              		.loc 1 434 0
 747              		.cfi_startproc
 748              		@ args = 0, pretend = 0, frame = 0
 749              		@ frame_needed = 0, uses_anonymous_args = 0
 750              	.LVL47:
 751              		.loc 1 437 0
 752 0000 C26A     		ldr	r2, [r0, #44]
 753 0002 1368     		ldr	r3, [r2]
 754 0004 23F00103 		bic	r3, r3, #1
 755              		.loc 1 434 0
 756 0008 10B5     		push	{r4, lr}
 757              		.cfi_def_cfa_offset 8
 758              		.cfi_offset 4, -8
 759              		.cfi_offset 14, -4
 760              		.loc 1 434 0
 761 000a 0446     		mov	r4, r0
 762              		.loc 1 440 0
 763 000c 406B     		ldr	r0, [r0, #52]
 764              	.LVL48:
 765              		.loc 1 437 0
 766 000e 1360     		str	r3, [r2]
 767              		.loc 1 440 0
 768 0010 FFF7FEFF 		bl	dmaStreamRelease
 769              	.LVL49:
 770              		.loc 1 443 0
 771 0014 094B     		ldr	r3, .L74
 772 0016 9C42     		cmp	r4, r3
 773 0018 09D0     		beq	.L72
 774              		.loc 1 448 0
 775 001a 094B     		ldr	r3, .L74+4
 776 001c 9C42     		cmp	r4, r3
 777 001e 00D0     		beq	.L73
 778 0020 10BD     		pop	{r4, pc}
 779              	.LVL50:
 780              	.L73:
 781              		.loc 1 449 0
 782 0022 084A     		ldr	r2, .L74+8
 783 0024 D369     		ldr	r3, [r2, #28]
 784 0026 23F02003 		bic	r3, r3, #32
 785 002a D361     		str	r3, [r2, #28]
 786 002c 10BD     		pop	{r4, pc}
 787              	.LVL51:
 788              	.L72:
 789              		.loc 1 444 0
 790 002e 054A     		ldr	r2, .L74+8
 791 0030 D369     		ldr	r3, [r2, #28]
 792 0032 23F01003 		bic	r3, r3, #16
 793 0036 D361     		str	r3, [r2, #28]
 794 0038 10BD     		pop	{r4, pc}
ARM GAS  /tmp/ccDr56ja.s 			page 15


 795              	.LVL52:
 796              	.L75:
 797 003a 00BF     		.align	2
 798              	.L74:
 799 003c 00000000 		.word	.LANCHOR0
 800 0040 00000000 		.word	.LANCHOR1
 801 0044 00100240 		.word	1073876992
 802              		.cfi_endproc
 803              	.LFE261:
 804              		.size	dac_lld_stop_conversion, .-dac_lld_stop_conversion
 805              		.global	DACD2
 806              		.global	DACD1
 807 0048 AFF30080 		.section	.bss.DACD1,"aw",%nobits
 807      AFF30080 
 808              		.align	2
 809              		.set	.LANCHOR0,. + 0
 810              		.type	DACD1, %object
 811              		.size	DACD1, 64
 812              	DACD1:
 813 0000 00000000 		.space	64
 813      00000000 
 813      00000000 
 813      00000000 
 813      00000000 
 814              		.section	.bss.DACD2,"aw",%nobits
 815              		.align	2
 816              		.set	.LANCHOR1,. + 0
 817              		.type	DACD2, %object
 818              		.size	DACD2, 64
 819              	DACD2:
 820 0000 00000000 		.space	64
 820      00000000 
 820      00000000 
 820      00000000 
 820      00000000 
 821              		.text
 822              	.Letext0:
 823              		.file 2 "/l/arm2/gcc-arm-none-eabi-4_9-2014q4/lib/gcc/arm-none-eabi/4.9.3/include/stddef.h"
 824              		.file 3 "/l/arm2/gcc-arm-none-eabi-4_9-2014q4/arm-none-eabi/include/machine/_default_types.h"
 825              		.file 4 "/l/arm2/gcc-arm-none-eabi-4_9-2014q4/arm-none-eabi/include/stdint.h"
 826              		.file 5 "../ChibiOS/os/rt/ports/ARMCMx/compilers/GCC/chtypes.h"
 827              		.file 6 "../ChibiOS/os/rt/include/chsystypes.h"
 828              		.file 7 "../ChibiOS/os/rt/include/chschd.h"
 829              		.file 8 "../ChibiOS/os/ext/CMSIS/ST/stm32f303xc.h"
 830              		.file 9 "../ChibiOS/os/rt/ports/ARMCMx/chcore.h"
 831              		.file 10 "../ChibiOS/os/rt/ports/ARMCMx/chcore_v7m.h"
 832              		.file 11 "../ChibiOS/os/hal/ports/STM32/LLD/TIMv1/stm32_tim.h"
 833              		.file 12 "../ChibiOS/os/rt/include/chtm.h"
 834              		.file 13 "../ChibiOS/os/rt/include/chmtx.h"
 835              		.file 14 "../ChibiOS/os/rt/include/chthreads.h"
 836              		.file 15 "../ChibiOS/os/hal/ports/STM32/STM32F3xx/stm32_dma.h"
 837              		.file 16 "../ChibiOS/../ChibiOS-Drivers/inc/dac_driver.h"
 838              		.file 17 "../ChibiOS/../ChibiOS-Drivers/stm32/dac_driver_lld.h"
 839              		.file 18 "../ChibiOS/os/ext/CMSIS/include/core_cm4.h"