ARM GAS  /tmp/ccCFpE1I.s 			page 1


   1              		.syntax unified
   2              		.cpu cortex-m4
   3              		.eabi_attribute 27, 3
   4              		.eabi_attribute 28, 1
   5              		.fpu fpv4-sp-d16
   6              		.eabi_attribute 20, 1
   7              		.eabi_attribute 21, 1
   8              		.eabi_attribute 23, 3
   9              		.eabi_attribute 24, 1
  10              		.eabi_attribute 25, 1
  11              		.eabi_attribute 26, 1
  12              		.eabi_attribute 30, 2
  13              		.eabi_attribute 34, 1
  14              		.eabi_attribute 18, 4
  15              		.thumb
  16              		.file	"dac_driver.c"
  17              		.text
  18              	.Ltext0:
  19              		.cfi_sections	.debug_frame
  20              		.section	.text.dacInit,"ax",%progbits
  21              		.align	2
  22              		.p2align 4,,15
  23              		.global	dacInit
  24              		.thumb
  25              		.thumb_func
  26              		.type	dacInit, %function
  27              	dacInit:
  28              	.LFB255:
  29              		.file 1 "../ChibiOS/../ChibiOS-Drivers/src/dac_driver.c"
  30              		.loc 1 61 0
  31              		.cfi_startproc
  32              		@ args = 0, pretend = 0, frame = 0
  33              		@ frame_needed = 0, uses_anonymous_args = 0
  34              		@ link register save eliminated.
  35              		.loc 1 63 0
  36 0000 FFF7FEBF 		b	dac_lld_init
  37              	.LVL0:
  38              		.cfi_endproc
  39              	.LFE255:
  40              		.size	dacInit, .-dacInit
  41 0004 AFF30080 		.section	.text.dacObjectInit,"ax",%progbits
  41      AFF30080 
  41      AFF30080 
  42              		.align	2
  43              		.p2align 4,,15
  44              		.global	dacObjectInit
  45              		.thumb
  46              		.thumb_func
  47              		.type	dacObjectInit, %function
  48              	dacObjectInit:
  49              	.LFB256:
  50              		.loc 1 73 0
  51              		.cfi_startproc
  52              		@ args = 0, pretend = 0, frame = 0
  53              		@ frame_needed = 0, uses_anonymous_args = 0
  54              		@ link register save eliminated.
  55              	.LVL1:
ARM GAS  /tmp/ccCFpE1I.s 			page 2


  56              		.loc 1 76 0
  57 0000 0023     		movs	r3, #0
  58              		.loc 1 75 0
  59 0002 0122     		movs	r2, #1
  60 0004 0270     		strb	r2, [r0]
  61              		.loc 1 76 0
  62 0006 0361     		str	r3, [r0, #16]
  63              		.loc 1 78 0
  64 0008 4361     		str	r3, [r0, #20]
  65              	.LVL2:
  66              	.LBB105:
  67              	.LBB106:
  68              		.file 2 "../ChibiOS/os/hal/osal/rt/osal.h"
  69              		.loc 2 819 0
  70 000a 1830     		adds	r0, r0, #24
  71              	.LVL3:
  72 000c FFF7FEBF 		b	chMtxObjectInit
  73              	.LVL4:
  74              	.LBE106:
  75              	.LBE105:
  76              		.cfi_endproc
  77              	.LFE256:
  78              		.size	dacObjectInit, .-dacObjectInit
  79              		.section	.text.dacStart,"ax",%progbits
  80              		.align	2
  81              		.p2align 4,,15
  82              		.global	dacStart
  83              		.thumb
  84              		.thumb_func
  85              		.type	dacStart, %function
  86              	dacStart:
  87              	.LFB257:
  88              		.loc 1 96 0
  89              		.cfi_startproc
  90              		@ args = 0, pretend = 0, frame = 0
  91              		@ frame_needed = 0, uses_anonymous_args = 0
  92              	.LVL5:
  93 0000 10B5     		push	{r4, lr}
  94              		.cfi_def_cfa_offset 8
  95              		.cfi_offset 4, -8
  96              		.cfi_offset 14, -4
  97              	.LBB107:
  98              	.LBB108:
  99              	.LBB109:
 100              	.LBB110:
 101              	.LBB111:
 102              		.file 3 "../ChibiOS/os/ext/CMSIS/include/core_cmFunc.h"
 103              		.loc 3 546 0
 104 0002 2023     		movs	r3, #32
 105              	.LBE111:
 106              	.LBE110:
 107              	.LBE109:
 108              	.LBE108:
 109              	.LBE107:
 110              		.loc 1 96 0
 111 0004 0446     		mov	r4, r0
 112              	.LBB116:
ARM GAS  /tmp/ccCFpE1I.s 			page 3


 113              	.LBB115:
 114              	.LBB114:
 115              	.LBB113:
 116              	.LBB112:
 117              		.loc 3 546 0
 118              	@ 546 "../ChibiOS/os/ext/CMSIS/include/core_cmFunc.h" 1
 119 0006 83F31188 		MSR basepri, r3
 120              	@ 0 "" 2
 121              		.thumb
 122              	.LBE112:
 123              	.LBE113:
 124              	.LBE114:
 125              	.LBE115:
 126              	.LBE116:
 127              		.loc 1 105 0
 128 000a 0161     		str	r1, [r0, #16]
 129              		.loc 1 106 0
 130 000c FFF7FEFF 		bl	dac_lld_start
 131              	.LVL6:
 132              		.loc 1 107 0
 133 0010 0223     		movs	r3, #2
 134 0012 2370     		strb	r3, [r4]
 135              	.LVL7:
 136              	.LBB117:
 137              	.LBB118:
 138              	.LBB119:
 139              	.LBB120:
 140              	.LBB121:
 141              	.LBB122:
 142              		.loc 3 546 0
 143 0014 0023     		movs	r3, #0
 144              	@ 546 "../ChibiOS/os/ext/CMSIS/include/core_cmFunc.h" 1
 145 0016 83F31188 		MSR basepri, r3
 146              	@ 0 "" 2
 147              		.thumb
 148 001a 10BD     		pop	{r4, pc}
 149              	.LBE122:
 150              	.LBE121:
 151              	.LBE120:
 152              	.LBE119:
 153              	.LBE118:
 154              	.LBE117:
 155              		.cfi_endproc
 156              	.LFE257:
 157              		.size	dacStart, .-dacStart
 158 001c AFF30080 		.section	.text.dacStop,"ax",%progbits
 159              		.align	2
 160              		.p2align 4,,15
 161              		.global	dacStop
 162              		.thumb
 163              		.thumb_func
 164              		.type	dacStop, %function
 165              	dacStop:
 166              	.LFB258:
 167              		.loc 1 121 0
 168              		.cfi_startproc
 169              		@ args = 0, pretend = 0, frame = 0
ARM GAS  /tmp/ccCFpE1I.s 			page 4


 170              		@ frame_needed = 0, uses_anonymous_args = 0
 171              	.LVL8:
 172 0000 10B5     		push	{r4, lr}
 173              		.cfi_def_cfa_offset 8
 174              		.cfi_offset 4, -8
 175              		.cfi_offset 14, -4
 176              	.LBB123:
 177              	.LBB124:
 178              	.LBB125:
 179              	.LBB126:
 180              	.LBB127:
 181              		.loc 3 546 0
 182 0002 2023     		movs	r3, #32
 183              	.LBE127:
 184              	.LBE126:
 185              	.LBE125:
 186              	.LBE124:
 187              	.LBE123:
 188              		.loc 1 121 0
 189 0004 0446     		mov	r4, r0
 190              	.LBB132:
 191              	.LBB131:
 192              	.LBB130:
 193              	.LBB129:
 194              	.LBB128:
 195              		.loc 3 546 0
 196              	@ 546 "../ChibiOS/os/ext/CMSIS/include/core_cmFunc.h" 1
 197 0006 83F31188 		MSR basepri, r3
 198              	@ 0 "" 2
 199              		.thumb
 200              	.LBE128:
 201              	.LBE129:
 202              	.LBE130:
 203              	.LBE131:
 204              	.LBE132:
 205              		.loc 1 130 0
 206 000a FFF7FEFF 		bl	dac_lld_stop
 207              	.LVL9:
 208              		.loc 1 131 0
 209 000e 0123     		movs	r3, #1
 210 0010 2370     		strb	r3, [r4]
 211              	.LVL10:
 212              	.LBB133:
 213              	.LBB134:
 214              	.LBB135:
 215              	.LBB136:
 216              	.LBB137:
 217              	.LBB138:
 218              		.loc 3 546 0
 219 0012 0023     		movs	r3, #0
 220              	@ 546 "../ChibiOS/os/ext/CMSIS/include/core_cmFunc.h" 1
 221 0014 83F31188 		MSR basepri, r3
 222              	@ 0 "" 2
 223              		.thumb
 224 0018 10BD     		pop	{r4, pc}
 225              	.LBE138:
 226              	.LBE137:
ARM GAS  /tmp/ccCFpE1I.s 			page 5


 227              	.LBE136:
 228              	.LBE135:
 229              	.LBE134:
 230              	.LBE133:
 231              		.cfi_endproc
 232              	.LFE258:
 233              		.size	dacStop, .-dacStop
 234 001a 00BFAFF3 		.section	.text.dacConvertOne,"ax",%progbits
 234      0080
 235              		.align	2
 236              		.p2align 4,,15
 237              		.global	dacConvertOne
 238              		.thumb
 239              		.thumb_func
 240              		.type	dacConvertOne, %function
 241              	dacConvertOne:
 242              	.LFB259:
 243              		.loc 1 145 0
 244              		.cfi_startproc
 245              		@ args = 0, pretend = 0, frame = 0
 246              		@ frame_needed = 0, uses_anonymous_args = 0
 247              	.LVL11:
 248 0000 10B5     		push	{r4, lr}
 249              		.cfi_def_cfa_offset 8
 250              		.cfi_offset 4, -8
 251              		.cfi_offset 14, -4
 252              		.loc 1 153 0
 253 0002 0323     		movs	r3, #3
 254              		.loc 1 145 0
 255 0004 0446     		mov	r4, r0
 256              		.loc 1 153 0
 257 0006 0370     		strb	r3, [r0]
 258              		.loc 1 154 0
 259 0008 FFF7FEFF 		bl	dac_lld_single_convert
 260              	.LVL12:
 261              		.loc 1 155 0
 262 000c 0223     		movs	r3, #2
 263 000e 2370     		strb	r3, [r4]
 264 0010 10BD     		pop	{r4, pc}
 265              		.cfi_endproc
 266              	.LFE259:
 267              		.size	dacConvertOne, .-dacConvertOne
 268 0012 00BFAFF3 		.section	.text.dacStartConversion,"ax",%progbits
 268      0080AFF3 
 268      0080AFF3 
 268      0080
 269              		.align	2
 270              		.p2align 4,,15
 271              		.global	dacStartConversion
 272              		.thumb
 273              		.thumb_func
 274              		.type	dacStartConversion, %function
 275              	dacStartConversion:
 276              	.LFB260:
 277              		.loc 1 177 0
 278              		.cfi_startproc
 279              		@ args = 0, pretend = 0, frame = 0
ARM GAS  /tmp/ccCFpE1I.s 			page 6


 280              		@ frame_needed = 0, uses_anonymous_args = 0
 281              	.LVL13:
 282 0000 38B5     		push	{r3, r4, r5, lr}
 283              		.cfi_def_cfa_offset 16
 284              		.cfi_offset 3, -16
 285              		.cfi_offset 4, -12
 286              		.cfi_offset 5, -8
 287              		.cfi_offset 14, -4
 288              	.LBB139:
 289              	.LBB140:
 290              	.LBB141:
 291              	.LBB142:
 292              	.LBB143:
 293              		.loc 3 546 0
 294 0002 2025     		movs	r5, #32
 295              	@ 546 "../ChibiOS/os/ext/CMSIS/include/core_cmFunc.h" 1
 296 0004 85F31188 		MSR basepri, r5
 297              	@ 0 "" 2
 298              	.LVL14:
 299              		.thumb
 300              	.LBE143:
 301              	.LBE142:
 302              	.LBE141:
 303              	.LBE140:
 304              	.LBE139:
 305              	.LBB144:
 306              	.LBB145:
 307              		.loc 1 218 0
 308 0008 0325     		movs	r5, #3
 309              		.loc 1 216 0
 310 000a 8381     		strh	r3, [r0, #12]	@ movhi
 311              		.loc 1 215 0
 312 000c 8260     		str	r2, [r0, #8]
 313              		.loc 1 217 0
 314 000e 4160     		str	r1, [r0, #4]
 315              		.loc 1 218 0
 316 0010 0570     		strb	r5, [r0]
 317              		.loc 1 219 0
 318 0012 FFF7FEFF 		bl	dac_lld_start_conversion
 319              	.LVL15:
 320              	.LBE145:
 321              	.LBE144:
 322              	.LBB146:
 323              	.LBB147:
 324              	.LBB148:
 325              	.LBB149:
 326              	.LBB150:
 327              	.LBB151:
 328              		.loc 3 546 0
 329 0016 0023     		movs	r3, #0
 330              	@ 546 "../ChibiOS/os/ext/CMSIS/include/core_cmFunc.h" 1
 331 0018 83F31188 		MSR basepri, r3
 332              	@ 0 "" 2
 333              		.thumb
 334 001c 38BD     		pop	{r3, r4, r5, pc}
 335              	.LBE151:
 336              	.LBE150:
ARM GAS  /tmp/ccCFpE1I.s 			page 7


 337              	.LBE149:
 338              	.LBE148:
 339              	.LBE147:
 340              	.LBE146:
 341              		.cfi_endproc
 342              	.LFE260:
 343              		.size	dacStartConversion, .-dacStartConversion
 344 001e 00BF     		.section	.text.dacStartConversionI,"ax",%progbits
 345              		.align	2
 346              		.p2align 4,,15
 347              		.global	dacStartConversionI
 348              		.thumb
 349              		.thumb_func
 350              		.type	dacStartConversionI, %function
 351              	dacStartConversionI:
 352              	.LFB261:
 353              		.loc 1 205 0
 354              		.cfi_startproc
 355              		@ args = 0, pretend = 0, frame = 0
 356              		@ frame_needed = 0, uses_anonymous_args = 0
 357              		@ link register save eliminated.
 358              	.LVL16:
 359 0000 30B4     		push	{r4, r5}
 360              		.cfi_def_cfa_offset 8
 361              		.cfi_offset 4, -8
 362              		.cfi_offset 5, -4
 363              		.loc 1 218 0
 364 0002 0325     		movs	r5, #3
 365 0004 0570     		strb	r5, [r0]
 366              		.loc 1 215 0
 367 0006 8260     		str	r2, [r0, #8]
 368              		.loc 1 216 0
 369 0008 8381     		strh	r3, [r0, #12]	@ movhi
 370              		.loc 1 217 0
 371 000a 4160     		str	r1, [r0, #4]
 372              		.loc 1 220 0
 373 000c 30BC     		pop	{r4, r5}
 374              		.cfi_restore 5
 375              		.cfi_restore 4
 376              		.cfi_def_cfa_offset 0
 377              		.loc 1 219 0
 378 000e FFF7FEBF 		b	dac_lld_start_conversion
 379              	.LVL17:
 380              		.cfi_endproc
 381              	.LFE261:
 382              		.size	dacStartConversionI, .-dacStartConversionI
 383 0012 00BFAFF3 		.section	.text.dacStopConversion,"ax",%progbits
 383      0080AFF3 
 383      0080AFF3 
 383      0080
 384              		.align	2
 385              		.p2align 4,,15
 386              		.global	dacStopConversion
 387              		.thumb
 388              		.thumb_func
 389              		.type	dacStopConversion, %function
 390              	dacStopConversion:
ARM GAS  /tmp/ccCFpE1I.s 			page 8


 391              	.LFB262:
 392              		.loc 1 232 0
 393              		.cfi_startproc
 394              		@ args = 0, pretend = 0, frame = 0
 395              		@ frame_needed = 0, uses_anonymous_args = 0
 396              	.LVL18:
 397              	.LBB152:
 398              	.LBB153:
 399              	.LBB154:
 400              	.LBB155:
 401              	.LBB156:
 402              		.loc 3 546 0
 403 0000 2022     		movs	r2, #32
 404              	@ 546 "../ChibiOS/os/ext/CMSIS/include/core_cmFunc.h" 1
 405 0002 82F31188 		MSR basepri, r2
 406              	@ 0 "" 2
 407              		.thumb
 408              	.LBE156:
 409              	.LBE155:
 410              	.LBE154:
 411              	.LBE153:
 412              	.LBE152:
 413              		.loc 1 242 0
 414 0006 0278     		ldrb	r2, [r0]	@ zero_extendqisi2
 415 0008 022A     		cmp	r2, #2
 416 000a 11D0     		beq	.L19
 417              		.loc 1 232 0
 418 000c 10B5     		push	{r4, lr}
 419              		.cfi_def_cfa_offset 8
 420              		.cfi_offset 4, -8
 421              		.cfi_offset 14, -4
 422 000e 0446     		mov	r4, r0
 423              		.loc 1 243 0
 424 0010 FFF7FEFF 		bl	dac_lld_stop_conversion
 425              	.LVL19:
 426              		.loc 1 245 0
 427 0014 2046     		mov	r0, r4
 428              		.loc 1 244 0
 429 0016 0022     		movs	r2, #0
 430              		.loc 1 245 0
 431 0018 0223     		movs	r3, #2
 432              		.loc 1 244 0
 433 001a 6260     		str	r2, [r4, #4]
 434              	.LBB157:
 435              	.LBB158:
 436              		.loc 2 675 0
 437 001c 6FF00101 		mvn	r1, #1
 438              	.LBE158:
 439              	.LBE157:
 440              		.loc 1 245 0
 441 0020 00F8143B 		strb	r3, [r0], #20
 442              	.LVL20:
 443              	.LBB160:
 444              	.LBB159:
 445              		.loc 2 675 0
 446 0024 FFF7FEFF 		bl	chThdResumeS
 447              	.LVL21:
ARM GAS  /tmp/ccCFpE1I.s 			page 9


 448              	.LBE159:
 449              	.LBE160:
 450              	.LBB161:
 451              	.LBB162:
 452              	.LBB163:
 453              	.LBB164:
 454              	.LBB165:
 455              	.LBB166:
 456              		.loc 3 546 0
 457 0028 0023     		movs	r3, #0
 458              	@ 546 "../ChibiOS/os/ext/CMSIS/include/core_cmFunc.h" 1
 459 002a 83F31188 		MSR basepri, r3
 460              	@ 0 "" 2
 461              		.thumb
 462 002e 10BD     		pop	{r4, pc}
 463              	.LVL22:
 464              	.L19:
 465              		.cfi_def_cfa_offset 0
 466              		.cfi_restore 4
 467              		.cfi_restore 14
 468 0030 0023     		movs	r3, #0
 469              	@ 546 "../ChibiOS/os/ext/CMSIS/include/core_cmFunc.h" 1
 470 0032 83F31188 		MSR basepri, r3
 471              	@ 0 "" 2
 472              		.thumb
 473 0036 7047     		bx	lr
 474              	.LBE166:
 475              	.LBE165:
 476              	.LBE164:
 477              	.LBE163:
 478              	.LBE162:
 479              	.LBE161:
 480              		.cfi_endproc
 481              	.LFE262:
 482              		.size	dacStopConversion, .-dacStopConversion
 483 0038 AFF30080 		.section	.text.dacStopConversionI,"ax",%progbits
 483      AFF30080 
 484              		.align	2
 485              		.p2align 4,,15
 486              		.global	dacStopConversionI
 487              		.thumb
 488              		.thumb_func
 489              		.type	dacStopConversionI, %function
 490              	dacStopConversionI:
 491              	.LFB263:
 492              		.loc 1 262 0
 493              		.cfi_startproc
 494              		@ args = 0, pretend = 0, frame = 0
 495              		@ frame_needed = 0, uses_anonymous_args = 0
 496              	.LVL23:
 497              		.loc 1 271 0
 498 0000 0278     		ldrb	r2, [r0]	@ zero_extendqisi2
 499 0002 022A     		cmp	r2, #2
 500 0004 0FD0     		beq	.L24
 501              		.loc 1 262 0
 502 0006 10B5     		push	{r4, lr}
 503              		.cfi_def_cfa_offset 8
ARM GAS  /tmp/ccCFpE1I.s 			page 10


 504              		.cfi_offset 4, -8
 505              		.cfi_offset 14, -4
 506 0008 0446     		mov	r4, r0
 507              		.loc 1 272 0
 508 000a FFF7FEFF 		bl	dac_lld_stop_conversion
 509              	.LVL24:
 510              		.loc 1 274 0
 511 000e 2046     		mov	r0, r4
 512              		.loc 1 273 0
 513 0010 0022     		movs	r2, #0
 514              		.loc 1 274 0
 515 0012 0223     		movs	r3, #2
 516              		.loc 1 273 0
 517 0014 6260     		str	r2, [r4, #4]
 518              	.LBB167:
 519              	.LBB168:
 520              		.loc 2 660 0
 521 0016 6FF00101 		mvn	r1, #1
 522              	.LBE168:
 523              	.LBE167:
 524              		.loc 1 274 0
 525 001a 00F8143B 		strb	r3, [r0], #20
 526              	.LVL25:
 527              		.loc 1 277 0
 528 001e BDE81040 		pop	{r4, lr}
 529              		.cfi_restore 14
 530              		.cfi_restore 4
 531              		.cfi_def_cfa_offset 0
 532              	.LVL26:
 533              	.LBB170:
 534              	.LBB169:
 535              		.loc 2 660 0
 536 0022 FFF7FEBF 		b	chThdResumeI
 537              	.LVL27:
 538              	.L24:
 539 0026 7047     		bx	lr
 540              	.LBE169:
 541              	.LBE170:
 542              		.cfi_endproc
 543              	.LFE263:
 544              		.size	dacStopConversionI, .-dacStopConversionI
 545 0028 AFF30080 		.section	.text.dacConvert,"ax",%progbits
 545      AFF30080 
 546              		.align	2
 547              		.p2align 4,,15
 548              		.global	dacConvert
 549              		.thumb
 550              		.thumb_func
 551              		.type	dacConvert, %function
 552              	dacConvert:
 553              	.LFB264:
 554              		.loc 1 306 0
 555              		.cfi_startproc
 556              		@ args = 0, pretend = 0, frame = 0
 557              		@ frame_needed = 0, uses_anonymous_args = 0
 558              	.LVL28:
 559 0000 70B5     		push	{r4, r5, r6, lr}
ARM GAS  /tmp/ccCFpE1I.s 			page 11


 560              		.cfi_def_cfa_offset 16
 561              		.cfi_offset 4, -16
 562              		.cfi_offset 5, -12
 563              		.cfi_offset 6, -8
 564              		.cfi_offset 14, -4
 565              	.LBB171:
 566              	.LBB172:
 567              	.LBB173:
 568              	.LBB174:
 569              	.LBB175:
 570              		.loc 3 546 0
 571 0002 2025     		movs	r5, #32
 572              	@ 546 "../ChibiOS/os/ext/CMSIS/include/core_cmFunc.h" 1
 573 0004 85F31188 		MSR basepri, r5
 574              	@ 0 "" 2
 575              	.LVL29:
 576              		.thumb
 577              	.LBE175:
 578              	.LBE174:
 579              	.LBE173:
 580              	.LBE172:
 581              	.LBE171:
 582              	.LBB176:
 583              	.LBB177:
 584              		.loc 1 218 0
 585 0008 0546     		mov	r5, r0
 586 000a 0326     		movs	r6, #3
 587              		.loc 1 215 0
 588 000c 8260     		str	r2, [r0, #8]
 589              		.loc 1 216 0
 590 000e 8381     		strh	r3, [r0, #12]	@ movhi
 591              		.loc 1 217 0
 592 0010 4160     		str	r1, [r0, #4]
 593              		.loc 1 218 0
 594 0012 05F8146B 		strb	r6, [r5], #20
 595              		.loc 1 219 0
 596 0016 FFF7FEFF 		bl	dac_lld_start_conversion
 597              	.LVL30:
 598              	.LBE177:
 599              	.LBE176:
 600              	.LBB178:
 601              	.LBB179:
 602              		.loc 2 620 0
 603 001a 2846     		mov	r0, r5
 604 001c FFF7FEFF 		bl	chThdSuspendS
 605              	.LVL31:
 606              	.LBE179:
 607              	.LBE178:
 608              	.LBB180:
 609              	.LBB181:
 610              	.LBB182:
 611              	.LBB183:
 612              	.LBB184:
 613              	.LBB185:
 614              		.loc 3 546 0
 615 0020 0023     		movs	r3, #0
 616              	@ 546 "../ChibiOS/os/ext/CMSIS/include/core_cmFunc.h" 1
ARM GAS  /tmp/ccCFpE1I.s 			page 12


 617 0022 83F31188 		MSR basepri, r3
 618              	@ 0 "" 2
 619              		.thumb
 620              	.LBE185:
 621              	.LBE184:
 622              	.LBE183:
 623              	.LBE182:
 624              	.LBE181:
 625              	.LBE180:
 626              		.loc 1 316 0
 627 0026 70BD     		pop	{r4, r5, r6, pc}
 628              		.cfi_endproc
 629              	.LFE264:
 630              		.size	dacConvert, .-dacConvert
 631 0028 AFF30080 		.section	.text.dacAcquireBus,"ax",%progbits
 631      AFF30080 
 632              		.align	2
 633              		.p2align 4,,15
 634              		.global	dacAcquireBus
 635              		.thumb
 636              		.thumb_func
 637              		.type	dacAcquireBus, %function
 638              	dacAcquireBus:
 639              	.LFB265:
 640              		.loc 1 331 0
 641              		.cfi_startproc
 642              		@ args = 0, pretend = 0, frame = 0
 643              		@ frame_needed = 0, uses_anonymous_args = 0
 644              		@ link register save eliminated.
 645              	.LVL32:
 646              	.LBB186:
 647              	.LBB187:
 648              		.loc 2 839 0
 649 0000 1830     		adds	r0, r0, #24
 650              	.LVL33:
 651 0002 FFF7FEBF 		b	chMtxLock
 652              	.LVL34:
 653              	.LBE187:
 654              	.LBE186:
 655              		.cfi_endproc
 656              	.LFE265:
 657              		.size	dacAcquireBus, .-dacAcquireBus
 658 0006 00BFAFF3 		.section	.text.dacReleaseBus,"ax",%progbits
 658      0080AFF3 
 658      0080
 659              		.align	2
 660              		.p2align 4,,15
 661              		.global	dacReleaseBus
 662              		.thumb
 663              		.thumb_func
 664              		.type	dacReleaseBus, %function
 665              	dacReleaseBus:
 666              	.LFB266:
 667              		.loc 1 347 0
 668              		.cfi_startproc
 669              		@ args = 0, pretend = 0, frame = 0
 670              		@ frame_needed = 0, uses_anonymous_args = 0
ARM GAS  /tmp/ccCFpE1I.s 			page 13


 671              		@ link register save eliminated.
 672              	.LVL35:
 673              	.LBB188:
 674              	.LBB189:
 675              		.loc 2 863 0
 676 0000 1830     		adds	r0, r0, #24
 677              	.LVL36:
 678 0002 FFF7FEBF 		b	chMtxUnlock
 679              	.LVL37:
 680              	.LBE189:
 681              	.LBE188:
 682              		.cfi_endproc
 683              	.LFE266:
 684              		.size	dacReleaseBus, .-dacReleaseBus
 685 0006 00BFAFF3 		.text
 685      0080AFF3 
 685      0080
 686              	.Letext0:
 687              		.file 4 "/l/arm2/gcc-arm-none-eabi-4_9-2014q4/lib/gcc/arm-none-eabi/4.9.3/include/stddef.h"
 688              		.file 5 "/l/arm2/gcc-arm-none-eabi-4_9-2014q4/arm-none-eabi/include/machine/_default_types.h"
 689              		.file 6 "/l/arm2/gcc-arm-none-eabi-4_9-2014q4/arm-none-eabi/include/stdint.h"
 690              		.file 7 "../ChibiOS/os/rt/ports/ARMCMx/compilers/GCC/chtypes.h"
 691              		.file 8 "../ChibiOS/os/rt/include/chsystypes.h"
 692              		.file 9 "../ChibiOS/os/rt/include/chschd.h"
 693              		.file 10 "../ChibiOS/os/ext/CMSIS/ST/stm32f303xc.h"
 694              		.file 11 "../ChibiOS/os/rt/ports/ARMCMx/chcore.h"
 695              		.file 12 "../ChibiOS/os/rt/ports/ARMCMx/chcore_v7m.h"
 696              		.file 13 "../ChibiOS/os/hal/ports/STM32/LLD/TIMv1/stm32_tim.h"
 697              		.file 14 "../ChibiOS/os/rt/include/chtm.h"
 698              		.file 15 "../ChibiOS/os/rt/include/chmtx.h"
 699              		.file 16 "../ChibiOS/os/rt/include/chthreads.h"
 700              		.file 17 "../ChibiOS/os/hal/ports/STM32/STM32F3xx/stm32_dma.h"
 701              		.file 18 "../ChibiOS/../ChibiOS-Drivers/inc/dac_driver.h"
 702              		.file 19 "../ChibiOS/../ChibiOS-Drivers/stm32/dac_driver_lld.h"
 703              		.file 20 "../ChibiOS/os/rt/include/chsys.h"
 704              		.file 21 "../ChibiOS/os/ext/CMSIS/include/core_cm4.h"