ARM GAS  /tmp/ccst0ogw.s 			page 1


   1              		.syntax unified
   2              		.cpu cortex-m4
   3              		.eabi_attribute 27, 3
   4              		.eabi_attribute 28, 1
   5              		.fpu fpv4-sp-d16
   6              		.eabi_attribute 20, 1
   7              		.eabi_attribute 21, 1
   8              		.eabi_attribute 23, 3
   9              		.eabi_attribute 24, 1
  10              		.eabi_attribute 25, 1
  11              		.eabi_attribute 26, 1
  12              		.eabi_attribute 30, 2
  13              		.eabi_attribute 34, 1
  14              		.eabi_attribute 18, 4
  15              		.thumb
  16              		.file	"dtoa.c"
  17              		.text
  18              	.Ltext0:
  19              		.cfi_sections	.debug_frame
  20              		.global	__aeabi_f2d
  21              		.global	__aeabi_d2iz
  22              		.global	__aeabi_i2d
  23              		.global	__aeabi_ddiv
  24              		.global	__aeabi_d2f
  25              		.global	__aeabi_dcmpgt
  26              		.global	__aeabi_dmul
  27              		.global	__aeabi_dsub
  28              		.section	.text.convFloat,"ax",%progbits
  29              		.align	2
  30              		.p2align 4,,15
  31              		.global	convFloat
  32              		.thumb
  33              		.thumb_func
  34              		.type	convFloat, %function
  35              	convFloat:
  36              	.LFB145:
  37              		.file 1 "../dtoa/dtoa.c"
  38              		.loc 1 42 0
  39              		.cfi_startproc
  40              		@ args = 0, pretend = 0, frame = 16
  41              		@ frame_needed = 0, uses_anonymous_args = 0
  42              	.LVL0:
  43 0000 2DE9F04F 		push	{r4, r5, r6, r7, r8, r9, r10, fp, lr}
  44              		.cfi_def_cfa_offset 36
  45              		.cfi_offset 4, -36
  46              		.cfi_offset 5, -32
  47              		.cfi_offset 6, -28
  48              		.cfi_offset 7, -24
  49              		.cfi_offset 8, -20
  50              		.cfi_offset 9, -16
  51              		.cfi_offset 10, -12
  52              		.cfi_offset 11, -8
  53              		.cfi_offset 14, -4
  54 0004 85B0     		sub	sp, sp, #20
  55              		.cfi_def_cfa_offset 56
  56              		.loc 1 42 0
  57 0006 10EE10BA 		fmrs	fp, s0
ARM GAS  /tmp/ccst0ogw.s 			page 2


  58 000a 0190     		str	r0, [sp, #4]
  59              		.loc 1 44 0
  60 000c FFF7FEFF 		bl	__fpclassifyf
  61              	.LVL1:
  62 0010 0028     		cmp	r0, #0
  63 0012 00F09980 		beq	.L52
  64              		.loc 1 46 0
  65 0016 00EE10BA 		fmsr	s0, fp
  66 001a FFF7FEFF 		bl	__fpclassifyf
  67              	.LVL2:
  68 001e 0128     		cmp	r0, #1
  69 0020 00F02D81 		beq	.L53
  70              		.loc 1 48 0
  71 0024 07EE90BA 		fmsr	s15, fp
  72 0028 F5EE407A 		fcmpzs	s15
  73 002c F1EE10FA 		fmstat
  74 0030 00F0AA80 		beq	.L54
  75              	.LVL3:
  76              	.LBB2:
  77              		.loc 1 54 0
  78 0034 07EE90BA 		fmsr	s15, fp
  79 0038 F5EEC07A 		fcmpezs	s15
  80 003c F1EE10FA 		fmstat
  81 0040 40F18A80 		bpl	.L46
  82              		.loc 1 55 0
  83 0044 8BF0004B 		eor	fp, fp, #-2147483648
  84              	.LVL4:
  85              		.loc 1 57 0
  86 0048 5846     		mov	r0, fp	@ float
  87 004a FFF7FEFF 		bl	__aeabi_f2d
  88              	.LVL5:
  89 004e 0646     		mov	r6, r0
  90 0050 0F46     		mov	r7, r1
  91 0052 47EC106B 		fmdrr	d0, r6, r7
  92 0056 FFF7FEFF 		bl	log10
  93              	.LVL6:
  94 005a 51EC100B 		fmrrd	r0, r1, d0
  95 005e FFF7FEFF 		bl	__aeabi_d2iz
  96              	.LVL7:
  97              		.loc 1 58 0
  98 0062 0D28     		cmp	r0, #13
  99              		.loc 1 57 0
 100 0064 0546     		mov	r5, r0
 101              	.LVL8:
 102              		.loc 1 58 0
 103 0066 40F39780 		ble	.L55
 104              	.L8:
 105              		.loc 1 60 0
 106 006a 0199     		ldr	r1, [sp, #4]
 107 006c 2D23     		movs	r3, #45
 108 006e 0B70     		strb	r3, [r1]
 109 0070 01F1010A 		add	r10, r1, #1
 110              	.LVL9:
 111              		.loc 1 57 0
 112 0074 2C46     		mov	r4, r5
 113              	.L25:
 114              		.loc 1 63 0
ARM GAS  /tmp/ccst0ogw.s 			page 3


 115 0076 002D     		cmp	r5, #0
 116 0078 C0F2F480 		blt	.L56
 117              	.LVL10:
 118              	.L10:
 119              		.loc 1 65 0
 120 007c 2046     		mov	r0, r4
 121 007e FFF7FEFF 		bl	__aeabi_i2d
 122              	.LVL11:
 123 0082 9FED8B0B 		fldd	d0, .L60
 124 0086 41EC110B 		fmdrr	d1, r0, r1
 125 008a FFF7FEFF 		bl	pow
 126              	.LVL12:
 127 008e 3046     		mov	r0, r6
 128 0090 53EC102B 		fmrrd	r2, r3, d0
 129 0094 3946     		mov	r1, r7
 130 0096 FFF7FEFF 		bl	__aeabi_ddiv
 131              	.LVL13:
 132 009a FFF7FEFF 		bl	__aeabi_d2f
 133              	.LVL14:
 134 009e 0123     		movs	r3, #1
 135 00a0 8346     		mov	fp, r0	@ float
 136              	.LVL15:
 137 00a2 0293     		str	r3, [sp, #8]
 138              		.loc 1 70 0
 139 00a4 0025     		movs	r5, #0
 140 00a6 0394     		str	r4, [sp, #12]
 141              	.LVL16:
 142              	.L13:
 143              		.loc 1 73 0
 144 00a8 5846     		mov	r0, fp	@ float
 145 00aa FFF7FEFF 		bl	__aeabi_f2d
 146              	.LVL17:
 147 00ae 86A3     		adr	r3, .L60+24
 148 00b0 D3E90023 		ldrd	r2, [r3]
 149 00b4 8046     		mov	r8, r0
 150 00b6 8946     		mov	r9, r1
 151 00b8 FFF7FEFF 		bl	__aeabi_dcmpgt
 152              	.LVL18:
 153 00bc 10B9     		cbnz	r0, .L18
 154              		.loc 1 73 0 is_stmt 0 discriminator 1
 155 00be 002D     		cmp	r5, #0
 156 00c0 C0F28780 		blt	.L57
 157              	.L18:
 158              	.LBB3:
 159              		.loc 1 74 0 is_stmt 1
 160 00c4 2846     		mov	r0, r5
 161 00c6 FFF7FEFF 		bl	__aeabi_i2d
 162              	.LVL19:
 163 00ca 9FED790B 		fldd	d0, .L60
 164 00ce 41EC110B 		fmdrr	d1, r0, r1
 165 00d2 FFF7FEFF 		bl	pow
 166              	.LVL20:
 167 00d6 57EC106B 		fmrrd	r6, r7, d0
 168              	.LVL21:
 169              		.loc 1 75 0
 170 00da 10EE100A 		fmrs	r0, s0	@ int
 171 00de 3946     		mov	r1, r7
ARM GAS  /tmp/ccst0ogw.s 			page 4


 172 00e0 0022     		movs	r2, #0
 173 00e2 0023     		movs	r3, #0
 174 00e4 FFF7FEFF 		bl	__aeabi_dcmpgt
 175              	.LVL22:
 176 00e8 47EC106B 		fmdrr	d0, r6, r7
 177 00ec 38B3     		cbz	r0, .L14
 178              		.loc 1 75 0 is_stmt 0 discriminator 1
 179 00ee FFF7FEFF 		bl	__fpclassifyd
 180              	.LVL23:
 181 00f2 0128     		cmp	r0, #1
 182              		.loc 1 76 0 is_stmt 1 discriminator 1
 183 00f4 3246     		mov	r2, r6
 184 00f6 3B46     		mov	r3, r7
 185 00f8 4046     		mov	r0, r8
 186 00fa 4946     		mov	r1, r9
 187              		.loc 1 75 0 discriminator 1
 188 00fc 1FD0     		beq	.L14
 189              		.loc 1 76 0
 190 00fe FFF7FEFF 		bl	__aeabi_ddiv
 191              	.LVL24:
 192 0102 41EC100B 		fmdrr	d0, r0, r1
 193 0106 FFF7FEFF 		bl	floor
 194              	.LVL25:
 195 010a 51EC100B 		fmrrd	r0, r1, d0
 196 010e FFF7FEFF 		bl	__aeabi_d2iz
 197              	.LVL26:
 198 0112 0446     		mov	r4, r0
 199              	.LVL27:
 200              		.loc 1 77 0
 201 0114 FFF7FEFF 		bl	__aeabi_i2d
 202              	.LVL28:
 203 0118 3246     		mov	r2, r6
 204 011a 3B46     		mov	r3, r7
 205 011c FFF7FEFF 		bl	__aeabi_dmul
 206              	.LVL29:
 207 0120 0246     		mov	r2, r0
 208 0122 0B46     		mov	r3, r1
 209 0124 4046     		mov	r0, r8
 210 0126 4946     		mov	r1, r9
 211 0128 FFF7FEFF 		bl	__aeabi_dsub
 212              	.LVL30:
 213 012c FFF7FEFF 		bl	__aeabi_d2f
 214              	.LVL31:
 215              		.loc 1 78 0
 216 0130 04F1300C 		add	ip, r4, #48
 217 0134 8AF800C0 		strb	ip, [r10]
 218              		.loc 1 77 0
 219 0138 8346     		mov	fp, r0	@ float
 220              	.LVL32:
 221              		.loc 1 78 0
 222 013a 0AF1010A 		add	r10, r10, #1
 223              	.LVL33:
 224              	.L14:
 225              		.loc 1 80 0
 226 013e 002D     		cmp	r5, #0
 227 0140 00F0A580 		beq	.L58
 228              	.LVL34:
ARM GAS  /tmp/ccst0ogw.s 			page 5


 229              	.L16:
 230              		.loc 1 82 0
 231 0144 013D     		subs	r5, r5, #1
 232              	.LVL35:
 233 0146 AFE7     		b	.L13
 234              	.LVL36:
 235              	.L52:
 236              	.LBE3:
 237              	.LBE2:
 238              		.loc 1 45 0
 239 0148 5B4B     		ldr	r3, .L60+8
 240 014a 1868     		ldr	r0, [r3]	@ unaligned
 241 014c 019B     		ldr	r3, [sp, #4]
 242 014e 1860     		str	r0, [r3]	@ unaligned
 243              	.L45:
 244              		.loc 1 112 0
 245 0150 0198     		ldr	r0, [sp, #4]
 246 0152 05B0     		add	sp, sp, #20
 247              		.cfi_remember_state
 248              		.cfi_def_cfa_offset 36
 249              		@ sp needed
 250 0154 BDE8F08F 		pop	{r4, r5, r6, r7, r8, r9, r10, fp, pc}
 251              	.LVL37:
 252              	.L46:
 253              		.cfi_restore_state
 254              	.LBB8:
 255              		.loc 1 57 0
 256 0158 5846     		mov	r0, fp	@ float
 257 015a FFF7FEFF 		bl	__aeabi_f2d
 258              	.LVL38:
 259 015e 0646     		mov	r6, r0
 260 0160 0F46     		mov	r7, r1
 261 0162 47EC106B 		fmdrr	d0, r6, r7
 262 0166 FFF7FEFF 		bl	log10
 263              	.LVL39:
 264 016a 51EC100B 		fmrrd	r0, r1, d0
 265 016e FFF7FEFF 		bl	__aeabi_d2iz
 266              	.LVL40:
 267              		.loc 1 58 0
 268 0172 0D28     		cmp	r0, #13
 269              		.loc 1 57 0
 270 0174 0546     		mov	r5, r0
 271              	.LVL41:
 272              		.loc 1 58 0
 273 0176 03DC     		bgt	.L26
 274 0178 10F1080F 		cmn	r0, #8
 275 017c 80F28480 		bge	.L59
 276              	.L26:
 277              	.LVL42:
 278              		.loc 1 57 0
 279 0180 2C46     		mov	r4, r5
 280 0182 DDF804A0 		ldr	r10, [sp, #4]
 281 0186 76E7     		b	.L25
 282              	.LVL43:
 283              	.L54:
 284              	.LBE8:
 285              		.loc 1 49 0
ARM GAS  /tmp/ccst0ogw.s 			page 6


 286 0188 4C4B     		ldr	r3, .L60+12
 287 018a 019A     		ldr	r2, [sp, #4]
 288 018c 1B88     		ldrh	r3, [r3]	@ unaligned
 289              		.loc 1 112 0
 290 018e 0198     		ldr	r0, [sp, #4]
 291              		.loc 1 49 0
 292 0190 1380     		strh	r3, [r2]	@ unaligned
 293              		.loc 1 112 0
 294 0192 05B0     		add	sp, sp, #20
 295              		.cfi_remember_state
 296              		.cfi_def_cfa_offset 36
 297              		@ sp needed
 298 0194 BDE8F08F 		pop	{r4, r5, r6, r7, r8, r9, r10, fp, pc}
 299              	.LVL44:
 300              	.L55:
 301              		.cfi_restore_state
 302              	.LBB9:
 303              		.loc 1 58 0 discriminator 3
 304 0198 0828     		cmp	r0, #8
 305 019a 3FF766AF 		bgt	.L8
 306              		.loc 1 58 0 is_stmt 0 discriminator 6
 307 019e 10F1080F 		cmn	r0, #8
 308 01a2 FFF662AF 		blt	.L8
 309              	.LVL45:
 310              		.loc 1 60 0 is_stmt 1
 311 01a6 0199     		ldr	r1, [sp, #4]
 312 01a8 2D23     		movs	r3, #45
 313 01aa 0B70     		strb	r3, [r1]
 314 01ac 01F1010A 		add	r10, r1, #1
 315              	.LVL46:
 316              	.L27:
 317              		.loc 1 69 0
 318 01b0 07EE905A 		fmsr	s15, r5	@ int
 319 01b4 F8EEE77A 		fsitos	s15, s15
 320 01b8 B7EE007A 		fconsts	s14, #112
 321 01bc F4EEC77A 		fcmpes	s15, s14
 322 01c0 F1EE10FA 		fmstat
 323 01c4 4BBF     		itete	mi
 324 01c6 0025     		movmi	r5, #0
 325 01c8 0023     		movpl	r3, #0
 326              		.loc 1 70 0
 327 01ca 0295     		strmi	r5, [sp, #8]
 328 01cc 0293     		strpl	r3, [sp, #8]
 329 01ce 0394     		str	r4, [sp, #12]
 330 01d0 6AE7     		b	.L13
 331              	.LVL47:
 332              	.L57:
 333              		.loc 1 84 0
 334 01d2 029B     		ldr	r3, [sp, #8]
 335 01d4 039C     		ldr	r4, [sp, #12]
 336 01d6 5646     		mov	r6, r10
 337 01d8 A3B3     		cbz	r3, .L19
 338              	.LVL48:
 339              	.LBB4:
 340              		.loc 1 87 0
 341 01da 6523     		movs	r3, #101
 342              		.loc 1 88 0
ARM GAS  /tmp/ccst0ogw.s 			page 7


 343 01dc 002C     		cmp	r4, #0
 344              		.loc 1 87 0
 345 01de 8AF80030 		strb	r3, [r10]
 346              		.loc 1 88 0
 347 01e2 35DD     		ble	.L20
 348              		.loc 1 89 0
 349 01e4 2B23     		movs	r3, #43
 350 01e6 8AF80130 		strb	r3, [r10, #1]
 351 01ea 0AF1020A 		add	r10, r10, #2
 352              	.LVL49:
 353              	.L21:
 354              	.LBE4:
 355 01ee 0021     		movs	r1, #0
 356              	.LBB5:
 357              		.loc 1 96 0
 358 01f0 3348     		ldr	r0, .L60+16
 359 01f2 00E0     		b	.L23
 360              	.LVL50:
 361              	.L30:
 362              		.loc 1 98 0
 363 01f4 3146     		mov	r1, r6
 364              	.LVL51:
 365              	.L23:
 366              		.loc 1 96 0
 367 01f6 80FB0432 		smull	r3, r2, r0, r4
 368 01fa E317     		asrs	r3, r4, #31
 369 01fc C3EBA203 		rsb	r3, r3, r2, asr #2
 370              	.LVL52:
 371 0200 03EB8302 		add	r2, r3, r3, lsl #2
 372 0204 A4EB4204 		sub	r4, r4, r2, lsl #1
 373 0208 3034     		adds	r4, r4, #48
 374 020a 0AF8014B 		strb	r4, [r10], #1
 375              	.LVL53:
 376              		.loc 1 98 0
 377 020e 4E1C     		adds	r6, r1, #1
 378              	.LVL54:
 379              		.loc 1 95 0
 380 0210 1C46     		mov	r4, r3
 381 0212 002B     		cmp	r3, #0
 382 0214 EED1     		bne	.L30
 383              		.loc 1 100 0
 384 0216 C6EB0A0A 		rsb	r10, r6, r10
 385              	.LVL55:
 386              		.loc 1 101 0
 387 021a 91B1     		cbz	r1, .L22
 388 021c 5046     		mov	r0, r10
 389 021e 0AEB0105 		add	r5, r10, r1
 390              	.LVL56:
 391              	.L24:
 392              		.loc 1 103 0 discriminator 3
 393 0222 0378     		ldrb	r3, [r0]	@ zero_extendqisi2
 394 0224 2A78     		ldrb	r2, [r5]	@ zero_extendqisi2
 395 0226 5A40     		eors	r2, r2, r3
 396 0228 0270     		strb	r2, [r0]
 397              		.loc 1 104 0 discriminator 3
 398 022a 2B78     		ldrb	r3, [r5]	@ zero_extendqisi2
 399 022c 5340     		eors	r3, r3, r2
ARM GAS  /tmp/ccst0ogw.s 			page 8


 400 022e 05F80139 		strb	r3, [r5], #-1
 401              		.loc 1 105 0 discriminator 3
 402 0232 0278     		ldrb	r2, [r0]	@ zero_extendqisi2
 403              		.loc 1 101 0 discriminator 3
 404 0234 0134     		adds	r4, r4, #1
 405              	.LVL57:
 406              		.loc 1 105 0 discriminator 3
 407 0236 5340     		eors	r3, r3, r2
 408 0238 0A1B     		subs	r2, r1, r4
 409              	.LVL58:
 410              		.loc 1 101 0 discriminator 3
 411 023a 9442     		cmp	r4, r2
 412              		.loc 1 105 0 discriminator 3
 413 023c 00F8013B 		strb	r3, [r0], #1
 414              		.loc 1 101 0 discriminator 3
 415 0240 EFDB     		blt	.L24
 416              	.LVL59:
 417              	.L22:
 418              		.loc 1 107 0
 419 0242 5644     		add	r6, r6, r10
 420              	.LVL60:
 421              	.L19:
 422              	.LBE5:
 423              	.LBE9:
 424              		.loc 1 112 0
 425 0244 0198     		ldr	r0, [sp, #4]
 426              	.LBB10:
 427              		.loc 1 109 0
 428 0246 0023     		movs	r3, #0
 429 0248 3370     		strb	r3, [r6]
 430              	.LBE10:
 431              		.loc 1 112 0
 432 024a 05B0     		add	sp, sp, #20
 433              		.cfi_remember_state
 434              		.cfi_def_cfa_offset 36
 435              		@ sp needed
 436 024c BDE8F08F 		pop	{r4, r5, r6, r7, r8, r9, r10, fp, pc}
 437              	.LVL61:
 438              	.L20:
 439              		.cfi_restore_state
 440              	.LBB11:
 441              	.LBB6:
 442              		.loc 1 91 0
 443 0250 2D23     		movs	r3, #45
 444              		.loc 1 92 0
 445 0252 6442     		negs	r4, r4
 446              		.loc 1 91 0
 447 0254 8AF80130 		strb	r3, [r10, #1]
 448 0258 0AF1020A 		add	r10, r10, #2
 449              	.LVL62:
 450              		.loc 1 95 0
 451 025c 002C     		cmp	r4, #0
 452 025e C6D1     		bne	.L21
 453              		.loc 1 100 0
 454 0260 2646     		mov	r6, r4
 455 0262 EEE7     		b	.L22
 456              	.LVL63:
ARM GAS  /tmp/ccst0ogw.s 			page 9


 457              	.L56:
 458              	.LBE6:
 459              		.loc 1 64 0
 460 0264 07EE905A 		fmsr	s15, r5	@ int
 461 0268 F8EEE77A 		fsitos	s15, s15
 462 026c B7EE007A 		fconsts	s14, #112
 463 0270 77EEC77A 		fsubs	s15, s15, s14
 464 0274 FDEEE77A 		ftosizs	s15, s15
 465 0278 17EE904A 		fmrs	r4, s15	@ int
 466              	.LVL64:
 467 027c FEE6     		b	.L10
 468              	.LVL65:
 469              	.L53:
 470              	.LBE11:
 471              		.loc 1 47 0
 472 027e 114B     		ldr	r3, .L60+20
 473 0280 1868     		ldr	r0, [r3]	@ unaligned
 474 0282 019B     		ldr	r3, [sp, #4]
 475 0284 1860     		str	r0, [r3]	@ unaligned
 476 0286 63E7     		b	.L45
 477              	.LVL66:
 478              	.L59:
 479              	.LBB12:
 480              		.loc 1 58 0
 481 0288 DDF804A0 		ldr	r10, [sp, #4]
 482 028c 90E7     		b	.L27
 483              	.LVL67:
 484              	.L58:
 485              	.LBB7:
 486              		.loc 1 80 0 discriminator 1
 487 028e 07EE90BA 		fmsr	s15, fp
 488 0292 F5EEC07A 		fcmpezs	s15
 489 0296 F1EE10FA 		fmstat
 490 029a 7FF753AF 		ble	.L16
 491              		.loc 1 81 0
 492 029e 2E23     		movs	r3, #46
 493 02a0 8AF80030 		strb	r3, [r10]
 494 02a4 0AF1010A 		add	r10, r10, #1
 495              	.LVL68:
 496 02a8 4CE7     		b	.L16
 497              	.L61:
 498 02aa 00BFAFF3 		.align	3
 498      0080
 499              	.L60:
 500 02b0 00000000 		.word	0
 501 02b4 00002440 		.word	1076101120
 502 02b8 00000000 		.word	.LC0
 503 02bc 08000000 		.word	.LC2
 504 02c0 67666666 		.word	1717986919
 505 02c4 04000000 		.word	.LC1
 506 02c8 000000E0 		.word	-536870912
 507 02cc 8E79453E 		.word	1044740494
 508              	.LBE7:
 509              	.LBE12:
 510              		.cfi_endproc
 511              	.LFE145:
 512              		.size	convFloat, .-convFloat
ARM GAS  /tmp/ccst0ogw.s 			page 10


 513              		.section	.rodata.str1.4,"aMS",%progbits,1
 514              		.align	2
 515              	.LC0:
 516 0000 6E616E00 		.ascii	"nan\000"
 517              	.LC1:
 518 0004 696E6600 		.ascii	"inf\000"
 519              	.LC2:
 520 0008 3000     		.ascii	"0\000"
 521 000a 0000     		.text
 522              	.Letext0:
 523              		.file 2 "/l/arm2/gcc-arm-none-eabi-4_9-2014q4/arm-none-eabi/include/machine/_default_types.h"
 524              		.file 3 "/l/arm2/gcc-arm-none-eabi-4_9-2014q4/arm-none-eabi/include/stdint.h"
 525              		.file 4 "/l/arm2/gcc-arm-none-eabi-4_9-2014q4/arm-none-eabi/include/math.h"
 526              		.file 5 "../ChibiOS/os/ext/CMSIS/include/core_cm4.h"