ARM GAS  /tmp/ccst0ogw.s 			page 1


   1              		.syntax unified
   2              		.cpu cortex-m4
   3              		.eabi_attribute 27, 3
   4              		.eabi_attribute 28, 1
   5              		.fpu fpv4-sp-d16
   6              		.eabi_attribute 20, 1
   7              		.eabi_attribute 21, 1
   8              		.eabi_attribute 23, 3
   9              		.eabi_attribute 24, 1
  10              		.eabi_attribute 25, 1
  11              		.eabi_attribute 26, 1
  12              		.eabi_attribute 30, 2
  13              		.eabi_attribute 34, 1
  14              		.eabi_attribute 18, 4
  15              		.thumb
  16              		.file	"dtoa.c"
  17              		.text
  18              	.Ltext0:
  19              		.cfi_sections	.debug_frame
  20              		.global	__aeabi_f2d
  21              		.global	__aeabi_d2iz
  22              		.global	__aeabi_i2d
  23              		.global	__aeabi_ddiv
  24              		.global	__aeabi_d2f
  25              		.global	__aeabi_dcmpgt
  26              		.global	__aeabi_dmul
  27              		.global	__aeabi_dsub
  28              		.section	.text.convFloat,"ax",%progbits
  29              		.align	2
  30              		.p2align 4,,15
  31              		.global	convFloat
  32              		.thumb
  33              		.thumb_func
  34              		.type	convFloat, %function
  35              	convFloat:
  36              	.LFB145:
  37              		.file 1 "../dtoa/dtoa.c"
  38              		.loc 1 42 0
  39              		.cfi_startproc
  40              		@ args = 0, pretend = 0, frame = 16
  41              		@ frame_needed = 0, uses_anonymous_args = 0
  42              	.LVL0:
  43 0000 2DE9F04F 		push	{r4, r5, r6, r7, r8, r9, r10, fp, lr}
  44              		.cfi_def_cfa_offset 36
  45              		.cfi_offset 4, -36
  46              		.cfi_offset 5, -32
  47              		.cfi_offset 6, -28
  48              		.cfi_offset 7, -24
  49              		.cfi_offset 8, -20
  50              		.cfi_offset 9, -16
  51              		.cfi_offset 10, -12
  52              		.cfi_offset 11, -8
  53              		.cfi_offset 14, -4
  54 0004 85B0     		sub	sp, sp, #20
  55              		.cfi_def_cfa_offset 56
  56              		.loc 1 42 0
  57 0006 10EE10BA 		fmrs	fp, s0
ARM GAS  /tmp/ccst0ogw.s 			page 2


  58 000a 0190     		str	r0, [sp, #4]
  59              		.loc 1 44 0
  60 000c FFF7FEFF 		bl	__fpclassifyf
  61              	.LVL1:
  62 0010 0028     		cmp	r0, #0
  63 0012 00F09980 		beq	.L52
  64              		.loc 1 46 0
  65 0016 00EE10BA 		fmsr	s0, fp
  66 001a FFF7FEFF 		bl	__fpclassifyf
  67              	.LVL2:
  68 001e 0128     		cmp	r0, #1
  69 0020 00F02D81 		beq	.L53
  70              		.loc 1 48 0
  71 0024 07EE90BA 		fmsr	s15, fp
  72 0028 F5EE407A 		fcmpzs	s15
  73 002c F1EE10FA 		fmstat
  74 0030 00F0AA80 		beq	.L54
  75              	.LVL3:
  76              	.LBB2:
  77              		.loc 1 54 0
  78 0034 07EE90BA 		fmsr	s15, fp
  79 0038 F5EEC07A 		fcmpezs	s15
  80 003c F1EE10FA 		fmstat
  81 0040 40F18A80 		bpl	.L46
  82              		.loc 1 55 0
  83 0044 8BF0004B 		eor	fp, fp, #-2147483648
  84              	.LVL4:
  85              		.loc 1 57 0
  86 0048 5846     		mov	r0, fp	@ float
  87 004a FFF7FEFF 		bl	__aeabi_f2d
  88              	.LVL5:
  89 004e 0646     		mov	r6, r0
  90 0050 0F46     		mov	r7, r1
  91 0052 47EC106B 		fmdrr	d0, r6, r7
  92 0056 FFF7FEFF 		bl	log10
  93              	.LVL6:
  94 005a 51EC100B 		fmrrd	r0, r1, d0
  95 005e FFF7FEFF 		bl	__aeabi_d2iz
  96              	.LVL7:
  97              		.loc 1 58 0
  98 0062 0D28     		cmp	r0, #13
  99              		.loc 1 57 0
 100 0064 0546     		mov	r5, r0
 101              	.LVL8:
 102              		.loc 1 58 0
 103 0066 40F39780 		ble	.L55
 104              	.L8:
 105              		.loc 1 60 0
 106 006a 0199     		ldr	r1, [sp, #4]
 107 006c 2D23     		movs	r3, #45
 108 006e 0B70     		strb	r3, [r1]
 109 0070 01F1010A 		add	r10, r1, #1
 110              	.LVL9:
 111              		.loc 1 57 0
 112 0074 2C46     		mov	r4, r5
 113              	.L25:
 114              		.loc 1 63 0
ARM GAS  /tmp/ccst0ogw.s 			page 3


 115 0076 002D     		cmp	r5, #0
 116 0078 C0F2F480 		blt	.L56
 117              	.LVL10:
 118              	.L10:
 119              		.loc 1 65 0
 120 007c 2046     		mov	r0, r4
 121 007e FFF7FEFF 		bl	__aeabi_i2d
 122              	.LVL11:
 123 0082 9FED8B0B 		fldd	d0, .L60
 124 0086 41EC110B 		fmdrr	d1, r0, r1
 125 008a FFF7FEFF 		bl	pow
 126              	.LVL12:
 127 008e 3046     		mov	r0, r6
 128 0090 53EC102B 		fmrrd	r2, r3, d0
 129 0094 3946     		mov	r1, r7
 130 0096 FFF7FEFF 		bl	__aeabi_ddiv
 131              	.LVL13:
 132 009a FFF7FEFF 		bl	__aeabi_d2f
 133              	.LVL14:
 134 009e 0123     		movs	r3, #1
 135 00a0 8346     		mov	fp, r0	@ float
 136              	.LVL15:
 137 00a2 0293     		str	r3, [sp, #8]
 138              		.loc 1 70 0
 139 00a4 0025     		movs	r5, #0
 140 00a6 0394     		str	r4, [sp, #12]
 141              	.LVL16:
 142              	.L13:
 143              		.loc 1 73 0
 144 00a8 5846     		mov	r0, fp	@ float
 145 00aa FFF7FEFF 		bl	__aeabi_f2d
 146              	.LVL17:
 147 00ae 86A3     		adr	r3, .L60+24
 148 00b0 D3E90023 		ldrd	r2, [r3]
 149 00b4 8046     		mov	r8, r0
 150 00b6 8946     		mov	r9, r1
 151 00b8 FFF7FEFF 		bl	__aeabi_dcmpgt
 152              	.LVL18:
 153 00bc 10B9     		cbnz	r0, .L18
 154              		.loc 1 73 0 is_stmt 0 discriminator 1
 155 00be 002D     		cmp	r5, #0
 156 00c0 C0F28780 		blt	.L57
 157              	.L18:
 158              	.LBB3:
 159              		.loc 1 74 0 is_stmt 1
 160 00c4 2846     		mov	r0, r5
 161 00c6 FFF7FEFF 		bl	__aeabi_i2d
 162              	.LVL19:
 163 00ca 9FED790B 		fldd	d0, .L60
 164 00ce 41EC110B 		fmdrr	d1, r0, r1
 165 00d2 FFF7FEFF 		bl	pow
 166              	.LVL20:
 167 00d6 57EC106B 		fmrrd	r6, r7, d0
 168              	.LVL21:
 169              		.loc 1 75 0
 170 00da 10EE100A 		fmrs	r0, s0	@ int
 171 00de 3946     		mov	r1, r7
ARM GAS  /tmp/ccst0ogw.s 			page 4


 172 00e0 0022     		movs	r2, #0
 173 00e2 0023     		movs	r3, #0
 174 00e4 FFF7FEFF 		bl	__aeabi_dcmpgt
 175              	.LVL22:
 176 00e8 47EC106B 		fmdrr	d0, r6, r7
 177 00ec 38B3     		cbz	r0, .L14
 178              		.loc 1 75 0 is_stmt 0 discriminator 1
 179 00ee FFF7FEFF 		bl	__fpclassifyd
 180              	.LVL23:
 181 00f2 0128     		cmp	r0, #1
 182              		.loc 1 76 0 is_stmt 1 discriminator 1
 183 00f4 3246     		mov	r2, r6
 184 00f6 3B46     		mov	r3, r7
 185 00f8 4046     		mov	r0, r8
 186 00fa 4946     		mov	r1, r9
 187              		.loc 1 75 0 discriminator 1
 188 00fc 1FD0     		beq	.L14
 189              		.loc 1 76 0
 190 00fe FFF7FEFF 		bl	__aeabi_ddiv
 191              	.LVL24:
 192 0102 41EC100B 		fmdrr	d0, r0, r1
 193 0106 FFF7FEFF 		bl	floor
 194              	.LVL25:
 195 010a 51EC100B 		fmrrd	r0, r1, d0
 196 010e FFF7FEFF 		bl	__aeabi_d2iz
 197              	.LVL26:
 198 0112 0446     		mov	r4, r0
 199              	.LVL27:
 200              		.loc 1 77 0
 201 0114 FFF7FEFF 		bl	__aeabi_i2d
 202              	.LVL28:
 203 0118 3246     		mov	r2, r6
 204 011a 3B46     		mov	r3, r7
 205 011c FFF7FEFF 		bl	__aeabi_dmul
 206              	.LVL29:
 207 0120 0246     		mov	r2, r0
 208 0122 0B46     		mov	r3, r1
 209 0124 4046     		mov	r0, r8
 210 0126 4946     		mov	r1, r9
 211 0128 FFF7FEFF 		bl	__aeabi_dsub
 212              	.LVL30:
 213 012c FFF7FEFF 		bl	__aeabi_d2f
 214              	.LVL31:
 215              		.loc 1 78 0
 216 0130 04F1300C 		add	ip, r4, #48
 217 0134 8AF800C0 		strb	ip, [r10]
 218              		.loc 1 77 0
 219 0138 8346     		mov	fp, r0	@ float
 220              	.LVL32:
 221              		.loc 1 78 0
 222 013a 0AF1010A 		add	r10, r10, #1
 223              	.LVL33:
 224              	.L14:
 225              		.loc 1 80 0
 226 013e 002D     		cmp	r5, #0
 227 0140 00F0A580 		beq	.L58
 228              	.LVL34:
ARM GAS  /tmp/ccst0ogw.s 			page 5


 229              	.L16:
 230              		.loc 1 82 0
 231 0144 013D     		subs	r5, r5, #1
 232              	.LVL35:
 233 0146 AFE7     		b	.L13
 234              	.LVL36:
 235              	.L52:
 236              	.LBE3:
 237              	.LBE2:
 238              		.loc 1 45 0
 239 0148 5B4B     		ldr	r3, .L60+8
 240 014a 1868     		ldr	r0, [r3]	@ unaligned
 241 014c 019B     		ldr	r3, [sp, #4]
 242 014e 1860     		str	r0, [r3]	@ unaligned
 243              	.L45:
 244              		.loc 1 112 0
 245 0150 0198     		ldr	r0, [sp, #4]
 246 0152 05B0     		add	sp, sp, #20
 247              		.cfi_remember_state
 248              		.cfi_def_cfa_offset 36
 249              		@ sp needed
 250 0154 BDE8F08F 		pop	{r4, r5, r6, r7, r8, r9, r10, fp, pc}
 251              	.LVL37:
 252              	.L46:
 253              		.cfi_restore_state
 254              	.LBB8:
 255              		.loc 1 57 0
 256 0158 5846     		mov	r0, fp	@ float
 257 015a FFF7FEFF 		bl	__aeabi_f2d
 258              	.LVL38:
 259 015e 0646     		mov	r6, r0
 260 0160 0F46     		mov	r7, r1
 261 0162 47EC106B 		fmdrr	d0, r6, r7
 262 0166 FFF7FEFF 		bl	log10
 263              	.LVL39:
 264 016a 51EC100B 		fmrrd	r0, r1, d0
 265 016e FFF7FEFF 		bl	__aeabi_d2iz
 266              	.LVL40:
 267              		.loc 1 58 0
 268 0172 0D28     		cmp	r0, #13
 269              		.loc 1 57 0
 270 0174 0546     		mov	r5, r0
 271              	.LVL41:
 272              		.loc 1 58 0
 273 0176 03DC     		bgt	.L26
 274 0178 10F1080F 		cmn	r0, #8
 275 017c 80F28480 		bge	.L59
 276              	.L26:
 277              	.LVL42:
 278              		.loc 1 57 0
 279 0180 2C46     		mov	r4, r5
 280 0182 DDF804A0 		ldr	r10, [sp, #4]
 281 0186 76E7     		b	.L25
 282              	.LVL43:
 283              	.L54:
 284              	.LBE8:
 285              		.loc 1 49 0
ARM GAS  /tmp/ccst0ogw.s 			page 6


 286 0188 4C4B     		ldr	r3, .L60+12
 287 018a 019A     		ldr	r2, [sp, #4]
 288 018c 1B88     		ldrh	r3, [r3]	@ unaligned
 289              		.loc 1 112 0
 290 018e 0198     		ldr	r0, [sp, #4]
 291              		.loc 1 49 0
 292 0190 1380     		strh	r3, [r2]	@ unaligned
 293              		.loc 1 112 0
 294 0192 05B0     		add	sp, sp, #20
 295              		.cfi_remember_state
 296              		.cfi_def_cfa_offset 36
 297              		@ sp needed
 298 0194 BDE8F08F 		pop	{r4, r5, r6, r7, r8, r9, r10, fp, pc}
 299              	.LVL44:
 300              	.L55:
 301              		.cfi_restore_state
 302              	.LBB9:
 303              		.loc 1 58 0 discriminator 3
 304 0198 0828     		cmp	r0, #8
 305 019a 3FF766AF 		bgt	.L8
 306              		.loc 1 58 0 is_stmt 0 discriminator 6
 307 019e 10F1080F 		cmn	r0, #8
 308 01a2 FFF662AF 		blt	.L8
 309              	.LVL45:
 310              		.loc 1 60 0 is_stmt 1
 311 01a6 0199     		ldr	r1, [sp, #4]
 312 01a8 2D23     		movs	r3, #45
 313 01aa 0B70     		strb	r3, [r1]
 314 01ac 01F1010A 		add	r10, r1, #1
 315              	.LVL46:
 316              	.L27:
 317              		.loc 1 69 0
 318 01b0 07EE905A 		fmsr	s15, r5	@ int
 319 01b4 F8EEE77A 		fsitos	s15, s15
 320 01b8 B7EE007A 		fconsts	s14, #112
 321 01bc F4EEC77A 		fcmpes	s15, s14
 322 01c0 F1EE10FA 		fmstat
 323 01c4 4BBF     		itete	mi
 324 01c6 0025     		movmi	r5, #0
 325 01c8 0023     		movpl	r3, #0
 326              		.loc 1 70 0
 327 01ca 0295     		strmi	r5, [sp, #8]
 328 01cc 0293     		strpl	r3, [sp, #8]
 329 01ce 0394     		str	r4, [sp, #12]
 330 01d0 6AE7     		b	.L13
 331              	.LVL47:
 332              	.L57:
 333              		.loc 1 84 0
 334 01d2 029B     		ldr	r3, [sp, #8]
 335 01d4 039C     		ldr	r4, [sp, #12]
 336 01d6 5646     		mov	r6, r10
 337 01d8 A3B3     		cbz	r3, .L19
 338              	.LVL48:
 339              	.LBB4:
 340              		.loc 1 87 0
 341 01da 6523     		movs	r3, #101
 342              		.loc 1 88 0
ARM GAS  /tmp/ccst0ogw.s 			page 7


 343 01dc 002C     		cmp	r4, #0
 344              		.loc 1 87 0
 345 01de 8AF80030 		strb	r3, [r10]
 346              		.loc 1 88 0
 347 01e2 35DD     		ble	.L20
 348              		.loc 1 89 0
 349 01e4 2B23     		movs	r3, #43
 350 01e6 8AF80130 		strb	r3, [r10, #1]
 351 01ea 0AF1020A 		add	r10, r10, #2
 352              	.LVL49:
 353              	.L21:
 354              	.LBE4:
 355 01ee 0021     		movs	r1, #0
 356              	.LBB5:
 357              		.loc 1 96 0
 358 01f0 3348     		ldr	r0, .L60+16
 359 01f2 00E0     		b	.L23
 360              	.LVL50:
 361              	.L30:
 362              		.loc 1 98 0
 363 01f4 3146     		mov	r1, r6
 364              	.LVL51:
 365              	.L23:
 366              		.loc 1 96 0
 367 01f6 80FB0432 		smull	r3, r2, r0, r4
 368 01fa E317     		asrs	r3, r4, #31
 369 01fc C3EBA203 		rsb	r3, r3, r2, asr #2
 370              	.LVL52:
 371 0200 03EB8302 		add	r2, r3, r3, lsl #2
 372 0204 A4EB4204 		sub	r4, r4, r2, lsl #1
 373 0208 3034     		adds	r4, r4, #48
 374 020a 0AF8014B 		strb	r4, [r10], #1
 375              	.LVL53:
 376              		.loc 1 98 0
 377 020e 4E1C     		adds	r6, r1, #1
 378              	.LVL54:
 379              		.loc 1 95 0
 380 0210 1C46     		mov	r4, r3
 381 0212 002B     		cmp	r3, #0
 382 0214 EED1     		bne	.L30
 383              		.loc 1 100 0
 384 0216 C6EB0A0A 		rsb	r10, r6, r10
 385              	.LVL55:
 386              		.loc 1 101 0
 387 021a 91B1     		cbz	r1, .L22
 388 021c 5046     		mov	r0, r10
 389 021e 0AEB0105 		add	r5, r10, r1
 390              	.LVL56:
 391              	.L24:
 392              		.loc 1 103 0 discriminator 3
 393 0222 0378     		ldrb	r3, [r0]	@ zero_extendqisi2
 394 0224 2A78     		ldrb	r2, [r5]	@ zero_extendqisi2
 395 0226 5A40     		eors	r2, r2, r3
 396 0228 0270     		strb	r2, [r0]
 397              		.loc 1 104 0 discriminator 3
 398 022a 2B78     		ldrb	r3, [r5]	@ zero_extendqisi2
 399 022c 5340     		eors	r3, r3, r2
ARM GAS  /tmp/ccst0ogw.s 			page 8


 400 022e 05F80139 		strb	r3, [r5], #-1
 401              		.loc 1 105 0 discriminator 3
 402 0232 0278     		ldrb	r2, [r0]	@ zero_extendqisi2
 403              		.loc 1 101 0 discriminator 3
 404 0234 0134     		adds	r4, r4, #1
 405              	.LVL57:
 406              		.loc 1 105 0 discriminator 3
 407 0236 5340     		eors	r3, r3, r2
 408 0238 0A1B     		subs	r2, r1, r4
 409              	.LVL58:
 410              		.loc 1 101 0 discriminator 3
 411 023a 9442     		cmp	r4, r2
 412              		.loc 1 105 0 discriminator 3
 413 023c 00F8013B 		strb	r3, [r0], #1
 414              		.loc 1 101 0 discriminator 3
 415 0240 EFDB     		blt	.L24
 416              	.LVL59:
 417              	.L22:
 418              		.loc 1 107 0
 419 0242 5644     		add	r6, r6, r10
 420              	.LVL60:
 421              	.L19:
 422              	.LBE5:
 423              	.LBE9:
 424              		.loc 1 112 0
 425 0244 0198     		ldr	r0, [sp, #4]
 426              	.LBB10:
 427              		.loc 1 109 0
 428 0246 0023     		movs	r3, #0
 429 0248 3370     		strb	r3, [r6]
 430              	.LBE10:
 431              		.loc 1 112 0
 432 024a 05B0     		add	sp, sp, #20
 433              		.cfi_remember_state
 434              		.cfi_def_cfa_offset 36
 435              		@ sp needed
 436 024c BDE8F08F 		pop	{r4, r5, r6, r7, r8, r9, r10, fp, pc}
 437              	.LVL61:
 438              	.L20:
 439              		.cfi_restore_state
 440              	.LBB11:
 441              	.LBB6:
 442              		.loc 1 91 0
 443 0250 2D23     		movs	r3, #45
 444              		.loc 1 92 0
 445 0252 6442     		negs	r4, r4
 446              		.loc 1 91 0
 447 0254 8AF80130 		strb	r3, [r10, #1]
 448 0258 0AF1020A 		add	r10, r10, #2
 449              	.LVL62:
 450              		.loc 1 95 0
 451 025c 002C     		cmp	r4, #0
 452 025e C6D1     		bne	.L21
 453              		.loc 1 100 0
 454 0260 2646     		mov	r6, r4
 455 0262 EEE7     		b	.L22
 456              	.LVL63:
ARM GAS  /tmp/ccst0ogw.s 			page 9


 457              	.L56:
 458              	.LBE6:
 459              		.loc 1 64 0
 460 0264 07EE905A 		fmsr	s15, r5	@ int
 461 0268 F8EEE77A 		fsitos	s15, s15
 462 026c B7EE007A 		fconsts	s14, #112
 463 0270 77EEC77A 		fsubs	s15, s15, s14
 464 0274 FDEEE77A 		ftosizs	s15, s15
 465 0278 17EE904A 		fmrs	r4, s15	@ int
 466              	.LVL64:
 467 027c FEE6     		b	.L10
 468              	.LVL65:
 469              	.L53:
 470              	.LBE11:
 471              		.loc 1 47 0
 472 027e 114B     		ldr	r3, .L60+20
 473 0280 1868     		ldr	r0, [r3]	@ unaligned
 474 0282 019B     		ldr	r3, [sp, #4]
 475 0284 1860     		str	r0, [r3]	@ unaligned
 476 0286 63E7     		b	.L45
 477              	.LVL66:
 478              	.L59:
 479              	.LBB12:
 480              		.loc 1 58 0
 481 0288 DDF804A0 		ldr	r10, [sp, #4]
 482 028c 90E7     		b	.L27
 483              	.LVL67:
 484              	.L58:
 485              	.LBB7:
 486              		.loc 1 80 0 discriminator 1
 487 028e 07EE90BA 		fmsr	s15, fp
 488 0292 F5EEC07A 		fcmpezs	s15
 489 0296 F1EE10FA 		fmstat
 490 029a 7FF753AF 		ble	.L16
 491              		.loc 1 81 0
 492 029e 2E23     		movs	r3, #46
 493 02a0 8AF80030 		strb	r3, [r10]
 494 02a4 0AF1010A 		add	r10, r10, #1
 495              	.LVL68:
 496 02a8 4CE7     		b	.L16
 497              	.L61:
 498 02aa 00BFAFF3 		.align	3
 498      0080
 499              	.L60:
 500 02b0 00000000 		.word	0
 501 02b4 00002440 		.word	1076101120
 502 02b8 00000000 		.word	.LC0
 503 02bc 08000000 		.word	.LC2
 504 02c0 67666666 		.word	1717986919
 505 02c4 04000000 		.word	.LC1
 506 02c8 000000E0 		.word	-536870912
 507 02cc 8E79453E 		.word	1044740494
 508              	.LBE7:
 509              	.LBE12:
 510              		.cfi_endproc
 511              	.LFE145:
 512              		.size	convFloat, .-convFloat
ARM GAS  /tmp/ccst0ogw.s 			page 10


 513              		.section	.rodata.str1.4,"aMS",%progbits,1
 514              		.align	2
 515              	.LC0:
 516 0000 6E616E00 		.ascii	"nan\000"
 517              	.LC1:
 518 0004 696E6600 		.ascii	"inf\000"
 519              	.LC2:
 520 0008 3000     		.ascii	"0\000"
 521 000a 0000     		.text
 522              	.Letext0:
 523              		.file 2 "/l/arm2/gcc-arm-none-eabi-4_9-2014q4/arm-none-eabi/include/machine/_default_types.h"
 524              		.file 3 "/l/arm2/gcc-arm-none-eabi-4_9-2014q4/arm-none-eabi/include/stdint.h"
 525              		.file 4 "/l/arm2/gcc-arm-none-eabi-4_9-2014q4/arm-none-eabi/include/math.h"
 526              		.file 5 "../ChibiOS/os/ext/CMSIS/include/core_cm4.h"
 527              		.section	.debug_info,"",%progbits
 528              	.Ldebug_info0:
 529 0000 D0020000 		.4byte	0x2d0
 530 0004 0400     		.2byte	0x4
 531 0006 00000000 		.4byte	.Ldebug_abbrev0
 532 000a 04       		.byte	0x4
 533 000b 01       		.uleb128 0x1
 534 000c 00000000 		.4byte	.LASF23
 535 0010 01       		.byte	0x1
 536 0011 55020000 		.4byte	.LASF24
 537 0015 B0010000 		.4byte	.LASF25
 538 0019 70000000 		.4byte	.Ldebug_ranges0+0x70
 539 001d 00000000 		.4byte	0
 540 0021 00000000 		.4byte	.Ldebug_line0
 541 0025 02       		.uleb128 0x2
 542 0026 08       		.byte	0x8
 543 0027 04       		.byte	0x4
 544 0028 A9010000 		.4byte	.LASF0
 545 002c 02       		.uleb128 0x2
 546 002d 04       		.byte	0x4
 547 002e 04       		.byte	0x4
 548 002f 4C010000 		.4byte	.LASF1
 549 0033 02       		.uleb128 0x2
 550 0034 01       		.byte	0x1
 551 0035 06       		.byte	0x6
 552 0036 49020000 		.4byte	.LASF2
 553 003a 02       		.uleb128 0x2
 554 003b 01       		.byte	0x1
 555 003c 08       		.byte	0x8
 556 003d 69010000 		.4byte	.LASF3
 557 0041 02       		.uleb128 0x2
 558 0042 02       		.byte	0x2
 559 0043 05       		.byte	0x5
 560 0044 2A020000 		.4byte	.LASF4
 561 0048 02       		.uleb128 0x2
 562 0049 02       		.byte	0x2
 563 004a 07       		.byte	0x7
 564 004b 89010000 		.4byte	.LASF5
 565 004f 03       		.uleb128 0x3
 566 0050 19010000 		.4byte	.LASF11
 567 0054 02       		.byte	0x2
 568 0055 3F       		.byte	0x3f
 569 0056 5A000000 		.4byte	0x5a
ARM GAS  /tmp/ccst0ogw.s 			page 11


 570 005a 02       		.uleb128 0x2
 571 005b 04       		.byte	0x4
 572 005c 05       		.byte	0x5
 573 005d 34020000 		.4byte	.LASF6
 574 0061 02       		.uleb128 0x2
 575 0062 04       		.byte	0x4
 576 0063 07       		.byte	0x7
 577 0064 77010000 		.4byte	.LASF7
 578 0068 02       		.uleb128 0x2
 579 0069 08       		.byte	0x8
 580 006a 05       		.byte	0x5
 581 006b 08020000 		.4byte	.LASF8
 582 006f 02       		.uleb128 0x2
 583 0070 08       		.byte	0x8
 584 0071 07       		.byte	0x7
 585 0072 52010000 		.4byte	.LASF9
 586 0076 04       		.uleb128 0x4
 587 0077 04       		.byte	0x4
 588 0078 05       		.byte	0x5
 589 0079 696E7400 		.ascii	"int\000"
 590 007d 02       		.uleb128 0x2
 591 007e 04       		.byte	0x4
 592 007f 07       		.byte	0x7
 593 0080 D2010000 		.4byte	.LASF10
 594 0084 03       		.uleb128 0x3
 595 0085 F7010000 		.4byte	.LASF12
 596 0089 03       		.byte	0x3
 597 008a 2C       		.byte	0x2c
 598 008b 4F000000 		.4byte	0x4f
 599 008f 02       		.uleb128 0x2
 600 0090 04       		.byte	0x4
 601 0091 07       		.byte	0x7
 602 0092 FF010000 		.4byte	.LASF13
 603 0096 05       		.uleb128 0x5
 604 0097 04       		.byte	0x4
 605 0098 9C000000 		.4byte	0x9c
 606 009c 02       		.uleb128 0x2
 607 009d 01       		.byte	0x1
 608 009e 08       		.byte	0x8
 609 009f E5010000 		.4byte	.LASF14
 610 00a3 02       		.uleb128 0x2
 611 00a4 08       		.byte	0x8
 612 00a5 04       		.byte	0x4
 613 00a6 3D020000 		.4byte	.LASF15
 614 00aa 06       		.uleb128 0x6
 615 00ab 20020000 		.4byte	.LASF26
 616 00af 01       		.byte	0x1
 617 00b0 2A       		.byte	0x2a
 618 00b1 96000000 		.4byte	0x96
 619 00b5 00000000 		.4byte	.LFB145
 620 00b9 D0020000 		.4byte	.LFE145-.LFB145
 621 00bd 01       		.uleb128 0x1
 622 00be 9C       		.byte	0x9c
 623 00bf 3F020000 		.4byte	0x23f
 624 00c3 07       		.uleb128 0x7
 625 00c4 7300     		.ascii	"s\000"
 626 00c6 01       		.byte	0x1
ARM GAS  /tmp/ccst0ogw.s 			page 12


 627 00c7 2A       		.byte	0x2a
 628 00c8 96000000 		.4byte	0x96
 629 00cc 00000000 		.4byte	.LLST0
 630 00d0 07       		.uleb128 0x7
 631 00d1 6E00     		.ascii	"n\000"
 632 00d3 01       		.byte	0x1
 633 00d4 2A       		.byte	0x2a
 634 00d5 2C000000 		.4byte	0x2c
 635 00d9 1F000000 		.4byte	.LLST1
 636 00dd 08       		.uleb128 0x8
 637 00de 00000000 		.4byte	.Ldebug_ranges0+0
 638 00e2 16020000 		.4byte	0x216
 639 00e6 09       		.uleb128 0x9
 640 00e7 DF010000 		.4byte	.LASF16
 641 00eb 01       		.byte	0x1
 642 00ec 33       		.byte	0x33
 643 00ed 76000000 		.4byte	0x76
 644 00f1 6A000000 		.4byte	.LLST2
 645 00f5 0A       		.uleb128 0xa
 646 00f6 6D00     		.ascii	"m\000"
 647 00f8 01       		.byte	0x1
 648 00f9 33       		.byte	0x33
 649 00fa 76000000 		.4byte	0x76
 650 00fe 88000000 		.4byte	.LLST3
 651 0102 0A       		.uleb128 0xa
 652 0103 6D3100   		.ascii	"m1\000"
 653 0106 01       		.byte	0x1
 654 0107 33       		.byte	0x33
 655 0108 76000000 		.4byte	0x76
 656 010c 43010000 		.4byte	.LLST4
 657 0110 0A       		.uleb128 0xa
 658 0111 6300     		.ascii	"c\000"
 659 0113 01       		.byte	0x1
 660 0114 34       		.byte	0x34
 661 0115 96000000 		.4byte	0x96
 662 0119 8D010000 		.4byte	.LLST5
 663 011d 0B       		.uleb128 0xb
 664 011e 6E656700 		.ascii	"neg\000"
 665 0122 01       		.byte	0x1
 666 0123 35       		.byte	0x35
 667 0124 76000000 		.4byte	0x76
 668 0128 09       		.uleb128 0x9
 669 0129 F0010000 		.4byte	.LASF17
 670 012d 01       		.byte	0x1
 671 012e 3A       		.byte	0x3a
 672 012f 76000000 		.4byte	0x76
 673 0133 5E020000 		.4byte	.LLST6
 674 0137 08       		.uleb128 0x8
 675 0138 38000000 		.4byte	.Ldebug_ranges0+0x38
 676 013c 99010000 		.4byte	0x199
 677 0140 09       		.uleb128 0x9
 678 0141 37010000 		.4byte	.LASF18
 679 0145 01       		.byte	0x1
 680 0146 4A       		.byte	0x4a
 681 0147 25000000 		.4byte	0x25
 682 014b 7E020000 		.4byte	.LLST7
 683 014f 0C       		.uleb128 0xc
ARM GAS  /tmp/ccst0ogw.s 			page 13


 684 0150 D6000000 		.4byte	.LVL20
 685 0154 69020000 		.4byte	0x269
 686 0158 73010000 		.4byte	0x173
 687 015c 0D       		.uleb128 0xd
 688 015d 08       		.uleb128 0x8
 689 015e 90       		.byte	0x90
 690 015f 40       		.uleb128 0x40
 691 0160 93       		.byte	0x93
 692 0161 04       		.uleb128 0x4
 693 0162 90       		.byte	0x90
 694 0163 41       		.uleb128 0x41
 695 0164 93       		.byte	0x93
 696 0165 04       		.uleb128 0x4
 697 0166 0B       		.uleb128 0xb
 698 0167 F4       		.byte	0xf4
 699 0168 25       		.uleb128 0x25
 700 0169 08       		.byte	0x8
 701 016a 00000000 		.4byte	0
 702 016e 00002440 		.4byte	0x40240000
 703 0172 00       		.byte	0
 704 0173 0C       		.uleb128 0xc
 705 0174 F2000000 		.4byte	.LVL23
 706 0178 83020000 		.4byte	0x283
 707 017c 8F010000 		.4byte	0x18f
 708 0180 0D       		.uleb128 0xd
 709 0181 08       		.uleb128 0x8
 710 0182 90       		.byte	0x90
 711 0183 40       		.uleb128 0x40
 712 0184 93       		.byte	0x93
 713 0185 04       		.uleb128 0x4
 714 0186 90       		.byte	0x90
 715 0187 41       		.uleb128 0x41
 716 0188 93       		.byte	0x93
 717 0189 04       		.uleb128 0x4
 718 018a 03       		.uleb128 0x3
 719 018b F5       		.byte	0xf5
 720 018c 06       		.uleb128 0x6
 721 018d 25       		.uleb128 0x25
 722 018e 00       		.byte	0
 723 018f 0E       		.uleb128 0xe
 724 0190 0A010000 		.4byte	.LVL25
 725 0194 98020000 		.4byte	0x298
 726 0198 00       		.byte	0
 727 0199 08       		.uleb128 0x8
 728 019a 50000000 		.4byte	.Ldebug_ranges0+0x50
 729 019e BD010000 		.4byte	0x1bd
 730 01a2 0A       		.uleb128 0xa
 731 01a3 6900     		.ascii	"i\000"
 732 01a5 01       		.byte	0x1
 733 01a6 56       		.byte	0x56
 734 01a7 76000000 		.4byte	0x76
 735 01ab A6020000 		.4byte	.LLST8
 736 01af 0A       		.uleb128 0xa
 737 01b0 6A00     		.ascii	"j\000"
 738 01b2 01       		.byte	0x1
 739 01b3 56       		.byte	0x56
 740 01b4 76000000 		.4byte	0x76
ARM GAS  /tmp/ccst0ogw.s 			page 14


 741 01b8 C5020000 		.4byte	.LLST9
 742 01bc 00       		.byte	0
 743 01bd 0C       		.uleb128 0xc
 744 01be 5A000000 		.4byte	.LVL6
 745 01c2 AD020000 		.4byte	0x2ad
 746 01c6 D9010000 		.4byte	0x1d9
 747 01ca 0D       		.uleb128 0xd
 748 01cb 08       		.uleb128 0x8
 749 01cc 90       		.byte	0x90
 750 01cd 40       		.uleb128 0x40
 751 01ce 93       		.byte	0x93
 752 01cf 04       		.uleb128 0x4
 753 01d0 90       		.byte	0x90
 754 01d1 41       		.uleb128 0x41
 755 01d2 93       		.byte	0x93
 756 01d3 04       		.uleb128 0x4
 757 01d4 03       		.uleb128 0x3
 758 01d5 F5       		.byte	0xf5
 759 01d6 06       		.uleb128 0x6
 760 01d7 25       		.uleb128 0x25
 761 01d8 00       		.byte	0
 762 01d9 0C       		.uleb128 0xc
 763 01da 8E000000 		.4byte	.LVL12
 764 01de 69020000 		.4byte	0x269
 765 01e2 FD010000 		.4byte	0x1fd
 766 01e6 0D       		.uleb128 0xd
 767 01e7 08       		.uleb128 0x8
 768 01e8 90       		.byte	0x90
 769 01e9 40       		.uleb128 0x40
 770 01ea 93       		.byte	0x93
 771 01eb 04       		.uleb128 0x4
 772 01ec 90       		.byte	0x90
 773 01ed 41       		.uleb128 0x41
 774 01ee 93       		.byte	0x93
 775 01ef 04       		.uleb128 0x4
 776 01f0 0B       		.uleb128 0xb
 777 01f1 F4       		.byte	0xf4
 778 01f2 25       		.uleb128 0x25
 779 01f3 08       		.byte	0x8
 780 01f4 00000000 		.4byte	0
 781 01f8 00002440 		.4byte	0x40240000
 782 01fc 00       		.byte	0
 783 01fd 0F       		.uleb128 0xf
 784 01fe 6A010000 		.4byte	.LVL39
 785 0202 AD020000 		.4byte	0x2ad
 786 0206 0D       		.uleb128 0xd
 787 0207 08       		.uleb128 0x8
 788 0208 90       		.byte	0x90
 789 0209 40       		.uleb128 0x40
 790 020a 93       		.byte	0x93
 791 020b 04       		.uleb128 0x4
 792 020c 90       		.byte	0x90
 793 020d 41       		.uleb128 0x41
 794 020e 93       		.byte	0x93
 795 020f 04       		.uleb128 0x4
 796 0210 03       		.uleb128 0x3
 797 0211 F5       		.byte	0xf5
ARM GAS  /tmp/ccst0ogw.s 			page 15


 798 0212 06       		.uleb128 0x6
 799 0213 25       		.uleb128 0x25
 800 0214 00       		.byte	0
 801 0215 00       		.byte	0
 802 0216 0C       		.uleb128 0xc
 803 0217 10000000 		.4byte	.LVL1
 804 021b C2020000 		.4byte	0x2c2
 805 021f 2C020000 		.4byte	0x22c
 806 0223 0D       		.uleb128 0xd
 807 0224 02       		.uleb128 0x2
 808 0225 90       		.byte	0x90
 809 0226 40       		.uleb128 0x40
 810 0227 03       		.uleb128 0x3
 811 0228 F5       		.byte	0xf5
 812 0229 0B       		.uleb128 0xb
 813 022a 2C       		.uleb128 0x2c
 814 022b 00       		.byte	0
 815 022c 0F       		.uleb128 0xf
 816 022d 1E000000 		.4byte	.LVL2
 817 0231 C2020000 		.4byte	0x2c2
 818 0235 0D       		.uleb128 0xd
 819 0236 02       		.uleb128 0x2
 820 0237 90       		.byte	0x90
 821 0238 40       		.uleb128 0x40
 822 0239 03       		.uleb128 0x3
 823 023a F5       		.byte	0xf5
 824 023b 0B       		.uleb128 0xb
 825 023c 2C       		.uleb128 0x2c
 826 023d 00       		.byte	0
 827 023e 00       		.byte	0
 828 023f 10       		.uleb128 0x10
 829 0240 16020000 		.4byte	.LASF19
 830 0244 01       		.byte	0x1
 831 0245 27       		.byte	0x27
 832 0246 53020000 		.4byte	0x253
 833 024a 08       		.byte	0x8
 834 024b 000000E0 		.4byte	0xe0000000
 835 024f 8E79453E 		.4byte	0x3e45798e
 836 0253 11       		.uleb128 0x11
 837 0254 25000000 		.4byte	0x25
 838 0258 12       		.uleb128 0x12
 839 0259 9C010000 		.4byte	.LASF27
 840 025d 05       		.byte	0x5
 841 025e A706     		.2byte	0x6a7
 842 0260 64020000 		.4byte	0x264
 843 0264 13       		.uleb128 0x13
 844 0265 84000000 		.4byte	0x84
 845 0269 14       		.uleb128 0x14
 846 026a 706F7700 		.ascii	"pow\000"
 847 026e 04       		.byte	0x4
 848 026f 85       		.byte	0x85
 849 0270 25000000 		.4byte	0x25
 850 0274 83020000 		.4byte	0x283
 851 0278 15       		.uleb128 0x15
 852 0279 25000000 		.4byte	0x25
 853 027d 15       		.uleb128 0x15
 854 027e 25000000 		.4byte	0x25
ARM GAS  /tmp/ccst0ogw.s 			page 16


 855 0282 00       		.byte	0
 856 0283 16       		.uleb128 0x16
 857 0284 29010000 		.4byte	.LASF20
 858 0288 04       		.byte	0x4
 859 0289 CC       		.byte	0xcc
 860 028a 76000000 		.4byte	0x76
 861 028e 98020000 		.4byte	0x298
 862 0292 15       		.uleb128 0x15
 863 0293 25000000 		.4byte	0x25
 864 0297 00       		.byte	0
 865 0298 16       		.uleb128 0x16
 866 0299 EA010000 		.4byte	.LASF21
 867 029d 04       		.byte	0x4
 868 029e 75       		.byte	0x75
 869 029f 25000000 		.4byte	0x25
 870 02a3 AD020000 		.4byte	0x2ad
 871 02a7 15       		.uleb128 0x15
 872 02a8 25000000 		.4byte	0x25
 873 02ac 00       		.byte	0
 874 02ad 16       		.uleb128 0x16
 875 02ae 23010000 		.4byte	.LASF22
 876 02b2 04       		.byte	0x4
 877 02b3 84       		.byte	0x84
 878 02b4 25000000 		.4byte	0x25
 879 02b8 C2020000 		.4byte	0x2c2
 880 02bc 15       		.uleb128 0x15
 881 02bd 25000000 		.4byte	0x25
 882 02c1 00       		.byte	0
 883 02c2 17       		.uleb128 0x17
 884 02c3 3E010000 		.4byte	.LASF28
 885 02c7 04       		.byte	0x4
 886 02c8 CB       		.byte	0xcb
 887 02c9 76000000 		.4byte	0x76
 888 02cd 15       		.uleb128 0x15
 889 02ce 2C000000 		.4byte	0x2c
 890 02d2 00       		.byte	0
 891 02d3 00       		.byte	0
 892              		.section	.debug_abbrev,"",%progbits
 893              	.Ldebug_abbrev0:
 894 0000 01       		.uleb128 0x1
 895 0001 11       		.uleb128 0x11
 896 0002 01       		.byte	0x1
 897 0003 25       		.uleb128 0x25
 898 0004 0E       		.uleb128 0xe
 899 0005 13       		.uleb128 0x13
 900 0006 0B       		.uleb128 0xb
 901 0007 03       		.uleb128 0x3
 902 0008 0E       		.uleb128 0xe
 903 0009 1B       		.uleb128 0x1b
 904 000a 0E       		.uleb128 0xe
 905 000b 55       		.uleb128 0x55
 906 000c 17       		.uleb128 0x17
 907 000d 11       		.uleb128 0x11
 908 000e 01       		.uleb128 0x1
 909 000f 10       		.uleb128 0x10
 910 0010 17       		.uleb128 0x17
 911 0011 00       		.byte	0
ARM GAS  /tmp/ccst0ogw.s 			page 17


 912 0012 00       		.byte	0
 913 0013 02       		.uleb128 0x2
 914 0014 24       		.uleb128 0x24
 915 0015 00       		.byte	0
 916 0016 0B       		.uleb128 0xb
 917 0017 0B       		.uleb128 0xb
 918 0018 3E       		.uleb128 0x3e
 919 0019 0B       		.uleb128 0xb
 920 001a 03       		.uleb128 0x3
 921 001b 0E       		.uleb128 0xe
 922 001c 00       		.byte	0
 923 001d 00       		.byte	0
 924 001e 03       		.uleb128 0x3
 925 001f 16       		.uleb128 0x16
 926 0020 00       		.byte	0
 927 0021 03       		.uleb128 0x3
 928 0022 0E       		.uleb128 0xe
 929 0023 3A       		.uleb128 0x3a
 930 0024 0B       		.uleb128 0xb
 931 0025 3B       		.uleb128 0x3b
 932 0026 0B       		.uleb128 0xb
 933 0027 49       		.uleb128 0x49
 934 0028 13       		.uleb128 0x13
 935 0029 00       		.byte	0
 936 002a 00       		.byte	0
 937 002b 04       		.uleb128 0x4
 938 002c 24       		.uleb128 0x24
 939 002d 00       		.byte	0
 940 002e 0B       		.uleb128 0xb
 941 002f 0B       		.uleb128 0xb
 942 0030 3E       		.uleb128 0x3e
 943 0031 0B       		.uleb128 0xb
 944 0032 03       		.uleb128 0x3
 945 0033 08       		.uleb128 0x8
 946 0034 00       		.byte	0
 947 0035 00       		.byte	0
 948 0036 05       		.uleb128 0x5
 949 0037 0F       		.uleb128 0xf
 950 0038 00       		.byte	0
 951 0039 0B       		.uleb128 0xb
 952 003a 0B       		.uleb128 0xb
 953 003b 49       		.uleb128 0x49
 954 003c 13       		.uleb128 0x13
 955 003d 00       		.byte	0
 956 003e 00       		.byte	0
 957 003f 06       		.uleb128 0x6
 958 0040 2E       		.uleb128 0x2e
 959 0041 01       		.byte	0x1
 960 0042 3F       		.uleb128 0x3f
 961 0043 19       		.uleb128 0x19
 962 0044 03       		.uleb128 0x3
 963 0045 0E       		.uleb128 0xe
 964 0046 3A       		.uleb128 0x3a
 965 0047 0B       		.uleb128 0xb
 966 0048 3B       		.uleb128 0x3b
 967 0049 0B       		.uleb128 0xb
 968 004a 27       		.uleb128 0x27
ARM GAS  /tmp/ccst0ogw.s 			page 18


 969 004b 19       		.uleb128 0x19
 970 004c 49       		.uleb128 0x49
 971 004d 13       		.uleb128 0x13
 972 004e 11       		.uleb128 0x11
 973 004f 01       		.uleb128 0x1
 974 0050 12       		.uleb128 0x12
 975 0051 06       		.uleb128 0x6
 976 0052 40       		.uleb128 0x40
 977 0053 18       		.uleb128 0x18
 978 0054 9642     		.uleb128 0x2116
 979 0056 19       		.uleb128 0x19
 980 0057 01       		.uleb128 0x1
 981 0058 13       		.uleb128 0x13
 982 0059 00       		.byte	0
 983 005a 00       		.byte	0
 984 005b 07       		.uleb128 0x7
 985 005c 05       		.uleb128 0x5
 986 005d 00       		.byte	0
 987 005e 03       		.uleb128 0x3
 988 005f 08       		.uleb128 0x8
 989 0060 3A       		.uleb128 0x3a
 990 0061 0B       		.uleb128 0xb
 991 0062 3B       		.uleb128 0x3b
 992 0063 0B       		.uleb128 0xb
 993 0064 49       		.uleb128 0x49
 994 0065 13       		.uleb128 0x13
 995 0066 02       		.uleb128 0x2
 996 0067 17       		.uleb128 0x17
 997 0068 00       		.byte	0
 998 0069 00       		.byte	0
 999 006a 08       		.uleb128 0x8
 1000 006b 0B       		.uleb128 0xb
 1001 006c 01       		.byte	0x1
 1002 006d 55       		.uleb128 0x55
 1003 006e 17       		.uleb128 0x17
 1004 006f 01       		.uleb128 0x1
 1005 0070 13       		.uleb128 0x13
 1006 0071 00       		.byte	0
 1007 0072 00       		.byte	0
 1008 0073 09       		.uleb128 0x9
 1009 0074 34       		.uleb128 0x34
 1010 0075 00       		.byte	0
 1011 0076 03       		.uleb128 0x3
 1012 0077 0E       		.uleb128 0xe
 1013 0078 3A       		.uleb128 0x3a
 1014 0079 0B       		.uleb128 0xb
 1015 007a 3B       		.uleb128 0x3b
 1016 007b 0B       		.uleb128 0xb
 1017 007c 49       		.uleb128 0x49
 1018 007d 13       		.uleb128 0x13
 1019 007e 02       		.uleb128 0x2
 1020 007f 17       		.uleb128 0x17
 1021 0080 00       		.byte	0
 1022 0081 00       		.byte	0
 1023 0082 0A       		.uleb128 0xa
 1024 0083 34       		.uleb128 0x34
 1025 0084 00       		.byte	0
ARM GAS  /tmp/ccst0ogw.s 			page 19


 1026 0085 03       		.uleb128 0x3
 1027 0086 08       		.uleb128 0x8
 1028 0087 3A       		.uleb128 0x3a
 1029 0088 0B       		.uleb128 0xb
 1030 0089 3B       		.uleb128 0x3b
 1031 008a 0B       		.uleb128 0xb
 1032 008b 49       		.uleb128 0x49
 1033 008c 13       		.uleb128 0x13
 1034 008d 02       		.uleb128 0x2
 1035 008e 17       		.uleb128 0x17
 1036 008f 00       		.byte	0
 1037 0090 00       		.byte	0
 1038 0091 0B       		.uleb128 0xb
 1039 0092 34       		.uleb128 0x34
 1040 0093 00       		.byte	0
 1041 0094 03       		.uleb128 0x3
 1042 0095 08       		.uleb128 0x8
 1043 0096 3A       		.uleb128 0x3a
 1044 0097 0B       		.uleb128 0xb
 1045 0098 3B       		.uleb128 0x3b
 1046 0099 0B       		.uleb128 0xb
 1047 009a 49       		.uleb128 0x49
 1048 009b 13       		.uleb128 0x13
 1049 009c 00       		.byte	0
 1050 009d 00       		.byte	0
 1051 009e 0C       		.uleb128 0xc
 1052 009f 898201   		.uleb128 0x4109
 1053 00a2 01       		.byte	0x1
 1054 00a3 11       		.uleb128 0x11
 1055 00a4 01       		.uleb128 0x1
 1056 00a5 31       		.uleb128 0x31
 1057 00a6 13       		.uleb128 0x13
 1058 00a7 01       		.uleb128 0x1
 1059 00a8 13       		.uleb128 0x13
 1060 00a9 00       		.byte	0
 1061 00aa 00       		.byte	0
 1062 00ab 0D       		.uleb128 0xd
 1063 00ac 8A8201   		.uleb128 0x410a
 1064 00af 00       		.byte	0
 1065 00b0 02       		.uleb128 0x2
 1066 00b1 18       		.uleb128 0x18
 1067 00b2 9142     		.uleb128 0x2111
 1068 00b4 18       		.uleb128 0x18
 1069 00b5 00       		.byte	0
 1070 00b6 00       		.byte	0
 1071 00b7 0E       		.uleb128 0xe
 1072 00b8 898201   		.uleb128 0x4109
 1073 00bb 00       		.byte	0
 1074 00bc 11       		.uleb128 0x11
 1075 00bd 01       		.uleb128 0x1
 1076 00be 31       		.uleb128 0x31
 1077 00bf 13       		.uleb128 0x13
 1078 00c0 00       		.byte	0
 1079 00c1 00       		.byte	0
 1080 00c2 0F       		.uleb128 0xf
 1081 00c3 898201   		.uleb128 0x4109
 1082 00c6 01       		.byte	0x1
ARM GAS  /tmp/ccst0ogw.s 			page 20


 1083 00c7 11       		.uleb128 0x11
 1084 00c8 01       		.uleb128 0x1
 1085 00c9 31       		.uleb128 0x31
 1086 00ca 13       		.uleb128 0x13
 1087 00cb 00       		.byte	0
 1088 00cc 00       		.byte	0
 1089 00cd 10       		.uleb128 0x10
 1090 00ce 34       		.uleb128 0x34
 1091 00cf 00       		.byte	0
 1092 00d0 03       		.uleb128 0x3
 1093 00d1 0E       		.uleb128 0xe
 1094 00d2 3A       		.uleb128 0x3a
 1095 00d3 0B       		.uleb128 0xb
 1096 00d4 3B       		.uleb128 0x3b
 1097 00d5 0B       		.uleb128 0xb
 1098 00d6 49       		.uleb128 0x49
 1099 00d7 13       		.uleb128 0x13
 1100 00d8 1C       		.uleb128 0x1c
 1101 00d9 0A       		.uleb128 0xa
 1102 00da 00       		.byte	0
 1103 00db 00       		.byte	0
 1104 00dc 11       		.uleb128 0x11
 1105 00dd 26       		.uleb128 0x26
 1106 00de 00       		.byte	0
 1107 00df 49       		.uleb128 0x49
 1108 00e0 13       		.uleb128 0x13
 1109 00e1 00       		.byte	0
 1110 00e2 00       		.byte	0
 1111 00e3 12       		.uleb128 0x12
 1112 00e4 34       		.uleb128 0x34
 1113 00e5 00       		.byte	0
 1114 00e6 03       		.uleb128 0x3
 1115 00e7 0E       		.uleb128 0xe
 1116 00e8 3A       		.uleb128 0x3a
 1117 00e9 0B       		.uleb128 0xb
 1118 00ea 3B       		.uleb128 0x3b
 1119 00eb 05       		.uleb128 0x5
 1120 00ec 49       		.uleb128 0x49
 1121 00ed 13       		.uleb128 0x13
 1122 00ee 3F       		.uleb128 0x3f
 1123 00ef 19       		.uleb128 0x19
 1124 00f0 3C       		.uleb128 0x3c
 1125 00f1 19       		.uleb128 0x19
 1126 00f2 00       		.byte	0
 1127 00f3 00       		.byte	0
 1128 00f4 13       		.uleb128 0x13
 1129 00f5 35       		.uleb128 0x35
 1130 00f6 00       		.byte	0
 1131 00f7 49       		.uleb128 0x49
 1132 00f8 13       		.uleb128 0x13
 1133 00f9 00       		.byte	0
 1134 00fa 00       		.byte	0
 1135 00fb 14       		.uleb128 0x14
 1136 00fc 2E       		.uleb128 0x2e
 1137 00fd 01       		.byte	0x1
 1138 00fe 3F       		.uleb128 0x3f
 1139 00ff 19       		.uleb128 0x19
ARM GAS  /tmp/ccst0ogw.s 			page 21


 1140 0100 03       		.uleb128 0x3
 1141 0101 08       		.uleb128 0x8
 1142 0102 3A       		.uleb128 0x3a
 1143 0103 0B       		.uleb128 0xb
 1144 0104 3B       		.uleb128 0x3b
 1145 0105 0B       		.uleb128 0xb
 1146 0106 27       		.uleb128 0x27
 1147 0107 19       		.uleb128 0x19
 1148 0108 49       		.uleb128 0x49
 1149 0109 13       		.uleb128 0x13
 1150 010a 3C       		.uleb128 0x3c
 1151 010b 19       		.uleb128 0x19
 1152 010c 01       		.uleb128 0x1
 1153 010d 13       		.uleb128 0x13
 1154 010e 00       		.byte	0
 1155 010f 00       		.byte	0
 1156 0110 15       		.uleb128 0x15
 1157 0111 05       		.uleb128 0x5
 1158 0112 00       		.byte	0
 1159 0113 49       		.uleb128 0x49
 1160 0114 13       		.uleb128 0x13
 1161 0115 00       		.byte	0
 1162 0116 00       		.byte	0
 1163 0117 16       		.uleb128 0x16
 1164 0118 2E       		.uleb128 0x2e
 1165 0119 01       		.byte	0x1
 1166 011a 3F       		.uleb128 0x3f
 1167 011b 19       		.uleb128 0x19
 1168 011c 03       		.uleb128 0x3
 1169 011d 0E       		.uleb128 0xe
 1170 011e 3A       		.uleb128 0x3a
 1171 011f 0B       		.uleb128 0xb
 1172 0120 3B       		.uleb128 0x3b
 1173 0121 0B       		.uleb128 0xb
 1174 0122 27       		.uleb128 0x27
 1175 0123 19       		.uleb128 0x19
 1176 0124 49       		.uleb128 0x49
 1177 0125 13       		.uleb128 0x13
 1178 0126 3C       		.uleb128 0x3c
 1179 0127 19       		.uleb128 0x19
 1180 0128 01       		.uleb128 0x1
 1181 0129 13       		.uleb128 0x13
 1182 012a 00       		.byte	0
 1183 012b 00       		.byte	0
 1184 012c 17       		.uleb128 0x17
 1185 012d 2E       		.uleb128 0x2e
 1186 012e 01       		.byte	0x1
 1187 012f 3F       		.uleb128 0x3f
 1188 0130 19       		.uleb128 0x19
 1189 0131 03       		.uleb128 0x3
 1190 0132 0E       		.uleb128 0xe
 1191 0133 3A       		.uleb128 0x3a
 1192 0134 0B       		.uleb128 0xb
 1193 0135 3B       		.uleb128 0x3b
 1194 0136 0B       		.uleb128 0xb
 1195 0137 27       		.uleb128 0x27
 1196 0138 19       		.uleb128 0x19
ARM GAS  /tmp/ccst0ogw.s 			page 22


 1197 0139 49       		.uleb128 0x49
 1198 013a 13       		.uleb128 0x13
 1199 013b 3C       		.uleb128 0x3c
 1200 013c 19       		.uleb128 0x19
 1201 013d 00       		.byte	0
 1202 013e 00       		.byte	0
 1203 013f 00       		.byte	0
 1204              		.section	.debug_loc,"",%progbits
 1205              	.Ldebug_loc0:
 1206              	.LLST0:
 1207 0000 00000000 		.4byte	.LVL0
 1208 0004 0F000000 		.4byte	.LVL1-1
 1209 0008 0100     		.2byte	0x1
 1210 000a 50       		.byte	0x50
 1211 000b 0F000000 		.4byte	.LVL1-1
 1212 000f D0020000 		.4byte	.LFE145
 1213 0013 0200     		.2byte	0x2
 1214 0015 91       		.byte	0x91
 1215 0016 4C       		.sleb128 -52
 1216 0017 00000000 		.4byte	0
 1217 001b 00000000 		.4byte	0
 1218              	.LLST1:
 1219 001f 00000000 		.4byte	.LVL0
 1220 0023 0F000000 		.4byte	.LVL1-1
 1221 0027 0200     		.2byte	0x2
 1222 0029 90       		.byte	0x90
 1223 002a 40       		.uleb128 0x40
 1224 002b 0F000000 		.4byte	.LVL1-1
 1225 002f A2000000 		.4byte	.LVL15
 1226 0033 0100     		.2byte	0x1
 1227 0035 5B       		.byte	0x5b
 1228 0036 A2000000 		.4byte	.LVL15
 1229 003a A8000000 		.4byte	.LVL16
 1230 003e 0100     		.2byte	0x1
 1231 0040 50       		.byte	0x50
 1232 0041 A8000000 		.4byte	.LVL16
 1233 0045 3A010000 		.4byte	.LVL32
 1234 0049 0100     		.2byte	0x1
 1235 004b 5B       		.byte	0x5b
 1236 004c 3A010000 		.4byte	.LVL32
 1237 0050 3E010000 		.4byte	.LVL33
 1238 0054 0100     		.2byte	0x1
 1239 0056 50       		.byte	0x50
 1240 0057 3E010000 		.4byte	.LVL33
 1241 005b D0020000 		.4byte	.LFE145
 1242 005f 0100     		.2byte	0x1
 1243 0061 5B       		.byte	0x5b
 1244 0062 00000000 		.4byte	0
 1245 0066 00000000 		.4byte	0
 1246              	.LLST2:
 1247 006a 14010000 		.4byte	.LVL27
 1248 006e 17010000 		.4byte	.LVL28-1
 1249 0072 0100     		.2byte	0x1
 1250 0074 50       		.byte	0x50
 1251 0075 17010000 		.4byte	.LVL28-1
 1252 0079 3E010000 		.4byte	.LVL33
 1253 007d 0100     		.2byte	0x1
ARM GAS  /tmp/ccst0ogw.s 			page 23


 1254 007f 54       		.byte	0x54
 1255 0080 00000000 		.4byte	0
 1256 0084 00000000 		.4byte	0
 1257              	.LLST3:
 1258 0088 66000000 		.4byte	.LVL8
 1259 008c 7C000000 		.4byte	.LVL10
 1260 0090 0100     		.2byte	0x1
 1261 0092 50       		.byte	0x50
 1262 0093 7C000000 		.4byte	.LVL10
 1263 0097 A2000000 		.4byte	.LVL15
 1264 009b 0100     		.2byte	0x1
 1265 009d 54       		.byte	0x54
 1266 009e A2000000 		.4byte	.LVL15
 1267 00a2 A8000000 		.4byte	.LVL16
 1268 00a6 0200     		.2byte	0x2
 1269 00a8 30       		.byte	0x30
 1270 00a9 9F       		.byte	0x9f
 1271 00aa A8000000 		.4byte	.LVL16
 1272 00ae 48010000 		.4byte	.LVL36
 1273 00b2 0100     		.2byte	0x1
 1274 00b4 55       		.byte	0x55
 1275 00b5 76010000 		.4byte	.LVL41
 1276 00b9 88010000 		.4byte	.LVL43
 1277 00bd 0100     		.2byte	0x1
 1278 00bf 50       		.byte	0x50
 1279 00c0 98010000 		.4byte	.LVL44
 1280 00c4 D2010000 		.4byte	.LVL47
 1281 00c8 0100     		.2byte	0x1
 1282 00ca 50       		.byte	0x50
 1283 00cb D2010000 		.4byte	.LVL47
 1284 00cf EE010000 		.4byte	.LVL49
 1285 00d3 0100     		.2byte	0x1
 1286 00d5 55       		.byte	0x55
 1287 00d6 EE010000 		.4byte	.LVL49
 1288 00da F4010000 		.4byte	.LVL50
 1289 00de 0200     		.2byte	0x2
 1290 00e0 30       		.byte	0x30
 1291 00e1 9F       		.byte	0x9f
 1292 00e2 F4010000 		.4byte	.LVL50
 1293 00e6 F6010000 		.4byte	.LVL51
 1294 00ea 0100     		.2byte	0x1
 1295 00ec 56       		.byte	0x56
 1296 00ed 10020000 		.4byte	.LVL54
 1297 00f1 42020000 		.4byte	.LVL59
 1298 00f5 0100     		.2byte	0x1
 1299 00f7 56       		.byte	0x56
 1300 00f8 50020000 		.4byte	.LVL61
 1301 00fc 5C020000 		.4byte	.LVL62
 1302 0100 0100     		.2byte	0x1
 1303 0102 55       		.byte	0x55
 1304 0103 5C020000 		.4byte	.LVL62
 1305 0107 64020000 		.4byte	.LVL63
 1306 010b 0200     		.2byte	0x2
 1307 010d 30       		.byte	0x30
 1308 010e 9F       		.byte	0x9f
 1309 010f 64020000 		.4byte	.LVL63
 1310 0113 7C020000 		.4byte	.LVL64
ARM GAS  /tmp/ccst0ogw.s 			page 24


 1311 0117 0100     		.2byte	0x1
 1312 0119 50       		.byte	0x50
 1313 011a 7C020000 		.4byte	.LVL64
 1314 011e 7E020000 		.4byte	.LVL65
 1315 0122 0100     		.2byte	0x1
 1316 0124 54       		.byte	0x54
 1317 0125 88020000 		.4byte	.LVL66
 1318 0129 8E020000 		.4byte	.LVL67
 1319 012d 0100     		.2byte	0x1
 1320 012f 50       		.byte	0x50
 1321 0130 8E020000 		.4byte	.LVL67
 1322 0134 D0020000 		.4byte	.LFE145
 1323 0138 0100     		.2byte	0x1
 1324 013a 55       		.byte	0x55
 1325 013b 00000000 		.4byte	0
 1326 013f 00000000 		.4byte	0
 1327              	.LLST4:
 1328 0143 A2000000 		.4byte	.LVL15
 1329 0147 A8000000 		.4byte	.LVL16
 1330 014b 0100     		.2byte	0x1
 1331 014d 54       		.byte	0x54
 1332 014e EE010000 		.4byte	.LVL49
 1333 0152 F4010000 		.4byte	.LVL50
 1334 0156 0100     		.2byte	0x1
 1335 0158 54       		.byte	0x54
 1336 0159 F4010000 		.4byte	.LVL50
 1337 015d F6010000 		.4byte	.LVL51
 1338 0161 0100     		.2byte	0x1
 1339 0163 53       		.byte	0x53
 1340 0164 F6010000 		.4byte	.LVL51
 1341 0168 00020000 		.4byte	.LVL52
 1342 016c 0100     		.2byte	0x1
 1343 016e 54       		.byte	0x54
 1344 016f 00020000 		.4byte	.LVL52
 1345 0173 22020000 		.4byte	.LVL56
 1346 0177 0100     		.2byte	0x1
 1347 0179 53       		.byte	0x53
 1348 017a 5C020000 		.4byte	.LVL62
 1349 017e 64020000 		.4byte	.LVL63
 1350 0182 0100     		.2byte	0x1
 1351 0184 54       		.byte	0x54
 1352 0185 00000000 		.4byte	0
 1353 0189 00000000 		.4byte	0
 1354              	.LLST5:
 1355 018d 34000000 		.4byte	.LVL3
 1356 0191 74000000 		.4byte	.LVL9
 1357 0195 0200     		.2byte	0x2
 1358 0197 91       		.byte	0x91
 1359 0198 4C       		.sleb128 -52
 1360 0199 74000000 		.4byte	.LVL9
 1361 019d 3A010000 		.4byte	.LVL32
 1362 01a1 0100     		.2byte	0x1
 1363 01a3 5A       		.byte	0x5a
 1364 01a4 3A010000 		.4byte	.LVL32
 1365 01a8 3E010000 		.4byte	.LVL33
 1366 01ac 0300     		.2byte	0x3
 1367 01ae 7A       		.byte	0x7a
ARM GAS  /tmp/ccst0ogw.s 			page 25


 1368 01af 01       		.sleb128 1
 1369 01b0 9F       		.byte	0x9f
 1370 01b1 3E010000 		.4byte	.LVL33
 1371 01b5 48010000 		.4byte	.LVL36
 1372 01b9 0100     		.2byte	0x1
 1373 01bb 5A       		.byte	0x5a
 1374 01bc 58010000 		.4byte	.LVL37
 1375 01c0 88010000 		.4byte	.LVL43
 1376 01c4 0200     		.2byte	0x2
 1377 01c6 91       		.byte	0x91
 1378 01c7 4C       		.sleb128 -52
 1379 01c8 98010000 		.4byte	.LVL44
 1380 01cc B0010000 		.4byte	.LVL46
 1381 01d0 0200     		.2byte	0x2
 1382 01d2 91       		.byte	0x91
 1383 01d3 4C       		.sleb128 -52
 1384 01d4 D2010000 		.4byte	.LVL47
 1385 01d8 DA010000 		.4byte	.LVL48
 1386 01dc 0100     		.2byte	0x1
 1387 01de 5A       		.byte	0x5a
 1388 01df DA010000 		.4byte	.LVL48
 1389 01e3 EE010000 		.4byte	.LVL49
 1390 01e7 0300     		.2byte	0x3
 1391 01e9 76       		.byte	0x76
 1392 01ea 01       		.sleb128 1
 1393 01eb 9F       		.byte	0x9f
 1394 01ec EE010000 		.4byte	.LVL49
 1395 01f0 0E020000 		.4byte	.LVL53
 1396 01f4 0100     		.2byte	0x1
 1397 01f6 5A       		.byte	0x5a
 1398 01f7 0E020000 		.4byte	.LVL53
 1399 01fb 10020000 		.4byte	.LVL54
 1400 01ff 0300     		.2byte	0x3
 1401 0201 7A       		.byte	0x7a
 1402 0202 7F       		.sleb128 -1
 1403 0203 9F       		.byte	0x9f
 1404 0204 10020000 		.4byte	.LVL54
 1405 0208 44020000 		.4byte	.LVL60
 1406 020c 0100     		.2byte	0x1
 1407 020e 5A       		.byte	0x5a
 1408 020f 44020000 		.4byte	.LVL60
 1409 0213 50020000 		.4byte	.LVL61
 1410 0217 0100     		.2byte	0x1
 1411 0219 56       		.byte	0x56
 1412 021a 50020000 		.4byte	.LVL61
 1413 021e 5C020000 		.4byte	.LVL62
 1414 0222 0300     		.2byte	0x3
 1415 0224 76       		.byte	0x76
 1416 0225 01       		.sleb128 1
 1417 0226 9F       		.byte	0x9f
 1418 0227 5C020000 		.4byte	.LVL62
 1419 022b 7E020000 		.4byte	.LVL65
 1420 022f 0100     		.2byte	0x1
 1421 0231 5A       		.byte	0x5a
 1422 0232 88020000 		.4byte	.LVL66
 1423 0236 8E020000 		.4byte	.LVL67
 1424 023a 0200     		.2byte	0x2
ARM GAS  /tmp/ccst0ogw.s 			page 26


 1425 023c 91       		.byte	0x91
 1426 023d 4C       		.sleb128 -52
 1427 023e 8E020000 		.4byte	.LVL67
 1428 0242 A8020000 		.4byte	.LVL68
 1429 0246 0300     		.2byte	0x3
 1430 0248 7A       		.byte	0x7a
 1431 0249 01       		.sleb128 1
 1432 024a 9F       		.byte	0x9f
 1433 024b A8020000 		.4byte	.LVL68
 1434 024f D0020000 		.4byte	.LFE145
 1435 0253 0100     		.2byte	0x1
 1436 0255 5A       		.byte	0x5a
 1437 0256 00000000 		.4byte	0
 1438 025a 00000000 		.4byte	0
 1439              	.LLST6:
 1440 025e 80010000 		.4byte	.LVL42
 1441 0262 88010000 		.4byte	.LVL43
 1442 0266 0200     		.2byte	0x2
 1443 0268 31       		.byte	0x31
 1444 0269 9F       		.byte	0x9f
 1445 026a A6010000 		.4byte	.LVL45
 1446 026e B0010000 		.4byte	.LVL46
 1447 0272 0200     		.2byte	0x2
 1448 0274 30       		.byte	0x30
 1449 0275 9F       		.byte	0x9f
 1450 0276 00000000 		.4byte	0
 1451 027a 00000000 		.4byte	0
 1452              	.LLST7:
 1453 027e DA000000 		.4byte	.LVL21
 1454 0282 48010000 		.4byte	.LVL36
 1455 0286 0600     		.2byte	0x6
 1456 0288 56       		.byte	0x56
 1457 0289 93       		.byte	0x93
 1458 028a 04       		.uleb128 0x4
 1459 028b 57       		.byte	0x57
 1460 028c 93       		.byte	0x93
 1461 028d 04       		.uleb128 0x4
 1462 028e 8E020000 		.4byte	.LVL67
 1463 0292 D0020000 		.4byte	.LFE145
 1464 0296 0600     		.2byte	0x6
 1465 0298 56       		.byte	0x56
 1466 0299 93       		.byte	0x93
 1467 029a 04       		.uleb128 0x4
 1468 029b 57       		.byte	0x57
 1469 029c 93       		.byte	0x93
 1470 029d 04       		.uleb128 0x4
 1471 029e 00000000 		.4byte	0
 1472 02a2 00000000 		.4byte	0
 1473              	.LLST8:
 1474 02a6 1A020000 		.4byte	.LVL55
 1475 02aa 22020000 		.4byte	.LVL56
 1476 02ae 0200     		.2byte	0x2
 1477 02b0 30       		.byte	0x30
 1478 02b1 9F       		.byte	0x9f
 1479 02b2 22020000 		.4byte	.LVL56
 1480 02b6 42020000 		.4byte	.LVL59
 1481 02ba 0100     		.2byte	0x1
ARM GAS  /tmp/ccst0ogw.s 			page 27


 1482 02bc 54       		.byte	0x54
 1483 02bd 00000000 		.4byte	0
 1484 02c1 00000000 		.4byte	0
 1485              	.LLST9:
 1486 02c5 1A020000 		.4byte	.LVL55
 1487 02c9 22020000 		.4byte	.LVL56
 1488 02cd 0100     		.2byte	0x1
 1489 02cf 56       		.byte	0x56
 1490 02d0 22020000 		.4byte	.LVL56
 1491 02d4 36020000 		.4byte	.LVL57
 1492 02d8 0600     		.2byte	0x6
 1493 02da 76       		.byte	0x76
 1494 02db 00       		.sleb128 0
 1495 02dc 74       		.byte	0x74
 1496 02dd 00       		.sleb128 0
 1497 02de 1C       		.byte	0x1c
 1498 02df 9F       		.byte	0x9f
 1499 02e0 36020000 		.4byte	.LVL57
 1500 02e4 3A020000 		.4byte	.LVL58
 1501 02e8 0600     		.2byte	0x6
 1502 02ea 71       		.byte	0x71
 1503 02eb 00       		.sleb128 0
 1504 02ec 74       		.byte	0x74
 1505 02ed 00       		.sleb128 0
 1506 02ee 1C       		.byte	0x1c
 1507 02ef 9F       		.byte	0x9f
 1508 02f0 3A020000 		.4byte	.LVL58
 1509 02f4 42020000 		.4byte	.LVL59
 1510 02f8 0100     		.2byte	0x1
 1511 02fa 52       		.byte	0x52
 1512 02fb 00000000 		.4byte	0
 1513 02ff 00000000 		.4byte	0
 1514              		.section	.debug_aranges,"",%progbits
 1515 0000 1C000000 		.4byte	0x1c
 1516 0004 0200     		.2byte	0x2
 1517 0006 00000000 		.4byte	.Ldebug_info0
 1518 000a 04       		.byte	0x4
 1519 000b 00       		.byte	0
 1520 000c 0000     		.2byte	0
 1521 000e 0000     		.2byte	0
 1522 0010 00000000 		.4byte	.LFB145
 1523 0014 D0020000 		.4byte	.LFE145-.LFB145
 1524 0018 00000000 		.4byte	0
 1525 001c 00000000 		.4byte	0
 1526              		.section	.debug_ranges,"",%progbits
 1527              	.Ldebug_ranges0:
 1528 0000 34000000 		.4byte	.LBB2
 1529 0004 48010000 		.4byte	.LBE2
 1530 0008 58010000 		.4byte	.LBB8
 1531 000c 88010000 		.4byte	.LBE8
 1532 0010 98010000 		.4byte	.LBB9
 1533 0014 44020000 		.4byte	.LBE9
 1534 0018 46020000 		.4byte	.LBB10
 1535 001c 4A020000 		.4byte	.LBE10
 1536 0020 50020000 		.4byte	.LBB11
 1537 0024 7E020000 		.4byte	.LBE11
 1538 0028 88020000 		.4byte	.LBB12
ARM GAS  /tmp/ccst0ogw.s 			page 28


 1539 002c D0020000 		.4byte	.LBE12
 1540 0030 00000000 		.4byte	0
 1541 0034 00000000 		.4byte	0
 1542 0038 C4000000 		.4byte	.LBB3
 1543 003c 48010000 		.4byte	.LBE3
 1544 0040 8E020000 		.4byte	.LBB7
 1545 0044 D0020000 		.4byte	.LBE7
 1546 0048 00000000 		.4byte	0
 1547 004c 00000000 		.4byte	0
 1548 0050 DA010000 		.4byte	.LBB4
 1549 0054 EE010000 		.4byte	.LBE4
 1550 0058 F0010000 		.4byte	.LBB5
 1551 005c 44020000 		.4byte	.LBE5
 1552 0060 50020000 		.4byte	.LBB6
 1553 0064 64020000 		.4byte	.LBE6
 1554 0068 00000000 		.4byte	0
 1555 006c 00000000 		.4byte	0
 1556 0070 00000000 		.4byte	.LFB145
 1557 0074 D0020000 		.4byte	.LFE145
 1558 0078 00000000 		.4byte	0
 1559 007c 00000000 		.4byte	0
 1560              		.section	.debug_line,"",%progbits
 1561              	.Ldebug_line0:
 1562 0000 C2010000 		.section	.debug_str,"MS",%progbits,1
 1562      0200FB00 
 1562      00000201 
 1562      FB0E0D00 
 1562      01010101 
 1563              	.LASF23:
 1564 0000 474E5520 		.ascii	"GNU C 4.9.3 20141119 (release) [ARM/embedded-4_9-br"
 1564      4320342E 
 1564      392E3320 
 1564      32303134 
 1564      31313139 
 1565 0033 616E6368 		.ascii	"anch revision 218278] -mcpu=cortex-m4 -mfloat-abi=h"
 1565      20726576 
 1565      6973696F 
 1565      6E203231 
 1565      38323738 
 1566 0066 61726420 		.ascii	"ard -mfpu=fpv4-sp-d16 -mno-thumb-interwork -mthumb "
 1566      2D6D6670 
 1566      753D6670 
 1566      76342D73 
 1566      702D6431 
 1567 0099 2D676764 		.ascii	"-ggdb -O2 -fomit-frame-pointer -falign-functions=16"
 1567      62202D4F 
 1567      32202D66 
 1567      6F6D6974 
 1567      2D667261 
 1568 00cc 202D6666 		.ascii	" -ffunction-sections -fdata-sections -fno-common -f"
 1568      756E6374 
 1568      696F6E2D 
 1568      73656374 
 1568      696F6E73 
 1569 00ff 73696E67 		.ascii	"single-precision-constant\000"
 1569      6C652D70 
 1569      72656369 
ARM GAS  /tmp/ccst0ogw.s 			page 29


 1569      73696F6E 
 1569      2D636F6E 
 1570              	.LASF11:
 1571 0119 5F5F696E 		.ascii	"__int32_t\000"
 1571      7433325F 
 1571      7400
 1572              	.LASF22:
 1573 0123 6C6F6731 		.ascii	"log10\000"
 1573      3000
 1574              	.LASF20:
 1575 0129 5F5F6670 		.ascii	"__fpclassifyd\000"
 1575      636C6173 
 1575      73696679 
 1575      6400
 1576              	.LASF18:
 1577 0137 77656967 		.ascii	"weight\000"
 1577      687400
 1578              	.LASF28:
 1579 013e 5F5F6670 		.ascii	"__fpclassifyf\000"
 1579      636C6173 
 1579      73696679 
 1579      6600
 1580              	.LASF1:
 1581 014c 666C6F61 		.ascii	"float\000"
 1581      7400
 1582              	.LASF9:
 1583 0152 6C6F6E67 		.ascii	"long long unsigned int\000"
 1583      206C6F6E 
 1583      6720756E 
 1583      7369676E 
 1583      65642069 
 1584              	.LASF3:
 1585 0169 756E7369 		.ascii	"unsigned char\000"
 1585      676E6564 
 1585      20636861 
 1585      7200
 1586              	.LASF7:
 1587 0177 6C6F6E67 		.ascii	"long unsigned int\000"
 1587      20756E73 
 1587      69676E65 
 1587      6420696E 
 1587      7400
 1588              	.LASF5:
 1589 0189 73686F72 		.ascii	"short unsigned int\000"
 1589      7420756E 
 1589      7369676E 
 1589      65642069 
 1589      6E7400
 1590              	.LASF27:
 1591 019c 49544D5F 		.ascii	"ITM_RxBuffer\000"
 1591      52784275 
 1591      66666572 
 1591      00
 1592              	.LASF0:
 1593 01a9 646F7562 		.ascii	"double\000"
 1593      6C6500
 1594              	.LASF25:
ARM GAS  /tmp/ccst0ogw.s 			page 30


 1595 01b0 2F686F6D 		.ascii	"/home/bhimebau/forge/annsynth/src\000"
 1595      652F6268 
 1595      696D6562 
 1595      61752F66 
 1595      6F726765 
 1596              	.LASF10:
 1597 01d2 756E7369 		.ascii	"unsigned int\000"
 1597      676E6564 
 1597      20696E74 
 1597      00
 1598              	.LASF16:
 1599 01df 64696769 		.ascii	"digit\000"
 1599      7400
 1600              	.LASF14:
 1601 01e5 63686172 		.ascii	"char\000"
 1601      00
 1602              	.LASF21:
 1603 01ea 666C6F6F 		.ascii	"floor\000"
 1603      7200
 1604              	.LASF17:
 1605 01f0 75736545 		.ascii	"useExp\000"
 1605      787000
 1606              	.LASF12:
 1607 01f7 696E7433 		.ascii	"int32_t\000"
 1607      325F7400 
 1608              	.LASF13:
 1609 01ff 73697A65 		.ascii	"sizetype\000"
 1609      74797065 
 1609      00
 1610              	.LASF8:
 1611 0208 6C6F6E67 		.ascii	"long long int\000"
 1611      206C6F6E 
 1611      6720696E 
 1611      7400
 1612              	.LASF19:
 1613 0216 50524543 		.ascii	"PRECISION\000"
 1613      4953494F 
 1613      4E00
 1614              	.LASF26:
 1615 0220 636F6E76 		.ascii	"convFloat\000"
 1615      466C6F61 
 1615      7400
 1616              	.LASF4:
 1617 022a 73686F72 		.ascii	"short int\000"
 1617      7420696E 
 1617      7400
 1618              	.LASF6:
 1619 0234 6C6F6E67 		.ascii	"long int\000"
 1619      20696E74 
 1619      00
 1620              	.LASF15:
 1621 023d 6C6F6E67 		.ascii	"long double\000"
 1621      20646F75 
 1621      626C6500 
 1622              	.LASF2:
 1623 0249 7369676E 		.ascii	"signed char\000"
 1623      65642063 
ARM GAS  /tmp/ccst0ogw.s 			page 31


 1623      68617200 
 1624              	.LASF24:
 1625 0255 2E2E2F64 		.ascii	"../dtoa/dtoa.c\000"
 1625      746F612F 
 1625      64746F61 
 1625      2E6300
 1626              		.ident	"GCC: (GNU Tools for ARM Embedded Processors) 4.9.3 20141119 (release) [ARM/embedded-4_9-br
ARM GAS  /tmp/ccst0ogw.s 			page 32


DEFINED SYMBOLS
                            *ABS*:00000000 dtoa.c
     /tmp/ccst0ogw.s:29     .text.convFloat:00000000 $t
     /tmp/ccst0ogw.s:35     .text.convFloat:00000000 convFloat
     /tmp/ccst0ogw.s:500    .text.convFloat:000002b0 $d
     /tmp/ccst0ogw.s:514    .rodata.str1.4:00000000 $d
                     .debug_frame:00000010 $d

UNDEFINED SYMBOLS
__aeabi_f2d
__aeabi_d2iz
__aeabi_i2d
__aeabi_ddiv
__aeabi_d2f
__aeabi_dcmpgt
__aeabi_dmul
__aeabi_dsub
__fpclassifyf
log10
pow
__fpclassifyd
floor
