ARM GAS  /tmp/cc9XTc7L.s 			page 1


   1              		.syntax unified
   2              		.cpu cortex-m4
   3              		.eabi_attribute 27, 3
   4              		.eabi_attribute 28, 1
   5              		.fpu fpv4-sp-d16
   6              		.eabi_attribute 20, 1
   7              		.eabi_attribute 21, 1
   8              		.eabi_attribute 23, 3
   9              		.eabi_attribute 24, 1
  10              		.eabi_attribute 25, 1
  11              		.eabi_attribute 26, 1
  12              		.eabi_attribute 30, 2
  13              		.eabi_attribute 34, 1
  14              		.eabi_attribute 18, 4
  15              		.thumb
  16              		.file	"evtimer.c"
  17              		.text
  18              	.Ltext0:
  19              		.cfi_sections	.debug_frame
  20              		.section	.text.tmrcb,"ax",%progbits
  21              		.align	2
  22              		.p2align 4,,15
  23              		.thumb
  24              		.thumb_func
  25              		.type	tmrcb, %function
  26              	tmrcb:
  27              	.LFB227:
  28              		.file 1 "../ChibiOS/os/various/evtimer.c"
  29              		.loc 1 48 0
  30              		.cfi_startproc
  31              		@ args = 0, pretend = 0, frame = 0
  32              		@ frame_needed = 0, uses_anonymous_args = 0
  33              	.LVL0:
  34 0000 10B5     		push	{r4, lr}
  35              		.cfi_def_cfa_offset 8
  36              		.cfi_offset 4, -8
  37              		.cfi_offset 14, -4
  38              	.LBB77:
  39              	.LBB78:
  40              	.LBB79:
  41              	.LBB80:
  42              	.LBB81:
  43              		.file 2 "../ChibiOS/os/ext/CMSIS/include/core_cmFunc.h"
  44              		.loc 2 546 0
  45 0002 2023     		movs	r3, #32
  46              	.LBE81:
  47              	.LBE80:
  48              	.LBE79:
  49              	.LBE78:
  50              	.LBE77:
  51              		.loc 1 48 0
  52 0004 0446     		mov	r4, r0
  53              	.LVL1:
  54              	.LBB86:
  55              	.LBB85:
  56              	.LBB84:
  57              	.LBB83:
ARM GAS  /tmp/cc9XTc7L.s 			page 2


  58              	.LBB82:
  59              		.loc 2 546 0
  60              	@ 546 "../ChibiOS/os/ext/CMSIS/include/core_cmFunc.h" 1
  61 0006 83F31188 		MSR basepri, r3
  62              	@ 0 "" 2
  63              	.LVL2:
  64              		.thumb
  65              	.LBE82:
  66              	.LBE83:
  67              	.LBE84:
  68              	.LBE85:
  69              	.LBE86:
  70              	.LBB87:
  71              	.LBB88:
  72              		.file 3 "../ChibiOS/os/rt/include/chevents.h"
  73              		.loc 3 256 0
  74 000a 0021     		movs	r1, #0
  75 000c 1430     		adds	r0, r0, #20
  76              	.LVL3:
  77 000e FFF7FEFF 		bl	chEvtBroadcastFlagsI
  78              	.LVL4:
  79              	.LBE88:
  80              	.LBE87:
  81              		.loc 1 53 0
  82 0012 2346     		mov	r3, r4
  83 0014 2046     		mov	r0, r4
  84 0016 A169     		ldr	r1, [r4, #24]
  85 0018 034A     		ldr	r2, .L3
  86 001a FFF7FEFF 		bl	chVTDoSetI
  87              	.LVL5:
  88              	.LBB89:
  89              	.LBB90:
  90              	.LBB91:
  91              	.LBB92:
  92              	.LBB93:
  93              		.loc 2 546 0
  94 001e 0023     		movs	r3, #0
  95              	@ 546 "../ChibiOS/os/ext/CMSIS/include/core_cmFunc.h" 1
  96 0020 83F31188 		MSR basepri, r3
  97              	@ 0 "" 2
  98              		.thumb
  99 0024 10BD     		pop	{r4, pc}
 100              	.LVL6:
 101              	.L4:
 102 0026 00BF     		.align	2
 103              	.L3:
 104 0028 00000000 		.word	tmrcb
 105              	.LBE93:
 106              	.LBE92:
 107              	.LBE91:
 108              	.LBE90:
 109              	.LBE89:
 110              		.cfi_endproc
 111              	.LFE227:
 112              		.size	tmrcb, .-tmrcb
 113 002c AFF30080 		.section	.text.evtObjectInit,"ax",%progbits
 114              		.align	2
ARM GAS  /tmp/cc9XTc7L.s 			page 3


 115              		.p2align 4,,15
 116              		.global	evtObjectInit
 117              		.thumb
 118              		.thumb_func
 119              		.type	evtObjectInit, %function
 120              	evtObjectInit:
 121              	.LFB228:
 122              		.loc 1 67 0
 123              		.cfi_startproc
 124              		@ args = 0, pretend = 0, frame = 0
 125              		@ frame_needed = 0, uses_anonymous_args = 0
 126              		@ link register save eliminated.
 127              	.LVL7:
 128              		.loc 1 69 0
 129 0000 00F11402 		add	r2, r0, #20
 130              	.LVL8:
 131              	.LBB94:
 132              	.LBB95:
 133              		.file 4 "../ChibiOS/os/rt/include/chvt.h"
 134              		.loc 4 210 0
 135 0004 0023     		movs	r3, #0
 136              	.LBE95:
 137              	.LBE94:
 138              		.loc 1 71 0
 139 0006 8161     		str	r1, [r0, #24]
 140              	.LBB97:
 141              	.LBB98:
 142              		.loc 3 172 0
 143 0008 4261     		str	r2, [r0, #20]
 144              	.LVL9:
 145              	.LBE98:
 146              	.LBE97:
 147              	.LBB99:
 148              	.LBB96:
 149              		.loc 4 210 0
 150 000a C360     		str	r3, [r0, #12]
 151 000c 7047     		bx	lr
 152              	.LBE96:
 153              	.LBE99:
 154              		.cfi_endproc
 155              	.LFE228:
 156              		.size	evtObjectInit, .-evtObjectInit
 157 000e 00BF     		.section	.text.evtStart,"ax",%progbits
 158              		.align	2
 159              		.p2align 4,,15
 160              		.global	evtStart
 161              		.thumb
 162              		.thumb_func
 163              		.type	evtStart, %function
 164              	evtStart:
 165              	.LFB229:
 166              		.loc 1 80 0
 167              		.cfi_startproc
 168              		@ args = 0, pretend = 0, frame = 0
 169              		@ frame_needed = 0, uses_anonymous_args = 0
 170              	.LVL10:
 171 0000 38B5     		push	{r3, r4, r5, lr}
ARM GAS  /tmp/cc9XTc7L.s 			page 4


 172              		.cfi_def_cfa_offset 16
 173              		.cfi_offset 3, -16
 174              		.cfi_offset 4, -12
 175              		.cfi_offset 5, -8
 176              		.cfi_offset 14, -4
 177              		.loc 1 80 0
 178 0002 0446     		mov	r4, r0
 179              	.LBB115:
 180              	.LBB116:
 181              	.LBB117:
 182              	.LBB118:
 183              	.LBB119:
 184              		.loc 2 546 0
 185 0004 2023     		movs	r3, #32
 186              	.LBE119:
 187              	.LBE118:
 188              	.LBE117:
 189              	.LBE116:
 190              	.LBE115:
 191              		.loc 1 82 0
 192 0006 8569     		ldr	r5, [r0, #24]
 193              	.LVL11:
 194              	.LBB133:
 195              	.LBB123:
 196              	.LBB122:
 197              	.LBB121:
 198              	.LBB120:
 199              		.loc 2 546 0
 200              	@ 546 "../ChibiOS/os/ext/CMSIS/include/core_cmFunc.h" 1
 201 0008 83F31188 		MSR basepri, r3
 202              	@ 0 "" 2
 203              	.LVL12:
 204              		.thumb
 205              	.LBE120:
 206              	.LBE121:
 207              	.LBE122:
 208              	.LBE123:
 209              	.LBB124:
 210              	.LBB125:
 211              	.LBB126:
 212              	.LBB127:
 213              		.loc 4 354 0
 214 000c C368     		ldr	r3, [r0, #12]
 215 000e 0BB1     		cbz	r3, .L7
 216              		.loc 4 355 0
 217 0010 FFF7FEFF 		bl	chVTDoResetI
 218              	.LVL13:
 219              	.L7:
 220              	.LBE127:
 221              	.LBE126:
 222              		.loc 4 402 0
 223 0014 2346     		mov	r3, r4
 224 0016 2946     		mov	r1, r5
 225 0018 2046     		mov	r0, r4
 226 001a 034A     		ldr	r2, .L13
 227 001c FFF7FEFF 		bl	chVTDoSetI
 228              	.LVL14:
ARM GAS  /tmp/cc9XTc7L.s 			page 5


 229              	.LBE125:
 230              	.LBE124:
 231              	.LBB128:
 232              	.LBB129:
 233              	.LBB130:
 234              	.LBB131:
 235              	.LBB132:
 236              		.loc 2 546 0
 237 0020 0023     		movs	r3, #0
 238              	@ 546 "../ChibiOS/os/ext/CMSIS/include/core_cmFunc.h" 1
 239 0022 83F31188 		MSR basepri, r3
 240              	@ 0 "" 2
 241              		.thumb
 242 0026 38BD     		pop	{r3, r4, r5, pc}
 243              	.LVL15:
 244              	.L14:
 245              		.align	2
 246              	.L13:
 247 0028 00000000 		.word	tmrcb
 248              	.LBE132:
 249              	.LBE131:
 250              	.LBE130:
 251              	.LBE129:
 252              	.LBE128:
 253              	.LBE133:
 254              		.cfi_endproc
 255              	.LFE229:
 256              		.size	evtStart, .-evtStart
 257 002c AFF30080 		.text
 258              	.Letext0:
 259              		.file 5 "/l/arm2/gcc-arm-none-eabi-4_9-2014q4/arm-none-eabi/include/machine/_default_types.h"
 260              		.file 6 "/l/arm2/gcc-arm-none-eabi-4_9-2014q4/arm-none-eabi/include/stdint.h"
 261              		.file 7 "../ChibiOS/os/rt/ports/ARMCMx/compilers/GCC/chtypes.h"
 262              		.file 8 "../ChibiOS/os/rt/include/chsystypes.h"
 263              		.file 9 "../ChibiOS/os/rt/include/chschd.h"
 264              		.file 10 "../ChibiOS/os/rt/ports/ARMCMx/chcore.h"
 265              		.file 11 "../ChibiOS/os/rt/ports/ARMCMx/chcore_v7m.h"
 266              		.file 12 "../ChibiOS/os/rt/include/chtm.h"
 267              		.file 13 "../ChibiOS/os/rt/include/chmtx.h"
 268              		.file 14 "../ChibiOS/os/various/evtimer.h"
 269              		.file 15 "../ChibiOS/os/rt/include/chsys.h"
 270              		.file 16 "../ChibiOS/os/ext/CMSIS/include/core_cm4.h"