ARM GAS  /tmp/cc9XTc7L.s 			page 1


   1              		.syntax unified
   2              		.cpu cortex-m4
   3              		.eabi_attribute 27, 3
   4              		.eabi_attribute 28, 1
   5              		.fpu fpv4-sp-d16
   6              		.eabi_attribute 20, 1
   7              		.eabi_attribute 21, 1
   8              		.eabi_attribute 23, 3
   9              		.eabi_attribute 24, 1
  10              		.eabi_attribute 25, 1
  11              		.eabi_attribute 26, 1
  12              		.eabi_attribute 30, 2
  13              		.eabi_attribute 34, 1
  14              		.eabi_attribute 18, 4
  15              		.thumb
  16              		.file	"evtimer.c"
  17              		.text
  18              	.Ltext0:
  19              		.cfi_sections	.debug_frame
  20              		.section	.text.tmrcb,"ax",%progbits
  21              		.align	2
  22              		.p2align 4,,15
  23              		.thumb
  24              		.thumb_func
  25              		.type	tmrcb, %function
  26              	tmrcb:
  27              	.LFB227:
  28              		.file 1 "../ChibiOS/os/various/evtimer.c"
  29              		.loc 1 48 0
  30              		.cfi_startproc
  31              		@ args = 0, pretend = 0, frame = 0
  32              		@ frame_needed = 0, uses_anonymous_args = 0
  33              	.LVL0:
  34 0000 10B5     		push	{r4, lr}
  35              		.cfi_def_cfa_offset 8
  36              		.cfi_offset 4, -8
  37              		.cfi_offset 14, -4
  38              	.LBB77:
  39              	.LBB78:
  40              	.LBB79:
  41              	.LBB80:
  42              	.LBB81:
  43              		.file 2 "../ChibiOS/os/ext/CMSIS/include/core_cmFunc.h"
  44              		.loc 2 546 0
  45 0002 2023     		movs	r3, #32
  46              	.LBE81:
  47              	.LBE80:
  48              	.LBE79:
  49              	.LBE78:
  50              	.LBE77:
  51              		.loc 1 48 0
  52 0004 0446     		mov	r4, r0
  53              	.LVL1:
  54              	.LBB86:
  55              	.LBB85:
  56              	.LBB84:
  57              	.LBB83:
ARM GAS  /tmp/cc9XTc7L.s 			page 2


  58              	.LBB82:
  59              		.loc 2 546 0
  60              	@ 546 "../ChibiOS/os/ext/CMSIS/include/core_cmFunc.h" 1
  61 0006 83F31188 		MSR basepri, r3
  62              	@ 0 "" 2
  63              	.LVL2:
  64              		.thumb
  65              	.LBE82:
  66              	.LBE83:
  67              	.LBE84:
  68              	.LBE85:
  69              	.LBE86:
  70              	.LBB87:
  71              	.LBB88:
  72              		.file 3 "../ChibiOS/os/rt/include/chevents.h"
  73              		.loc 3 256 0
  74 000a 0021     		movs	r1, #0
  75 000c 1430     		adds	r0, r0, #20
  76              	.LVL3:
  77 000e FFF7FEFF 		bl	chEvtBroadcastFlagsI
  78              	.LVL4:
  79              	.LBE88:
  80              	.LBE87:
  81              		.loc 1 53 0
  82 0012 2346     		mov	r3, r4
  83 0014 2046     		mov	r0, r4
  84 0016 A169     		ldr	r1, [r4, #24]
  85 0018 034A     		ldr	r2, .L3
  86 001a FFF7FEFF 		bl	chVTDoSetI
  87              	.LVL5:
  88              	.LBB89:
  89              	.LBB90:
  90              	.LBB91:
  91              	.LBB92:
  92              	.LBB93:
  93              		.loc 2 546 0
  94 001e 0023     		movs	r3, #0
  95              	@ 546 "../ChibiOS/os/ext/CMSIS/include/core_cmFunc.h" 1
  96 0020 83F31188 		MSR basepri, r3
  97              	@ 0 "" 2
  98              		.thumb
  99 0024 10BD     		pop	{r4, pc}
 100              	.LVL6:
 101              	.L4:
 102 0026 00BF     		.align	2
 103              	.L3:
 104 0028 00000000 		.word	tmrcb
 105              	.LBE93:
 106              	.LBE92:
 107              	.LBE91:
 108              	.LBE90:
 109              	.LBE89:
 110              		.cfi_endproc
 111              	.LFE227:
 112              		.size	tmrcb, .-tmrcb
 113 002c AFF30080 		.section	.text.evtObjectInit,"ax",%progbits
 114              		.align	2
ARM GAS  /tmp/cc9XTc7L.s 			page 3


 115              		.p2align 4,,15
 116              		.global	evtObjectInit
 117              		.thumb
 118              		.thumb_func
 119              		.type	evtObjectInit, %function
 120              	evtObjectInit:
 121              	.LFB228:
 122              		.loc 1 67 0
 123              		.cfi_startproc
 124              		@ args = 0, pretend = 0, frame = 0
 125              		@ frame_needed = 0, uses_anonymous_args = 0
 126              		@ link register save eliminated.
 127              	.LVL7:
 128              		.loc 1 69 0
 129 0000 00F11402 		add	r2, r0, #20
 130              	.LVL8:
 131              	.LBB94:
 132              	.LBB95:
 133              		.file 4 "../ChibiOS/os/rt/include/chvt.h"
 134              		.loc 4 210 0
 135 0004 0023     		movs	r3, #0
 136              	.LBE95:
 137              	.LBE94:
 138              		.loc 1 71 0
 139 0006 8161     		str	r1, [r0, #24]
 140              	.LBB97:
 141              	.LBB98:
 142              		.loc 3 172 0
 143 0008 4261     		str	r2, [r0, #20]
 144              	.LVL9:
 145              	.LBE98:
 146              	.LBE97:
 147              	.LBB99:
 148              	.LBB96:
 149              		.loc 4 210 0
 150 000a C360     		str	r3, [r0, #12]
 151 000c 7047     		bx	lr
 152              	.LBE96:
 153              	.LBE99:
 154              		.cfi_endproc
 155              	.LFE228:
 156              		.size	evtObjectInit, .-evtObjectInit
 157 000e 00BF     		.section	.text.evtStart,"ax",%progbits
 158              		.align	2
 159              		.p2align 4,,15
 160              		.global	evtStart
 161              		.thumb
 162              		.thumb_func
 163              		.type	evtStart, %function
 164              	evtStart:
 165              	.LFB229:
 166              		.loc 1 80 0
 167              		.cfi_startproc
 168              		@ args = 0, pretend = 0, frame = 0
 169              		@ frame_needed = 0, uses_anonymous_args = 0
 170              	.LVL10:
 171 0000 38B5     		push	{r3, r4, r5, lr}
ARM GAS  /tmp/cc9XTc7L.s 			page 4


 172              		.cfi_def_cfa_offset 16
 173              		.cfi_offset 3, -16
 174              		.cfi_offset 4, -12
 175              		.cfi_offset 5, -8
 176              		.cfi_offset 14, -4
 177              		.loc 1 80 0
 178 0002 0446     		mov	r4, r0
 179              	.LBB115:
 180              	.LBB116:
 181              	.LBB117:
 182              	.LBB118:
 183              	.LBB119:
 184              		.loc 2 546 0
 185 0004 2023     		movs	r3, #32
 186              	.LBE119:
 187              	.LBE118:
 188              	.LBE117:
 189              	.LBE116:
 190              	.LBE115:
 191              		.loc 1 82 0
 192 0006 8569     		ldr	r5, [r0, #24]
 193              	.LVL11:
 194              	.LBB133:
 195              	.LBB123:
 196              	.LBB122:
 197              	.LBB121:
 198              	.LBB120:
 199              		.loc 2 546 0
 200              	@ 546 "../ChibiOS/os/ext/CMSIS/include/core_cmFunc.h" 1
 201 0008 83F31188 		MSR basepri, r3
 202              	@ 0 "" 2
 203              	.LVL12:
 204              		.thumb
 205              	.LBE120:
 206              	.LBE121:
 207              	.LBE122:
 208              	.LBE123:
 209              	.LBB124:
 210              	.LBB125:
 211              	.LBB126:
 212              	.LBB127:
 213              		.loc 4 354 0
 214 000c C368     		ldr	r3, [r0, #12]
 215 000e 0BB1     		cbz	r3, .L7
 216              		.loc 4 355 0
 217 0010 FFF7FEFF 		bl	chVTDoResetI
 218              	.LVL13:
 219              	.L7:
 220              	.LBE127:
 221              	.LBE126:
 222              		.loc 4 402 0
 223 0014 2346     		mov	r3, r4
 224 0016 2946     		mov	r1, r5
 225 0018 2046     		mov	r0, r4
 226 001a 034A     		ldr	r2, .L13
 227 001c FFF7FEFF 		bl	chVTDoSetI
 228              	.LVL14:
ARM GAS  /tmp/cc9XTc7L.s 			page 5


 229              	.LBE125:
 230              	.LBE124:
 231              	.LBB128:
 232              	.LBB129:
 233              	.LBB130:
 234              	.LBB131:
 235              	.LBB132:
 236              		.loc 2 546 0
 237 0020 0023     		movs	r3, #0
 238              	@ 546 "../ChibiOS/os/ext/CMSIS/include/core_cmFunc.h" 1
 239 0022 83F31188 		MSR basepri, r3
 240              	@ 0 "" 2
 241              		.thumb
 242 0026 38BD     		pop	{r3, r4, r5, pc}
 243              	.LVL15:
 244              	.L14:
 245              		.align	2
 246              	.L13:
 247 0028 00000000 		.word	tmrcb
 248              	.LBE132:
 249              	.LBE131:
 250              	.LBE130:
 251              	.LBE129:
 252              	.LBE128:
 253              	.LBE133:
 254              		.cfi_endproc
 255              	.LFE229:
 256              		.size	evtStart, .-evtStart
 257 002c AFF30080 		.text
 258              	.Letext0:
 259              		.file 5 "/l/arm2/gcc-arm-none-eabi-4_9-2014q4/arm-none-eabi/include/machine/_default_types.h"
 260              		.file 6 "/l/arm2/gcc-arm-none-eabi-4_9-2014q4/arm-none-eabi/include/stdint.h"
 261              		.file 7 "../ChibiOS/os/rt/ports/ARMCMx/compilers/GCC/chtypes.h"
 262              		.file 8 "../ChibiOS/os/rt/include/chsystypes.h"
 263              		.file 9 "../ChibiOS/os/rt/include/chschd.h"
 264              		.file 10 "../ChibiOS/os/rt/ports/ARMCMx/chcore.h"
 265              		.file 11 "../ChibiOS/os/rt/ports/ARMCMx/chcore_v7m.h"
 266              		.file 12 "../ChibiOS/os/rt/include/chtm.h"
 267              		.file 13 "../ChibiOS/os/rt/include/chmtx.h"
 268              		.file 14 "../ChibiOS/os/various/evtimer.h"
 269              		.file 15 "../ChibiOS/os/rt/include/chsys.h"
 270              		.file 16 "../ChibiOS/os/ext/CMSIS/include/core_cm4.h"
 271              		.section	.debug_info,"",%progbits
 272              	.Ldebug_info0:
 273 0000 160C0000 		.4byte	0xc16
 274 0004 0400     		.2byte	0x4
 275 0006 00000000 		.4byte	.Ldebug_abbrev0
 276 000a 04       		.byte	0x4
 277 000b 01       		.uleb128 0x1
 278 000c 30030000 		.4byte	.LASF133
 279 0010 01       		.byte	0x1
 280 0011 7A020000 		.4byte	.LASF134
 281 0015 98050000 		.4byte	.LASF135
 282 0019 60000000 		.4byte	.Ldebug_ranges0+0x60
 283 001d 00000000 		.4byte	0
 284 0021 00000000 		.4byte	.Ldebug_line0
 285 0025 02       		.uleb128 0x2
ARM GAS  /tmp/cc9XTc7L.s 			page 6


 286 0026 04       		.byte	0x4
 287 0027 05       		.byte	0x5
 288 0028 696E7400 		.ascii	"int\000"
 289 002c 03       		.uleb128 0x3
 290 002d 04       		.byte	0x4
 291 002e 07       		.byte	0x7
 292 002f 96010000 		.4byte	.LASF0
 293 0033 03       		.uleb128 0x3
 294 0034 01       		.byte	0x1
 295 0035 06       		.byte	0x6
 296 0036 E9000000 		.4byte	.LASF1
 297 003a 04       		.uleb128 0x4
 298 003b 35000000 		.4byte	.LASF5
 299 003f 05       		.byte	0x5
 300 0040 1D       		.byte	0x1d
 301 0041 45000000 		.4byte	0x45
 302 0045 03       		.uleb128 0x3
 303 0046 01       		.byte	0x1
 304 0047 08       		.byte	0x8
 305 0048 BC040000 		.4byte	.LASF2
 306 004c 03       		.uleb128 0x3
 307 004d 02       		.byte	0x2
 308 004e 05       		.byte	0x5
 309 004f E9040000 		.4byte	.LASF3
 310 0053 03       		.uleb128 0x3
 311 0054 02       		.byte	0x2
 312 0055 07       		.byte	0x7
 313 0056 CF010000 		.4byte	.LASF4
 314 005a 04       		.uleb128 0x4
 315 005b 56020000 		.4byte	.LASF6
 316 005f 05       		.byte	0x5
 317 0060 3F       		.byte	0x3f
 318 0061 65000000 		.4byte	0x65
 319 0065 03       		.uleb128 0x3
 320 0066 04       		.byte	0x4
 321 0067 05       		.byte	0x5
 322 0068 22010000 		.4byte	.LASF7
 323 006c 04       		.uleb128 0x4
 324 006d 1A060000 		.4byte	.LASF8
 325 0071 05       		.byte	0x5
 326 0072 41       		.byte	0x41
 327 0073 77000000 		.4byte	0x77
 328 0077 03       		.uleb128 0x3
 329 0078 04       		.byte	0x4
 330 0079 07       		.byte	0x7
 331 007a BA050000 		.4byte	.LASF9
 332 007e 03       		.uleb128 0x3
 333 007f 08       		.byte	0x8
 334 0080 05       		.byte	0x5
 335 0081 DB000000 		.4byte	.LASF10
 336 0085 04       		.uleb128 0x4
 337 0086 53040000 		.4byte	.LASF11
 338 008a 05       		.byte	0x5
 339 008b 5B       		.byte	0x5b
 340 008c 90000000 		.4byte	0x90
 341 0090 03       		.uleb128 0x3
 342 0091 08       		.byte	0x8
ARM GAS  /tmp/cc9XTc7L.s 			page 7


 343 0092 07       		.byte	0x7
 344 0093 64000000 		.4byte	.LASF12
 345 0097 04       		.uleb128 0x4
 346 0098 A5060000 		.4byte	.LASF13
 347 009c 06       		.byte	0x6
 348 009d 15       		.byte	0x15
 349 009e 3A000000 		.4byte	0x3a
 350 00a2 04       		.uleb128 0x4
 351 00a3 B4040000 		.4byte	.LASF14
 352 00a7 06       		.byte	0x6
 353 00a8 2C       		.byte	0x2c
 354 00a9 5A000000 		.4byte	0x5a
 355 00ad 04       		.uleb128 0x4
 356 00ae 77050000 		.4byte	.LASF15
 357 00b2 06       		.byte	0x6
 358 00b3 2D       		.byte	0x2d
 359 00b4 6C000000 		.4byte	0x6c
 360 00b8 04       		.uleb128 0x4
 361 00b9 20000000 		.4byte	.LASF16
 362 00bd 06       		.byte	0x6
 363 00be 39       		.byte	0x39
 364 00bf 85000000 		.4byte	0x85
 365 00c3 05       		.uleb128 0x5
 366 00c4 A2000000 		.4byte	0xa2
 367 00c8 04       		.uleb128 0x4
 368 00c9 4C060000 		.4byte	.LASF17
 369 00cd 07       		.byte	0x7
 370 00ce 45       		.byte	0x45
 371 00cf AD000000 		.4byte	0xad
 372 00d3 04       		.uleb128 0x4
 373 00d4 10050000 		.4byte	.LASF18
 374 00d8 07       		.byte	0x7
 375 00d9 48       		.byte	0x48
 376 00da 97000000 		.4byte	0x97
 377 00de 04       		.uleb128 0x4
 378 00df 2B010000 		.4byte	.LASF19
 379 00e3 07       		.byte	0x7
 380 00e4 49       		.byte	0x49
 381 00e5 97000000 		.4byte	0x97
 382 00e9 04       		.uleb128 0x4
 383 00ea 5E040000 		.4byte	.LASF20
 384 00ee 07       		.byte	0x7
 385 00ef 4A       		.byte	0x4a
 386 00f0 97000000 		.4byte	0x97
 387 00f4 04       		.uleb128 0x4
 388 00f5 7D040000 		.4byte	.LASF21
 389 00f9 07       		.byte	0x7
 390 00fa 4C       		.byte	0x4c
 391 00fb AD000000 		.4byte	0xad
 392 00ff 04       		.uleb128 0x4
 393 0100 0E020000 		.4byte	.LASF22
 394 0104 07       		.byte	0x7
 395 0105 4D       		.byte	0x4d
 396 0106 A2000000 		.4byte	0xa2
 397 010a 04       		.uleb128 0x4
 398 010b 29000000 		.4byte	.LASF23
 399 010f 07       		.byte	0x7
ARM GAS  /tmp/cc9XTc7L.s 			page 8


 400 0110 4F       		.byte	0x4f
 401 0111 AD000000 		.4byte	0xad
 402 0115 04       		.uleb128 0x4
 403 0116 01020000 		.4byte	.LASF24
 404 011a 07       		.byte	0x7
 405 011b 50       		.byte	0x50
 406 011c AD000000 		.4byte	0xad
 407 0120 04       		.uleb128 0x4
 408 0121 FC050000 		.4byte	.LASF25
 409 0125 08       		.byte	0x8
 410 0126 33       		.byte	0x33
 411 0127 AD000000 		.4byte	0xad
 412 012b 04       		.uleb128 0x4
 413 012c EC050000 		.4byte	.LASF26
 414 0130 08       		.byte	0x8
 415 0131 3F       		.byte	0x3f
 416 0132 36010000 		.4byte	0x136
 417 0136 06       		.uleb128 0x6
 418 0137 E2010000 		.4byte	.LASF45
 419 013b 44       		.byte	0x44
 420 013c 09       		.byte	0x9
 421 013d BE       		.byte	0xbe
 422 013e 23020000 		.4byte	0x223
 423 0142 07       		.uleb128 0x7
 424 0143 09050000 		.4byte	.LASF27
 425 0147 09       		.byte	0x9
 426 0148 BF       		.byte	0xbf
 427 0149 CD050000 		.4byte	0x5cd
 428 014d 00       		.byte	0
 429 014e 07       		.uleb128 0x7
 430 014f 76040000 		.4byte	.LASF28
 431 0153 09       		.byte	0x9
 432 0154 C1       		.byte	0xc1
 433 0155 CD050000 		.4byte	0x5cd
 434 0159 04       		.byte	0x4
 435 015a 07       		.uleb128 0x7
 436 015b D4000000 		.4byte	.LASF29
 437 015f 09       		.byte	0x9
 438 0160 C3       		.byte	0xc3
 439 0161 F4000000 		.4byte	0xf4
 440 0165 08       		.byte	0x8
 441 0166 07       		.uleb128 0x7
 442 0167 02070000 		.4byte	.LASF30
 443 016b 09       		.byte	0x9
 444 016c C4       		.byte	0xc4
 445 016d 4D040000 		.4byte	0x44d
 446 0171 0C       		.byte	0xc
 447 0172 07       		.uleb128 0x7
 448 0173 49010000 		.4byte	.LASF31
 449 0177 09       		.byte	0x9
 450 0178 C6       		.byte	0xc6
 451 0179 CD050000 		.4byte	0x5cd
 452 017d 10       		.byte	0x10
 453 017e 07       		.uleb128 0x7
 454 017f F0020000 		.4byte	.LASF32
 455 0183 09       		.byte	0x9
 456 0184 C7       		.byte	0xc7
ARM GAS  /tmp/cc9XTc7L.s 			page 9


 457 0185 CD050000 		.4byte	0x5cd
 458 0189 14       		.byte	0x14
 459 018a 07       		.uleb128 0x7
 460 018b BE060000 		.4byte	.LASF33
 461 018f 09       		.byte	0x9
 462 0190 CE       		.byte	0xce
 463 0191 0B060000 		.4byte	0x60b
 464 0195 18       		.byte	0x18
 465 0196 07       		.uleb128 0x7
 466 0197 F3040000 		.4byte	.LASF34
 467 019b 09       		.byte	0x9
 468 019c D9       		.byte	0xd9
 469 019d DE000000 		.4byte	0xde
 470 01a1 1C       		.byte	0x1c
 471 01a2 07       		.uleb128 0x7
 472 01a3 18050000 		.4byte	.LASF35
 473 01a7 09       		.byte	0x9
 474 01a8 DD       		.byte	0xdd
 475 01a9 D3000000 		.4byte	0xd3
 476 01ad 1D       		.byte	0x1d
 477 01ae 07       		.uleb128 0x7
 478 01af 17030000 		.4byte	.LASF36
 479 01b3 09       		.byte	0x9
 480 01b4 E2       		.byte	0xe2
 481 01b5 E9000000 		.4byte	0xe9
 482 01b9 1E       		.byte	0x1e
 483 01ba 08       		.uleb128 0x8
 484 01bb 705F7500 		.ascii	"p_u\000"
 485 01bf 09       		.byte	0x9
 486 01c0 1401     		.2byte	0x114
 487 01c2 D3050000 		.4byte	0x5d3
 488 01c6 20       		.byte	0x20
 489 01c7 09       		.uleb128 0x9
 490 01c8 AB020000 		.4byte	.LASF37
 491 01cc 09       		.byte	0x9
 492 01cd 1901     		.2byte	0x119
 493 01cf 23020000 		.4byte	0x223
 494 01d3 24       		.byte	0x24
 495 01d4 09       		.uleb128 0x9
 496 01d5 B4010000 		.4byte	.LASF38
 497 01d9 09       		.byte	0x9
 498 01da 1F01     		.2byte	0x11f
 499 01dc 47020000 		.4byte	0x247
 500 01e0 28       		.byte	0x28
 501 01e1 09       		.uleb128 0x9
 502 01e2 E0060000 		.4byte	.LASF39
 503 01e6 09       		.byte	0x9
 504 01e7 2301     		.2byte	0x123
 505 01e9 FF000000 		.4byte	0xff
 506 01ed 30       		.byte	0x30
 507 01ee 09       		.uleb128 0x9
 508 01ef 6C050000 		.4byte	.LASF40
 509 01f3 09       		.byte	0x9
 510 01f4 2901     		.2byte	0x129
 511 01f6 0A010000 		.4byte	0x10a
 512 01fa 34       		.byte	0x34
 513 01fb 09       		.uleb128 0x9
ARM GAS  /tmp/cc9XTc7L.s 			page 10


 514 01fc DF040000 		.4byte	.LASF41
 515 0200 09       		.byte	0x9
 516 0201 3001     		.2byte	0x130
 517 0203 4E060000 		.4byte	0x64e
 518 0207 38       		.byte	0x38
 519 0208 09       		.uleb128 0x9
 520 0209 06060000 		.4byte	.LASF42
 521 020d 09       		.byte	0x9
 522 020e 3401     		.2byte	0x134
 523 0210 F4000000 		.4byte	0xf4
 524 0214 3C       		.byte	0x3c
 525 0215 09       		.uleb128 0x9
 526 0216 F5000000 		.4byte	.LASF43
 527 021a 09       		.byte	0x9
 528 021b 3A01     		.2byte	0x13a
 529 021d FA020000 		.4byte	0x2fa
 530 0221 40       		.byte	0x40
 531 0222 00       		.byte	0
 532 0223 04       		.uleb128 0x4
 533 0224 C5060000 		.4byte	.LASF44
 534 0228 08       		.byte	0x8
 535 0229 44       		.byte	0x44
 536 022a 2E020000 		.4byte	0x22e
 537 022e 06       		.uleb128 0x6
 538 022f 88050000 		.4byte	.LASF46
 539 0233 04       		.byte	0x4
 540 0234 09       		.byte	0x9
 541 0235 AC       		.byte	0xac
 542 0236 47020000 		.4byte	0x247
 543 023a 07       		.uleb128 0x7
 544 023b 09050000 		.4byte	.LASF27
 545 023f 09       		.byte	0x9
 546 0240 AD       		.byte	0xad
 547 0241 CD050000 		.4byte	0x5cd
 548 0245 00       		.byte	0
 549 0246 00       		.byte	0
 550 0247 04       		.uleb128 0x4
 551 0248 7A060000 		.4byte	.LASF47
 552 024c 08       		.byte	0x8
 553 024d 4B       		.byte	0x4b
 554 024e 52020000 		.4byte	0x252
 555 0252 06       		.uleb128 0x6
 556 0253 C3000000 		.4byte	.LASF48
 557 0257 08       		.byte	0x8
 558 0258 09       		.byte	0x9
 559 0259 B3       		.byte	0xb3
 560 025a 77020000 		.4byte	0x277
 561 025e 07       		.uleb128 0x7
 562 025f 09050000 		.4byte	.LASF27
 563 0263 09       		.byte	0x9
 564 0264 B4       		.byte	0xb4
 565 0265 CD050000 		.4byte	0x5cd
 566 0269 00       		.byte	0
 567 026a 07       		.uleb128 0x7
 568 026b 76040000 		.4byte	.LASF28
 569 026f 09       		.byte	0x9
 570 0270 B5       		.byte	0xb5
ARM GAS  /tmp/cc9XTc7L.s 			page 11


 571 0271 CD050000 		.4byte	0x5cd
 572 0275 04       		.byte	0x4
 573 0276 00       		.byte	0
 574 0277 04       		.uleb128 0x4
 575 0278 0C000000 		.4byte	.LASF49
 576 027c 08       		.byte	0x8
 577 027d 52       		.byte	0x52
 578 027e 82020000 		.4byte	0x282
 579 0282 0A       		.uleb128 0xa
 580 0283 3D020000 		.4byte	.LASF50
 581 0287 1C       		.byte	0x1c
 582 0288 09       		.byte	0x9
 583 0289 7201     		.2byte	0x172
 584 028b DE020000 		.4byte	0x2de
 585 028f 09       		.uleb128 0x9
 586 0290 80050000 		.4byte	.LASF51
 587 0294 09       		.byte	0x9
 588 0295 7301     		.2byte	0x173
 589 0297 47020000 		.4byte	0x247
 590 029b 00       		.byte	0
 591 029c 09       		.uleb128 0x9
 592 029d FB040000 		.4byte	.LASF52
 593 02a1 09       		.byte	0x9
 594 02a2 7401     		.2byte	0x174
 595 02a4 F4000000 		.4byte	0xf4
 596 02a8 08       		.byte	0x8
 597 02a9 09       		.uleb128 0x9
 598 02aa F8020000 		.4byte	.LASF53
 599 02ae 09       		.byte	0x9
 600 02af 7601     		.2byte	0x176
 601 02b1 4D040000 		.4byte	0x44d
 602 02b5 0C       		.byte	0xc
 603 02b6 09       		.uleb128 0x9
 604 02b7 51010000 		.4byte	.LASF54
 605 02bb 09       		.byte	0x9
 606 02bc 7901     		.2byte	0x179
 607 02be CD050000 		.4byte	0x5cd
 608 02c2 10       		.byte	0x10
 609 02c3 09       		.uleb128 0x9
 610 02c4 28030000 		.4byte	.LASF55
 611 02c8 09       		.byte	0x9
 612 02c9 7A01     		.2byte	0x17a
 613 02cb CD050000 		.4byte	0x5cd
 614 02cf 14       		.byte	0x14
 615 02d0 09       		.uleb128 0x9
 616 02d1 1E030000 		.4byte	.LASF56
 617 02d5 09       		.byte	0x9
 618 02d6 7D01     		.2byte	0x17d
 619 02d8 CD050000 		.4byte	0x5cd
 620 02dc 18       		.byte	0x18
 621 02dd 00       		.byte	0
 622 02de 04       		.uleb128 0x4
 623 02df 11060000 		.4byte	.LASF57
 624 02e3 08       		.byte	0x8
 625 02e4 57       		.byte	0x57
 626 02e5 E9020000 		.4byte	0x2e9
 627 02e9 0B       		.uleb128 0xb
ARM GAS  /tmp/cc9XTc7L.s 			page 12


 628 02ea 04       		.byte	0x4
 629 02eb EF020000 		.4byte	0x2ef
 630 02ef 0C       		.uleb128 0xc
 631 02f0 FA020000 		.4byte	0x2fa
 632 02f4 0D       		.uleb128 0xd
 633 02f5 FA020000 		.4byte	0x2fa
 634 02f9 00       		.byte	0
 635 02fa 0E       		.uleb128 0xe
 636 02fb 04       		.byte	0x4
 637 02fc 04       		.uleb128 0x4
 638 02fd 66040000 		.4byte	.LASF58
 639 0301 08       		.byte	0x8
 640 0302 5C       		.byte	0x5c
 641 0303 07030000 		.4byte	0x307
 642 0307 0A       		.uleb128 0xa
 643 0308 50050000 		.4byte	.LASF59
 644 030c 14       		.byte	0x14
 645 030d 09       		.byte	0x9
 646 030e 4D01     		.2byte	0x14d
 647 0310 56030000 		.4byte	0x356
 648 0314 09       		.uleb128 0x9
 649 0315 A3010000 		.4byte	.LASF60
 650 0319 09       		.byte	0x9
 651 031a 4E01     		.2byte	0x14e
 652 031c 54060000 		.4byte	0x654
 653 0320 00       		.byte	0
 654 0321 09       		.uleb128 0x9
 655 0322 62010000 		.4byte	.LASF61
 656 0326 09       		.byte	0x9
 657 0327 4F01     		.2byte	0x14f
 658 0329 54060000 		.4byte	0x654
 659 032d 04       		.byte	0x4
 660 032e 09       		.uleb128 0x9
 661 032f AB010000 		.4byte	.LASF62
 662 0333 09       		.byte	0x9
 663 0334 5001     		.2byte	0x150
 664 0336 20010000 		.4byte	0x120
 665 033a 08       		.byte	0x8
 666 033b 09       		.uleb128 0x9
 667 033c 08070000 		.4byte	.LASF63
 668 0340 09       		.byte	0x9
 669 0341 5101     		.2byte	0x151
 670 0343 DE020000 		.4byte	0x2de
 671 0347 0C       		.byte	0xc
 672 0348 09       		.uleb128 0x9
 673 0349 6C060000 		.4byte	.LASF64
 674 034d 09       		.byte	0x9
 675 034e 5301     		.2byte	0x153
 676 0350 FA020000 		.4byte	0x2fa
 677 0354 10       		.byte	0x10
 678 0355 00       		.byte	0
 679 0356 04       		.uleb128 0x4
 680 0357 9A000000 		.4byte	.LASF65
 681 035b 08       		.byte	0x8
 682 035c 61       		.byte	0x61
 683 035d 61030000 		.4byte	0x361
 684 0361 0A       		.uleb128 0xa
ARM GAS  /tmp/cc9XTc7L.s 			page 13


 685 0362 C4020000 		.4byte	.LASF66
 686 0366 10       		.byte	0x10
 687 0367 09       		.byte	0x9
 688 0368 5D01     		.2byte	0x15d
 689 036a A3030000 		.4byte	0x3a3
 690 036e 09       		.uleb128 0x9
 691 036f A3010000 		.4byte	.LASF60
 692 0373 09       		.byte	0x9
 693 0374 5E01     		.2byte	0x15e
 694 0376 54060000 		.4byte	0x654
 695 037a 00       		.byte	0
 696 037b 09       		.uleb128 0x9
 697 037c 62010000 		.4byte	.LASF61
 698 0380 09       		.byte	0x9
 699 0381 6001     		.2byte	0x160
 700 0383 54060000 		.4byte	0x654
 701 0387 04       		.byte	0x4
 702 0388 09       		.uleb128 0x9
 703 0389 AB010000 		.4byte	.LASF62
 704 038d 09       		.byte	0x9
 705 038e 6201     		.2byte	0x162
 706 0390 20010000 		.4byte	0x120
 707 0394 08       		.byte	0x8
 708 0395 09       		.uleb128 0x9
 709 0396 DB020000 		.4byte	.LASF67
 710 039a 09       		.byte	0x9
 711 039b 6A01     		.2byte	0x16a
 712 039d 20010000 		.4byte	0x120
 713 03a1 0C       		.byte	0xc
 714 03a2 00       		.byte	0
 715 03a3 04       		.uleb128 0x4
 716 03a4 4B000000 		.4byte	.LASF68
 717 03a8 08       		.byte	0x8
 718 03a9 66       		.byte	0x66
 719 03aa AE030000 		.4byte	0x3ae
 720 03ae 0A       		.uleb128 0xa
 721 03af 9E040000 		.4byte	.LASF69
 722 03b3 04       		.byte	0x4
 723 03b4 09       		.byte	0x9
 724 03b5 8401     		.2byte	0x184
 725 03b7 C9030000 		.4byte	0x3c9
 726 03bb 09       		.uleb128 0x9
 727 03bc 33060000 		.4byte	.LASF70
 728 03c0 09       		.byte	0x9
 729 03c1 8C01     		.2byte	0x18c
 730 03c3 5A060000 		.4byte	0x65a
 731 03c7 00       		.byte	0
 732 03c8 00       		.byte	0
 733 03c9 04       		.uleb128 0x4
 734 03ca 1C020000 		.4byte	.LASF71
 735 03ce 08       		.byte	0x8
 736 03cf 6B       		.byte	0x6b
 737 03d0 D4030000 		.4byte	0x3d4
 738 03d4 0F       		.uleb128 0xf
 739 03d5 18010000 		.4byte	.LASF72
 740 03d9 D801     		.2byte	0x1d8
 741 03db 09       		.byte	0x9
ARM GAS  /tmp/cc9XTc7L.s 			page 14


 742 03dc A401     		.2byte	0x1a4
 743 03de 30040000 		.4byte	0x430
 744 03e2 09       		.uleb128 0x9
 745 03e3 92060000 		.4byte	.LASF73
 746 03e7 09       		.byte	0x9
 747 03e8 A801     		.2byte	0x1a8
 748 03ea 77020000 		.4byte	0x277
 749 03ee 00       		.byte	0
 750 03ef 09       		.uleb128 0x9
 751 03f0 05010000 		.4byte	.LASF74
 752 03f4 09       		.byte	0x9
 753 03f5 AC01     		.2byte	0x1ac
 754 03f7 56030000 		.4byte	0x356
 755 03fb 1C       		.byte	0x1c
 756 03fc 08       		.uleb128 0x8
 757 03fd 64626700 		.ascii	"dbg\000"
 758 0401 09       		.byte	0x9
 759 0402 B001     		.2byte	0x1b0
 760 0404 A3030000 		.4byte	0x3a3
 761 0408 2C       		.byte	0x2c
 762 0409 09       		.uleb128 0x9
 763 040a F6010000 		.4byte	.LASF75
 764 040e 09       		.byte	0x9
 765 040f B401     		.2byte	0x1b4
 766 0411 2B010000 		.4byte	0x12b
 767 0415 30       		.byte	0x30
 768 0416 08       		.uleb128 0x8
 769 0417 746D00   		.ascii	"tm\000"
 770 041a 09       		.byte	0x9
 771 041b B901     		.2byte	0x1b9
 772 041d C2050000 		.4byte	0x5c2
 773 0421 74       		.byte	0x74
 774 0422 09       		.uleb128 0x9
 775 0423 87010000 		.4byte	.LASF76
 776 0427 09       		.byte	0x9
 777 0428 C501     		.2byte	0x1c5
 778 042a 5F060000 		.4byte	0x65f
 779 042e 78       		.byte	0x78
 780 042f 00       		.byte	0
 781 0430 03       		.uleb128 0x3
 782 0431 04       		.byte	0x4
 783 0432 07       		.byte	0x7
 784 0433 BB020000 		.4byte	.LASF77
 785 0437 04       		.uleb128 0x4
 786 0438 59010000 		.4byte	.LASF78
 787 043c 0A       		.byte	0xa
 788 043d 85       		.byte	0x85
 789 043e FA020000 		.4byte	0x2fa
 790 0442 04       		.uleb128 0x4
 791 0443 6F020000 		.4byte	.LASF79
 792 0447 0A       		.byte	0xa
 793 0448 8D       		.byte	0x8d
 794 0449 B8000000 		.4byte	0xb8
 795 044d 06       		.uleb128 0x6
 796 044e 44060000 		.4byte	.LASF80
 797 0452 04       		.byte	0x4
 798 0453 0A       		.byte	0xa
ARM GAS  /tmp/cc9XTc7L.s 			page 15


 799 0454 A9       		.byte	0xa9
 800 0455 66040000 		.4byte	0x466
 801 0459 10       		.uleb128 0x10
 802 045a 72313300 		.ascii	"r13\000"
 803 045e 0A       		.byte	0xa
 804 045f AA       		.byte	0xaa
 805 0460 A7050000 		.4byte	0x5a7
 806 0464 00       		.byte	0
 807 0465 00       		.byte	0
 808 0466 06       		.uleb128 0x6
 809 0467 3F000000 		.4byte	.LASF81
 810 046b 64       		.byte	0x64
 811 046c 0B       		.byte	0xb
 812 046d F4       		.byte	0xf4
 813 046e A7050000 		.4byte	0x5a7
 814 0472 10       		.uleb128 0x10
 815 0473 73313600 		.ascii	"s16\000"
 816 0477 0B       		.byte	0xb
 817 0478 F6       		.byte	0xf6
 818 0479 37040000 		.4byte	0x437
 819 047d 00       		.byte	0
 820 047e 10       		.uleb128 0x10
 821 047f 73313700 		.ascii	"s17\000"
 822 0483 0B       		.byte	0xb
 823 0484 F7       		.byte	0xf7
 824 0485 37040000 		.4byte	0x437
 825 0489 04       		.byte	0x4
 826 048a 10       		.uleb128 0x10
 827 048b 73313800 		.ascii	"s18\000"
 828 048f 0B       		.byte	0xb
 829 0490 F8       		.byte	0xf8
 830 0491 37040000 		.4byte	0x437
 831 0495 08       		.byte	0x8
 832 0496 10       		.uleb128 0x10
 833 0497 73313900 		.ascii	"s19\000"
 834 049b 0B       		.byte	0xb
 835 049c F9       		.byte	0xf9
 836 049d 37040000 		.4byte	0x437
 837 04a1 0C       		.byte	0xc
 838 04a2 10       		.uleb128 0x10
 839 04a3 73323000 		.ascii	"s20\000"
 840 04a7 0B       		.byte	0xb
 841 04a8 FA       		.byte	0xfa
 842 04a9 37040000 		.4byte	0x437
 843 04ad 10       		.byte	0x10
 844 04ae 10       		.uleb128 0x10
 845 04af 73323100 		.ascii	"s21\000"
 846 04b3 0B       		.byte	0xb
 847 04b4 FB       		.byte	0xfb
 848 04b5 37040000 		.4byte	0x437
 849 04b9 14       		.byte	0x14
 850 04ba 10       		.uleb128 0x10
 851 04bb 73323200 		.ascii	"s22\000"
 852 04bf 0B       		.byte	0xb
 853 04c0 FC       		.byte	0xfc
 854 04c1 37040000 		.4byte	0x437
 855 04c5 18       		.byte	0x18
ARM GAS  /tmp/cc9XTc7L.s 			page 16


 856 04c6 10       		.uleb128 0x10
 857 04c7 73323300 		.ascii	"s23\000"
 858 04cb 0B       		.byte	0xb
 859 04cc FD       		.byte	0xfd
 860 04cd 37040000 		.4byte	0x437
 861 04d1 1C       		.byte	0x1c
 862 04d2 10       		.uleb128 0x10
 863 04d3 73323400 		.ascii	"s24\000"
 864 04d7 0B       		.byte	0xb
 865 04d8 FE       		.byte	0xfe
 866 04d9 37040000 		.4byte	0x437
 867 04dd 20       		.byte	0x20
 868 04de 10       		.uleb128 0x10
 869 04df 73323500 		.ascii	"s25\000"
 870 04e3 0B       		.byte	0xb
 871 04e4 FF       		.byte	0xff
 872 04e5 37040000 		.4byte	0x437
 873 04e9 24       		.byte	0x24
 874 04ea 08       		.uleb128 0x8
 875 04eb 73323600 		.ascii	"s26\000"
 876 04ef 0B       		.byte	0xb
 877 04f0 0001     		.2byte	0x100
 878 04f2 37040000 		.4byte	0x437
 879 04f6 28       		.byte	0x28
 880 04f7 08       		.uleb128 0x8
 881 04f8 73323700 		.ascii	"s27\000"
 882 04fc 0B       		.byte	0xb
 883 04fd 0101     		.2byte	0x101
 884 04ff 37040000 		.4byte	0x437
 885 0503 2C       		.byte	0x2c
 886 0504 08       		.uleb128 0x8
 887 0505 73323800 		.ascii	"s28\000"
 888 0509 0B       		.byte	0xb
 889 050a 0201     		.2byte	0x102
 890 050c 37040000 		.4byte	0x437
 891 0510 30       		.byte	0x30
 892 0511 08       		.uleb128 0x8
 893 0512 73323900 		.ascii	"s29\000"
 894 0516 0B       		.byte	0xb
 895 0517 0301     		.2byte	0x103
 896 0519 37040000 		.4byte	0x437
 897 051d 34       		.byte	0x34
 898 051e 08       		.uleb128 0x8
 899 051f 73333000 		.ascii	"s30\000"
 900 0523 0B       		.byte	0xb
 901 0524 0401     		.2byte	0x104
 902 0526 37040000 		.4byte	0x437
 903 052a 38       		.byte	0x38
 904 052b 08       		.uleb128 0x8
 905 052c 73333100 		.ascii	"s31\000"
 906 0530 0B       		.byte	0xb
 907 0531 0501     		.2byte	0x105
 908 0533 37040000 		.4byte	0x437
 909 0537 3C       		.byte	0x3c
 910 0538 08       		.uleb128 0x8
 911 0539 723400   		.ascii	"r4\000"
 912 053c 0B       		.byte	0xb
ARM GAS  /tmp/cc9XTc7L.s 			page 17


 913 053d 0701     		.2byte	0x107
 914 053f 37040000 		.4byte	0x437
 915 0543 40       		.byte	0x40
 916 0544 08       		.uleb128 0x8
 917 0545 723500   		.ascii	"r5\000"
 918 0548 0B       		.byte	0xb
 919 0549 0801     		.2byte	0x108
 920 054b 37040000 		.4byte	0x437
 921 054f 44       		.byte	0x44
 922 0550 08       		.uleb128 0x8
 923 0551 723600   		.ascii	"r6\000"
 924 0554 0B       		.byte	0xb
 925 0555 0901     		.2byte	0x109
 926 0557 37040000 		.4byte	0x437
 927 055b 48       		.byte	0x48
 928 055c 08       		.uleb128 0x8
 929 055d 723700   		.ascii	"r7\000"
 930 0560 0B       		.byte	0xb
 931 0561 0A01     		.2byte	0x10a
 932 0563 37040000 		.4byte	0x437
 933 0567 4C       		.byte	0x4c
 934 0568 08       		.uleb128 0x8
 935 0569 723800   		.ascii	"r8\000"
 936 056c 0B       		.byte	0xb
 937 056d 0B01     		.2byte	0x10b
 938 056f 37040000 		.4byte	0x437
 939 0573 50       		.byte	0x50
 940 0574 08       		.uleb128 0x8
 941 0575 723900   		.ascii	"r9\000"
 942 0578 0B       		.byte	0xb
 943 0579 0C01     		.2byte	0x10c
 944 057b 37040000 		.4byte	0x437
 945 057f 54       		.byte	0x54
 946 0580 08       		.uleb128 0x8
 947 0581 72313000 		.ascii	"r10\000"
 948 0585 0B       		.byte	0xb
 949 0586 0D01     		.2byte	0x10d
 950 0588 37040000 		.4byte	0x437
 951 058c 58       		.byte	0x58
 952 058d 08       		.uleb128 0x8
 953 058e 72313100 		.ascii	"r11\000"
 954 0592 0B       		.byte	0xb
 955 0593 0E01     		.2byte	0x10e
 956 0595 37040000 		.4byte	0x437
 957 0599 5C       		.byte	0x5c
 958 059a 08       		.uleb128 0x8
 959 059b 6C7200   		.ascii	"lr\000"
 960 059e 0B       		.byte	0xb
 961 059f 0F01     		.2byte	0x10f
 962 05a1 37040000 		.4byte	0x437
 963 05a5 60       		.byte	0x60
 964 05a6 00       		.byte	0
 965 05a7 0B       		.uleb128 0xb
 966 05a8 04       		.byte	0x4
 967 05a9 66040000 		.4byte	0x466
 968 05ad 11       		.uleb128 0x11
 969 05ae 04       		.byte	0x4
ARM GAS  /tmp/cc9XTc7L.s 			page 18


 970 05af 0C       		.byte	0xc
 971 05b0 38       		.byte	0x38
 972 05b1 C2050000 		.4byte	0x5c2
 973 05b5 07       		.uleb128 0x7
 974 05b6 3D060000 		.4byte	.LASF82
 975 05ba 0C       		.byte	0xc
 976 05bb 3C       		.byte	0x3c
 977 05bc C8000000 		.4byte	0xc8
 978 05c0 00       		.byte	0
 979 05c1 00       		.byte	0
 980 05c2 04       		.uleb128 0x4
 981 05c3 06030000 		.4byte	.LASF83
 982 05c7 0C       		.byte	0xc
 983 05c8 3D       		.byte	0x3d
 984 05c9 AD050000 		.4byte	0x5ad
 985 05cd 0B       		.uleb128 0xb
 986 05ce 04       		.byte	0x4
 987 05cf 2B010000 		.4byte	0x12b
 988 05d3 12       		.uleb128 0x12
 989 05d4 04       		.byte	0x4
 990 05d5 09       		.byte	0x9
 991 05d6 F6       		.byte	0xf6
 992 05d7 0B060000 		.4byte	0x60b
 993 05db 13       		.uleb128 0x13
 994 05dc 19000000 		.4byte	.LASF84
 995 05e0 09       		.byte	0x9
 996 05e1 FD       		.byte	0xfd
 997 05e2 FF000000 		.4byte	0xff
 998 05e6 14       		.uleb128 0x14
 999 05e7 88000000 		.4byte	.LASF85
 1000 05eb 09       		.byte	0x9
 1001 05ec 0401     		.2byte	0x104
 1002 05ee FF000000 		.4byte	0xff
 1003 05f2 14       		.uleb128 0x14
 1004 05f3 36020000 		.4byte	.LASF86
 1005 05f7 09       		.byte	0x9
 1006 05f8 0B01     		.2byte	0x10b
 1007 05fa FA020000 		.4byte	0x2fa
 1008 05fe 14       		.uleb128 0x14
 1009 05ff 02050000 		.4byte	.LASF87
 1010 0603 09       		.byte	0x9
 1011 0604 1201     		.2byte	0x112
 1012 0606 0A010000 		.4byte	0x10a
 1013 060a 00       		.byte	0
 1014 060b 0B       		.uleb128 0xb
 1015 060c 04       		.byte	0x4
 1016 060d 11060000 		.4byte	0x611
 1017 0611 15       		.uleb128 0x15
 1018 0612 16060000 		.4byte	0x616
 1019 0616 03       		.uleb128 0x3
 1020 0617 01       		.byte	0x1
 1021 0618 08       		.byte	0x8
 1022 0619 CC050000 		.4byte	.LASF88
 1023 061d 06       		.uleb128 0x6
 1024 061e 98040000 		.4byte	.LASF89
 1025 0622 10       		.byte	0x10
 1026 0623 0D       		.byte	0xd
ARM GAS  /tmp/cc9XTc7L.s 			page 19


 1027 0624 39       		.byte	0x39
 1028 0625 4E060000 		.4byte	0x64e
 1029 0629 07       		.uleb128 0x7
 1030 062a FD000000 		.4byte	.LASF90
 1031 062e 0D       		.byte	0xd
 1032 062f 3A       		.byte	0x3a
 1033 0630 47020000 		.4byte	0x247
 1034 0634 00       		.byte	0
 1035 0635 07       		.uleb128 0x7
 1036 0636 FA060000 		.4byte	.LASF91
 1037 063a 0D       		.byte	0xd
 1038 063b 3C       		.byte	0x3c
 1039 063c CD050000 		.4byte	0x5cd
 1040 0640 08       		.byte	0x8
 1041 0641 07       		.uleb128 0x7
 1042 0642 F5050000 		.4byte	.LASF92
 1043 0646 0D       		.byte	0xd
 1044 0647 3E       		.byte	0x3e
 1045 0648 7A060000 		.4byte	0x67a
 1046 064c 0C       		.byte	0xc
 1047 064d 00       		.byte	0
 1048 064e 0B       		.uleb128 0xb
 1049 064f 04       		.byte	0x4
 1050 0650 1D060000 		.4byte	0x61d
 1051 0654 0B       		.uleb128 0xb
 1052 0655 04       		.byte	0x4
 1053 0656 FC020000 		.4byte	0x2fc
 1054 065a 05       		.uleb128 0x5
 1055 065b 0B060000 		.4byte	0x60b
 1056 065f 16       		.uleb128 0x16
 1057 0660 42040000 		.4byte	0x442
 1058 0664 6F060000 		.4byte	0x66f
 1059 0668 17       		.uleb128 0x17
 1060 0669 30040000 		.4byte	0x430
 1061 066d 2B       		.byte	0x2b
 1062 066e 00       		.byte	0
 1063 066f 04       		.uleb128 0x4
 1064 0670 6A010000 		.4byte	.LASF93
 1065 0674 0D       		.byte	0xd
 1066 0675 34       		.byte	0x34
 1067 0676 1D060000 		.4byte	0x61d
 1068 067a 0B       		.uleb128 0xb
 1069 067b 04       		.byte	0x4
 1070 067c 6F060000 		.4byte	0x66f
 1071 0680 04       		.uleb128 0x4
 1072 0681 9A020000 		.4byte	.LASF94
 1073 0685 03       		.byte	0x3
 1074 0686 34       		.byte	0x34
 1075 0687 8B060000 		.4byte	0x68b
 1076 068b 06       		.uleb128 0x6
 1077 068c 10070000 		.4byte	.LASF95
 1078 0690 14       		.byte	0x14
 1079 0691 03       		.byte	0x3
 1080 0692 39       		.byte	0x39
 1081 0693 D4060000 		.4byte	0x6d4
 1082 0697 07       		.uleb128 0x7
 1083 0698 14020000 		.4byte	.LASF96
ARM GAS  /tmp/cc9XTc7L.s 			page 20


 1084 069c 03       		.byte	0x3
 1085 069d 3A       		.byte	0x3a
 1086 069e D4060000 		.4byte	0x6d4
 1087 06a2 00       		.byte	0
 1088 06a3 07       		.uleb128 0x7
 1089 06a4 CA040000 		.4byte	.LASF97
 1090 06a8 03       		.byte	0x3
 1091 06a9 3D       		.byte	0x3d
 1092 06aa CD050000 		.4byte	0x5cd
 1093 06ae 04       		.byte	0x4
 1094 06af 07       		.uleb128 0x7
 1095 06b0 49040000 		.4byte	.LASF98
 1096 06b4 03       		.byte	0x3
 1097 06b5 3F       		.byte	0x3f
 1098 06b6 0A010000 		.4byte	0x10a
 1099 06ba 08       		.byte	0x8
 1100 06bb 07       		.uleb128 0x7
 1101 06bc D6040000 		.4byte	.LASF99
 1102 06c0 03       		.byte	0x3
 1103 06c1 41       		.byte	0x41
 1104 06c2 15010000 		.4byte	0x115
 1105 06c6 0C       		.byte	0xc
 1106 06c7 07       		.uleb128 0x7
 1107 06c8 EC010000 		.4byte	.LASF100
 1108 06cc 03       		.byte	0x3
 1109 06cd 43       		.byte	0x43
 1110 06ce 15010000 		.4byte	0x115
 1111 06d2 10       		.byte	0x10
 1112 06d3 00       		.byte	0
 1113 06d4 0B       		.uleb128 0xb
 1114 06d5 04       		.byte	0x4
 1115 06d6 80060000 		.4byte	0x680
 1116 06da 06       		.uleb128 0x6
 1117 06db 98060000 		.4byte	.LASF101
 1118 06df 04       		.byte	0x4
 1119 06e0 03       		.byte	0x3
 1120 06e1 4A       		.byte	0x4a
 1121 06e2 F3060000 		.4byte	0x6f3
 1122 06e6 07       		.uleb128 0x7
 1123 06e7 8A060000 		.4byte	.LASF102
 1124 06eb 03       		.byte	0x3
 1125 06ec 4B       		.byte	0x4b
 1126 06ed D4060000 		.4byte	0x6d4
 1127 06f1 00       		.byte	0
 1128 06f2 00       		.byte	0
 1129 06f3 04       		.uleb128 0x4
 1130 06f4 78010000 		.4byte	.LASF103
 1131 06f8 03       		.byte	0x3
 1132 06f9 4E       		.byte	0x4e
 1133 06fa DA060000 		.4byte	0x6da
 1134 06fe 11       		.uleb128 0x11
 1135 06ff 1C       		.byte	0x1c
 1136 0700 0E       		.byte	0xe
 1137 0701 36       		.byte	0x36
 1138 0702 2B070000 		.4byte	0x72b
 1139 0706 07       		.uleb128 0x7
 1140 0707 F4060000 		.4byte	.LASF104
ARM GAS  /tmp/cc9XTc7L.s 			page 21


 1141 070b 0E       		.byte	0xe
 1142 070c 37       		.byte	0x37
 1143 070d FC020000 		.4byte	0x2fc
 1144 0711 00       		.byte	0
 1145 0712 07       		.uleb128 0x7
 1146 0713 B5020000 		.4byte	.LASF105
 1147 0717 0E       		.byte	0xe
 1148 0718 38       		.byte	0x38
 1149 0719 F3060000 		.4byte	0x6f3
 1150 071d 14       		.byte	0x14
 1151 071e 07       		.uleb128 0x7
 1152 071f 00000000 		.4byte	.LASF106
 1153 0723 0E       		.byte	0xe
 1154 0724 39       		.byte	0x39
 1155 0725 20010000 		.4byte	0x120
 1156 0729 18       		.byte	0x18
 1157 072a 00       		.byte	0
 1158 072b 04       		.uleb128 0x4
 1159 072c E6060000 		.4byte	.LASF107
 1160 0730 0E       		.byte	0xe
 1161 0731 3A       		.byte	0x3a
 1162 0732 FE060000 		.4byte	0x6fe
 1163 0736 18       		.uleb128 0x18
 1164 0737 25060000 		.4byte	.LASF112
 1165 073b 02       		.byte	0x2
 1166 073c 2002     		.2byte	0x220
 1167 073e 03       		.byte	0x3
 1168 073f 50070000 		.4byte	0x750
 1169 0743 19       		.uleb128 0x19
 1170 0744 72010000 		.4byte	.LASF114
 1171 0748 02       		.byte	0x2
 1172 0749 2002     		.2byte	0x220
 1173 074b AD000000 		.4byte	0xad
 1174 074f 00       		.byte	0
 1175 0750 1A       		.uleb128 0x1a
 1176 0751 5A000000 		.4byte	.LASF108
 1177 0755 0B       		.byte	0xb
 1178 0756 BB01     		.2byte	0x1bb
 1179 0758 03       		.byte	0x3
 1180 0759 1A       		.uleb128 0x1a
 1181 075a 0C010000 		.4byte	.LASF109
 1182 075e 0B       		.byte	0xb
 1183 075f C901     		.2byte	0x1c9
 1184 0761 03       		.byte	0x3
 1185 0762 1A       		.uleb128 0x1a
 1186 0763 54060000 		.4byte	.LASF110
 1187 0767 0B       		.byte	0xb
 1188 0768 D801     		.2byte	0x1d8
 1189 076a 03       		.byte	0x3
 1190 076b 1A       		.uleb128 0x1a
 1191 076c D7050000 		.4byte	.LASF111
 1192 0770 0B       		.byte	0xb
 1193 0771 E301     		.2byte	0x1e3
 1194 0773 03       		.byte	0x3
 1195 0774 1B       		.uleb128 0x1b
 1196 0775 60020000 		.4byte	.LASF113
 1197 0779 04       		.byte	0x4
ARM GAS  /tmp/cc9XTc7L.s 			page 22


 1198 077a D0       		.byte	0xd0
 1199 077b 03       		.byte	0x3
 1200 077c 8C070000 		.4byte	0x78c
 1201 0780 1C       		.uleb128 0x1c
 1202 0781 76747000 		.ascii	"vtp\000"
 1203 0785 04       		.byte	0x4
 1204 0786 D0       		.byte	0xd0
 1205 0787 54060000 		.4byte	0x654
 1206 078b 00       		.byte	0
 1207 078c 1D       		.uleb128 0x1d
 1208 078d 33050000 		.4byte	.LASF136
 1209 0791 04       		.byte	0x4
 1210 0792 4F01     		.2byte	0x14f
 1211 0794 AA070000 		.4byte	0x7aa
 1212 0798 03       		.byte	0x3
 1213 0799 AA070000 		.4byte	0x7aa
 1214 079d 1E       		.uleb128 0x1e
 1215 079e 76747000 		.ascii	"vtp\000"
 1216 07a2 04       		.byte	0x4
 1217 07a3 4F01     		.2byte	0x14f
 1218 07a5 54060000 		.4byte	0x654
 1219 07a9 00       		.byte	0
 1220 07aa 03       		.uleb128 0x3
 1221 07ab 01       		.byte	0x1
 1222 07ac 02       		.byte	0x2
 1223 07ad AE040000 		.4byte	.LASF115
 1224 07b1 1A       		.uleb128 0x1a
 1225 07b2 AD060000 		.4byte	.LASF116
 1226 07b6 0F       		.byte	0xf
 1227 07b7 5001     		.2byte	0x150
 1228 07b9 03       		.byte	0x3
 1229 07ba 1B       		.uleb128 0x1b
 1230 07bb 40050000 		.4byte	.LASF117
 1231 07bf 03       		.byte	0x3
 1232 07c0 FE       		.byte	0xfe
 1233 07c1 03       		.byte	0x3
 1234 07c2 D2070000 		.4byte	0x7d2
 1235 07c6 1C       		.uleb128 0x1c
 1236 07c7 65737000 		.ascii	"esp\000"
 1237 07cb 03       		.byte	0x3
 1238 07cc FE       		.byte	0xfe
 1239 07cd D2070000 		.4byte	0x7d2
 1240 07d1 00       		.byte	0
 1241 07d2 0B       		.uleb128 0xb
 1242 07d3 04       		.byte	0x4
 1243 07d4 F3060000 		.4byte	0x6f3
 1244 07d8 1A       		.uleb128 0x1a
 1245 07d9 85040000 		.4byte	.LASF118
 1246 07dd 0F       		.byte	0xf
 1247 07de 6401     		.2byte	0x164
 1248 07e0 03       		.byte	0x3
 1249 07e1 18       		.uleb128 0x18
 1250 07e2 61050000 		.4byte	.LASF119
 1251 07e6 04       		.byte	0x4
 1252 07e7 6001     		.2byte	0x160
 1253 07e9 03       		.byte	0x3
 1254 07ea FB070000 		.4byte	0x7fb
ARM GAS  /tmp/cc9XTc7L.s 			page 23


 1255 07ee 1E       		.uleb128 0x1e
 1256 07ef 76747000 		.ascii	"vtp\000"
 1257 07f3 04       		.byte	0x4
 1258 07f4 6001     		.2byte	0x160
 1259 07f6 54060000 		.4byte	0x654
 1260 07fa 00       		.byte	0
 1261 07fb 1A       		.uleb128 0x1a
 1262 07fc 29050000 		.4byte	.LASF120
 1263 0800 0F       		.byte	0xf
 1264 0801 2901     		.2byte	0x129
 1265 0803 03       		.byte	0x3
 1266 0804 18       		.uleb128 0x18
 1267 0805 D4060000 		.4byte	.LASF121
 1268 0809 0F       		.byte	0xf
 1269 080a 3501     		.2byte	0x135
 1270 080c 03       		.byte	0x3
 1271 080d 1F080000 		.4byte	0x81f
 1272 0811 1F       		.uleb128 0x1f
 1273 0812 20050000 		.4byte	.LASF137
 1274 0816 2F080000 		.4byte	0x82f
 1275 081a D4060000 		.4byte	.LASF121
 1276 081e 00       		.byte	0
 1277 081f 16       		.uleb128 0x16
 1278 0820 16060000 		.4byte	0x616
 1279 0824 2F080000 		.4byte	0x82f
 1280 0828 17       		.uleb128 0x17
 1281 0829 30040000 		.4byte	0x430
 1282 082d 0B       		.byte	0xb
 1283 082e 00       		.byte	0
 1284 082f 15       		.uleb128 0x15
 1285 0830 1F080000 		.4byte	0x81f
 1286 0834 1B       		.uleb128 0x1b
 1287 0835 BF010000 		.4byte	.LASF122
 1288 0839 03       		.byte	0x3
 1289 083a AA       		.byte	0xaa
 1290 083b 03       		.byte	0x3
 1291 083c 4C080000 		.4byte	0x84c
 1292 0840 1C       		.uleb128 0x1c
 1293 0841 65737000 		.ascii	"esp\000"
 1294 0845 03       		.byte	0x3
 1295 0846 AA       		.byte	0xaa
 1296 0847 D2070000 		.4byte	0x7d2
 1297 084b 00       		.byte	0
 1298 084c 18       		.uleb128 0x18
 1299 084d FE020000 		.4byte	.LASF123
 1300 0851 04       		.byte	0x4
 1301 0852 AB01     		.2byte	0x1ab
 1302 0854 03       		.byte	0x3
 1303 0855 8A080000 		.4byte	0x88a
 1304 0859 1E       		.uleb128 0x1e
 1305 085a 76747000 		.ascii	"vtp\000"
 1306 085e 04       		.byte	0x4
 1307 085f AB01     		.2byte	0x1ab
 1308 0861 54060000 		.4byte	0x654
 1309 0865 19       		.uleb128 0x19
 1310 0866 BD000000 		.4byte	.LASF124
 1311 086a 04       		.byte	0x4
ARM GAS  /tmp/cc9XTc7L.s 			page 24


 1312 086b AB01     		.2byte	0x1ab
 1313 086d 20010000 		.4byte	0x120
 1314 0871 19       		.uleb128 0x19
 1315 0872 73060000 		.4byte	.LASF125
 1316 0876 04       		.byte	0x4
 1317 0877 AC01     		.2byte	0x1ac
 1318 0879 DE020000 		.4byte	0x2de
 1319 087d 1E       		.uleb128 0x1e
 1320 087e 70617200 		.ascii	"par\000"
 1321 0882 04       		.byte	0x4
 1322 0883 AC01     		.2byte	0x1ac
 1323 0885 FA020000 		.4byte	0x2fa
 1324 0889 00       		.byte	0
 1325 088a 18       		.uleb128 0x18
 1326 088b E7020000 		.4byte	.LASF126
 1327 088f 04       		.byte	0x4
 1328 0890 8E01     		.2byte	0x18e
 1329 0892 03       		.byte	0x3
 1330 0893 C8080000 		.4byte	0x8c8
 1331 0897 1E       		.uleb128 0x1e
 1332 0898 76747000 		.ascii	"vtp\000"
 1333 089c 04       		.byte	0x4
 1334 089d 8E01     		.2byte	0x18e
 1335 089f 54060000 		.4byte	0x654
 1336 08a3 19       		.uleb128 0x19
 1337 08a4 BD000000 		.4byte	.LASF124
 1338 08a8 04       		.byte	0x4
 1339 08a9 8E01     		.2byte	0x18e
 1340 08ab 20010000 		.4byte	0x120
 1341 08af 19       		.uleb128 0x19
 1342 08b0 73060000 		.4byte	.LASF125
 1343 08b4 04       		.byte	0x4
 1344 08b5 8F01     		.2byte	0x18f
 1345 08b7 DE020000 		.4byte	0x2de
 1346 08bb 1E       		.uleb128 0x1e
 1347 08bc 70617200 		.ascii	"par\000"
 1348 08c0 04       		.byte	0x4
 1349 08c1 8F01     		.2byte	0x18f
 1350 08c3 FA020000 		.4byte	0x2fa
 1351 08c7 00       		.byte	0
 1352 08c8 20       		.uleb128 0x20
 1353 08c9 D1050000 		.4byte	.LASF138
 1354 08cd 01       		.byte	0x1
 1355 08ce 30       		.byte	0x30
 1356 08cf 00000000 		.4byte	.LFB227
 1357 08d3 2C000000 		.4byte	.LFE227-.LFB227
 1358 08d7 01       		.uleb128 0x1
 1359 08d8 9C       		.byte	0x9c
 1360 08d9 E5090000 		.4byte	0x9e5
 1361 08dd 21       		.uleb128 0x21
 1362 08de 7000     		.ascii	"p\000"
 1363 08e0 01       		.byte	0x1
 1364 08e1 30       		.byte	0x30
 1365 08e2 FA020000 		.4byte	0x2fa
 1366 08e6 00000000 		.4byte	.LLST0
 1367 08ea 22       		.uleb128 0x22
 1368 08eb 65747000 		.ascii	"etp\000"
ARM GAS  /tmp/cc9XTc7L.s 			page 25


 1369 08ef 01       		.byte	0x1
 1370 08f0 31       		.byte	0x31
 1371 08f1 E5090000 		.4byte	0x9e5
 1372 08f5 2C000000 		.4byte	.LLST1
 1373 08f9 23       		.uleb128 0x23
 1374 08fa B1070000 		.4byte	0x7b1
 1375 08fe 02000000 		.4byte	.LBB77
 1376 0902 00000000 		.4byte	.Ldebug_ranges0+0
 1377 0906 01       		.byte	0x1
 1378 0907 33       		.byte	0x33
 1379 0908 46090000 		.4byte	0x946
 1380 090c 24       		.uleb128 0x24
 1381 090d 62070000 		.4byte	0x762
 1382 0911 02000000 		.4byte	.LBB78
 1383 0915 00000000 		.4byte	.Ldebug_ranges0+0
 1384 0919 0F       		.byte	0xf
 1385 091a 5201     		.2byte	0x152
 1386 091c 24       		.uleb128 0x24
 1387 091d 50070000 		.4byte	0x750
 1388 0921 02000000 		.4byte	.LBB79
 1389 0925 00000000 		.4byte	.Ldebug_ranges0+0
 1390 0929 0B       		.byte	0xb
 1391 092a DA01     		.2byte	0x1da
 1392 092c 24       		.uleb128 0x24
 1393 092d 36070000 		.4byte	0x736
 1394 0931 02000000 		.4byte	.LBB80
 1395 0935 00000000 		.4byte	.Ldebug_ranges0+0
 1396 0939 0B       		.byte	0xb
 1397 093a BE01     		.2byte	0x1be
 1398 093c 25       		.uleb128 0x25
 1399 093d 43070000 		.4byte	0x743
 1400 0941 20       		.byte	0x20
 1401 0942 00       		.byte	0
 1402 0943 00       		.byte	0
 1403 0944 00       		.byte	0
 1404 0945 00       		.byte	0
 1405 0946 26       		.uleb128 0x26
 1406 0947 BA070000 		.4byte	0x7ba
 1407 094b 0A000000 		.4byte	.LBB87
 1408 094f 08000000 		.4byte	.LBE87-.LBB87
 1409 0953 01       		.byte	0x1
 1410 0954 34       		.byte	0x34
 1411 0955 78090000 		.4byte	0x978
 1412 0959 27       		.uleb128 0x27
 1413 095a C6070000 		.4byte	0x7c6
 1414 095e 58000000 		.4byte	.LLST2
 1415 0962 28       		.uleb128 0x28
 1416 0963 12000000 		.4byte	.LVL4
 1417 0967 D60B0000 		.4byte	0xbd6
 1418 096b 29       		.uleb128 0x29
 1419 096c 01       		.uleb128 0x1
 1420 096d 51       		.byte	0x51
 1421 096e 01       		.uleb128 0x1
 1422 096f 30       		.byte	0x30
 1423 0970 29       		.uleb128 0x29
 1424 0971 01       		.uleb128 0x1
 1425 0972 50       		.byte	0x50
ARM GAS  /tmp/cc9XTc7L.s 			page 26


 1426 0973 02       		.uleb128 0x2
 1427 0974 74       		.byte	0x74
 1428 0975 14       		.sleb128 20
 1429 0976 00       		.byte	0
 1430 0977 00       		.byte	0
 1431 0978 26       		.uleb128 0x26
 1432 0979 D8070000 		.4byte	0x7d8
 1433 097d 1E000000 		.4byte	.LBB89
 1434 0981 0E000000 		.4byte	.LBE89-.LBB89
 1435 0985 01       		.byte	0x1
 1436 0986 36       		.byte	0x36
 1437 0987 C5090000 		.4byte	0x9c5
 1438 098b 2A       		.uleb128 0x2a
 1439 098c 6B070000 		.4byte	0x76b
 1440 0990 1E000000 		.4byte	.LBB90
 1441 0994 0E000000 		.4byte	.LBE90-.LBB90
 1442 0998 0F       		.byte	0xf
 1443 0999 6801     		.2byte	0x168
 1444 099b 2A       		.uleb128 0x2a
 1445 099c 59070000 		.4byte	0x759
 1446 09a0 1E000000 		.4byte	.LBB91
 1447 09a4 0E000000 		.4byte	.LBE91-.LBB91
 1448 09a8 0B       		.byte	0xb
 1449 09a9 E501     		.2byte	0x1e5
 1450 09ab 2A       		.uleb128 0x2a
 1451 09ac 36070000 		.4byte	0x736
 1452 09b0 1E000000 		.4byte	.LBB92
 1453 09b4 0E000000 		.4byte	.LBE92-.LBB92
 1454 09b8 0B       		.byte	0xb
 1455 09b9 CC01     		.2byte	0x1cc
 1456 09bb 25       		.uleb128 0x25
 1457 09bc 43070000 		.4byte	0x743
 1458 09c0 00       		.byte	0
 1459 09c1 00       		.byte	0
 1460 09c2 00       		.byte	0
 1461 09c3 00       		.byte	0
 1462 09c4 00       		.byte	0
 1463 09c5 28       		.uleb128 0x28
 1464 09c6 1E000000 		.4byte	.LVL5
 1465 09ca EC0B0000 		.4byte	0xbec
 1466 09ce 29       		.uleb128 0x29
 1467 09cf 01       		.uleb128 0x1
 1468 09d0 53       		.byte	0x53
 1469 09d1 02       		.uleb128 0x2
 1470 09d2 74       		.byte	0x74
 1471 09d3 00       		.sleb128 0
 1472 09d4 29       		.uleb128 0x29
 1473 09d5 01       		.uleb128 0x1
 1474 09d6 52       		.byte	0x52
 1475 09d7 05       		.uleb128 0x5
 1476 09d8 03       		.byte	0x3
 1477 09d9 00000000 		.4byte	tmrcb
 1478 09dd 29       		.uleb128 0x29
 1479 09de 01       		.uleb128 0x1
 1480 09df 50       		.byte	0x50
 1481 09e0 02       		.uleb128 0x2
 1482 09e1 74       		.byte	0x74
ARM GAS  /tmp/cc9XTc7L.s 			page 27


 1483 09e2 00       		.sleb128 0
 1484 09e3 00       		.byte	0
 1485 09e4 00       		.byte	0
 1486 09e5 0B       		.uleb128 0xb
 1487 09e6 04       		.byte	0x4
 1488 09e7 2B070000 		.4byte	0x72b
 1489 09eb 2B       		.uleb128 0x2b
 1490 09ec 28020000 		.4byte	.LASF128
 1491 09f0 01       		.byte	0x1
 1492 09f1 43       		.byte	0x43
 1493 09f2 00000000 		.4byte	.LFB228
 1494 09f6 0E000000 		.4byte	.LFE228-.LFB228
 1495 09fa 01       		.uleb128 0x1
 1496 09fb 9C       		.byte	0x9c
 1497 09fc 4F0A0000 		.4byte	0xa4f
 1498 0a00 2C       		.uleb128 0x2c
 1499 0a01 65747000 		.ascii	"etp\000"
 1500 0a05 01       		.byte	0x1
 1501 0a06 43       		.byte	0x43
 1502 0a07 E5090000 		.4byte	0x9e5
 1503 0a0b 01       		.uleb128 0x1
 1504 0a0c 50       		.byte	0x50
 1505 0a0d 2D       		.uleb128 0x2d
 1506 0a0e 67060000 		.4byte	.LASF127
 1507 0a12 01       		.byte	0x1
 1508 0a13 43       		.byte	0x43
 1509 0a14 20010000 		.4byte	0x120
 1510 0a18 01       		.uleb128 0x1
 1511 0a19 51       		.byte	0x51
 1512 0a1a 23       		.uleb128 0x23
 1513 0a1b 74070000 		.4byte	0x774
 1514 0a1f 04000000 		.4byte	.LBB94
 1515 0a23 18000000 		.4byte	.Ldebug_ranges0+0x18
 1516 0a27 01       		.byte	0x1
 1517 0a28 46       		.byte	0x46
 1518 0a29 350A0000 		.4byte	0xa35
 1519 0a2d 2E       		.uleb128 0x2e
 1520 0a2e 80070000 		.4byte	0x780
 1521 0a32 01       		.uleb128 0x1
 1522 0a33 50       		.byte	0x50
 1523 0a34 00       		.byte	0
 1524 0a35 2F       		.uleb128 0x2f
 1525 0a36 34080000 		.4byte	0x834
 1526 0a3a 08000000 		.4byte	.LBB97
 1527 0a3e 02000000 		.4byte	.LBE97-.LBB97
 1528 0a42 01       		.byte	0x1
 1529 0a43 45       		.byte	0x45
 1530 0a44 27       		.uleb128 0x27
 1531 0a45 40080000 		.4byte	0x840
 1532 0a49 95000000 		.4byte	.LLST3
 1533 0a4d 00       		.byte	0
 1534 0a4e 00       		.byte	0
 1535 0a4f 2B       		.uleb128 0x2b
 1536 0a50 91000000 		.4byte	.LASF129
 1537 0a54 01       		.byte	0x1
 1538 0a55 50       		.byte	0x50
 1539 0a56 00000000 		.4byte	.LFB229
ARM GAS  /tmp/cc9XTc7L.s 			page 28


 1540 0a5a 2C000000 		.4byte	.LFE229-.LFB229
 1541 0a5e 01       		.uleb128 0x1
 1542 0a5f 9C       		.byte	0x9c
 1543 0a60 BF0B0000 		.4byte	0xbbf
 1544 0a64 21       		.uleb128 0x21
 1545 0a65 65747000 		.ascii	"etp\000"
 1546 0a69 01       		.byte	0x1
 1547 0a6a 50       		.byte	0x50
 1548 0a6b E5090000 		.4byte	0x9e5
 1549 0a6f B5000000 		.4byte	.LLST4
 1550 0a73 30       		.uleb128 0x30
 1551 0a74 4C080000 		.4byte	0x84c
 1552 0a78 04000000 		.4byte	.LBB115
 1553 0a7c 30000000 		.4byte	.Ldebug_ranges0+0x30
 1554 0a80 01       		.byte	0x1
 1555 0a81 52       		.byte	0x52
 1556 0a82 27       		.uleb128 0x27
 1557 0a83 7D080000 		.4byte	0x87d
 1558 0a87 E1000000 		.4byte	.LLST5
 1559 0a8b 2E       		.uleb128 0x2e
 1560 0a8c 71080000 		.4byte	0x871
 1561 0a90 06       		.uleb128 0x6
 1562 0a91 03       		.byte	0x3
 1563 0a92 00000000 		.4byte	tmrcb
 1564 0a96 9F       		.byte	0x9f
 1565 0a97 27       		.uleb128 0x27
 1566 0a98 65080000 		.4byte	0x865
 1567 0a9c 0D010000 		.4byte	.LLST6
 1568 0aa0 27       		.uleb128 0x27
 1569 0aa1 59080000 		.4byte	0x859
 1570 0aa5 E1000000 		.4byte	.LLST5
 1571 0aa9 31       		.uleb128 0x31
 1572 0aaa FB070000 		.4byte	0x7fb
 1573 0aae 04000000 		.4byte	.LBB116
 1574 0ab2 48000000 		.4byte	.Ldebug_ranges0+0x48
 1575 0ab6 04       		.byte	0x4
 1576 0ab7 AE01     		.2byte	0x1ae
 1577 0ab9 E60A0000 		.4byte	0xae6
 1578 0abd 24       		.uleb128 0x24
 1579 0abe 50070000 		.4byte	0x750
 1580 0ac2 04000000 		.4byte	.LBB117
 1581 0ac6 48000000 		.4byte	.Ldebug_ranges0+0x48
 1582 0aca 0F       		.byte	0xf
 1583 0acb 2B01     		.2byte	0x12b
 1584 0acd 24       		.uleb128 0x24
 1585 0ace 36070000 		.4byte	0x736
 1586 0ad2 04000000 		.4byte	.LBB118
 1587 0ad6 48000000 		.4byte	.Ldebug_ranges0+0x48
 1588 0ada 0B       		.byte	0xb
 1589 0adb BE01     		.2byte	0x1be
 1590 0add 25       		.uleb128 0x25
 1591 0ade 43070000 		.4byte	0x743
 1592 0ae2 20       		.byte	0x20
 1593 0ae3 00       		.byte	0
 1594 0ae4 00       		.byte	0
 1595 0ae5 00       		.byte	0
 1596 0ae6 32       		.uleb128 0x32
ARM GAS  /tmp/cc9XTc7L.s 			page 29


 1597 0ae7 8A080000 		.4byte	0x88a
 1598 0aeb 0C000000 		.4byte	.LBB124
 1599 0aef 14000000 		.4byte	.LBE124-.LBB124
 1600 0af3 04       		.byte	0x4
 1601 0af4 AF01     		.2byte	0x1af
 1602 0af6 750B0000 		.4byte	0xb75
 1603 0afa 2E       		.uleb128 0x2e
 1604 0afb AF080000 		.4byte	0x8af
 1605 0aff 06       		.uleb128 0x6
 1606 0b00 03       		.byte	0x3
 1607 0b01 00000000 		.4byte	tmrcb
 1608 0b05 9F       		.byte	0x9f
 1609 0b06 27       		.uleb128 0x27
 1610 0b07 BB080000 		.4byte	0x8bb
 1611 0b0b 20010000 		.4byte	.LLST8
 1612 0b0f 27       		.uleb128 0x27
 1613 0b10 A3080000 		.4byte	0x8a3
 1614 0b14 4C010000 		.4byte	.LLST9
 1615 0b18 27       		.uleb128 0x27
 1616 0b19 97080000 		.4byte	0x897
 1617 0b1d 20010000 		.4byte	.LLST8
 1618 0b21 32       		.uleb128 0x32
 1619 0b22 E1070000 		.4byte	0x7e1
 1620 0b26 0C000000 		.4byte	.LBB126
 1621 0b2a 08000000 		.4byte	.LBE126-.LBB126
 1622 0b2e 04       		.byte	0x4
 1623 0b2f 9101     		.2byte	0x191
 1624 0b31 4F0B0000 		.4byte	0xb4f
 1625 0b35 27       		.uleb128 0x27
 1626 0b36 EE070000 		.4byte	0x7ee
 1627 0b3a 20010000 		.4byte	.LLST8
 1628 0b3e 28       		.uleb128 0x28
 1629 0b3f 14000000 		.4byte	.LVL13
 1630 0b43 0C0C0000 		.4byte	0xc0c
 1631 0b47 29       		.uleb128 0x29
 1632 0b48 01       		.uleb128 0x1
 1633 0b49 50       		.byte	0x50
 1634 0b4a 02       		.uleb128 0x2
 1635 0b4b 74       		.byte	0x74
 1636 0b4c 00       		.sleb128 0
 1637 0b4d 00       		.byte	0
 1638 0b4e 00       		.byte	0
 1639 0b4f 28       		.uleb128 0x28
 1640 0b50 20000000 		.4byte	.LVL14
 1641 0b54 EC0B0000 		.4byte	0xbec
 1642 0b58 29       		.uleb128 0x29
 1643 0b59 01       		.uleb128 0x1
 1644 0b5a 53       		.byte	0x53
 1645 0b5b 02       		.uleb128 0x2
 1646 0b5c 74       		.byte	0x74
 1647 0b5d 00       		.sleb128 0
 1648 0b5e 29       		.uleb128 0x29
 1649 0b5f 01       		.uleb128 0x1
 1650 0b60 52       		.byte	0x52
 1651 0b61 05       		.uleb128 0x5
 1652 0b62 03       		.byte	0x3
 1653 0b63 00000000 		.4byte	tmrcb
ARM GAS  /tmp/cc9XTc7L.s 			page 30


 1654 0b67 29       		.uleb128 0x29
 1655 0b68 01       		.uleb128 0x1
 1656 0b69 51       		.byte	0x51
 1657 0b6a 02       		.uleb128 0x2
 1658 0b6b 75       		.byte	0x75
 1659 0b6c 00       		.sleb128 0
 1660 0b6d 29       		.uleb128 0x29
 1661 0b6e 01       		.uleb128 0x1
 1662 0b6f 50       		.byte	0x50
 1663 0b70 02       		.uleb128 0x2
 1664 0b71 74       		.byte	0x74
 1665 0b72 00       		.sleb128 0
 1666 0b73 00       		.byte	0
 1667 0b74 00       		.byte	0
 1668 0b75 2A       		.uleb128 0x2a
 1669 0b76 04080000 		.4byte	0x804
 1670 0b7a 20000000 		.4byte	.LBB128
 1671 0b7e 0C000000 		.4byte	.LBE128-.LBB128
 1672 0b82 04       		.byte	0x4
 1673 0b83 B001     		.2byte	0x1b0
 1674 0b85 33       		.uleb128 0x33
 1675 0b86 20000000 		.4byte	.LBB129
 1676 0b8a 0C000000 		.4byte	.LBE129-.LBB129
 1677 0b8e 34       		.uleb128 0x34
 1678 0b8f 11080000 		.4byte	0x811
 1679 0b93 2A       		.uleb128 0x2a
 1680 0b94 59070000 		.4byte	0x759
 1681 0b98 20000000 		.4byte	.LBB130
 1682 0b9c 0C000000 		.4byte	.LBE130-.LBB130
 1683 0ba0 0F       		.byte	0xf
 1684 0ba1 4101     		.2byte	0x141
 1685 0ba3 2A       		.uleb128 0x2a
 1686 0ba4 36070000 		.4byte	0x736
 1687 0ba8 20000000 		.4byte	.LBB131
 1688 0bac 0C000000 		.4byte	.LBE131-.LBB131
 1689 0bb0 0B       		.byte	0xb
 1690 0bb1 CC01     		.2byte	0x1cc
 1691 0bb3 25       		.uleb128 0x25
 1692 0bb4 43070000 		.4byte	0x743
 1693 0bb8 00       		.byte	0
 1694 0bb9 00       		.byte	0
 1695 0bba 00       		.byte	0
 1696 0bbb 00       		.byte	0
 1697 0bbc 00       		.byte	0
 1698 0bbd 00       		.byte	0
 1699 0bbe 00       		.byte	0
 1700 0bbf 35       		.uleb128 0x35
 1701 0bc0 B0000000 		.4byte	.LASF130
 1702 0bc4 10       		.byte	0x10
 1703 0bc5 A706     		.2byte	0x6a7
 1704 0bc7 C3000000 		.4byte	0xc3
 1705 0bcb 36       		.uleb128 0x36
 1706 0bcc 636800   		.ascii	"ch\000"
 1707 0bcf 09       		.byte	0x9
 1708 0bd0 EB01     		.2byte	0x1eb
 1709 0bd2 C9030000 		.4byte	0x3c9
 1710 0bd6 37       		.uleb128 0x37
ARM GAS  /tmp/cc9XTc7L.s 			page 31


 1711 0bd7 34010000 		.4byte	.LASF131
 1712 0bdb 03       		.byte	0x3
 1713 0bdc 87       		.byte	0x87
 1714 0bdd EC0B0000 		.4byte	0xbec
 1715 0be1 0D       		.uleb128 0xd
 1716 0be2 D2070000 		.4byte	0x7d2
 1717 0be6 0D       		.uleb128 0xd
 1718 0be7 15010000 		.4byte	0x115
 1719 0beb 00       		.byte	0
 1720 0bec 37       		.uleb128 0x37
 1721 0bed 4B020000 		.4byte	.LASF132
 1722 0bf1 04       		.byte	0x4
 1723 0bf2 BA       		.byte	0xba
 1724 0bf3 0C0C0000 		.4byte	0xc0c
 1725 0bf7 0D       		.uleb128 0xd
 1726 0bf8 54060000 		.4byte	0x654
 1727 0bfc 0D       		.uleb128 0xd
 1728 0bfd 20010000 		.4byte	0x120
 1729 0c01 0D       		.uleb128 0xd
 1730 0c02 DE020000 		.4byte	0x2de
 1731 0c06 0D       		.uleb128 0xd
 1732 0c07 FA020000 		.4byte	0x2fa
 1733 0c0b 00       		.byte	0
 1734 0c0c 38       		.uleb128 0x38
 1735 0c0d 7B000000 		.4byte	.LASF139
 1736 0c11 04       		.byte	0x4
 1737 0c12 BC       		.byte	0xbc
 1738 0c13 0D       		.uleb128 0xd
 1739 0c14 54060000 		.4byte	0x654
 1740 0c18 00       		.byte	0
 1741 0c19 00       		.byte	0
 1742              		.section	.debug_abbrev,"",%progbits
 1743              	.Ldebug_abbrev0:
 1744 0000 01       		.uleb128 0x1
 1745 0001 11       		.uleb128 0x11
 1746 0002 01       		.byte	0x1
 1747 0003 25       		.uleb128 0x25
 1748 0004 0E       		.uleb128 0xe
 1749 0005 13       		.uleb128 0x13
 1750 0006 0B       		.uleb128 0xb
 1751 0007 03       		.uleb128 0x3
 1752 0008 0E       		.uleb128 0xe
 1753 0009 1B       		.uleb128 0x1b
 1754 000a 0E       		.uleb128 0xe
 1755 000b 55       		.uleb128 0x55
 1756 000c 17       		.uleb128 0x17
 1757 000d 11       		.uleb128 0x11
 1758 000e 01       		.uleb128 0x1
 1759 000f 10       		.uleb128 0x10
 1760 0010 17       		.uleb128 0x17
 1761 0011 00       		.byte	0
 1762 0012 00       		.byte	0
 1763 0013 02       		.uleb128 0x2
 1764 0014 24       		.uleb128 0x24
 1765 0015 00       		.byte	0
 1766 0016 0B       		.uleb128 0xb
 1767 0017 0B       		.uleb128 0xb
ARM GAS  /tmp/cc9XTc7L.s 			page 32


 1768 0018 3E       		.uleb128 0x3e
 1769 0019 0B       		.uleb128 0xb
 1770 001a 03       		.uleb128 0x3
 1771 001b 08       		.uleb128 0x8
 1772 001c 00       		.byte	0
 1773 001d 00       		.byte	0
 1774 001e 03       		.uleb128 0x3
 1775 001f 24       		.uleb128 0x24
 1776 0020 00       		.byte	0
 1777 0021 0B       		.uleb128 0xb
 1778 0022 0B       		.uleb128 0xb
 1779 0023 3E       		.uleb128 0x3e
 1780 0024 0B       		.uleb128 0xb
 1781 0025 03       		.uleb128 0x3
 1782 0026 0E       		.uleb128 0xe
 1783 0027 00       		.byte	0
 1784 0028 00       		.byte	0
 1785 0029 04       		.uleb128 0x4
 1786 002a 16       		.uleb128 0x16
 1787 002b 00       		.byte	0
 1788 002c 03       		.uleb128 0x3
 1789 002d 0E       		.uleb128 0xe
 1790 002e 3A       		.uleb128 0x3a
 1791 002f 0B       		.uleb128 0xb
 1792 0030 3B       		.uleb128 0x3b
 1793 0031 0B       		.uleb128 0xb
 1794 0032 49       		.uleb128 0x49
 1795 0033 13       		.uleb128 0x13
 1796 0034 00       		.byte	0
 1797 0035 00       		.byte	0
 1798 0036 05       		.uleb128 0x5
 1799 0037 35       		.uleb128 0x35
 1800 0038 00       		.byte	0
 1801 0039 49       		.uleb128 0x49
 1802 003a 13       		.uleb128 0x13
 1803 003b 00       		.byte	0
 1804 003c 00       		.byte	0
 1805 003d 06       		.uleb128 0x6
 1806 003e 13       		.uleb128 0x13
 1807 003f 01       		.byte	0x1
 1808 0040 03       		.uleb128 0x3
 1809 0041 0E       		.uleb128 0xe
 1810 0042 0B       		.uleb128 0xb
 1811 0043 0B       		.uleb128 0xb
 1812 0044 3A       		.uleb128 0x3a
 1813 0045 0B       		.uleb128 0xb
 1814 0046 3B       		.uleb128 0x3b
 1815 0047 0B       		.uleb128 0xb
 1816 0048 01       		.uleb128 0x1
 1817 0049 13       		.uleb128 0x13
 1818 004a 00       		.byte	0
 1819 004b 00       		.byte	0
 1820 004c 07       		.uleb128 0x7
 1821 004d 0D       		.uleb128 0xd
 1822 004e 00       		.byte	0
 1823 004f 03       		.uleb128 0x3
 1824 0050 0E       		.uleb128 0xe
ARM GAS  /tmp/cc9XTc7L.s 			page 33


 1825 0051 3A       		.uleb128 0x3a
 1826 0052 0B       		.uleb128 0xb
 1827 0053 3B       		.uleb128 0x3b
 1828 0054 0B       		.uleb128 0xb
 1829 0055 49       		.uleb128 0x49
 1830 0056 13       		.uleb128 0x13
 1831 0057 38       		.uleb128 0x38
 1832 0058 0B       		.uleb128 0xb
 1833 0059 00       		.byte	0
 1834 005a 00       		.byte	0
 1835 005b 08       		.uleb128 0x8
 1836 005c 0D       		.uleb128 0xd
 1837 005d 00       		.byte	0
 1838 005e 03       		.uleb128 0x3
 1839 005f 08       		.uleb128 0x8
 1840 0060 3A       		.uleb128 0x3a
 1841 0061 0B       		.uleb128 0xb
 1842 0062 3B       		.uleb128 0x3b
 1843 0063 05       		.uleb128 0x5
 1844 0064 49       		.uleb128 0x49
 1845 0065 13       		.uleb128 0x13
 1846 0066 38       		.uleb128 0x38
 1847 0067 0B       		.uleb128 0xb
 1848 0068 00       		.byte	0
 1849 0069 00       		.byte	0
 1850 006a 09       		.uleb128 0x9
 1851 006b 0D       		.uleb128 0xd
 1852 006c 00       		.byte	0
 1853 006d 03       		.uleb128 0x3
 1854 006e 0E       		.uleb128 0xe
 1855 006f 3A       		.uleb128 0x3a
 1856 0070 0B       		.uleb128 0xb
 1857 0071 3B       		.uleb128 0x3b
 1858 0072 05       		.uleb128 0x5
 1859 0073 49       		.uleb128 0x49
 1860 0074 13       		.uleb128 0x13
 1861 0075 38       		.uleb128 0x38
 1862 0076 0B       		.uleb128 0xb
 1863 0077 00       		.byte	0
 1864 0078 00       		.byte	0
 1865 0079 0A       		.uleb128 0xa
 1866 007a 13       		.uleb128 0x13
 1867 007b 01       		.byte	0x1
 1868 007c 03       		.uleb128 0x3
 1869 007d 0E       		.uleb128 0xe
 1870 007e 0B       		.uleb128 0xb
 1871 007f 0B       		.uleb128 0xb
 1872 0080 3A       		.uleb128 0x3a
 1873 0081 0B       		.uleb128 0xb
 1874 0082 3B       		.uleb128 0x3b
 1875 0083 05       		.uleb128 0x5
 1876 0084 01       		.uleb128 0x1
 1877 0085 13       		.uleb128 0x13
 1878 0086 00       		.byte	0
 1879 0087 00       		.byte	0
 1880 0088 0B       		.uleb128 0xb
 1881 0089 0F       		.uleb128 0xf
ARM GAS  /tmp/cc9XTc7L.s 			page 34


 1882 008a 00       		.byte	0
 1883 008b 0B       		.uleb128 0xb
 1884 008c 0B       		.uleb128 0xb
 1885 008d 49       		.uleb128 0x49
 1886 008e 13       		.uleb128 0x13
 1887 008f 00       		.byte	0
 1888 0090 00       		.byte	0
 1889 0091 0C       		.uleb128 0xc
 1890 0092 15       		.uleb128 0x15
 1891 0093 01       		.byte	0x1
 1892 0094 27       		.uleb128 0x27
 1893 0095 19       		.uleb128 0x19
 1894 0096 01       		.uleb128 0x1
 1895 0097 13       		.uleb128 0x13
 1896 0098 00       		.byte	0
 1897 0099 00       		.byte	0
 1898 009a 0D       		.uleb128 0xd
 1899 009b 05       		.uleb128 0x5
 1900 009c 00       		.byte	0
 1901 009d 49       		.uleb128 0x49
 1902 009e 13       		.uleb128 0x13
 1903 009f 00       		.byte	0
 1904 00a0 00       		.byte	0
 1905 00a1 0E       		.uleb128 0xe
 1906 00a2 0F       		.uleb128 0xf
 1907 00a3 00       		.byte	0
 1908 00a4 0B       		.uleb128 0xb
 1909 00a5 0B       		.uleb128 0xb
 1910 00a6 00       		.byte	0
 1911 00a7 00       		.byte	0
 1912 00a8 0F       		.uleb128 0xf
 1913 00a9 13       		.uleb128 0x13
 1914 00aa 01       		.byte	0x1
 1915 00ab 03       		.uleb128 0x3
 1916 00ac 0E       		.uleb128 0xe
 1917 00ad 0B       		.uleb128 0xb
 1918 00ae 05       		.uleb128 0x5
 1919 00af 3A       		.uleb128 0x3a
 1920 00b0 0B       		.uleb128 0xb
 1921 00b1 3B       		.uleb128 0x3b
 1922 00b2 05       		.uleb128 0x5
 1923 00b3 01       		.uleb128 0x1
 1924 00b4 13       		.uleb128 0x13
 1925 00b5 00       		.byte	0
 1926 00b6 00       		.byte	0
 1927 00b7 10       		.uleb128 0x10
 1928 00b8 0D       		.uleb128 0xd
 1929 00b9 00       		.byte	0
 1930 00ba 03       		.uleb128 0x3
 1931 00bb 08       		.uleb128 0x8
 1932 00bc 3A       		.uleb128 0x3a
 1933 00bd 0B       		.uleb128 0xb
 1934 00be 3B       		.uleb128 0x3b
 1935 00bf 0B       		.uleb128 0xb
 1936 00c0 49       		.uleb128 0x49
 1937 00c1 13       		.uleb128 0x13
 1938 00c2 38       		.uleb128 0x38
ARM GAS  /tmp/cc9XTc7L.s 			page 35


 1939 00c3 0B       		.uleb128 0xb
 1940 00c4 00       		.byte	0
 1941 00c5 00       		.byte	0
 1942 00c6 11       		.uleb128 0x11
 1943 00c7 13       		.uleb128 0x13
 1944 00c8 01       		.byte	0x1
 1945 00c9 0B       		.uleb128 0xb
 1946 00ca 0B       		.uleb128 0xb
 1947 00cb 3A       		.uleb128 0x3a
 1948 00cc 0B       		.uleb128 0xb
 1949 00cd 3B       		.uleb128 0x3b
 1950 00ce 0B       		.uleb128 0xb
 1951 00cf 01       		.uleb128 0x1
 1952 00d0 13       		.uleb128 0x13
 1953 00d1 00       		.byte	0
 1954 00d2 00       		.byte	0
 1955 00d3 12       		.uleb128 0x12
 1956 00d4 17       		.uleb128 0x17
 1957 00d5 01       		.byte	0x1
 1958 00d6 0B       		.uleb128 0xb
 1959 00d7 0B       		.uleb128 0xb
 1960 00d8 3A       		.uleb128 0x3a
 1961 00d9 0B       		.uleb128 0xb
 1962 00da 3B       		.uleb128 0x3b
 1963 00db 0B       		.uleb128 0xb
 1964 00dc 01       		.uleb128 0x1
 1965 00dd 13       		.uleb128 0x13
 1966 00de 00       		.byte	0
 1967 00df 00       		.byte	0
 1968 00e0 13       		.uleb128 0x13
 1969 00e1 0D       		.uleb128 0xd
 1970 00e2 00       		.byte	0
 1971 00e3 03       		.uleb128 0x3
 1972 00e4 0E       		.uleb128 0xe
 1973 00e5 3A       		.uleb128 0x3a
 1974 00e6 0B       		.uleb128 0xb
 1975 00e7 3B       		.uleb128 0x3b
 1976 00e8 0B       		.uleb128 0xb
 1977 00e9 49       		.uleb128 0x49
 1978 00ea 13       		.uleb128 0x13
 1979 00eb 00       		.byte	0
 1980 00ec 00       		.byte	0
 1981 00ed 14       		.uleb128 0x14
 1982 00ee 0D       		.uleb128 0xd
 1983 00ef 00       		.byte	0
 1984 00f0 03       		.uleb128 0x3
 1985 00f1 0E       		.uleb128 0xe
 1986 00f2 3A       		.uleb128 0x3a
 1987 00f3 0B       		.uleb128 0xb
 1988 00f4 3B       		.uleb128 0x3b
 1989 00f5 05       		.uleb128 0x5
 1990 00f6 49       		.uleb128 0x49
 1991 00f7 13       		.uleb128 0x13
 1992 00f8 00       		.byte	0
 1993 00f9 00       		.byte	0
 1994 00fa 15       		.uleb128 0x15
 1995 00fb 26       		.uleb128 0x26
ARM GAS  /tmp/cc9XTc7L.s 			page 36


 1996 00fc 00       		.byte	0
 1997 00fd 49       		.uleb128 0x49
 1998 00fe 13       		.uleb128 0x13
 1999 00ff 00       		.byte	0
 2000 0100 00       		.byte	0
 2001 0101 16       		.uleb128 0x16
 2002 0102 01       		.uleb128 0x1
 2003 0103 01       		.byte	0x1
 2004 0104 49       		.uleb128 0x49
 2005 0105 13       		.uleb128 0x13
 2006 0106 01       		.uleb128 0x1
 2007 0107 13       		.uleb128 0x13
 2008 0108 00       		.byte	0
 2009 0109 00       		.byte	0
 2010 010a 17       		.uleb128 0x17
 2011 010b 21       		.uleb128 0x21
 2012 010c 00       		.byte	0
 2013 010d 49       		.uleb128 0x49
 2014 010e 13       		.uleb128 0x13
 2015 010f 2F       		.uleb128 0x2f
 2016 0110 0B       		.uleb128 0xb
 2017 0111 00       		.byte	0
 2018 0112 00       		.byte	0
 2019 0113 18       		.uleb128 0x18
 2020 0114 2E       		.uleb128 0x2e
 2021 0115 01       		.byte	0x1
 2022 0116 03       		.uleb128 0x3
 2023 0117 0E       		.uleb128 0xe
 2024 0118 3A       		.uleb128 0x3a
 2025 0119 0B       		.uleb128 0xb
 2026 011a 3B       		.uleb128 0x3b
 2027 011b 05       		.uleb128 0x5
 2028 011c 27       		.uleb128 0x27
 2029 011d 19       		.uleb128 0x19
 2030 011e 20       		.uleb128 0x20
 2031 011f 0B       		.uleb128 0xb
 2032 0120 01       		.uleb128 0x1
 2033 0121 13       		.uleb128 0x13
 2034 0122 00       		.byte	0
 2035 0123 00       		.byte	0
 2036 0124 19       		.uleb128 0x19
 2037 0125 05       		.uleb128 0x5
 2038 0126 00       		.byte	0
 2039 0127 03       		.uleb128 0x3
 2040 0128 0E       		.uleb128 0xe
 2041 0129 3A       		.uleb128 0x3a
 2042 012a 0B       		.uleb128 0xb
 2043 012b 3B       		.uleb128 0x3b
 2044 012c 05       		.uleb128 0x5
 2045 012d 49       		.uleb128 0x49
 2046 012e 13       		.uleb128 0x13
 2047 012f 00       		.byte	0
 2048 0130 00       		.byte	0
 2049 0131 1A       		.uleb128 0x1a
 2050 0132 2E       		.uleb128 0x2e
 2051 0133 00       		.byte	0
 2052 0134 03       		.uleb128 0x3
ARM GAS  /tmp/cc9XTc7L.s 			page 37


 2053 0135 0E       		.uleb128 0xe
 2054 0136 3A       		.uleb128 0x3a
 2055 0137 0B       		.uleb128 0xb
 2056 0138 3B       		.uleb128 0x3b
 2057 0139 05       		.uleb128 0x5
 2058 013a 27       		.uleb128 0x27
 2059 013b 19       		.uleb128 0x19
 2060 013c 20       		.uleb128 0x20
 2061 013d 0B       		.uleb128 0xb
 2062 013e 00       		.byte	0
 2063 013f 00       		.byte	0
 2064 0140 1B       		.uleb128 0x1b
 2065 0141 2E       		.uleb128 0x2e
 2066 0142 01       		.byte	0x1
 2067 0143 03       		.uleb128 0x3
 2068 0144 0E       		.uleb128 0xe
 2069 0145 3A       		.uleb128 0x3a
 2070 0146 0B       		.uleb128 0xb
 2071 0147 3B       		.uleb128 0x3b
 2072 0148 0B       		.uleb128 0xb
 2073 0149 27       		.uleb128 0x27
 2074 014a 19       		.uleb128 0x19
 2075 014b 20       		.uleb128 0x20
 2076 014c 0B       		.uleb128 0xb
 2077 014d 01       		.uleb128 0x1
 2078 014e 13       		.uleb128 0x13
 2079 014f 00       		.byte	0
 2080 0150 00       		.byte	0
 2081 0151 1C       		.uleb128 0x1c
 2082 0152 05       		.uleb128 0x5
 2083 0153 00       		.byte	0
 2084 0154 03       		.uleb128 0x3
 2085 0155 08       		.uleb128 0x8
 2086 0156 3A       		.uleb128 0x3a
 2087 0157 0B       		.uleb128 0xb
 2088 0158 3B       		.uleb128 0x3b
 2089 0159 0B       		.uleb128 0xb
 2090 015a 49       		.uleb128 0x49
 2091 015b 13       		.uleb128 0x13
 2092 015c 00       		.byte	0
 2093 015d 00       		.byte	0
 2094 015e 1D       		.uleb128 0x1d
 2095 015f 2E       		.uleb128 0x2e
 2096 0160 01       		.byte	0x1
 2097 0161 03       		.uleb128 0x3
 2098 0162 0E       		.uleb128 0xe
 2099 0163 3A       		.uleb128 0x3a
 2100 0164 0B       		.uleb128 0xb
 2101 0165 3B       		.uleb128 0x3b
 2102 0166 05       		.uleb128 0x5
 2103 0167 27       		.uleb128 0x27
 2104 0168 19       		.uleb128 0x19
 2105 0169 49       		.uleb128 0x49
 2106 016a 13       		.uleb128 0x13
 2107 016b 20       		.uleb128 0x20
 2108 016c 0B       		.uleb128 0xb
 2109 016d 01       		.uleb128 0x1
ARM GAS  /tmp/cc9XTc7L.s 			page 38


 2110 016e 13       		.uleb128 0x13
 2111 016f 00       		.byte	0
 2112 0170 00       		.byte	0
 2113 0171 1E       		.uleb128 0x1e
 2114 0172 05       		.uleb128 0x5
 2115 0173 00       		.byte	0
 2116 0174 03       		.uleb128 0x3
 2117 0175 08       		.uleb128 0x8
 2118 0176 3A       		.uleb128 0x3a
 2119 0177 0B       		.uleb128 0xb
 2120 0178 3B       		.uleb128 0x3b
 2121 0179 05       		.uleb128 0x5
 2122 017a 49       		.uleb128 0x49
 2123 017b 13       		.uleb128 0x13
 2124 017c 00       		.byte	0
 2125 017d 00       		.byte	0
 2126 017e 1F       		.uleb128 0x1f
 2127 017f 34       		.uleb128 0x34
 2128 0180 00       		.byte	0
 2129 0181 03       		.uleb128 0x3
 2130 0182 0E       		.uleb128 0xe
 2131 0183 49       		.uleb128 0x49
 2132 0184 13       		.uleb128 0x13
 2133 0185 34       		.uleb128 0x34
 2134 0186 19       		.uleb128 0x19
 2135 0187 1C       		.uleb128 0x1c
 2136 0188 0E       		.uleb128 0xe
 2137 0189 00       		.byte	0
 2138 018a 00       		.byte	0
 2139 018b 20       		.uleb128 0x20
 2140 018c 2E       		.uleb128 0x2e
 2141 018d 01       		.byte	0x1
 2142 018e 03       		.uleb128 0x3
 2143 018f 0E       		.uleb128 0xe
 2144 0190 3A       		.uleb128 0x3a
 2145 0191 0B       		.uleb128 0xb
 2146 0192 3B       		.uleb128 0x3b
 2147 0193 0B       		.uleb128 0xb
 2148 0194 27       		.uleb128 0x27
 2149 0195 19       		.uleb128 0x19
 2150 0196 11       		.uleb128 0x11
 2151 0197 01       		.uleb128 0x1
 2152 0198 12       		.uleb128 0x12
 2153 0199 06       		.uleb128 0x6
 2154 019a 40       		.uleb128 0x40
 2155 019b 18       		.uleb128 0x18
 2156 019c 9742     		.uleb128 0x2117
 2157 019e 19       		.uleb128 0x19
 2158 019f 01       		.uleb128 0x1
 2159 01a0 13       		.uleb128 0x13
 2160 01a1 00       		.byte	0
 2161 01a2 00       		.byte	0
 2162 01a3 21       		.uleb128 0x21
 2163 01a4 05       		.uleb128 0x5
 2164 01a5 00       		.byte	0
 2165 01a6 03       		.uleb128 0x3
 2166 01a7 08       		.uleb128 0x8
ARM GAS  /tmp/cc9XTc7L.s 			page 39


 2167 01a8 3A       		.uleb128 0x3a
 2168 01a9 0B       		.uleb128 0xb
 2169 01aa 3B       		.uleb128 0x3b
 2170 01ab 0B       		.uleb128 0xb
 2171 01ac 49       		.uleb128 0x49
 2172 01ad 13       		.uleb128 0x13
 2173 01ae 02       		.uleb128 0x2
 2174 01af 17       		.uleb128 0x17
 2175 01b0 00       		.byte	0
 2176 01b1 00       		.byte	0
 2177 01b2 22       		.uleb128 0x22
 2178 01b3 34       		.uleb128 0x34
 2179 01b4 00       		.byte	0
 2180 01b5 03       		.uleb128 0x3
 2181 01b6 08       		.uleb128 0x8
 2182 01b7 3A       		.uleb128 0x3a
 2183 01b8 0B       		.uleb128 0xb
 2184 01b9 3B       		.uleb128 0x3b
 2185 01ba 0B       		.uleb128 0xb
 2186 01bb 49       		.uleb128 0x49
 2187 01bc 13       		.uleb128 0x13
 2188 01bd 02       		.uleb128 0x2
 2189 01be 17       		.uleb128 0x17
 2190 01bf 00       		.byte	0
 2191 01c0 00       		.byte	0
 2192 01c1 23       		.uleb128 0x23
 2193 01c2 1D       		.uleb128 0x1d
 2194 01c3 01       		.byte	0x1
 2195 01c4 31       		.uleb128 0x31
 2196 01c5 13       		.uleb128 0x13
 2197 01c6 52       		.uleb128 0x52
 2198 01c7 01       		.uleb128 0x1
 2199 01c8 55       		.uleb128 0x55
 2200 01c9 17       		.uleb128 0x17
 2201 01ca 58       		.uleb128 0x58
 2202 01cb 0B       		.uleb128 0xb
 2203 01cc 59       		.uleb128 0x59
 2204 01cd 0B       		.uleb128 0xb
 2205 01ce 01       		.uleb128 0x1
 2206 01cf 13       		.uleb128 0x13
 2207 01d0 00       		.byte	0
 2208 01d1 00       		.byte	0
 2209 01d2 24       		.uleb128 0x24
 2210 01d3 1D       		.uleb128 0x1d
 2211 01d4 01       		.byte	0x1
 2212 01d5 31       		.uleb128 0x31
 2213 01d6 13       		.uleb128 0x13
 2214 01d7 52       		.uleb128 0x52
 2215 01d8 01       		.uleb128 0x1
 2216 01d9 55       		.uleb128 0x55
 2217 01da 17       		.uleb128 0x17
 2218 01db 58       		.uleb128 0x58
 2219 01dc 0B       		.uleb128 0xb
 2220 01dd 59       		.uleb128 0x59
 2221 01de 05       		.uleb128 0x5
 2222 01df 00       		.byte	0
 2223 01e0 00       		.byte	0
ARM GAS  /tmp/cc9XTc7L.s 			page 40


 2224 01e1 25       		.uleb128 0x25
 2225 01e2 05       		.uleb128 0x5
 2226 01e3 00       		.byte	0
 2227 01e4 31       		.uleb128 0x31
 2228 01e5 13       		.uleb128 0x13
 2229 01e6 1C       		.uleb128 0x1c
 2230 01e7 0B       		.uleb128 0xb
 2231 01e8 00       		.byte	0
 2232 01e9 00       		.byte	0
 2233 01ea 26       		.uleb128 0x26
 2234 01eb 1D       		.uleb128 0x1d
 2235 01ec 01       		.byte	0x1
 2236 01ed 31       		.uleb128 0x31
 2237 01ee 13       		.uleb128 0x13
 2238 01ef 11       		.uleb128 0x11
 2239 01f0 01       		.uleb128 0x1
 2240 01f1 12       		.uleb128 0x12
 2241 01f2 06       		.uleb128 0x6
 2242 01f3 58       		.uleb128 0x58
 2243 01f4 0B       		.uleb128 0xb
 2244 01f5 59       		.uleb128 0x59
 2245 01f6 0B       		.uleb128 0xb
 2246 01f7 01       		.uleb128 0x1
 2247 01f8 13       		.uleb128 0x13
 2248 01f9 00       		.byte	0
 2249 01fa 00       		.byte	0
 2250 01fb 27       		.uleb128 0x27
 2251 01fc 05       		.uleb128 0x5
 2252 01fd 00       		.byte	0
 2253 01fe 31       		.uleb128 0x31
 2254 01ff 13       		.uleb128 0x13
 2255 0200 02       		.uleb128 0x2
 2256 0201 17       		.uleb128 0x17
 2257 0202 00       		.byte	0
 2258 0203 00       		.byte	0
 2259 0204 28       		.uleb128 0x28
 2260 0205 898201   		.uleb128 0x4109
 2261 0208 01       		.byte	0x1
 2262 0209 11       		.uleb128 0x11
 2263 020a 01       		.uleb128 0x1
 2264 020b 31       		.uleb128 0x31
 2265 020c 13       		.uleb128 0x13
 2266 020d 00       		.byte	0
 2267 020e 00       		.byte	0
 2268 020f 29       		.uleb128 0x29
 2269 0210 8A8201   		.uleb128 0x410a
 2270 0213 00       		.byte	0
 2271 0214 02       		.uleb128 0x2
 2272 0215 18       		.uleb128 0x18
 2273 0216 9142     		.uleb128 0x2111
 2274 0218 18       		.uleb128 0x18
 2275 0219 00       		.byte	0
 2276 021a 00       		.byte	0
 2277 021b 2A       		.uleb128 0x2a
 2278 021c 1D       		.uleb128 0x1d
 2279 021d 01       		.byte	0x1
 2280 021e 31       		.uleb128 0x31
ARM GAS  /tmp/cc9XTc7L.s 			page 41


 2281 021f 13       		.uleb128 0x13
 2282 0220 11       		.uleb128 0x11
 2283 0221 01       		.uleb128 0x1
 2284 0222 12       		.uleb128 0x12
 2285 0223 06       		.uleb128 0x6
 2286 0224 58       		.uleb128 0x58
 2287 0225 0B       		.uleb128 0xb
 2288 0226 59       		.uleb128 0x59
 2289 0227 05       		.uleb128 0x5
 2290 0228 00       		.byte	0
 2291 0229 00       		.byte	0
 2292 022a 2B       		.uleb128 0x2b
 2293 022b 2E       		.uleb128 0x2e
 2294 022c 01       		.byte	0x1
 2295 022d 3F       		.uleb128 0x3f
 2296 022e 19       		.uleb128 0x19
 2297 022f 03       		.uleb128 0x3
 2298 0230 0E       		.uleb128 0xe
 2299 0231 3A       		.uleb128 0x3a
 2300 0232 0B       		.uleb128 0xb
 2301 0233 3B       		.uleb128 0x3b
 2302 0234 0B       		.uleb128 0xb
 2303 0235 27       		.uleb128 0x27
 2304 0236 19       		.uleb128 0x19
 2305 0237 11       		.uleb128 0x11
 2306 0238 01       		.uleb128 0x1
 2307 0239 12       		.uleb128 0x12
 2308 023a 06       		.uleb128 0x6
 2309 023b 40       		.uleb128 0x40
 2310 023c 18       		.uleb128 0x18
 2311 023d 9742     		.uleb128 0x2117
 2312 023f 19       		.uleb128 0x19
 2313 0240 01       		.uleb128 0x1
 2314 0241 13       		.uleb128 0x13
 2315 0242 00       		.byte	0
 2316 0243 00       		.byte	0
 2317 0244 2C       		.uleb128 0x2c
 2318 0245 05       		.uleb128 0x5
 2319 0246 00       		.byte	0
 2320 0247 03       		.uleb128 0x3
 2321 0248 08       		.uleb128 0x8
 2322 0249 3A       		.uleb128 0x3a
 2323 024a 0B       		.uleb128 0xb
 2324 024b 3B       		.uleb128 0x3b
 2325 024c 0B       		.uleb128 0xb
 2326 024d 49       		.uleb128 0x49
 2327 024e 13       		.uleb128 0x13
 2328 024f 02       		.uleb128 0x2
 2329 0250 18       		.uleb128 0x18
 2330 0251 00       		.byte	0
 2331 0252 00       		.byte	0
 2332 0253 2D       		.uleb128 0x2d
 2333 0254 05       		.uleb128 0x5
 2334 0255 00       		.byte	0
 2335 0256 03       		.uleb128 0x3
 2336 0257 0E       		.uleb128 0xe
 2337 0258 3A       		.uleb128 0x3a
ARM GAS  /tmp/cc9XTc7L.s 			page 42


 2338 0259 0B       		.uleb128 0xb
 2339 025a 3B       		.uleb128 0x3b
 2340 025b 0B       		.uleb128 0xb
 2341 025c 49       		.uleb128 0x49
 2342 025d 13       		.uleb128 0x13
 2343 025e 02       		.uleb128 0x2
 2344 025f 18       		.uleb128 0x18
 2345 0260 00       		.byte	0
 2346 0261 00       		.byte	0
 2347 0262 2E       		.uleb128 0x2e
 2348 0263 05       		.uleb128 0x5
 2349 0264 00       		.byte	0
 2350 0265 31       		.uleb128 0x31
 2351 0266 13       		.uleb128 0x13
 2352 0267 02       		.uleb128 0x2
 2353 0268 18       		.uleb128 0x18
 2354 0269 00       		.byte	0
 2355 026a 00       		.byte	0
 2356 026b 2F       		.uleb128 0x2f
 2357 026c 1D       		.uleb128 0x1d
 2358 026d 01       		.byte	0x1
 2359 026e 31       		.uleb128 0x31
 2360 026f 13       		.uleb128 0x13
 2361 0270 11       		.uleb128 0x11
 2362 0271 01       		.uleb128 0x1
 2363 0272 12       		.uleb128 0x12
 2364 0273 06       		.uleb128 0x6
 2365 0274 58       		.uleb128 0x58
 2366 0275 0B       		.uleb128 0xb
 2367 0276 59       		.uleb128 0x59
 2368 0277 0B       		.uleb128 0xb
 2369 0278 00       		.byte	0
 2370 0279 00       		.byte	0
 2371 027a 30       		.uleb128 0x30
 2372 027b 1D       		.uleb128 0x1d
 2373 027c 01       		.byte	0x1
 2374 027d 31       		.uleb128 0x31
 2375 027e 13       		.uleb128 0x13
 2376 027f 52       		.uleb128 0x52
 2377 0280 01       		.uleb128 0x1
 2378 0281 55       		.uleb128 0x55
 2379 0282 17       		.uleb128 0x17
 2380 0283 58       		.uleb128 0x58
 2381 0284 0B       		.uleb128 0xb
 2382 0285 59       		.uleb128 0x59
 2383 0286 0B       		.uleb128 0xb
 2384 0287 00       		.byte	0
 2385 0288 00       		.byte	0
 2386 0289 31       		.uleb128 0x31
 2387 028a 1D       		.uleb128 0x1d
 2388 028b 01       		.byte	0x1
 2389 028c 31       		.uleb128 0x31
 2390 028d 13       		.uleb128 0x13
 2391 028e 52       		.uleb128 0x52
 2392 028f 01       		.uleb128 0x1
 2393 0290 55       		.uleb128 0x55
 2394 0291 17       		.uleb128 0x17
ARM GAS  /tmp/cc9XTc7L.s 			page 43


 2395 0292 58       		.uleb128 0x58
 2396 0293 0B       		.uleb128 0xb
 2397 0294 59       		.uleb128 0x59
 2398 0295 05       		.uleb128 0x5
 2399 0296 01       		.uleb128 0x1
 2400 0297 13       		.uleb128 0x13
 2401 0298 00       		.byte	0
 2402 0299 00       		.byte	0
 2403 029a 32       		.uleb128 0x32
 2404 029b 1D       		.uleb128 0x1d
 2405 029c 01       		.byte	0x1
 2406 029d 31       		.uleb128 0x31
 2407 029e 13       		.uleb128 0x13
 2408 029f 11       		.uleb128 0x11
 2409 02a0 01       		.uleb128 0x1
 2410 02a1 12       		.uleb128 0x12
 2411 02a2 06       		.uleb128 0x6
 2412 02a3 58       		.uleb128 0x58
 2413 02a4 0B       		.uleb128 0xb
 2414 02a5 59       		.uleb128 0x59
 2415 02a6 05       		.uleb128 0x5
 2416 02a7 01       		.uleb128 0x1
 2417 02a8 13       		.uleb128 0x13
 2418 02a9 00       		.byte	0
 2419 02aa 00       		.byte	0
 2420 02ab 33       		.uleb128 0x33
 2421 02ac 0B       		.uleb128 0xb
 2422 02ad 01       		.byte	0x1
 2423 02ae 11       		.uleb128 0x11
 2424 02af 01       		.uleb128 0x1
 2425 02b0 12       		.uleb128 0x12
 2426 02b1 06       		.uleb128 0x6
 2427 02b2 00       		.byte	0
 2428 02b3 00       		.byte	0
 2429 02b4 34       		.uleb128 0x34
 2430 02b5 34       		.uleb128 0x34
 2431 02b6 00       		.byte	0
 2432 02b7 31       		.uleb128 0x31
 2433 02b8 13       		.uleb128 0x13
 2434 02b9 00       		.byte	0
 2435 02ba 00       		.byte	0
 2436 02bb 35       		.uleb128 0x35
 2437 02bc 34       		.uleb128 0x34
 2438 02bd 00       		.byte	0
 2439 02be 03       		.uleb128 0x3
 2440 02bf 0E       		.uleb128 0xe
 2441 02c0 3A       		.uleb128 0x3a
 2442 02c1 0B       		.uleb128 0xb
 2443 02c2 3B       		.uleb128 0x3b
 2444 02c3 05       		.uleb128 0x5
 2445 02c4 49       		.uleb128 0x49
 2446 02c5 13       		.uleb128 0x13
 2447 02c6 3F       		.uleb128 0x3f
 2448 02c7 19       		.uleb128 0x19
 2449 02c8 3C       		.uleb128 0x3c
 2450 02c9 19       		.uleb128 0x19
 2451 02ca 00       		.byte	0
ARM GAS  /tmp/cc9XTc7L.s 			page 44


 2452 02cb 00       		.byte	0
 2453 02cc 36       		.uleb128 0x36
 2454 02cd 34       		.uleb128 0x34
 2455 02ce 00       		.byte	0
 2456 02cf 03       		.uleb128 0x3
 2457 02d0 08       		.uleb128 0x8
 2458 02d1 3A       		.uleb128 0x3a
 2459 02d2 0B       		.uleb128 0xb
 2460 02d3 3B       		.uleb128 0x3b
 2461 02d4 05       		.uleb128 0x5
 2462 02d5 49       		.uleb128 0x49
 2463 02d6 13       		.uleb128 0x13
 2464 02d7 3F       		.uleb128 0x3f
 2465 02d8 19       		.uleb128 0x19
 2466 02d9 3C       		.uleb128 0x3c
 2467 02da 19       		.uleb128 0x19
 2468 02db 00       		.byte	0
 2469 02dc 00       		.byte	0
 2470 02dd 37       		.uleb128 0x37
 2471 02de 2E       		.uleb128 0x2e
 2472 02df 01       		.byte	0x1
 2473 02e0 3F       		.uleb128 0x3f
 2474 02e1 19       		.uleb128 0x19
 2475 02e2 03       		.uleb128 0x3
 2476 02e3 0E       		.uleb128 0xe
 2477 02e4 3A       		.uleb128 0x3a
 2478 02e5 0B       		.uleb128 0xb
 2479 02e6 3B       		.uleb128 0x3b
 2480 02e7 0B       		.uleb128 0xb
 2481 02e8 27       		.uleb128 0x27
 2482 02e9 19       		.uleb128 0x19
 2483 02ea 3C       		.uleb128 0x3c
 2484 02eb 19       		.uleb128 0x19
 2485 02ec 01       		.uleb128 0x1
 2486 02ed 13       		.uleb128 0x13
 2487 02ee 00       		.byte	0
 2488 02ef 00       		.byte	0
 2489 02f0 38       		.uleb128 0x38
 2490 02f1 2E       		.uleb128 0x2e
 2491 02f2 01       		.byte	0x1
 2492 02f3 3F       		.uleb128 0x3f
 2493 02f4 19       		.uleb128 0x19
 2494 02f5 03       		.uleb128 0x3
 2495 02f6 0E       		.uleb128 0xe
 2496 02f7 3A       		.uleb128 0x3a
 2497 02f8 0B       		.uleb128 0xb
 2498 02f9 3B       		.uleb128 0x3b
 2499 02fa 0B       		.uleb128 0xb
 2500 02fb 27       		.uleb128 0x27
 2501 02fc 19       		.uleb128 0x19
 2502 02fd 3C       		.uleb128 0x3c
 2503 02fe 19       		.uleb128 0x19
 2504 02ff 00       		.byte	0
 2505 0300 00       		.byte	0
 2506 0301 00       		.byte	0
 2507              		.section	.debug_loc,"",%progbits
 2508              	.Ldebug_loc0:
ARM GAS  /tmp/cc9XTc7L.s 			page 45


 2509              	.LLST0:
 2510 0000 00000000 		.4byte	.LVL0
 2511 0004 0E000000 		.4byte	.LVL3
 2512 0008 0100     		.2byte	0x1
 2513 000a 50       		.byte	0x50
 2514 000b 0E000000 		.4byte	.LVL3
 2515 000f 26000000 		.4byte	.LVL6
 2516 0013 0100     		.2byte	0x1
 2517 0015 54       		.byte	0x54
 2518 0016 26000000 		.4byte	.LVL6
 2519 001a 2C000000 		.4byte	.LFE227
 2520 001e 0400     		.2byte	0x4
 2521 0020 F3       		.byte	0xf3
 2522 0021 01       		.uleb128 0x1
 2523 0022 50       		.byte	0x50
 2524 0023 9F       		.byte	0x9f
 2525 0024 00000000 		.4byte	0
 2526 0028 00000000 		.4byte	0
 2527              	.LLST1:
 2528 002c 06000000 		.4byte	.LVL1
 2529 0030 0E000000 		.4byte	.LVL3
 2530 0034 0100     		.2byte	0x1
 2531 0036 50       		.byte	0x50
 2532 0037 0E000000 		.4byte	.LVL3
 2533 003b 26000000 		.4byte	.LVL6
 2534 003f 0100     		.2byte	0x1
 2535 0041 54       		.byte	0x54
 2536 0042 26000000 		.4byte	.LVL6
 2537 0046 2C000000 		.4byte	.LFE227
 2538 004a 0400     		.2byte	0x4
 2539 004c F3       		.byte	0xf3
 2540 004d 01       		.uleb128 0x1
 2541 004e 50       		.byte	0x50
 2542 004f 9F       		.byte	0x9f
 2543 0050 00000000 		.4byte	0
 2544 0054 00000000 		.4byte	0
 2545              	.LLST2:
 2546 0058 0A000000 		.4byte	.LVL2
 2547 005c 0E000000 		.4byte	.LVL3
 2548 0060 0300     		.2byte	0x3
 2549 0062 70       		.byte	0x70
 2550 0063 14       		.sleb128 20
 2551 0064 9F       		.byte	0x9f
 2552 0065 0E000000 		.4byte	.LVL3
 2553 0069 11000000 		.4byte	.LVL4-1
 2554 006d 0100     		.2byte	0x1
 2555 006f 50       		.byte	0x50
 2556 0070 11000000 		.4byte	.LVL4-1
 2557 0074 26000000 		.4byte	.LVL6
 2558 0078 0300     		.2byte	0x3
 2559 007a 74       		.byte	0x74
 2560 007b 14       		.sleb128 20
 2561 007c 9F       		.byte	0x9f
 2562 007d 26000000 		.4byte	.LVL6
 2563 0081 2C000000 		.4byte	.LFE227
 2564 0085 0600     		.2byte	0x6
 2565 0087 F3       		.byte	0xf3
ARM GAS  /tmp/cc9XTc7L.s 			page 46


 2566 0088 01       		.uleb128 0x1
 2567 0089 50       		.byte	0x50
 2568 008a 23       		.byte	0x23
 2569 008b 14       		.uleb128 0x14
 2570 008c 9F       		.byte	0x9f
 2571 008d 00000000 		.4byte	0
 2572 0091 00000000 		.4byte	0
 2573              	.LLST3:
 2574 0095 00000000 		.4byte	.LVL7
 2575 0099 04000000 		.4byte	.LVL8
 2576 009d 0300     		.2byte	0x3
 2577 009f 70       		.byte	0x70
 2578 00a0 14       		.sleb128 20
 2579 00a1 9F       		.byte	0x9f
 2580 00a2 04000000 		.4byte	.LVL8
 2581 00a6 0E000000 		.4byte	.LFE228
 2582 00aa 0100     		.2byte	0x1
 2583 00ac 52       		.byte	0x52
 2584 00ad 00000000 		.4byte	0
 2585 00b1 00000000 		.4byte	0
 2586              	.LLST4:
 2587 00b5 00000000 		.4byte	.LVL10
 2588 00b9 13000000 		.4byte	.LVL13-1
 2589 00bd 0100     		.2byte	0x1
 2590 00bf 50       		.byte	0x50
 2591 00c0 13000000 		.4byte	.LVL13-1
 2592 00c4 28000000 		.4byte	.LVL15
 2593 00c8 0100     		.2byte	0x1
 2594 00ca 54       		.byte	0x54
 2595 00cb 28000000 		.4byte	.LVL15
 2596 00cf 2C000000 		.4byte	.LFE229
 2597 00d3 0400     		.2byte	0x4
 2598 00d5 F3       		.byte	0xf3
 2599 00d6 01       		.uleb128 0x1
 2600 00d7 50       		.byte	0x50
 2601 00d8 9F       		.byte	0x9f
 2602 00d9 00000000 		.4byte	0
 2603 00dd 00000000 		.4byte	0
 2604              	.LLST5:
 2605 00e1 08000000 		.4byte	.LVL11
 2606 00e5 13000000 		.4byte	.LVL13-1
 2607 00e9 0100     		.2byte	0x1
 2608 00eb 50       		.byte	0x50
 2609 00ec 13000000 		.4byte	.LVL13-1
 2610 00f0 28000000 		.4byte	.LVL15
 2611 00f4 0100     		.2byte	0x1
 2612 00f6 54       		.byte	0x54
 2613 00f7 28000000 		.4byte	.LVL15
 2614 00fb 2C000000 		.4byte	.LFE229
 2615 00ff 0400     		.2byte	0x4
 2616 0101 F3       		.byte	0xf3
 2617 0102 01       		.uleb128 0x1
 2618 0103 50       		.byte	0x50
 2619 0104 9F       		.byte	0x9f
 2620 0105 00000000 		.4byte	0
 2621 0109 00000000 		.4byte	0
 2622              	.LLST6:
ARM GAS  /tmp/cc9XTc7L.s 			page 47


 2623 010d 08000000 		.4byte	.LVL11
 2624 0111 28000000 		.4byte	.LVL15
 2625 0115 0100     		.2byte	0x1
 2626 0117 55       		.byte	0x55
 2627 0118 00000000 		.4byte	0
 2628 011c 00000000 		.4byte	0
 2629              	.LLST8:
 2630 0120 0C000000 		.4byte	.LVL12
 2631 0124 13000000 		.4byte	.LVL13-1
 2632 0128 0100     		.2byte	0x1
 2633 012a 50       		.byte	0x50
 2634 012b 13000000 		.4byte	.LVL13-1
 2635 012f 28000000 		.4byte	.LVL15
 2636 0133 0100     		.2byte	0x1
 2637 0135 54       		.byte	0x54
 2638 0136 28000000 		.4byte	.LVL15
 2639 013a 2C000000 		.4byte	.LFE229
 2640 013e 0400     		.2byte	0x4
 2641 0140 F3       		.byte	0xf3
 2642 0141 01       		.uleb128 0x1
 2643 0142 50       		.byte	0x50
 2644 0143 9F       		.byte	0x9f
 2645 0144 00000000 		.4byte	0
 2646 0148 00000000 		.4byte	0
 2647              	.LLST9:
 2648 014c 0C000000 		.4byte	.LVL12
 2649 0150 28000000 		.4byte	.LVL15
 2650 0154 0100     		.2byte	0x1
 2651 0156 55       		.byte	0x55
 2652 0157 00000000 		.4byte	0
 2653 015b 00000000 		.4byte	0
 2654              		.section	.debug_aranges,"",%progbits
 2655 0000 2C000000 		.4byte	0x2c
 2656 0004 0200     		.2byte	0x2
 2657 0006 00000000 		.4byte	.Ldebug_info0
 2658 000a 04       		.byte	0x4
 2659 000b 00       		.byte	0
 2660 000c 0000     		.2byte	0
 2661 000e 0000     		.2byte	0
 2662 0010 00000000 		.4byte	.LFB227
 2663 0014 2C000000 		.4byte	.LFE227-.LFB227
 2664 0018 00000000 		.4byte	.LFB228
 2665 001c 0E000000 		.4byte	.LFE228-.LFB228
 2666 0020 00000000 		.4byte	.LFB229
 2667 0024 2C000000 		.4byte	.LFE229-.LFB229
 2668 0028 00000000 		.4byte	0
 2669 002c 00000000 		.4byte	0
 2670              		.section	.debug_ranges,"",%progbits
 2671              	.Ldebug_ranges0:
 2672 0000 02000000 		.4byte	.LBB77
 2673 0004 04000000 		.4byte	.LBE77
 2674 0008 06000000 		.4byte	.LBB86
 2675 000c 0A000000 		.4byte	.LBE86
 2676 0010 00000000 		.4byte	0
 2677 0014 00000000 		.4byte	0
 2678 0018 04000000 		.4byte	.LBB94
 2679 001c 06000000 		.4byte	.LBE94
ARM GAS  /tmp/cc9XTc7L.s 			page 48


 2680 0020 0A000000 		.4byte	.LBB99
 2681 0024 0E000000 		.4byte	.LBE99
 2682 0028 00000000 		.4byte	0
 2683 002c 00000000 		.4byte	0
 2684 0030 04000000 		.4byte	.LBB115
 2685 0034 06000000 		.4byte	.LBE115
 2686 0038 08000000 		.4byte	.LBB133
 2687 003c 2C000000 		.4byte	.LBE133
 2688 0040 00000000 		.4byte	0
 2689 0044 00000000 		.4byte	0
 2690 0048 04000000 		.4byte	.LBB116
 2691 004c 06000000 		.4byte	.LBE116
 2692 0050 08000000 		.4byte	.LBB123
 2693 0054 0C000000 		.4byte	.LBE123
 2694 0058 00000000 		.4byte	0
 2695 005c 00000000 		.4byte	0
 2696 0060 00000000 		.4byte	.LFB227
 2697 0064 2C000000 		.4byte	.LFE227
 2698 0068 00000000 		.4byte	.LFB228
 2699 006c 0E000000 		.4byte	.LFE228
 2700 0070 00000000 		.4byte	.LFB229
 2701 0074 2C000000 		.4byte	.LFE229
 2702 0078 00000000 		.4byte	0
 2703 007c 00000000 		.4byte	0
 2704              		.section	.debug_line,"",%progbits
 2705              	.Ldebug_line0:
 2706 0000 94020000 		.section	.debug_str,"MS",%progbits,1
 2706      02000002 
 2706      00000201 
 2706      FB0E0D00 
 2706      01010101 
 2707              	.LASF106:
 2708 0000 65745F69 		.ascii	"et_interval\000"
 2708      6E746572 
 2708      76616C00 
 2709              	.LASF49:
 2710 000c 72656164 		.ascii	"ready_list_t\000"
 2710      795F6C69 
 2710      73745F74 
 2710      00
 2711              	.LASF84:
 2712 0019 7264796D 		.ascii	"rdymsg\000"
 2712      736700
 2713              	.LASF16:
 2714 0020 75696E74 		.ascii	"uint64_t\000"
 2714      36345F74 
 2714      00
 2715              	.LASF23:
 2716 0029 6576656E 		.ascii	"eventmask_t\000"
 2716      746D6173 
 2716      6B5F7400 
 2717              	.LASF5:
 2718 0035 5F5F7569 		.ascii	"__uint8_t\000"
 2718      6E74385F 
 2718      7400
 2719              	.LASF81:
 2720 003f 706F7274 		.ascii	"port_intctx\000"
ARM GAS  /tmp/cc9XTc7L.s 			page 49


 2720      5F696E74 
 2720      63747800 
 2721              	.LASF68:
 2722 004b 73797374 		.ascii	"system_debug_t\000"
 2722      656D5F64 
 2722      65627567 
 2722      5F7400
 2723              	.LASF108:
 2724 005a 706F7274 		.ascii	"port_lock\000"
 2724      5F6C6F63 
 2724      6B00
 2725              	.LASF12:
 2726 0064 6C6F6E67 		.ascii	"long long unsigned int\000"
 2726      206C6F6E 
 2726      6720756E 
 2726      7369676E 
 2726      65642069 
 2727              	.LASF139:
 2728 007b 63685654 		.ascii	"chVTDoResetI\000"
 2728      446F5265 
 2728      73657449 
 2728      00
 2729              	.LASF85:
 2730 0088 65786974 		.ascii	"exitcode\000"
 2730      636F6465 
 2730      00
 2731              	.LASF129:
 2732 0091 65767453 		.ascii	"evtStart\000"
 2732      74617274 
 2732      00
 2733              	.LASF65:
 2734 009a 76697274 		.ascii	"virtual_timers_list_t\000"
 2734      75616C5F 
 2734      74696D65 
 2734      72735F6C 
 2734      6973745F 
 2735              	.LASF130:
 2736 00b0 49544D5F 		.ascii	"ITM_RxBuffer\000"
 2736      52784275 
 2736      66666572 
 2736      00
 2737              	.LASF124:
 2738 00bd 64656C61 		.ascii	"delay\000"
 2738      7900
 2739              	.LASF48:
 2740 00c3 63685F74 		.ascii	"ch_threads_queue\000"
 2740      68726561 
 2740      64735F71 
 2740      75657565 
 2740      00
 2741              	.LASF29:
 2742 00d4 705F7072 		.ascii	"p_prio\000"
 2742      696F00
 2743              	.LASF10:
 2744 00db 6C6F6E67 		.ascii	"long long int\000"
 2744      206C6F6E 
 2744      6720696E 
ARM GAS  /tmp/cc9XTc7L.s 			page 50


 2744      7400
 2745              	.LASF1:
 2746 00e9 7369676E 		.ascii	"signed char\000"
 2746      65642063 
 2746      68617200 
 2747              	.LASF43:
 2748 00f5 705F6D70 		.ascii	"p_mpool\000"
 2748      6F6F6C00 
 2749              	.LASF90:
 2750 00fd 6D5F7175 		.ascii	"m_queue\000"
 2750      65756500 
 2751              	.LASF74:
 2752 0105 76746C69 		.ascii	"vtlist\000"
 2752      737400
 2753              	.LASF109:
 2754 010c 706F7274 		.ascii	"port_unlock\000"
 2754      5F756E6C 
 2754      6F636B00 
 2755              	.LASF72:
 2756 0118 63685F73 		.ascii	"ch_system\000"
 2756      79737465 
 2756      6D00
 2757              	.LASF7:
 2758 0122 6C6F6E67 		.ascii	"long int\000"
 2758      20696E74 
 2758      00
 2759              	.LASF19:
 2760 012b 74737461 		.ascii	"tstate_t\000"
 2760      74655F74 
 2760      00
 2761              	.LASF131:
 2762 0134 63684576 		.ascii	"chEvtBroadcastFlagsI\000"
 2762      7442726F 
 2762      61646361 
 2762      7374466C 
 2762      61677349 
 2763              	.LASF31:
 2764 0149 705F6E65 		.ascii	"p_newer\000"
 2764      77657200 
 2765              	.LASF54:
 2766 0151 725F6E65 		.ascii	"r_newer\000"
 2766      77657200 
 2767              	.LASF78:
 2768 0159 72656761 		.ascii	"regarm_t\000"
 2768      726D5F74 
 2768      00
 2769              	.LASF61:
 2770 0162 76745F70 		.ascii	"vt_prev\000"
 2770      72657600 
 2771              	.LASF93:
 2772 016a 6D757465 		.ascii	"mutex_t\000"
 2772      785F7400 
 2773              	.LASF114:
 2774 0172 76616C75 		.ascii	"value\000"
 2774      6500
 2775              	.LASF103:
 2776 0178 6576656E 		.ascii	"event_source_t\000"
ARM GAS  /tmp/cc9XTc7L.s 			page 51


 2776      745F736F 
 2776      75726365 
 2776      5F7400
 2777              	.LASF76:
 2778 0187 69646C65 		.ascii	"idle_thread_wa\000"
 2778      5F746872 
 2778      6561645F 
 2778      776100
 2779              	.LASF0:
 2780 0196 756E7369 		.ascii	"unsigned int\000"
 2780      676E6564 
 2780      20696E74 
 2780      00
 2781              	.LASF60:
 2782 01a3 76745F6E 		.ascii	"vt_next\000"
 2782      65787400 
 2783              	.LASF62:
 2784 01ab 76745F64 		.ascii	"vt_delta\000"
 2784      656C7461 
 2784      00
 2785              	.LASF38:
 2786 01b4 705F6D73 		.ascii	"p_msgqueue\000"
 2786      67717565 
 2786      756500
 2787              	.LASF122:
 2788 01bf 63684576 		.ascii	"chEvtObjectInit\000"
 2788      744F626A 
 2788      65637449 
 2788      6E697400 
 2789              	.LASF4:
 2790 01cf 73686F72 		.ascii	"short unsigned int\000"
 2790      7420756E 
 2790      7369676E 
 2790      65642069 
 2790      6E7400
 2791              	.LASF45:
 2792 01e2 63685F74 		.ascii	"ch_thread\000"
 2792      68726561 
 2792      6400
 2793              	.LASF100:
 2794 01ec 656C5F77 		.ascii	"el_wflags\000"
 2794      666C6167 
 2794      7300
 2795              	.LASF75:
 2796 01f6 6D61696E 		.ascii	"mainthread\000"
 2796      74687265 
 2796      616400
 2797              	.LASF24:
 2798 0201 6576656E 		.ascii	"eventflags_t\000"
 2798      74666C61 
 2798      67735F74 
 2798      00
 2799              	.LASF22:
 2800 020e 6D73675F 		.ascii	"msg_t\000"
 2800      7400
 2801              	.LASF96:
 2802 0214 656C5F6E 		.ascii	"el_next\000"
ARM GAS  /tmp/cc9XTc7L.s 			page 52


 2802      65787400 
 2803              	.LASF71:
 2804 021c 63685F73 		.ascii	"ch_system_t\000"
 2804      79737465 
 2804      6D5F7400 
 2805              	.LASF128:
 2806 0228 6576744F 		.ascii	"evtObjectInit\000"
 2806      626A6563 
 2806      74496E69 
 2806      7400
 2807              	.LASF86:
 2808 0236 77746F62 		.ascii	"wtobjp\000"
 2808      6A7000
 2809              	.LASF50:
 2810 023d 63685F72 		.ascii	"ch_ready_list\000"
 2810      65616479 
 2810      5F6C6973 
 2810      7400
 2811              	.LASF132:
 2812 024b 63685654 		.ascii	"chVTDoSetI\000"
 2812      446F5365 
 2812      744900
 2813              	.LASF6:
 2814 0256 5F5F696E 		.ascii	"__int32_t\000"
 2814      7433325F 
 2814      7400
 2815              	.LASF113:
 2816 0260 63685654 		.ascii	"chVTObjectInit\000"
 2816      4F626A65 
 2816      6374496E 
 2816      697400
 2817              	.LASF79:
 2818 026f 73746B61 		.ascii	"stkalign_t\000"
 2818      6C69676E 
 2818      5F7400
 2819              	.LASF134:
 2820 027a 2E2E2F43 		.ascii	"../ChibiOS/os/various/evtimer.c\000"
 2820      68696269 
 2820      4F532F6F 
 2820      732F7661 
 2820      72696F75 
 2821              	.LASF94:
 2822 029a 6576656E 		.ascii	"event_listener_t\000"
 2822      745F6C69 
 2822      7374656E 
 2822      65725F74 
 2822      00
 2823              	.LASF37:
 2824 02ab 705F7761 		.ascii	"p_waiting\000"
 2824      6974696E 
 2824      6700
 2825              	.LASF105:
 2826 02b5 65745F65 		.ascii	"et_es\000"
 2826      7300
 2827              	.LASF77:
 2828 02bb 73697A65 		.ascii	"sizetype\000"
 2828      74797065 
ARM GAS  /tmp/cc9XTc7L.s 			page 53


 2828      00
 2829              	.LASF66:
 2830 02c4 63685F76 		.ascii	"ch_virtual_timers_list\000"
 2830      69727475 
 2830      616C5F74 
 2830      696D6572 
 2830      735F6C69 
 2831              	.LASF67:
 2832 02db 76745F6C 		.ascii	"vt_lasttime\000"
 2832      61737474 
 2832      696D6500 
 2833              	.LASF126:
 2834 02e7 63685654 		.ascii	"chVTSetI\000"
 2834      53657449 
 2834      00
 2835              	.LASF32:
 2836 02f0 705F6F6C 		.ascii	"p_older\000"
 2836      64657200 
 2837              	.LASF53:
 2838 02f8 725F6374 		.ascii	"r_ctx\000"
 2838      7800
 2839              	.LASF123:
 2840 02fe 63685654 		.ascii	"chVTSet\000"
 2840      53657400 
 2841              	.LASF83:
 2842 0306 746D5F63 		.ascii	"tm_calibration_t\000"
 2842      616C6962 
 2842      72617469 
 2842      6F6E5F74 
 2842      00
 2843              	.LASF36:
 2844 0317 705F7265 		.ascii	"p_refs\000"
 2844      667300
 2845              	.LASF56:
 2846 031e 725F6375 		.ascii	"r_current\000"
 2846      7272656E 
 2846      7400
 2847              	.LASF55:
 2848 0328 725F6F6C 		.ascii	"r_older\000"
 2848      64657200 
 2849              	.LASF133:
 2850 0330 474E5520 		.ascii	"GNU C 4.9.3 20141119 (release) [ARM/embedded-4_9-br"
 2850      4320342E 
 2850      392E3320 
 2850      32303134 
 2850      31313139 
 2851 0363 616E6368 		.ascii	"anch revision 218278] -mcpu=cortex-m4 -mfloat-abi=h"
 2851      20726576 
 2851      6973696F 
 2851      6E203231 
 2851      38323738 
 2852 0396 61726420 		.ascii	"ard -mfpu=fpv4-sp-d16 -mno-thumb-interwork -mthumb "
 2852      2D6D6670 
 2852      753D6670 
 2852      76342D73 
 2852      702D6431 
 2853 03c9 2D676764 		.ascii	"-ggdb -O2 -fomit-frame-pointer -falign-functions=16"
ARM GAS  /tmp/cc9XTc7L.s 			page 54


 2853      62202D4F 
 2853      32202D66 
 2853      6F6D6974 
 2853      2D667261 
 2854 03fc 202D6666 		.ascii	" -ffunction-sections -fdata-sections -fno-common -f"
 2854      756E6374 
 2854      696F6E2D 
 2854      73656374 
 2854      696F6E73 
 2855 042f 73696E67 		.ascii	"single-precision-constant\000"
 2855      6C652D70 
 2855      72656369 
 2855      73696F6E 
 2855      2D636F6E 
 2856              	.LASF98:
 2857 0449 656C5F65 		.ascii	"el_events\000"
 2857      76656E74 
 2857      7300
 2858              	.LASF11:
 2859 0453 5F5F7569 		.ascii	"__uint64_t\000"
 2859      6E743634 
 2859      5F7400
 2860              	.LASF20:
 2861 045e 74726566 		.ascii	"trefs_t\000"
 2861      735F7400 
 2862              	.LASF58:
 2863 0466 76697274 		.ascii	"virtual_timer_t\000"
 2863      75616C5F 
 2863      74696D65 
 2863      725F7400 
 2864              	.LASF28:
 2865 0476 705F7072 		.ascii	"p_prev\000"
 2865      657600
 2866              	.LASF21:
 2867 047d 74707269 		.ascii	"tprio_t\000"
 2867      6F5F7400 
 2868              	.LASF118:
 2869 0485 63685379 		.ascii	"chSysUnlockFromISR\000"
 2869      73556E6C 
 2869      6F636B46 
 2869      726F6D49 
 2869      535200
 2870              	.LASF89:
 2871 0498 6D757465 		.ascii	"mutex\000"
 2871      7800
 2872              	.LASF69:
 2873 049e 63685F73 		.ascii	"ch_system_debug\000"
 2873      79737465 
 2873      6D5F6465 
 2873      62756700 
 2874              	.LASF115:
 2875 04ae 5F426F6F 		.ascii	"_Bool\000"
 2875      6C00
 2876              	.LASF14:
 2877 04b4 696E7433 		.ascii	"int32_t\000"
 2877      325F7400 
 2878              	.LASF2:
ARM GAS  /tmp/cc9XTc7L.s 			page 55


 2879 04bc 756E7369 		.ascii	"unsigned char\000"
 2879      676E6564 
 2879      20636861 
 2879      7200
 2880              	.LASF97:
 2881 04ca 656C5F6C 		.ascii	"el_listener\000"
 2881      69737465 
 2881      6E657200 
 2882              	.LASF99:
 2883 04d6 656C5F66 		.ascii	"el_flags\000"
 2883      6C616773 
 2883      00
 2884              	.LASF41:
 2885 04df 705F6D74 		.ascii	"p_mtxlist\000"
 2885      786C6973 
 2885      7400
 2886              	.LASF3:
 2887 04e9 73686F72 		.ascii	"short int\000"
 2887      7420696E 
 2887      7400
 2888              	.LASF34:
 2889 04f3 705F7374 		.ascii	"p_state\000"
 2889      61746500 
 2890              	.LASF52:
 2891 04fb 725F7072 		.ascii	"r_prio\000"
 2891      696F00
 2892              	.LASF87:
 2893 0502 65776D61 		.ascii	"ewmask\000"
 2893      736B00
 2894              	.LASF27:
 2895 0509 705F6E65 		.ascii	"p_next\000"
 2895      787400
 2896              	.LASF18:
 2897 0510 746D6F64 		.ascii	"tmode_t\000"
 2897      655F7400 
 2898              	.LASF35:
 2899 0518 705F666C 		.ascii	"p_flags\000"
 2899      61677300 
 2900              	.LASF137:
 2901 0520 5F5F6675 		.ascii	"__func__\000"
 2901      6E635F5F 
 2901      00
 2902              	.LASF120:
 2903 0529 63685379 		.ascii	"chSysLock\000"
 2903      734C6F63 
 2903      6B00
 2904              	.LASF136:
 2905 0533 63685654 		.ascii	"chVTIsArmedI\000"
 2905      49734172 
 2905      6D656449 
 2905      00
 2906              	.LASF117:
 2907 0540 63684576 		.ascii	"chEvtBroadcastI\000"
 2907      7442726F 
 2907      61646361 
 2907      73744900 
 2908              	.LASF59:
ARM GAS  /tmp/cc9XTc7L.s 			page 56


 2909 0550 63685F76 		.ascii	"ch_virtual_timer\000"
 2909      69727475 
 2909      616C5F74 
 2909      696D6572 
 2909      00
 2910              	.LASF119:
 2911 0561 63685654 		.ascii	"chVTResetI\000"
 2911      52657365 
 2911      744900
 2912              	.LASF40:
 2913 056c 705F6570 		.ascii	"p_epending\000"
 2913      656E6469 
 2913      6E6700
 2914              	.LASF15:
 2915 0577 75696E74 		.ascii	"uint32_t\000"
 2915      33325F74 
 2915      00
 2916              	.LASF51:
 2917 0580 725F7175 		.ascii	"r_queue\000"
 2917      65756500 
 2918              	.LASF46:
 2919 0588 63685F74 		.ascii	"ch_threads_list\000"
 2919      68726561 
 2919      64735F6C 
 2919      69737400 
 2920              	.LASF135:
 2921 0598 2F686F6D 		.ascii	"/home/bhimebau/forge/annsynth/src\000"
 2921      652F6268 
 2921      696D6562 
 2921      61752F66 
 2921      6F726765 
 2922              	.LASF9:
 2923 05ba 6C6F6E67 		.ascii	"long unsigned int\000"
 2923      20756E73 
 2923      69676E65 
 2923      6420696E 
 2923      7400
 2924              	.LASF88:
 2925 05cc 63686172 		.ascii	"char\000"
 2925      00
 2926              	.LASF138:
 2927 05d1 746D7263 		.ascii	"tmrcb\000"
 2927      6200
 2928              	.LASF111:
 2929 05d7 706F7274 		.ascii	"port_unlock_from_isr\000"
 2929      5F756E6C 
 2929      6F636B5F 
 2929      66726F6D 
 2929      5F697372 
 2930              	.LASF26:
 2931 05ec 74687265 		.ascii	"thread_t\000"
 2931      61645F74 
 2931      00
 2932              	.LASF92:
 2933 05f5 6D5F6E65 		.ascii	"m_next\000"
 2933      787400
 2934              	.LASF25:
ARM GAS  /tmp/cc9XTc7L.s 			page 57


 2935 05fc 73797374 		.ascii	"systime_t\000"
 2935      696D655F 
 2935      7400
 2936              	.LASF42:
 2937 0606 705F7265 		.ascii	"p_realprio\000"
 2937      616C7072 
 2937      696F00
 2938              	.LASF57:
 2939 0611 76746675 		.ascii	"vtfunc_t\000"
 2939      6E635F74 
 2939      00
 2940              	.LASF8:
 2941 061a 5F5F7569 		.ascii	"__uint32_t\000"
 2941      6E743332 
 2941      5F7400
 2942              	.LASF112:
 2943 0625 5F5F7365 		.ascii	"__set_BASEPRI\000"
 2943      745F4241 
 2943      53455052 
 2943      4900
 2944              	.LASF70:
 2945 0633 70616E69 		.ascii	"panic_msg\000"
 2945      635F6D73 
 2945      6700
 2946              	.LASF82:
 2947 063d 6F666673 		.ascii	"offset\000"
 2947      657400
 2948              	.LASF80:
 2949 0644 636F6E74 		.ascii	"context\000"
 2949      65787400 
 2950              	.LASF17:
 2951 064c 7274636E 		.ascii	"rtcnt_t\000"
 2951      745F7400 
 2952              	.LASF110:
 2953 0654 706F7274 		.ascii	"port_lock_from_isr\000"
 2953      5F6C6F63 
 2953      6B5F6672 
 2953      6F6D5F69 
 2953      737200
 2954              	.LASF127:
 2955 0667 74696D65 		.ascii	"time\000"
 2955      00
 2956              	.LASF64:
 2957 066c 76745F70 		.ascii	"vt_par\000"
 2957      617200
 2958              	.LASF125:
 2959 0673 76746675 		.ascii	"vtfunc\000"
 2959      6E6300
 2960              	.LASF47:
 2961 067a 74687265 		.ascii	"threads_queue_t\000"
 2961      6164735F 
 2961      71756575 
 2961      655F7400 
 2962              	.LASF102:
 2963 068a 65735F6E 		.ascii	"es_next\000"
 2963      65787400 
 2964              	.LASF73:
ARM GAS  /tmp/cc9XTc7L.s 			page 58


 2965 0692 726C6973 		.ascii	"rlist\000"
 2965      7400
 2966              	.LASF101:
 2967 0698 6576656E 		.ascii	"event_source\000"
 2967      745F736F 
 2967      75726365 
 2967      00
 2968              	.LASF13:
 2969 06a5 75696E74 		.ascii	"uint8_t\000"
 2969      385F7400 
 2970              	.LASF116:
 2971 06ad 63685379 		.ascii	"chSysLockFromISR\000"
 2971      734C6F63 
 2971      6B46726F 
 2971      6D495352 
 2971      00
 2972              	.LASF33:
 2973 06be 705F6E61 		.ascii	"p_name\000"
 2973      6D6500
 2974              	.LASF44:
 2975 06c5 74687265 		.ascii	"threads_list_t\000"
 2975      6164735F 
 2975      6C697374 
 2975      5F7400
 2976              	.LASF121:
 2977 06d4 63685379 		.ascii	"chSysUnlock\000"
 2977      73556E6C 
 2977      6F636B00 
 2978              	.LASF39:
 2979 06e0 705F6D73 		.ascii	"p_msg\000"
 2979      6700
 2980              	.LASF107:
 2981 06e6 6576656E 		.ascii	"event_timer_t\000"
 2981      745F7469 
 2981      6D65725F 
 2981      7400
 2982              	.LASF104:
 2983 06f4 65745F76 		.ascii	"et_vt\000"
 2983      7400
 2984              	.LASF91:
 2985 06fa 6D5F6F77 		.ascii	"m_owner\000"
 2985      6E657200 
 2986              	.LASF30:
 2987 0702 705F6374 		.ascii	"p_ctx\000"
 2987      7800
 2988              	.LASF63:
 2989 0708 76745F66 		.ascii	"vt_func\000"
 2989      756E6300 
 2990              	.LASF95:
 2991 0710 6576656E 		.ascii	"event_listener\000"
 2991      745F6C69 
 2991      7374656E 
 2991      657200
 2992              		.ident	"GCC: (GNU Tools for ARM Embedded Processors) 4.9.3 20141119 (release) [ARM/embedded-4_9-br
ARM GAS  /tmp/cc9XTc7L.s 			page 59


DEFINED SYMBOLS
                            *ABS*:00000000 evtimer.c
     /tmp/cc9XTc7L.s:21     .text.tmrcb:00000000 $t
     /tmp/cc9XTc7L.s:26     .text.tmrcb:00000000 tmrcb
     /tmp/cc9XTc7L.s:104    .text.tmrcb:00000028 $d
     /tmp/cc9XTc7L.s:114    .text.evtObjectInit:00000000 $t
     /tmp/cc9XTc7L.s:120    .text.evtObjectInit:00000000 evtObjectInit
     /tmp/cc9XTc7L.s:158    .text.evtStart:00000000 $t
     /tmp/cc9XTc7L.s:164    .text.evtStart:00000000 evtStart
     /tmp/cc9XTc7L.s:247    .text.evtStart:00000028 $d
                     .debug_frame:00000010 $d
     /tmp/cc9XTc7L.s:113    .text.tmrcb:0000002c $t
     /tmp/cc9XTc7L.s:257    .text.evtStart:0000002c $t

UNDEFINED SYMBOLS
chEvtBroadcastFlagsI
chVTDoSetI
chVTDoResetI
