ARM GAS  /tmp/ccSQU2GF.s 			page 1


   1              		.syntax unified
   2              		.cpu cortex-m4
   3              		.eabi_attribute 27, 3
   4              		.eabi_attribute 28, 1
   5              		.fpu fpv4-sp-d16
   6              		.eabi_attribute 20, 1
   7              		.eabi_attribute 21, 1
   8              		.eabi_attribute 23, 3
   9              		.eabi_attribute 24, 1
  10              		.eabi_attribute 25, 1
  11              		.eabi_attribute 26, 1
  12              		.eabi_attribute 30, 2
  13              		.eabi_attribute 34, 1
  14              		.eabi_attribute 18, 4
  15              		.thumb
  16              		.file	"gpt.c"
  17              		.text
  18              	.Ltext0:
  19              		.cfi_sections	.debug_frame
  20              		.section	.text.gptInit,"ax",%progbits
  21              		.align	2
  22              		.p2align 4,,15
  23              		.global	gptInit
  24              		.thumb
  25              		.thumb_func
  26              		.type	gptInit, %function
  27              	gptInit:
  28              	.LFB255:
  29              		.file 1 "../ChibiOS/os/hal/src/gpt.c"
  30              		.loc 1 59 0
  31              		.cfi_startproc
  32              		@ args = 0, pretend = 0, frame = 0
  33              		@ frame_needed = 0, uses_anonymous_args = 0
  34              		@ link register save eliminated.
  35              		.loc 1 61 0
  36 0000 FFF7FEBF 		b	gpt_lld_init
  37              	.LVL0:
  38              		.cfi_endproc
  39              	.LFE255:
  40              		.size	gptInit, .-gptInit
  41 0004 AFF30080 		.section	.text.gptObjectInit,"ax",%progbits
  41      AFF30080 
  41      AFF30080 
  42              		.align	2
  43              		.p2align 4,,15
  44              		.global	gptObjectInit
  45              		.thumb
  46              		.thumb_func
  47              		.type	gptObjectInit, %function
  48              	gptObjectInit:
  49              	.LFB256:
  50              		.loc 1 71 0
  51              		.cfi_startproc
  52              		@ args = 0, pretend = 0, frame = 0
  53              		@ frame_needed = 0, uses_anonymous_args = 0
  54              		@ link register save eliminated.
  55              	.LVL1:
ARM GAS  /tmp/ccSQU2GF.s 			page 2


  56              		.loc 1 73 0
  57 0000 0122     		movs	r2, #1
  58              		.loc 1 74 0
  59 0002 0023     		movs	r3, #0
  60              		.loc 1 73 0
  61 0004 0270     		strb	r2, [r0]
  62              		.loc 1 74 0
  63 0006 4360     		str	r3, [r0, #4]
  64 0008 7047     		bx	lr
  65              		.cfi_endproc
  66              	.LFE256:
  67              		.size	gptObjectInit, .-gptObjectInit
  68 000a 00BFAFF3 		.section	.text.gptStart,"ax",%progbits
  68      0080
  69              		.align	2
  70              		.p2align 4,,15
  71              		.global	gptStart
  72              		.thumb
  73              		.thumb_func
  74              		.type	gptStart, %function
  75              	gptStart:
  76              	.LFB257:
  77              		.loc 1 85 0
  78              		.cfi_startproc
  79              		@ args = 0, pretend = 0, frame = 0
  80              		@ frame_needed = 0, uses_anonymous_args = 0
  81              	.LVL2:
  82 0000 10B5     		push	{r4, lr}
  83              		.cfi_def_cfa_offset 8
  84              		.cfi_offset 4, -8
  85              		.cfi_offset 14, -4
  86              	.LBB108:
  87              	.LBB109:
  88              	.LBB110:
  89              	.LBB111:
  90              	.LBB112:
  91              		.file 2 "../ChibiOS/os/ext/CMSIS/include/core_cmFunc.h"
  92              		.loc 2 546 0
  93 0002 2023     		movs	r3, #32
  94              	.LBE112:
  95              	.LBE111:
  96              	.LBE110:
  97              	.LBE109:
  98              	.LBE108:
  99              		.loc 1 85 0
 100 0004 0446     		mov	r4, r0
 101              	.LBB117:
 102              	.LBB116:
 103              	.LBB115:
 104              	.LBB114:
 105              	.LBB113:
 106              		.loc 2 546 0
 107              	@ 546 "../ChibiOS/os/ext/CMSIS/include/core_cmFunc.h" 1
 108 0006 83F31188 		MSR basepri, r3
 109              	@ 0 "" 2
 110              		.thumb
 111              	.LBE113:
ARM GAS  /tmp/ccSQU2GF.s 			page 3


 112              	.LBE114:
 113              	.LBE115:
 114              	.LBE116:
 115              	.LBE117:
 116              		.loc 1 92 0
 117 000a 4160     		str	r1, [r0, #4]
 118              		.loc 1 93 0
 119 000c FFF7FEFF 		bl	gpt_lld_start
 120              	.LVL3:
 121              		.loc 1 94 0
 122 0010 0223     		movs	r3, #2
 123 0012 2370     		strb	r3, [r4]
 124              	.LVL4:
 125              	.LBB118:
 126              	.LBB119:
 127              	.LBB120:
 128              	.LBB121:
 129              	.LBB122:
 130              	.LBB123:
 131              		.loc 2 546 0
 132 0014 0023     		movs	r3, #0
 133              	@ 546 "../ChibiOS/os/ext/CMSIS/include/core_cmFunc.h" 1
 134 0016 83F31188 		MSR basepri, r3
 135              	@ 0 "" 2
 136              		.thumb
 137 001a 10BD     		pop	{r4, pc}
 138              	.LBE123:
 139              	.LBE122:
 140              	.LBE121:
 141              	.LBE120:
 142              	.LBE119:
 143              	.LBE118:
 144              		.cfi_endproc
 145              	.LFE257:
 146              		.size	gptStart, .-gptStart
 147 001c AFF30080 		.section	.text.gptStop,"ax",%progbits
 148              		.align	2
 149              		.p2align 4,,15
 150              		.global	gptStop
 151              		.thumb
 152              		.thumb_func
 153              		.type	gptStop, %function
 154              	gptStop:
 155              	.LFB258:
 156              		.loc 1 105 0
 157              		.cfi_startproc
 158              		@ args = 0, pretend = 0, frame = 0
 159              		@ frame_needed = 0, uses_anonymous_args = 0
 160              	.LVL5:
 161 0000 10B5     		push	{r4, lr}
 162              		.cfi_def_cfa_offset 8
 163              		.cfi_offset 4, -8
 164              		.cfi_offset 14, -4
 165              	.LBB124:
 166              	.LBB125:
 167              	.LBB126:
 168              	.LBB127:
ARM GAS  /tmp/ccSQU2GF.s 			page 4


 169              	.LBB128:
 170              		.loc 2 546 0
 171 0002 2023     		movs	r3, #32
 172              	.LBE128:
 173              	.LBE127:
 174              	.LBE126:
 175              	.LBE125:
 176              	.LBE124:
 177              		.loc 1 105 0
 178 0004 0446     		mov	r4, r0
 179              	.LBB133:
 180              	.LBB132:
 181              	.LBB131:
 182              	.LBB130:
 183              	.LBB129:
 184              		.loc 2 546 0
 185              	@ 546 "../ChibiOS/os/ext/CMSIS/include/core_cmFunc.h" 1
 186 0006 83F31188 		MSR basepri, r3
 187              	@ 0 "" 2
 188              		.thumb
 189              	.LBE129:
 190              	.LBE130:
 191              	.LBE131:
 192              	.LBE132:
 193              	.LBE133:
 194              		.loc 1 112 0
 195 000a FFF7FEFF 		bl	gpt_lld_stop
 196              	.LVL6:
 197              		.loc 1 113 0
 198 000e 0123     		movs	r3, #1
 199 0010 2370     		strb	r3, [r4]
 200              	.LVL7:
 201              	.LBB134:
 202              	.LBB135:
 203              	.LBB136:
 204              	.LBB137:
 205              	.LBB138:
 206              	.LBB139:
 207              		.loc 2 546 0
 208 0012 0023     		movs	r3, #0
 209              	@ 546 "../ChibiOS/os/ext/CMSIS/include/core_cmFunc.h" 1
 210 0014 83F31188 		MSR basepri, r3
 211              	@ 0 "" 2
 212              		.thumb
 213 0018 10BD     		pop	{r4, pc}
 214              	.LBE139:
 215              	.LBE138:
 216              	.LBE137:
 217              	.LBE136:
 218              	.LBE135:
 219              	.LBE134:
 220              		.cfi_endproc
 221              	.LFE258:
 222              		.size	gptStop, .-gptStop
 223 001a 00BFAFF3 		.section	.text.gptChangeInterval,"ax",%progbits
 223      0080
 224              		.align	2
ARM GAS  /tmp/ccSQU2GF.s 			page 5


 225              		.p2align 4,,15
 226              		.global	gptChangeInterval
 227              		.thumb
 228              		.thumb_func
 229              		.type	gptChangeInterval, %function
 230              	gptChangeInterval:
 231              	.LFB259:
 232              		.loc 1 128 0
 233              		.cfi_startproc
 234              		@ args = 0, pretend = 0, frame = 0
 235              		@ frame_needed = 0, uses_anonymous_args = 0
 236              		@ link register save eliminated.
 237              	.LVL8:
 238              	.LBB140:
 239              	.LBB141:
 240              	.LBB142:
 241              	.LBB143:
 242              	.LBB144:
 243              		.loc 2 546 0
 244 0000 2023     		movs	r3, #32
 245              	@ 546 "../ChibiOS/os/ext/CMSIS/include/core_cmFunc.h" 1
 246 0002 83F31188 		MSR basepri, r3
 247              	@ 0 "" 2
 248              		.thumb
 249              	.LBE144:
 250              	.LBE143:
 251              	.LBE142:
 252              	.LBE141:
 253              	.LBE140:
 254              		.loc 1 135 0
 255 0006 C368     		ldr	r3, [r0, #12]
 256 0008 0139     		subs	r1, r1, #1
 257              	.LVL9:
 258 000a D962     		str	r1, [r3, #44]
 259              	.LVL10:
 260              	.LBB145:
 261              	.LBB146:
 262              	.LBB147:
 263              	.LBB148:
 264              	.LBB149:
 265              	.LBB150:
 266              		.loc 2 546 0
 267 000c 0023     		movs	r3, #0
 268              	@ 546 "../ChibiOS/os/ext/CMSIS/include/core_cmFunc.h" 1
 269 000e 83F31188 		MSR basepri, r3
 270              	@ 0 "" 2
 271              		.thumb
 272 0012 7047     		bx	lr
 273              	.LBE150:
 274              	.LBE149:
 275              	.LBE148:
 276              	.LBE147:
 277              	.LBE146:
 278              	.LBE145:
 279              		.cfi_endproc
 280              	.LFE259:
 281              		.size	gptChangeInterval, .-gptChangeInterval
ARM GAS  /tmp/ccSQU2GF.s 			page 6


 282 0014 AFF30080 		.section	.text.gptStartContinuous,"ax",%progbits
 282      AFF30080 
 282      AFF30080 
 283              		.align	2
 284              		.p2align 4,,15
 285              		.global	gptStartContinuous
 286              		.thumb
 287              		.thumb_func
 288              		.type	gptStartContinuous, %function
 289              	gptStartContinuous:
 290              	.LFB260:
 291              		.loc 1 147 0
 292              		.cfi_startproc
 293              		@ args = 0, pretend = 0, frame = 0
 294              		@ frame_needed = 0, uses_anonymous_args = 0
 295              	.LVL11:
 296 0000 08B5     		push	{r3, lr}
 297              		.cfi_def_cfa_offset 8
 298              		.cfi_offset 3, -8
 299              		.cfi_offset 14, -4
 300              	.LBB151:
 301              	.LBB152:
 302              	.LBB153:
 303              	.LBB154:
 304              	.LBB155:
 305              		.loc 2 546 0
 306 0002 2022     		movs	r2, #32
 307              	@ 546 "../ChibiOS/os/ext/CMSIS/include/core_cmFunc.h" 1
 308 0004 82F31188 		MSR basepri, r2
 309              	@ 0 "" 2
 310              	.LVL12:
 311              		.thumb
 312              	.LBE155:
 313              	.LBE154:
 314              	.LBE153:
 315              	.LBE152:
 316              	.LBE151:
 317              	.LBB156:
 318              	.LBB157:
 319              		.loc 1 169 0
 320 0008 0322     		movs	r2, #3
 321 000a 0270     		strb	r2, [r0]
 322              		.loc 1 170 0
 323 000c FFF7FEFF 		bl	gpt_lld_start_timer
 324              	.LVL13:
 325              	.LBE157:
 326              	.LBE156:
 327              	.LBB158:
 328              	.LBB159:
 329              	.LBB160:
 330              	.LBB161:
 331              	.LBB162:
 332              	.LBB163:
 333              		.loc 2 546 0
 334 0010 0023     		movs	r3, #0
 335              	@ 546 "../ChibiOS/os/ext/CMSIS/include/core_cmFunc.h" 1
 336 0012 83F31188 		MSR basepri, r3
ARM GAS  /tmp/ccSQU2GF.s 			page 7


 337              	@ 0 "" 2
 338              		.thumb
 339 0016 08BD     		pop	{r3, pc}
 340              	.LBE163:
 341              	.LBE162:
 342              	.LBE161:
 343              	.LBE160:
 344              	.LBE159:
 345              	.LBE158:
 346              		.cfi_endproc
 347              	.LFE260:
 348              		.size	gptStartContinuous, .-gptStartContinuous
 349 0018 AFF30080 		.section	.text.gptStartContinuousI,"ax",%progbits
 349      AFF30080 
 350              		.align	2
 351              		.p2align 4,,15
 352              		.global	gptStartContinuousI
 353              		.thumb
 354              		.thumb_func
 355              		.type	gptStartContinuousI, %function
 356              	gptStartContinuousI:
 357              	.LFB261:
 358              		.loc 1 162 0
 359              		.cfi_startproc
 360              		@ args = 0, pretend = 0, frame = 0
 361              		@ frame_needed = 0, uses_anonymous_args = 0
 362              		@ link register save eliminated.
 363              	.LVL14:
 364              		.loc 1 169 0
 365 0000 0323     		movs	r3, #3
 366 0002 0370     		strb	r3, [r0]
 367              		.loc 1 170 0
 368 0004 FFF7FEBF 		b	gpt_lld_start_timer
 369              	.LVL15:
 370              		.cfi_endproc
 371              	.LFE261:
 372              		.size	gptStartContinuousI, .-gptStartContinuousI
 373 0008 AFF30080 		.section	.text.gptStartOneShot,"ax",%progbits
 373      AFF30080 
 374              		.align	2
 375              		.p2align 4,,15
 376              		.global	gptStartOneShot
 377              		.thumb
 378              		.thumb_func
 379              		.type	gptStartOneShot, %function
 380              	gptStartOneShot:
 381              	.LFB262:
 382              		.loc 1 181 0
 383              		.cfi_startproc
 384              		@ args = 0, pretend = 0, frame = 0
 385              		@ frame_needed = 0, uses_anonymous_args = 0
 386              	.LVL16:
 387 0000 08B5     		push	{r3, lr}
 388              		.cfi_def_cfa_offset 8
 389              		.cfi_offset 3, -8
 390              		.cfi_offset 14, -4
 391              	.LBB164:
ARM GAS  /tmp/ccSQU2GF.s 			page 8


 392              	.LBB165:
 393              	.LBB166:
 394              	.LBB167:
 395              	.LBB168:
 396              		.loc 2 546 0
 397 0002 2022     		movs	r2, #32
 398              	@ 546 "../ChibiOS/os/ext/CMSIS/include/core_cmFunc.h" 1
 399 0004 82F31188 		MSR basepri, r2
 400              	@ 0 "" 2
 401              	.LVL17:
 402              		.thumb
 403              	.LBE168:
 404              	.LBE167:
 405              	.LBE166:
 406              	.LBE165:
 407              	.LBE164:
 408              	.LBB169:
 409              	.LBB170:
 410              		.loc 1 204 0
 411 0008 0422     		movs	r2, #4
 412 000a 0270     		strb	r2, [r0]
 413              		.loc 1 205 0
 414 000c FFF7FEFF 		bl	gpt_lld_start_timer
 415              	.LVL18:
 416              	.LBE170:
 417              	.LBE169:
 418              	.LBB171:
 419              	.LBB172:
 420              	.LBB173:
 421              	.LBB174:
 422              	.LBB175:
 423              	.LBB176:
 424              		.loc 2 546 0
 425 0010 0023     		movs	r3, #0
 426              	@ 546 "../ChibiOS/os/ext/CMSIS/include/core_cmFunc.h" 1
 427 0012 83F31188 		MSR basepri, r3
 428              	@ 0 "" 2
 429              		.thumb
 430 0016 08BD     		pop	{r3, pc}
 431              	.LBE176:
 432              	.LBE175:
 433              	.LBE174:
 434              	.LBE173:
 435              	.LBE172:
 436              	.LBE171:
 437              		.cfi_endproc
 438              	.LFE262:
 439              		.size	gptStartOneShot, .-gptStartOneShot
 440 0018 AFF30080 		.section	.text.gptStartOneShotI,"ax",%progbits
 440      AFF30080 
 441              		.align	2
 442              		.p2align 4,,15
 443              		.global	gptStartOneShotI
 444              		.thumb
 445              		.thumb_func
 446              		.type	gptStartOneShotI, %function
 447              	gptStartOneShotI:
ARM GAS  /tmp/ccSQU2GF.s 			page 9


 448              	.LFB263:
 449              		.loc 1 196 0
 450              		.cfi_startproc
 451              		@ args = 0, pretend = 0, frame = 0
 452              		@ frame_needed = 0, uses_anonymous_args = 0
 453              		@ link register save eliminated.
 454              	.LVL19:
 455              		.loc 1 204 0
 456 0000 0423     		movs	r3, #4
 457 0002 0370     		strb	r3, [r0]
 458              		.loc 1 205 0
 459 0004 FFF7FEBF 		b	gpt_lld_start_timer
 460              	.LVL20:
 461              		.cfi_endproc
 462              	.LFE263:
 463              		.size	gptStartOneShotI, .-gptStartOneShotI
 464 0008 AFF30080 		.section	.text.gptStopTimer,"ax",%progbits
 464      AFF30080 
 465              		.align	2
 466              		.p2align 4,,15
 467              		.global	gptStopTimer
 468              		.thumb
 469              		.thumb_func
 470              		.type	gptStopTimer, %function
 471              	gptStopTimer:
 472              	.LFB264:
 473              		.loc 1 215 0
 474              		.cfi_startproc
 475              		@ args = 0, pretend = 0, frame = 0
 476              		@ frame_needed = 0, uses_anonymous_args = 0
 477              	.LVL21:
 478 0000 08B5     		push	{r3, lr}
 479              		.cfi_def_cfa_offset 8
 480              		.cfi_offset 3, -8
 481              		.cfi_offset 14, -4
 482              	.LBB177:
 483              	.LBB178:
 484              	.LBB179:
 485              	.LBB180:
 486              	.LBB181:
 487              		.loc 2 546 0
 488 0002 2022     		movs	r2, #32
 489              	@ 546 "../ChibiOS/os/ext/CMSIS/include/core_cmFunc.h" 1
 490 0004 82F31188 		MSR basepri, r2
 491              	@ 0 "" 2
 492              	.LVL22:
 493              		.thumb
 494              	.LBE181:
 495              	.LBE180:
 496              	.LBE179:
 497              	.LBE178:
 498              	.LBE177:
 499              	.LBB182:
 500              	.LBB183:
 501              		.loc 1 237 0
 502 0008 0222     		movs	r2, #2
 503 000a 0270     		strb	r2, [r0]
ARM GAS  /tmp/ccSQU2GF.s 			page 10


 504              		.loc 1 238 0
 505 000c FFF7FEFF 		bl	gpt_lld_stop_timer
 506              	.LVL23:
 507              	.LBE183:
 508              	.LBE182:
 509              	.LBB184:
 510              	.LBB185:
 511              	.LBB186:
 512              	.LBB187:
 513              	.LBB188:
 514              	.LBB189:
 515              		.loc 2 546 0
 516 0010 0023     		movs	r3, #0
 517              	@ 546 "../ChibiOS/os/ext/CMSIS/include/core_cmFunc.h" 1
 518 0012 83F31188 		MSR basepri, r3
 519              	@ 0 "" 2
 520              		.thumb
 521 0016 08BD     		pop	{r3, pc}
 522              	.LBE189:
 523              	.LBE188:
 524              	.LBE187:
 525              	.LBE186:
 526              	.LBE185:
 527              	.LBE184:
 528              		.cfi_endproc
 529              	.LFE264:
 530              		.size	gptStopTimer, .-gptStopTimer
 531 0018 AFF30080 		.section	.text.gptStopTimerI,"ax",%progbits
 531      AFF30080 
 532              		.align	2
 533              		.p2align 4,,15
 534              		.global	gptStopTimerI
 535              		.thumb
 536              		.thumb_func
 537              		.type	gptStopTimerI, %function
 538              	gptStopTimerI:
 539              	.LFB265:
 540              		.loc 1 229 0
 541              		.cfi_startproc
 542              		@ args = 0, pretend = 0, frame = 0
 543              		@ frame_needed = 0, uses_anonymous_args = 0
 544              		@ link register save eliminated.
 545              	.LVL24:
 546              		.loc 1 237 0
 547 0000 0223     		movs	r3, #2
 548 0002 0370     		strb	r3, [r0]
 549              		.loc 1 238 0
 550 0004 FFF7FEBF 		b	gpt_lld_stop_timer
 551              	.LVL25:
 552              		.cfi_endproc
 553              	.LFE265:
 554              		.size	gptStopTimerI, .-gptStopTimerI
 555 0008 AFF30080 		.section	.text.gptPolledDelay,"ax",%progbits
 555      AFF30080 
 556              		.align	2
 557              		.p2align 4,,15
 558              		.global	gptPolledDelay
ARM GAS  /tmp/ccSQU2GF.s 			page 11


 559              		.thumb
 560              		.thumb_func
 561              		.type	gptPolledDelay, %function
 562              	gptPolledDelay:
 563              	.LFB266:
 564              		.loc 1 253 0
 565              		.cfi_startproc
 566              		@ args = 0, pretend = 0, frame = 0
 567              		@ frame_needed = 0, uses_anonymous_args = 0
 568              	.LVL26:
 569 0000 10B5     		push	{r4, lr}
 570              		.cfi_def_cfa_offset 8
 571              		.cfi_offset 4, -8
 572              		.cfi_offset 14, -4
 573              		.loc 1 258 0
 574 0002 0423     		movs	r3, #4
 575              		.loc 1 253 0
 576 0004 0446     		mov	r4, r0
 577              		.loc 1 258 0
 578 0006 0370     		strb	r3, [r0]
 579              		.loc 1 259 0
 580 0008 FFF7FEFF 		bl	gpt_lld_polled_delay
 581              	.LVL27:
 582              		.loc 1 260 0
 583 000c 0223     		movs	r3, #2
 584 000e 2370     		strb	r3, [r4]
 585 0010 10BD     		pop	{r4, pc}
 586              		.cfi_endproc
 587              	.LFE266:
 588              		.size	gptPolledDelay, .-gptPolledDelay
 589 0012 00BFAFF3 		.text
 589      0080AFF3 
 589      0080AFF3 
 589      0080
 590              	.Letext0:
 591              		.file 3 "/l/arm2/gcc-arm-none-eabi-4_9-2014q4/arm-none-eabi/include/machine/_default_types.h"
 592              		.file 4 "/l/arm2/gcc-arm-none-eabi-4_9-2014q4/arm-none-eabi/include/stdint.h"
 593              		.file 5 "../ChibiOS/os/rt/ports/ARMCMx/compilers/GCC/chtypes.h"
 594              		.file 6 "../ChibiOS/os/rt/include/chsystypes.h"
 595              		.file 7 "../ChibiOS/os/rt/include/chschd.h"
 596              		.file 8 "../ChibiOS/os/rt/ports/ARMCMx/chcore.h"
 597              		.file 9 "../ChibiOS/os/rt/ports/ARMCMx/chcore_v7m.h"
 598              		.file 10 "../ChibiOS/os/hal/ports/STM32/LLD/TIMv1/stm32_tim.h"
 599              		.file 11 "../ChibiOS/os/rt/include/chtm.h"
 600              		.file 12 "../ChibiOS/os/rt/include/chmtx.h"
 601              		.file 13 "../ChibiOS/os/hal/include/gpt.h"
 602              		.file 14 "../ChibiOS/os/hal/ports/STM32/LLD/TIMv1/gpt_lld.h"
 603              		.file 15 "../ChibiOS/os/rt/include/chsys.h"
 604              		.file 16 "../ChibiOS/os/hal/osal/rt/osal.h"
 605              		.file 17 "../ChibiOS/os/ext/CMSIS/include/core_cm4.h"