ARM GAS  /tmp/ccSQU2GF.s 			page 1


   1              		.syntax unified
   2              		.cpu cortex-m4
   3              		.eabi_attribute 27, 3
   4              		.eabi_attribute 28, 1
   5              		.fpu fpv4-sp-d16
   6              		.eabi_attribute 20, 1
   7              		.eabi_attribute 21, 1
   8              		.eabi_attribute 23, 3
   9              		.eabi_attribute 24, 1
  10              		.eabi_attribute 25, 1
  11              		.eabi_attribute 26, 1
  12              		.eabi_attribute 30, 2
  13              		.eabi_attribute 34, 1
  14              		.eabi_attribute 18, 4
  15              		.thumb
  16              		.file	"gpt.c"
  17              		.text
  18              	.Ltext0:
  19              		.cfi_sections	.debug_frame
  20              		.section	.text.gptInit,"ax",%progbits
  21              		.align	2
  22              		.p2align 4,,15
  23              		.global	gptInit
  24              		.thumb
  25              		.thumb_func
  26              		.type	gptInit, %function
  27              	gptInit:
  28              	.LFB255:
  29              		.file 1 "../ChibiOS/os/hal/src/gpt.c"
  30              		.loc 1 59 0
  31              		.cfi_startproc
  32              		@ args = 0, pretend = 0, frame = 0
  33              		@ frame_needed = 0, uses_anonymous_args = 0
  34              		@ link register save eliminated.
  35              		.loc 1 61 0
  36 0000 FFF7FEBF 		b	gpt_lld_init
  37              	.LVL0:
  38              		.cfi_endproc
  39              	.LFE255:
  40              		.size	gptInit, .-gptInit
  41 0004 AFF30080 		.section	.text.gptObjectInit,"ax",%progbits
  41      AFF30080 
  41      AFF30080 
  42              		.align	2
  43              		.p2align 4,,15
  44              		.global	gptObjectInit
  45              		.thumb
  46              		.thumb_func
  47              		.type	gptObjectInit, %function
  48              	gptObjectInit:
  49              	.LFB256:
  50              		.loc 1 71 0
  51              		.cfi_startproc
  52              		@ args = 0, pretend = 0, frame = 0
  53              		@ frame_needed = 0, uses_anonymous_args = 0
  54              		@ link register save eliminated.
  55              	.LVL1:
ARM GAS  /tmp/ccSQU2GF.s 			page 2


  56              		.loc 1 73 0
  57 0000 0122     		movs	r2, #1
  58              		.loc 1 74 0
  59 0002 0023     		movs	r3, #0
  60              		.loc 1 73 0
  61 0004 0270     		strb	r2, [r0]
  62              		.loc 1 74 0
  63 0006 4360     		str	r3, [r0, #4]
  64 0008 7047     		bx	lr
  65              		.cfi_endproc
  66              	.LFE256:
  67              		.size	gptObjectInit, .-gptObjectInit
  68 000a 00BFAFF3 		.section	.text.gptStart,"ax",%progbits
  68      0080
  69              		.align	2
  70              		.p2align 4,,15
  71              		.global	gptStart
  72              		.thumb
  73              		.thumb_func
  74              		.type	gptStart, %function
  75              	gptStart:
  76              	.LFB257:
  77              		.loc 1 85 0
  78              		.cfi_startproc
  79              		@ args = 0, pretend = 0, frame = 0
  80              		@ frame_needed = 0, uses_anonymous_args = 0
  81              	.LVL2:
  82 0000 10B5     		push	{r4, lr}
  83              		.cfi_def_cfa_offset 8
  84              		.cfi_offset 4, -8
  85              		.cfi_offset 14, -4
  86              	.LBB108:
  87              	.LBB109:
  88              	.LBB110:
  89              	.LBB111:
  90              	.LBB112:
  91              		.file 2 "../ChibiOS/os/ext/CMSIS/include/core_cmFunc.h"
  92              		.loc 2 546 0
  93 0002 2023     		movs	r3, #32
  94              	.LBE112:
  95              	.LBE111:
  96              	.LBE110:
  97              	.LBE109:
  98              	.LBE108:
  99              		.loc 1 85 0
 100 0004 0446     		mov	r4, r0
 101              	.LBB117:
 102              	.LBB116:
 103              	.LBB115:
 104              	.LBB114:
 105              	.LBB113:
 106              		.loc 2 546 0
 107              	@ 546 "../ChibiOS/os/ext/CMSIS/include/core_cmFunc.h" 1
 108 0006 83F31188 		MSR basepri, r3
 109              	@ 0 "" 2
 110              		.thumb
 111              	.LBE113:
ARM GAS  /tmp/ccSQU2GF.s 			page 3


 112              	.LBE114:
 113              	.LBE115:
 114              	.LBE116:
 115              	.LBE117:
 116              		.loc 1 92 0
 117 000a 4160     		str	r1, [r0, #4]
 118              		.loc 1 93 0
 119 000c FFF7FEFF 		bl	gpt_lld_start
 120              	.LVL3:
 121              		.loc 1 94 0
 122 0010 0223     		movs	r3, #2
 123 0012 2370     		strb	r3, [r4]
 124              	.LVL4:
 125              	.LBB118:
 126              	.LBB119:
 127              	.LBB120:
 128              	.LBB121:
 129              	.LBB122:
 130              	.LBB123:
 131              		.loc 2 546 0
 132 0014 0023     		movs	r3, #0
 133              	@ 546 "../ChibiOS/os/ext/CMSIS/include/core_cmFunc.h" 1
 134 0016 83F31188 		MSR basepri, r3
 135              	@ 0 "" 2
 136              		.thumb
 137 001a 10BD     		pop	{r4, pc}
 138              	.LBE123:
 139              	.LBE122:
 140              	.LBE121:
 141              	.LBE120:
 142              	.LBE119:
 143              	.LBE118:
 144              		.cfi_endproc
 145              	.LFE257:
 146              		.size	gptStart, .-gptStart
 147 001c AFF30080 		.section	.text.gptStop,"ax",%progbits
 148              		.align	2
 149              		.p2align 4,,15
 150              		.global	gptStop
 151              		.thumb
 152              		.thumb_func
 153              		.type	gptStop, %function
 154              	gptStop:
 155              	.LFB258:
 156              		.loc 1 105 0
 157              		.cfi_startproc
 158              		@ args = 0, pretend = 0, frame = 0
 159              		@ frame_needed = 0, uses_anonymous_args = 0
 160              	.LVL5:
 161 0000 10B5     		push	{r4, lr}
 162              		.cfi_def_cfa_offset 8
 163              		.cfi_offset 4, -8
 164              		.cfi_offset 14, -4
 165              	.LBB124:
 166              	.LBB125:
 167              	.LBB126:
 168              	.LBB127:
ARM GAS  /tmp/ccSQU2GF.s 			page 4


 169              	.LBB128:
 170              		.loc 2 546 0
 171 0002 2023     		movs	r3, #32
 172              	.LBE128:
 173              	.LBE127:
 174              	.LBE126:
 175              	.LBE125:
 176              	.LBE124:
 177              		.loc 1 105 0
 178 0004 0446     		mov	r4, r0
 179              	.LBB133:
 180              	.LBB132:
 181              	.LBB131:
 182              	.LBB130:
 183              	.LBB129:
 184              		.loc 2 546 0
 185              	@ 546 "../ChibiOS/os/ext/CMSIS/include/core_cmFunc.h" 1
 186 0006 83F31188 		MSR basepri, r3
 187              	@ 0 "" 2
 188              		.thumb
 189              	.LBE129:
 190              	.LBE130:
 191              	.LBE131:
 192              	.LBE132:
 193              	.LBE133:
 194              		.loc 1 112 0
 195 000a FFF7FEFF 		bl	gpt_lld_stop
 196              	.LVL6:
 197              		.loc 1 113 0
 198 000e 0123     		movs	r3, #1
 199 0010 2370     		strb	r3, [r4]
 200              	.LVL7:
 201              	.LBB134:
 202              	.LBB135:
 203              	.LBB136:
 204              	.LBB137:
 205              	.LBB138:
 206              	.LBB139:
 207              		.loc 2 546 0
 208 0012 0023     		movs	r3, #0
 209              	@ 546 "../ChibiOS/os/ext/CMSIS/include/core_cmFunc.h" 1
 210 0014 83F31188 		MSR basepri, r3
 211              	@ 0 "" 2
 212              		.thumb
 213 0018 10BD     		pop	{r4, pc}
 214              	.LBE139:
 215              	.LBE138:
 216              	.LBE137:
 217              	.LBE136:
 218              	.LBE135:
 219              	.LBE134:
 220              		.cfi_endproc
 221              	.LFE258:
 222              		.size	gptStop, .-gptStop
 223 001a 00BFAFF3 		.section	.text.gptChangeInterval,"ax",%progbits
 223      0080
 224              		.align	2
ARM GAS  /tmp/ccSQU2GF.s 			page 5


 225              		.p2align 4,,15
 226              		.global	gptChangeInterval
 227              		.thumb
 228              		.thumb_func
 229              		.type	gptChangeInterval, %function
 230              	gptChangeInterval:
 231              	.LFB259:
 232              		.loc 1 128 0
 233              		.cfi_startproc
 234              		@ args = 0, pretend = 0, frame = 0
 235              		@ frame_needed = 0, uses_anonymous_args = 0
 236              		@ link register save eliminated.
 237              	.LVL8:
 238              	.LBB140:
 239              	.LBB141:
 240              	.LBB142:
 241              	.LBB143:
 242              	.LBB144:
 243              		.loc 2 546 0
 244 0000 2023     		movs	r3, #32
 245              	@ 546 "../ChibiOS/os/ext/CMSIS/include/core_cmFunc.h" 1
 246 0002 83F31188 		MSR basepri, r3
 247              	@ 0 "" 2
 248              		.thumb
 249              	.LBE144:
 250              	.LBE143:
 251              	.LBE142:
 252              	.LBE141:
 253              	.LBE140:
 254              		.loc 1 135 0
 255 0006 C368     		ldr	r3, [r0, #12]
 256 0008 0139     		subs	r1, r1, #1
 257              	.LVL9:
 258 000a D962     		str	r1, [r3, #44]
 259              	.LVL10:
 260              	.LBB145:
 261              	.LBB146:
 262              	.LBB147:
 263              	.LBB148:
 264              	.LBB149:
 265              	.LBB150:
 266              		.loc 2 546 0
 267 000c 0023     		movs	r3, #0
 268              	@ 546 "../ChibiOS/os/ext/CMSIS/include/core_cmFunc.h" 1
 269 000e 83F31188 		MSR basepri, r3
 270              	@ 0 "" 2
 271              		.thumb
 272 0012 7047     		bx	lr
 273              	.LBE150:
 274              	.LBE149:
 275              	.LBE148:
 276              	.LBE147:
 277              	.LBE146:
 278              	.LBE145:
 279              		.cfi_endproc
 280              	.LFE259:
 281              		.size	gptChangeInterval, .-gptChangeInterval
ARM GAS  /tmp/ccSQU2GF.s 			page 6


 282 0014 AFF30080 		.section	.text.gptStartContinuous,"ax",%progbits
 282      AFF30080 
 282      AFF30080 
 283              		.align	2
 284              		.p2align 4,,15
 285              		.global	gptStartContinuous
 286              		.thumb
 287              		.thumb_func
 288              		.type	gptStartContinuous, %function
 289              	gptStartContinuous:
 290              	.LFB260:
 291              		.loc 1 147 0
 292              		.cfi_startproc
 293              		@ args = 0, pretend = 0, frame = 0
 294              		@ frame_needed = 0, uses_anonymous_args = 0
 295              	.LVL11:
 296 0000 08B5     		push	{r3, lr}
 297              		.cfi_def_cfa_offset 8
 298              		.cfi_offset 3, -8
 299              		.cfi_offset 14, -4
 300              	.LBB151:
 301              	.LBB152:
 302              	.LBB153:
 303              	.LBB154:
 304              	.LBB155:
 305              		.loc 2 546 0
 306 0002 2022     		movs	r2, #32
 307              	@ 546 "../ChibiOS/os/ext/CMSIS/include/core_cmFunc.h" 1
 308 0004 82F31188 		MSR basepri, r2
 309              	@ 0 "" 2
 310              	.LVL12:
 311              		.thumb
 312              	.LBE155:
 313              	.LBE154:
 314              	.LBE153:
 315              	.LBE152:
 316              	.LBE151:
 317              	.LBB156:
 318              	.LBB157:
 319              		.loc 1 169 0
 320 0008 0322     		movs	r2, #3
 321 000a 0270     		strb	r2, [r0]
 322              		.loc 1 170 0
 323 000c FFF7FEFF 		bl	gpt_lld_start_timer
 324              	.LVL13:
 325              	.LBE157:
 326              	.LBE156:
 327              	.LBB158:
 328              	.LBB159:
 329              	.LBB160:
 330              	.LBB161:
 331              	.LBB162:
 332              	.LBB163:
 333              		.loc 2 546 0
 334 0010 0023     		movs	r3, #0
 335              	@ 546 "../ChibiOS/os/ext/CMSIS/include/core_cmFunc.h" 1
 336 0012 83F31188 		MSR basepri, r3
ARM GAS  /tmp/ccSQU2GF.s 			page 7


 337              	@ 0 "" 2
 338              		.thumb
 339 0016 08BD     		pop	{r3, pc}
 340              	.LBE163:
 341              	.LBE162:
 342              	.LBE161:
 343              	.LBE160:
 344              	.LBE159:
 345              	.LBE158:
 346              		.cfi_endproc
 347              	.LFE260:
 348              		.size	gptStartContinuous, .-gptStartContinuous
 349 0018 AFF30080 		.section	.text.gptStartContinuousI,"ax",%progbits
 349      AFF30080 
 350              		.align	2
 351              		.p2align 4,,15
 352              		.global	gptStartContinuousI
 353              		.thumb
 354              		.thumb_func
 355              		.type	gptStartContinuousI, %function
 356              	gptStartContinuousI:
 357              	.LFB261:
 358              		.loc 1 162 0
 359              		.cfi_startproc
 360              		@ args = 0, pretend = 0, frame = 0
 361              		@ frame_needed = 0, uses_anonymous_args = 0
 362              		@ link register save eliminated.
 363              	.LVL14:
 364              		.loc 1 169 0
 365 0000 0323     		movs	r3, #3
 366 0002 0370     		strb	r3, [r0]
 367              		.loc 1 170 0
 368 0004 FFF7FEBF 		b	gpt_lld_start_timer
 369              	.LVL15:
 370              		.cfi_endproc
 371              	.LFE261:
 372              		.size	gptStartContinuousI, .-gptStartContinuousI
 373 0008 AFF30080 		.section	.text.gptStartOneShot,"ax",%progbits
 373      AFF30080 
 374              		.align	2
 375              		.p2align 4,,15
 376              		.global	gptStartOneShot
 377              		.thumb
 378              		.thumb_func
 379              		.type	gptStartOneShot, %function
 380              	gptStartOneShot:
 381              	.LFB262:
 382              		.loc 1 181 0
 383              		.cfi_startproc
 384              		@ args = 0, pretend = 0, frame = 0
 385              		@ frame_needed = 0, uses_anonymous_args = 0
 386              	.LVL16:
 387 0000 08B5     		push	{r3, lr}
 388              		.cfi_def_cfa_offset 8
 389              		.cfi_offset 3, -8
 390              		.cfi_offset 14, -4
 391              	.LBB164:
ARM GAS  /tmp/ccSQU2GF.s 			page 8


 392              	.LBB165:
 393              	.LBB166:
 394              	.LBB167:
 395              	.LBB168:
 396              		.loc 2 546 0
 397 0002 2022     		movs	r2, #32
 398              	@ 546 "../ChibiOS/os/ext/CMSIS/include/core_cmFunc.h" 1
 399 0004 82F31188 		MSR basepri, r2
 400              	@ 0 "" 2
 401              	.LVL17:
 402              		.thumb
 403              	.LBE168:
 404              	.LBE167:
 405              	.LBE166:
 406              	.LBE165:
 407              	.LBE164:
 408              	.LBB169:
 409              	.LBB170:
 410              		.loc 1 204 0
 411 0008 0422     		movs	r2, #4
 412 000a 0270     		strb	r2, [r0]
 413              		.loc 1 205 0
 414 000c FFF7FEFF 		bl	gpt_lld_start_timer
 415              	.LVL18:
 416              	.LBE170:
 417              	.LBE169:
 418              	.LBB171:
 419              	.LBB172:
 420              	.LBB173:
 421              	.LBB174:
 422              	.LBB175:
 423              	.LBB176:
 424              		.loc 2 546 0
 425 0010 0023     		movs	r3, #0
 426              	@ 546 "../ChibiOS/os/ext/CMSIS/include/core_cmFunc.h" 1
 427 0012 83F31188 		MSR basepri, r3
 428              	@ 0 "" 2
 429              		.thumb
 430 0016 08BD     		pop	{r3, pc}
 431              	.LBE176:
 432              	.LBE175:
 433              	.LBE174:
 434              	.LBE173:
 435              	.LBE172:
 436              	.LBE171:
 437              		.cfi_endproc
 438              	.LFE262:
 439              		.size	gptStartOneShot, .-gptStartOneShot
 440 0018 AFF30080 		.section	.text.gptStartOneShotI,"ax",%progbits
 440      AFF30080 
 441              		.align	2
 442              		.p2align 4,,15
 443              		.global	gptStartOneShotI
 444              		.thumb
 445              		.thumb_func
 446              		.type	gptStartOneShotI, %function
 447              	gptStartOneShotI:
ARM GAS  /tmp/ccSQU2GF.s 			page 9


 448              	.LFB263:
 449              		.loc 1 196 0
 450              		.cfi_startproc
 451              		@ args = 0, pretend = 0, frame = 0
 452              		@ frame_needed = 0, uses_anonymous_args = 0
 453              		@ link register save eliminated.
 454              	.LVL19:
 455              		.loc 1 204 0
 456 0000 0423     		movs	r3, #4
 457 0002 0370     		strb	r3, [r0]
 458              		.loc 1 205 0
 459 0004 FFF7FEBF 		b	gpt_lld_start_timer
 460              	.LVL20:
 461              		.cfi_endproc
 462              	.LFE263:
 463              		.size	gptStartOneShotI, .-gptStartOneShotI
 464 0008 AFF30080 		.section	.text.gptStopTimer,"ax",%progbits
 464      AFF30080 
 465              		.align	2
 466              		.p2align 4,,15
 467              		.global	gptStopTimer
 468              		.thumb
 469              		.thumb_func
 470              		.type	gptStopTimer, %function
 471              	gptStopTimer:
 472              	.LFB264:
 473              		.loc 1 215 0
 474              		.cfi_startproc
 475              		@ args = 0, pretend = 0, frame = 0
 476              		@ frame_needed = 0, uses_anonymous_args = 0
 477              	.LVL21:
 478 0000 08B5     		push	{r3, lr}
 479              		.cfi_def_cfa_offset 8
 480              		.cfi_offset 3, -8
 481              		.cfi_offset 14, -4
 482              	.LBB177:
 483              	.LBB178:
 484              	.LBB179:
 485              	.LBB180:
 486              	.LBB181:
 487              		.loc 2 546 0
 488 0002 2022     		movs	r2, #32
 489              	@ 546 "../ChibiOS/os/ext/CMSIS/include/core_cmFunc.h" 1
 490 0004 82F31188 		MSR basepri, r2
 491              	@ 0 "" 2
 492              	.LVL22:
 493              		.thumb
 494              	.LBE181:
 495              	.LBE180:
 496              	.LBE179:
 497              	.LBE178:
 498              	.LBE177:
 499              	.LBB182:
 500              	.LBB183:
 501              		.loc 1 237 0
 502 0008 0222     		movs	r2, #2
 503 000a 0270     		strb	r2, [r0]
ARM GAS  /tmp/ccSQU2GF.s 			page 10


 504              		.loc 1 238 0
 505 000c FFF7FEFF 		bl	gpt_lld_stop_timer
 506              	.LVL23:
 507              	.LBE183:
 508              	.LBE182:
 509              	.LBB184:
 510              	.LBB185:
 511              	.LBB186:
 512              	.LBB187:
 513              	.LBB188:
 514              	.LBB189:
 515              		.loc 2 546 0
 516 0010 0023     		movs	r3, #0
 517              	@ 546 "../ChibiOS/os/ext/CMSIS/include/core_cmFunc.h" 1
 518 0012 83F31188 		MSR basepri, r3
 519              	@ 0 "" 2
 520              		.thumb
 521 0016 08BD     		pop	{r3, pc}
 522              	.LBE189:
 523              	.LBE188:
 524              	.LBE187:
 525              	.LBE186:
 526              	.LBE185:
 527              	.LBE184:
 528              		.cfi_endproc
 529              	.LFE264:
 530              		.size	gptStopTimer, .-gptStopTimer
 531 0018 AFF30080 		.section	.text.gptStopTimerI,"ax",%progbits
 531      AFF30080 
 532              		.align	2
 533              		.p2align 4,,15
 534              		.global	gptStopTimerI
 535              		.thumb
 536              		.thumb_func
 537              		.type	gptStopTimerI, %function
 538              	gptStopTimerI:
 539              	.LFB265:
 540              		.loc 1 229 0
 541              		.cfi_startproc
 542              		@ args = 0, pretend = 0, frame = 0
 543              		@ frame_needed = 0, uses_anonymous_args = 0
 544              		@ link register save eliminated.
 545              	.LVL24:
 546              		.loc 1 237 0
 547 0000 0223     		movs	r3, #2
 548 0002 0370     		strb	r3, [r0]
 549              		.loc 1 238 0
 550 0004 FFF7FEBF 		b	gpt_lld_stop_timer
 551              	.LVL25:
 552              		.cfi_endproc
 553              	.LFE265:
 554              		.size	gptStopTimerI, .-gptStopTimerI
 555 0008 AFF30080 		.section	.text.gptPolledDelay,"ax",%progbits
 555      AFF30080 
 556              		.align	2
 557              		.p2align 4,,15
 558              		.global	gptPolledDelay
ARM GAS  /tmp/ccSQU2GF.s 			page 11


 559              		.thumb
 560              		.thumb_func
 561              		.type	gptPolledDelay, %function
 562              	gptPolledDelay:
 563              	.LFB266:
 564              		.loc 1 253 0
 565              		.cfi_startproc
 566              		@ args = 0, pretend = 0, frame = 0
 567              		@ frame_needed = 0, uses_anonymous_args = 0
 568              	.LVL26:
 569 0000 10B5     		push	{r4, lr}
 570              		.cfi_def_cfa_offset 8
 571              		.cfi_offset 4, -8
 572              		.cfi_offset 14, -4
 573              		.loc 1 258 0
 574 0002 0423     		movs	r3, #4
 575              		.loc 1 253 0
 576 0004 0446     		mov	r4, r0
 577              		.loc 1 258 0
 578 0006 0370     		strb	r3, [r0]
 579              		.loc 1 259 0
 580 0008 FFF7FEFF 		bl	gpt_lld_polled_delay
 581              	.LVL27:
 582              		.loc 1 260 0
 583 000c 0223     		movs	r3, #2
 584 000e 2370     		strb	r3, [r4]
 585 0010 10BD     		pop	{r4, pc}
 586              		.cfi_endproc
 587              	.LFE266:
 588              		.size	gptPolledDelay, .-gptPolledDelay
 589 0012 00BFAFF3 		.text
 589      0080AFF3 
 589      0080AFF3 
 589      0080
 590              	.Letext0:
 591              		.file 3 "/l/arm2/gcc-arm-none-eabi-4_9-2014q4/arm-none-eabi/include/machine/_default_types.h"
 592              		.file 4 "/l/arm2/gcc-arm-none-eabi-4_9-2014q4/arm-none-eabi/include/stdint.h"
 593              		.file 5 "../ChibiOS/os/rt/ports/ARMCMx/compilers/GCC/chtypes.h"
 594              		.file 6 "../ChibiOS/os/rt/include/chsystypes.h"
 595              		.file 7 "../ChibiOS/os/rt/include/chschd.h"
 596              		.file 8 "../ChibiOS/os/rt/ports/ARMCMx/chcore.h"
 597              		.file 9 "../ChibiOS/os/rt/ports/ARMCMx/chcore_v7m.h"
 598              		.file 10 "../ChibiOS/os/hal/ports/STM32/LLD/TIMv1/stm32_tim.h"
 599              		.file 11 "../ChibiOS/os/rt/include/chtm.h"
 600              		.file 12 "../ChibiOS/os/rt/include/chmtx.h"
 601              		.file 13 "../ChibiOS/os/hal/include/gpt.h"
 602              		.file 14 "../ChibiOS/os/hal/ports/STM32/LLD/TIMv1/gpt_lld.h"
 603              		.file 15 "../ChibiOS/os/rt/include/chsys.h"
 604              		.file 16 "../ChibiOS/os/hal/osal/rt/osal.h"
 605              		.file 17 "../ChibiOS/os/ext/CMSIS/include/core_cm4.h"
 606              		.section	.debug_info,"",%progbits
 607              	.Ldebug_info0:
 608 0000 41120000 		.4byte	0x1241
 609 0004 0400     		.2byte	0x4
 610 0006 00000000 		.4byte	.Ldebug_abbrev0
 611 000a 04       		.byte	0x4
 612 000b 01       		.uleb128 0x1
ARM GAS  /tmp/ccSQU2GF.s 			page 12


 613 000c 9F030000 		.4byte	.LASF149
 614 0010 01       		.byte	0x1
 615 0011 3C070000 		.4byte	.LASF150
 616 0015 C2000000 		.4byte	.LASF151
 617 0019 30000000 		.4byte	.Ldebug_ranges0+0x30
 618 001d 00000000 		.4byte	0
 619 0021 00000000 		.4byte	.Ldebug_line0
 620 0025 02       		.uleb128 0x2
 621 0026 04       		.byte	0x4
 622 0027 05       		.byte	0x5
 623 0028 696E7400 		.ascii	"int\000"
 624 002c 03       		.uleb128 0x3
 625 002d 04       		.byte	0x4
 626 002e 07       		.byte	0x7
 627 002f 20020000 		.4byte	.LASF0
 628 0033 03       		.uleb128 0x3
 629 0034 01       		.byte	0x1
 630 0035 06       		.byte	0x6
 631 0036 0C010000 		.4byte	.LASF1
 632 003a 04       		.uleb128 0x4
 633 003b 22000000 		.4byte	.LASF5
 634 003f 03       		.byte	0x3
 635 0040 1D       		.byte	0x1d
 636 0041 45000000 		.4byte	0x45
 637 0045 03       		.uleb128 0x3
 638 0046 01       		.byte	0x1
 639 0047 08       		.byte	0x8
 640 0048 1A050000 		.4byte	.LASF2
 641 004c 03       		.uleb128 0x3
 642 004d 02       		.byte	0x2
 643 004e 05       		.byte	0x5
 644 004f 32050000 		.4byte	.LASF3
 645 0053 03       		.uleb128 0x3
 646 0054 02       		.byte	0x2
 647 0055 07       		.byte	0x7
 648 0056 A0010000 		.4byte	.LASF4
 649 005a 04       		.uleb128 0x4
 650 005b ED020000 		.4byte	.LASF6
 651 005f 03       		.byte	0x3
 652 0060 3F       		.byte	0x3f
 653 0061 65000000 		.4byte	0x65
 654 0065 03       		.uleb128 0x3
 655 0066 04       		.byte	0x4
 656 0067 05       		.byte	0x5
 657 0068 4B010000 		.4byte	.LASF7
 658 006c 04       		.uleb128 0x4
 659 006d 38060000 		.4byte	.LASF8
 660 0071 03       		.byte	0x3
 661 0072 41       		.byte	0x41
 662 0073 77000000 		.4byte	0x77
 663 0077 03       		.uleb128 0x3
 664 0078 04       		.byte	0x4
 665 0079 07       		.byte	0x7
 666 007a DD050000 		.4byte	.LASF9
 667 007e 03       		.uleb128 0x3
 668 007f 08       		.byte	0x8
 669 0080 05       		.byte	0x5
ARM GAS  /tmp/ccSQU2GF.s 			page 13


 670 0081 F2010000 		.4byte	.LASF10
 671 0085 04       		.uleb128 0x4
 672 0086 B8040000 		.4byte	.LASF11
 673 008a 03       		.byte	0x3
 674 008b 5B       		.byte	0x5b
 675 008c 90000000 		.4byte	0x90
 676 0090 03       		.uleb128 0x3
 677 0091 08       		.byte	0x8
 678 0092 07       		.byte	0x7
 679 0093 74000000 		.4byte	.LASF12
 680 0097 04       		.uleb128 0x4
 681 0098 D8060000 		.4byte	.LASF13
 682 009c 04       		.byte	0x4
 683 009d 15       		.byte	0x15
 684 009e 3A000000 		.4byte	0x3a
 685 00a2 04       		.uleb128 0x4
 686 00a3 12050000 		.4byte	.LASF14
 687 00a7 04       		.byte	0x4
 688 00a8 2C       		.byte	0x2c
 689 00a9 5A000000 		.4byte	0x5a
 690 00ad 04       		.uleb128 0x4
 691 00ae BC050000 		.4byte	.LASF15
 692 00b2 04       		.byte	0x4
 693 00b3 2D       		.byte	0x2d
 694 00b4 6C000000 		.4byte	0x6c
 695 00b8 04       		.uleb128 0x4
 696 00b9 19000000 		.4byte	.LASF16
 697 00bd 04       		.byte	0x4
 698 00be 39       		.byte	0x39
 699 00bf 85000000 		.4byte	0x85
 700 00c3 05       		.uleb128 0x5
 701 00c4 A2000000 		.4byte	0xa2
 702 00c8 05       		.uleb128 0x5
 703 00c9 AD000000 		.4byte	0xad
 704 00cd 04       		.uleb128 0x4
 705 00ce 7C060000 		.4byte	.LASF17
 706 00d2 05       		.byte	0x5
 707 00d3 45       		.byte	0x45
 708 00d4 AD000000 		.4byte	0xad
 709 00d8 04       		.uleb128 0x4
 710 00d9 0C070000 		.4byte	.LASF18
 711 00dd 05       		.byte	0x5
 712 00de 48       		.byte	0x48
 713 00df 97000000 		.4byte	0x97
 714 00e3 04       		.uleb128 0x4
 715 00e4 65010000 		.4byte	.LASF19
 716 00e8 05       		.byte	0x5
 717 00e9 49       		.byte	0x49
 718 00ea 97000000 		.4byte	0x97
 719 00ee 04       		.uleb128 0x4
 720 00ef C3040000 		.4byte	.LASF20
 721 00f3 05       		.byte	0x5
 722 00f4 4A       		.byte	0x4a
 723 00f5 97000000 		.4byte	0x97
 724 00f9 04       		.uleb128 0x4
 725 00fa EE040000 		.4byte	.LASF21
 726 00fe 05       		.byte	0x5
ARM GAS  /tmp/ccSQU2GF.s 			page 14


 727 00ff 4C       		.byte	0x4c
 728 0100 AD000000 		.4byte	0xad
 729 0104 04       		.uleb128 0x4
 730 0105 83020000 		.4byte	.LASF22
 731 0109 05       		.byte	0x5
 732 010a 4D       		.byte	0x4d
 733 010b A2000000 		.4byte	0xa2
 734 010f 04       		.uleb128 0x4
 735 0110 E1020000 		.4byte	.LASF23
 736 0114 05       		.byte	0x5
 737 0115 4F       		.byte	0x4f
 738 0116 AD000000 		.4byte	0xad
 739 011a 04       		.uleb128 0x4
 740 011b 1A060000 		.4byte	.LASF24
 741 011f 06       		.byte	0x6
 742 0120 33       		.byte	0x33
 743 0121 AD000000 		.4byte	0xad
 744 0125 04       		.uleb128 0x4
 745 0126 05060000 		.4byte	.LASF25
 746 012a 06       		.byte	0x6
 747 012b 3F       		.byte	0x3f
 748 012c 30010000 		.4byte	0x130
 749 0130 06       		.uleb128 0x6
 750 0131 57020000 		.4byte	.LASF44
 751 0135 44       		.byte	0x44
 752 0136 07       		.byte	0x7
 753 0137 BE       		.byte	0xbe
 754 0138 1D020000 		.4byte	0x21d
 755 013c 07       		.uleb128 0x7
 756 013d 52050000 		.4byte	.LASF26
 757 0141 07       		.byte	0x7
 758 0142 BF       		.byte	0xbf
 759 0143 09070000 		.4byte	0x709
 760 0147 00       		.byte	0
 761 0148 07       		.uleb128 0x7
 762 0149 E7040000 		.4byte	.LASF27
 763 014d 07       		.byte	0x7
 764 014e C1       		.byte	0xc1
 765 014f 09070000 		.4byte	0x709
 766 0153 04       		.byte	0x4
 767 0154 07       		.uleb128 0x7
 768 0155 F3000000 		.4byte	.LASF28
 769 0159 07       		.byte	0x7
 770 015a C3       		.byte	0xc3
 771 015b F9000000 		.4byte	0xf9
 772 015f 08       		.byte	0x8
 773 0160 07       		.uleb128 0x7
 774 0161 58070000 		.4byte	.LASF29
 775 0165 07       		.byte	0x7
 776 0166 C4       		.byte	0xc4
 777 0167 67040000 		.4byte	0x467
 778 016b 0C       		.byte	0xc
 779 016c 07       		.uleb128 0x7
 780 016d 76010000 		.4byte	.LASF30
 781 0171 07       		.byte	0x7
 782 0172 C6       		.byte	0xc6
 783 0173 09070000 		.4byte	0x709
ARM GAS  /tmp/ccSQU2GF.s 			page 15


 784 0177 10       		.byte	0x10
 785 0178 07       		.uleb128 0x7
 786 0179 62030000 		.4byte	.LASF31
 787 017d 07       		.byte	0x7
 788 017e C7       		.byte	0xc7
 789 017f 09070000 		.4byte	0x709
 790 0183 14       		.byte	0x14
 791 0184 07       		.uleb128 0x7
 792 0185 F6060000 		.4byte	.LASF32
 793 0189 07       		.byte	0x7
 794 018a CE       		.byte	0xce
 795 018b 47070000 		.4byte	0x747
 796 018f 18       		.byte	0x18
 797 0190 07       		.uleb128 0x7
 798 0191 3C050000 		.4byte	.LASF33
 799 0195 07       		.byte	0x7
 800 0196 D9       		.byte	0xd9
 801 0197 E3000000 		.4byte	0xe3
 802 019b 1C       		.byte	0x1c
 803 019c 07       		.uleb128 0x7
 804 019d 59050000 		.4byte	.LASF34
 805 01a1 07       		.byte	0x7
 806 01a2 DD       		.byte	0xdd
 807 01a3 D8000000 		.4byte	0xd8
 808 01a7 1D       		.byte	0x1d
 809 01a8 07       		.uleb128 0x7
 810 01a9 A9060000 		.4byte	.LASF35
 811 01ad 07       		.byte	0x7
 812 01ae E2       		.byte	0xe2
 813 01af EE000000 		.4byte	0xee
 814 01b3 1E       		.byte	0x1e
 815 01b4 08       		.uleb128 0x8
 816 01b5 705F7500 		.ascii	"p_u\000"
 817 01b9 07       		.byte	0x7
 818 01ba 1401     		.2byte	0x114
 819 01bc 0F070000 		.4byte	0x70f
 820 01c0 20       		.byte	0x20
 821 01c1 09       		.uleb128 0x9
 822 01c2 0F030000 		.4byte	.LASF36
 823 01c6 07       		.byte	0x7
 824 01c7 1901     		.2byte	0x119
 825 01c9 1D020000 		.4byte	0x21d
 826 01cd 24       		.byte	0x24
 827 01ce 09       		.uleb128 0x9
 828 01cf 4C020000 		.4byte	.LASF37
 829 01d3 07       		.byte	0x7
 830 01d4 1F01     		.2byte	0x11f
 831 01d6 41020000 		.4byte	0x241
 832 01da 28       		.byte	0x28
 833 01db 09       		.uleb128 0x9
 834 01dc 20070000 		.4byte	.LASF38
 835 01e0 07       		.byte	0x7
 836 01e1 2301     		.2byte	0x123
 837 01e3 04010000 		.4byte	0x104
 838 01e7 30       		.byte	0x30
 839 01e8 09       		.uleb128 0x9
 840 01e9 98050000 		.4byte	.LASF39
ARM GAS  /tmp/ccSQU2GF.s 			page 16


 841 01ed 07       		.byte	0x7
 842 01ee 2901     		.2byte	0x129
 843 01f0 0F010000 		.4byte	0x10f
 844 01f4 34       		.byte	0x34
 845 01f5 09       		.uleb128 0x9
 846 01f6 28050000 		.4byte	.LASF40
 847 01fa 07       		.byte	0x7
 848 01fb 3001     		.2byte	0x130
 849 01fd 8A070000 		.4byte	0x78a
 850 0201 38       		.byte	0x38
 851 0202 09       		.uleb128 0x9
 852 0203 24060000 		.4byte	.LASF41
 853 0207 07       		.byte	0x7
 854 0208 3401     		.2byte	0x134
 855 020a F9000000 		.4byte	0xf9
 856 020e 3C       		.byte	0x3c
 857 020f 09       		.uleb128 0x9
 858 0210 7B020000 		.4byte	.LASF42
 859 0214 07       		.byte	0x7
 860 0215 3A01     		.2byte	0x13a
 861 0217 F4020000 		.4byte	0x2f4
 862 021b 40       		.byte	0x40
 863 021c 00       		.byte	0
 864 021d 04       		.uleb128 0x4
 865 021e FD060000 		.4byte	.LASF43
 866 0222 06       		.byte	0x6
 867 0223 44       		.byte	0x44
 868 0224 28020000 		.4byte	0x228
 869 0228 06       		.uleb128 0x6
 870 0229 CD050000 		.4byte	.LASF45
 871 022d 04       		.byte	0x4
 872 022e 07       		.byte	0x7
 873 022f AC       		.byte	0xac
 874 0230 41020000 		.4byte	0x241
 875 0234 07       		.uleb128 0x7
 876 0235 52050000 		.4byte	.LASF26
 877 0239 07       		.byte	0x7
 878 023a AD       		.byte	0xad
 879 023b 09070000 		.4byte	0x709
 880 023f 00       		.byte	0
 881 0240 00       		.byte	0
 882 0241 04       		.uleb128 0x4
 883 0242 99060000 		.4byte	.LASF46
 884 0246 06       		.byte	0x6
 885 0247 4B       		.byte	0x4b
 886 0248 4C020000 		.4byte	0x24c
 887 024c 06       		.uleb128 0x6
 888 024d 38000000 		.4byte	.LASF47
 889 0251 08       		.byte	0x8
 890 0252 07       		.byte	0x7
 891 0253 B3       		.byte	0xb3
 892 0254 71020000 		.4byte	0x271
 893 0258 07       		.uleb128 0x7
 894 0259 52050000 		.4byte	.LASF26
 895 025d 07       		.byte	0x7
 896 025e B4       		.byte	0xb4
 897 025f 09070000 		.4byte	0x709
ARM GAS  /tmp/ccSQU2GF.s 			page 17


 898 0263 00       		.byte	0
 899 0264 07       		.uleb128 0x7
 900 0265 E7040000 		.4byte	.LASF27
 901 0269 07       		.byte	0x7
 902 026a B5       		.byte	0xb5
 903 026b 09070000 		.4byte	0x709
 904 026f 04       		.byte	0x4
 905 0270 00       		.byte	0
 906 0271 04       		.uleb128 0x4
 907 0272 00000000 		.4byte	.LASF48
 908 0276 06       		.byte	0x6
 909 0277 52       		.byte	0x52
 910 0278 7C020000 		.4byte	0x27c
 911 027c 0A       		.uleb128 0xa
 912 027d D3020000 		.4byte	.LASF49
 913 0281 1C       		.byte	0x1c
 914 0282 07       		.byte	0x7
 915 0283 7201     		.2byte	0x172
 916 0285 D8020000 		.4byte	0x2d8
 917 0289 09       		.uleb128 0x9
 918 028a C5050000 		.4byte	.LASF50
 919 028e 07       		.byte	0x7
 920 028f 7301     		.2byte	0x173
 921 0291 41020000 		.4byte	0x241
 922 0295 00       		.byte	0
 923 0296 09       		.uleb128 0x9
 924 0297 44050000 		.4byte	.LASF51
 925 029b 07       		.byte	0x7
 926 029c 7401     		.2byte	0x174
 927 029e F9000000 		.4byte	0xf9
 928 02a2 08       		.byte	0x8
 929 02a3 09       		.uleb128 0x9
 930 02a4 6A030000 		.4byte	.LASF52
 931 02a8 07       		.byte	0x7
 932 02a9 7601     		.2byte	0x176
 933 02ab 67040000 		.4byte	0x467
 934 02af 0C       		.byte	0xc
 935 02b0 09       		.uleb128 0x9
 936 02b1 BC010000 		.4byte	.LASF53
 937 02b5 07       		.byte	0x7
 938 02b6 7901     		.2byte	0x179
 939 02b8 09070000 		.4byte	0x709
 940 02bc 10       		.byte	0x10
 941 02bd 09       		.uleb128 0x9
 942 02be 74060000 		.4byte	.LASF54
 943 02c2 07       		.byte	0x7
 944 02c3 7A01     		.2byte	0x17a
 945 02c5 09070000 		.4byte	0x709
 946 02c9 14       		.byte	0x14
 947 02ca 09       		.uleb128 0x9
 948 02cb 81030000 		.4byte	.LASF55
 949 02cf 07       		.byte	0x7
 950 02d0 7D01     		.2byte	0x17d
 951 02d2 09070000 		.4byte	0x709
 952 02d6 18       		.byte	0x18
 953 02d7 00       		.byte	0
 954 02d8 04       		.uleb128 0x4
ARM GAS  /tmp/ccSQU2GF.s 			page 18


 955 02d9 2F060000 		.4byte	.LASF56
 956 02dd 06       		.byte	0x6
 957 02de 57       		.byte	0x57
 958 02df E3020000 		.4byte	0x2e3
 959 02e3 0B       		.uleb128 0xb
 960 02e4 04       		.byte	0x4
 961 02e5 E9020000 		.4byte	0x2e9
 962 02e9 0C       		.uleb128 0xc
 963 02ea F4020000 		.4byte	0x2f4
 964 02ee 0D       		.uleb128 0xd
 965 02ef F4020000 		.4byte	0x2f4
 966 02f3 00       		.byte	0
 967 02f4 0E       		.uleb128 0xe
 968 02f5 04       		.byte	0x4
 969 02f6 04       		.uleb128 0x4
 970 02f7 D7040000 		.4byte	.LASF57
 971 02fb 06       		.byte	0x6
 972 02fc 5C       		.byte	0x5c
 973 02fd 01030000 		.4byte	0x301
 974 0301 0A       		.uleb128 0xa
 975 0302 82050000 		.4byte	.LASF58
 976 0306 14       		.byte	0x14
 977 0307 07       		.byte	0x7
 978 0308 4D01     		.2byte	0x14d
 979 030a 50030000 		.4byte	0x350
 980 030e 09       		.uleb128 0x9
 981 030f 2D020000 		.4byte	.LASF59
 982 0313 07       		.byte	0x7
 983 0314 4E01     		.2byte	0x14e
 984 0316 90070000 		.4byte	0x790
 985 031a 00       		.byte	0
 986 031b 09       		.uleb128 0x9
 987 031c D7010000 		.4byte	.LASF60
 988 0320 07       		.byte	0x7
 989 0321 4F01     		.2byte	0x14f
 990 0323 90070000 		.4byte	0x790
 991 0327 04       		.byte	0x4
 992 0328 09       		.uleb128 0x9
 993 0329 43020000 		.4byte	.LASF61
 994 032d 07       		.byte	0x7
 995 032e 5001     		.2byte	0x150
 996 0330 1A010000 		.4byte	0x11a
 997 0334 08       		.byte	0x8
 998 0335 09       		.uleb128 0x9
 999 0336 5E070000 		.4byte	.LASF62
 1000 033a 07       		.byte	0x7
 1001 033b 5101     		.2byte	0x151
 1002 033d D8020000 		.4byte	0x2d8
 1003 0341 0C       		.byte	0xc
 1004 0342 09       		.uleb128 0x9
 1005 0343 92060000 		.4byte	.LASF63
 1006 0347 07       		.byte	0x7
 1007 0348 5301     		.2byte	0x153
 1008 034a F4020000 		.4byte	0x2f4
 1009 034e 10       		.byte	0x10
 1010 034f 00       		.byte	0
 1011 0350 04       		.uleb128 0x4
ARM GAS  /tmp/ccSQU2GF.s 			page 19


 1012 0351 9F000000 		.4byte	.LASF64
 1013 0355 06       		.byte	0x6
 1014 0356 61       		.byte	0x61
 1015 0357 5B030000 		.4byte	0x35b
 1016 035b 0A       		.uleb128 0xa
 1017 035c 22030000 		.4byte	.LASF65
 1018 0360 10       		.byte	0x10
 1019 0361 07       		.byte	0x7
 1020 0362 5D01     		.2byte	0x15d
 1021 0364 9D030000 		.4byte	0x39d
 1022 0368 09       		.uleb128 0x9
 1023 0369 2D020000 		.4byte	.LASF59
 1024 036d 07       		.byte	0x7
 1025 036e 5E01     		.2byte	0x15e
 1026 0370 90070000 		.4byte	0x790
 1027 0374 00       		.byte	0
 1028 0375 09       		.uleb128 0x9
 1029 0376 D7010000 		.4byte	.LASF60
 1030 037a 07       		.byte	0x7
 1031 037b 6001     		.2byte	0x160
 1032 037d 90070000 		.4byte	0x790
 1033 0381 04       		.byte	0x4
 1034 0382 09       		.uleb128 0x9
 1035 0383 43020000 		.4byte	.LASF61
 1036 0387 07       		.byte	0x7
 1037 0388 6201     		.2byte	0x162
 1038 038a 1A010000 		.4byte	0x11a
 1039 038e 08       		.byte	0x8
 1040 038f 09       		.uleb128 0x9
 1041 0390 56030000 		.4byte	.LASF66
 1042 0394 07       		.byte	0x7
 1043 0395 6A01     		.2byte	0x16a
 1044 0397 1A010000 		.4byte	0x11a
 1045 039b 0C       		.byte	0xc
 1046 039c 00       		.byte	0
 1047 039d 04       		.uleb128 0x4
 1048 039e 49000000 		.4byte	.LASF67
 1049 03a2 06       		.byte	0x6
 1050 03a3 66       		.byte	0x66
 1051 03a4 A8030000 		.4byte	0x3a8
 1052 03a8 0A       		.uleb128 0xa
 1053 03a9 FC040000 		.4byte	.LASF68
 1054 03ad 04       		.byte	0x4
 1055 03ae 07       		.byte	0x7
 1056 03af 8401     		.2byte	0x184
 1057 03b1 C3030000 		.4byte	0x3c3
 1058 03b5 09       		.uleb128 0x9
 1059 03b6 51060000 		.4byte	.LASF69
 1060 03ba 07       		.byte	0x7
 1061 03bb 8C01     		.2byte	0x18c
 1062 03bd 96070000 		.4byte	0x796
 1063 03c1 00       		.byte	0
 1064 03c2 00       		.byte	0
 1065 03c3 04       		.uleb128 0x4
 1066 03c4 92020000 		.4byte	.LASF70
 1067 03c8 06       		.byte	0x6
 1068 03c9 6B       		.byte	0x6b
ARM GAS  /tmp/ccSQU2GF.s 			page 20


 1069 03ca CE030000 		.4byte	0x3ce
 1070 03ce 0F       		.uleb128 0xf
 1071 03cf 41010000 		.4byte	.LASF71
 1072 03d3 D801     		.2byte	0x1d8
 1073 03d5 07       		.byte	0x7
 1074 03d6 A401     		.2byte	0x1a4
 1075 03d8 2A040000 		.4byte	0x42a
 1076 03dc 09       		.uleb128 0x9
 1077 03dd D2060000 		.4byte	.LASF72
 1078 03e1 07       		.byte	0x7
 1079 03e2 A801     		.2byte	0x1a8
 1080 03e4 71020000 		.4byte	0x271
 1081 03e8 00       		.byte	0
 1082 03e9 09       		.uleb128 0x9
 1083 03ea DF010000 		.4byte	.LASF73
 1084 03ee 07       		.byte	0x7
 1085 03ef AC01     		.2byte	0x1ac
 1086 03f1 50030000 		.4byte	0x350
 1087 03f5 1C       		.byte	0x1c
 1088 03f6 08       		.uleb128 0x8
 1089 03f7 64626700 		.ascii	"dbg\000"
 1090 03fb 07       		.byte	0x7
 1091 03fc B001     		.2byte	0x1b0
 1092 03fe 9D030000 		.4byte	0x39d
 1093 0402 2C       		.byte	0x2c
 1094 0403 09       		.uleb128 0x9
 1095 0404 94000000 		.4byte	.LASF74
 1096 0408 07       		.byte	0x7
 1097 0409 B401     		.2byte	0x1b4
 1098 040b 25010000 		.4byte	0x125
 1099 040f 30       		.byte	0x30
 1100 0410 08       		.uleb128 0x8
 1101 0411 746D00   		.ascii	"tm\000"
 1102 0414 07       		.byte	0x7
 1103 0415 B901     		.2byte	0x1b9
 1104 0417 FE060000 		.4byte	0x6fe
 1105 041b 74       		.byte	0x74
 1106 041c 09       		.uleb128 0x9
 1107 041d 06020000 		.4byte	.LASF75
 1108 0421 07       		.byte	0x7
 1109 0422 C501     		.2byte	0x1c5
 1110 0424 9B070000 		.4byte	0x79b
 1111 0428 78       		.byte	0x78
 1112 0429 00       		.byte	0
 1113 042a 03       		.uleb128 0x3
 1114 042b 04       		.byte	0x4
 1115 042c 07       		.byte	0x7
 1116 042d 19030000 		.4byte	.LASF76
 1117 0431 10       		.uleb128 0x10
 1118 0432 AD000000 		.4byte	0xad
 1119 0436 41040000 		.4byte	0x441
 1120 043a 11       		.uleb128 0x11
 1121 043b 2A040000 		.4byte	0x42a
 1122 043f 01       		.byte	0x1
 1123 0440 00       		.byte	0
 1124 0441 10       		.uleb128 0x10
 1125 0442 AD000000 		.4byte	0xad
ARM GAS  /tmp/ccSQU2GF.s 			page 21


 1126 0446 51040000 		.4byte	0x451
 1127 044a 11       		.uleb128 0x11
 1128 044b 2A040000 		.4byte	0x42a
 1129 044f 03       		.byte	0x3
 1130 0450 00       		.byte	0
 1131 0451 04       		.uleb128 0x4
 1132 0452 CE010000 		.4byte	.LASF77
 1133 0456 08       		.byte	0x8
 1134 0457 85       		.byte	0x85
 1135 0458 F4020000 		.4byte	0x2f4
 1136 045c 04       		.uleb128 0x4
 1137 045d F7020000 		.4byte	.LASF78
 1138 0461 08       		.byte	0x8
 1139 0462 8D       		.byte	0x8d
 1140 0463 B8000000 		.4byte	0xb8
 1141 0467 06       		.uleb128 0x6
 1142 0468 6C060000 		.4byte	.LASF79
 1143 046c 04       		.byte	0x4
 1144 046d 08       		.byte	0x8
 1145 046e A9       		.byte	0xa9
 1146 046f 80040000 		.4byte	0x480
 1147 0473 12       		.uleb128 0x12
 1148 0474 72313300 		.ascii	"r13\000"
 1149 0478 08       		.byte	0x8
 1150 0479 AA       		.byte	0xaa
 1151 047a C1050000 		.4byte	0x5c1
 1152 047e 00       		.byte	0
 1153 047f 00       		.byte	0
 1154 0480 06       		.uleb128 0x6
 1155 0481 CB040000 		.4byte	.LASF80
 1156 0485 64       		.byte	0x64
 1157 0486 09       		.byte	0x9
 1158 0487 F4       		.byte	0xf4
 1159 0488 C1050000 		.4byte	0x5c1
 1160 048c 12       		.uleb128 0x12
 1161 048d 73313600 		.ascii	"s16\000"
 1162 0491 09       		.byte	0x9
 1163 0492 F6       		.byte	0xf6
 1164 0493 51040000 		.4byte	0x451
 1165 0497 00       		.byte	0
 1166 0498 12       		.uleb128 0x12
 1167 0499 73313700 		.ascii	"s17\000"
 1168 049d 09       		.byte	0x9
 1169 049e F7       		.byte	0xf7
 1170 049f 51040000 		.4byte	0x451
 1171 04a3 04       		.byte	0x4
 1172 04a4 12       		.uleb128 0x12
 1173 04a5 73313800 		.ascii	"s18\000"
 1174 04a9 09       		.byte	0x9
 1175 04aa F8       		.byte	0xf8
 1176 04ab 51040000 		.4byte	0x451
 1177 04af 08       		.byte	0x8
 1178 04b0 12       		.uleb128 0x12
 1179 04b1 73313900 		.ascii	"s19\000"
 1180 04b5 09       		.byte	0x9
 1181 04b6 F9       		.byte	0xf9
 1182 04b7 51040000 		.4byte	0x451
ARM GAS  /tmp/ccSQU2GF.s 			page 22


 1183 04bb 0C       		.byte	0xc
 1184 04bc 12       		.uleb128 0x12
 1185 04bd 73323000 		.ascii	"s20\000"
 1186 04c1 09       		.byte	0x9
 1187 04c2 FA       		.byte	0xfa
 1188 04c3 51040000 		.4byte	0x451
 1189 04c7 10       		.byte	0x10
 1190 04c8 12       		.uleb128 0x12
 1191 04c9 73323100 		.ascii	"s21\000"
 1192 04cd 09       		.byte	0x9
 1193 04ce FB       		.byte	0xfb
 1194 04cf 51040000 		.4byte	0x451
 1195 04d3 14       		.byte	0x14
 1196 04d4 12       		.uleb128 0x12
 1197 04d5 73323200 		.ascii	"s22\000"
 1198 04d9 09       		.byte	0x9
 1199 04da FC       		.byte	0xfc
 1200 04db 51040000 		.4byte	0x451
 1201 04df 18       		.byte	0x18
 1202 04e0 12       		.uleb128 0x12
 1203 04e1 73323300 		.ascii	"s23\000"
 1204 04e5 09       		.byte	0x9
 1205 04e6 FD       		.byte	0xfd
 1206 04e7 51040000 		.4byte	0x451
 1207 04eb 1C       		.byte	0x1c
 1208 04ec 12       		.uleb128 0x12
 1209 04ed 73323400 		.ascii	"s24\000"
 1210 04f1 09       		.byte	0x9
 1211 04f2 FE       		.byte	0xfe
 1212 04f3 51040000 		.4byte	0x451
 1213 04f7 20       		.byte	0x20
 1214 04f8 12       		.uleb128 0x12
 1215 04f9 73323500 		.ascii	"s25\000"
 1216 04fd 09       		.byte	0x9
 1217 04fe FF       		.byte	0xff
 1218 04ff 51040000 		.4byte	0x451
 1219 0503 24       		.byte	0x24
 1220 0504 08       		.uleb128 0x8
 1221 0505 73323600 		.ascii	"s26\000"
 1222 0509 09       		.byte	0x9
 1223 050a 0001     		.2byte	0x100
 1224 050c 51040000 		.4byte	0x451
 1225 0510 28       		.byte	0x28
 1226 0511 08       		.uleb128 0x8
 1227 0512 73323700 		.ascii	"s27\000"
 1228 0516 09       		.byte	0x9
 1229 0517 0101     		.2byte	0x101
 1230 0519 51040000 		.4byte	0x451
 1231 051d 2C       		.byte	0x2c
 1232 051e 08       		.uleb128 0x8
 1233 051f 73323800 		.ascii	"s28\000"
 1234 0523 09       		.byte	0x9
 1235 0524 0201     		.2byte	0x102
 1236 0526 51040000 		.4byte	0x451
 1237 052a 30       		.byte	0x30
 1238 052b 08       		.uleb128 0x8
 1239 052c 73323900 		.ascii	"s29\000"
ARM GAS  /tmp/ccSQU2GF.s 			page 23


 1240 0530 09       		.byte	0x9
 1241 0531 0301     		.2byte	0x103
 1242 0533 51040000 		.4byte	0x451
 1243 0537 34       		.byte	0x34
 1244 0538 08       		.uleb128 0x8
 1245 0539 73333000 		.ascii	"s30\000"
 1246 053d 09       		.byte	0x9
 1247 053e 0401     		.2byte	0x104
 1248 0540 51040000 		.4byte	0x451
 1249 0544 38       		.byte	0x38
 1250 0545 08       		.uleb128 0x8
 1251 0546 73333100 		.ascii	"s31\000"
 1252 054a 09       		.byte	0x9
 1253 054b 0501     		.2byte	0x105
 1254 054d 51040000 		.4byte	0x451
 1255 0551 3C       		.byte	0x3c
 1256 0552 08       		.uleb128 0x8
 1257 0553 723400   		.ascii	"r4\000"
 1258 0556 09       		.byte	0x9
 1259 0557 0701     		.2byte	0x107
 1260 0559 51040000 		.4byte	0x451
 1261 055d 40       		.byte	0x40
 1262 055e 08       		.uleb128 0x8
 1263 055f 723500   		.ascii	"r5\000"
 1264 0562 09       		.byte	0x9
 1265 0563 0801     		.2byte	0x108
 1266 0565 51040000 		.4byte	0x451
 1267 0569 44       		.byte	0x44
 1268 056a 08       		.uleb128 0x8
 1269 056b 723600   		.ascii	"r6\000"
 1270 056e 09       		.byte	0x9
 1271 056f 0901     		.2byte	0x109
 1272 0571 51040000 		.4byte	0x451
 1273 0575 48       		.byte	0x48
 1274 0576 08       		.uleb128 0x8
 1275 0577 723700   		.ascii	"r7\000"
 1276 057a 09       		.byte	0x9
 1277 057b 0A01     		.2byte	0x10a
 1278 057d 51040000 		.4byte	0x451
 1279 0581 4C       		.byte	0x4c
 1280 0582 08       		.uleb128 0x8
 1281 0583 723800   		.ascii	"r8\000"
 1282 0586 09       		.byte	0x9
 1283 0587 0B01     		.2byte	0x10b
 1284 0589 51040000 		.4byte	0x451
 1285 058d 50       		.byte	0x50
 1286 058e 08       		.uleb128 0x8
 1287 058f 723900   		.ascii	"r9\000"
 1288 0592 09       		.byte	0x9
 1289 0593 0C01     		.2byte	0x10c
 1290 0595 51040000 		.4byte	0x451
 1291 0599 54       		.byte	0x54
 1292 059a 08       		.uleb128 0x8
 1293 059b 72313000 		.ascii	"r10\000"
 1294 059f 09       		.byte	0x9
 1295 05a0 0D01     		.2byte	0x10d
 1296 05a2 51040000 		.4byte	0x451
ARM GAS  /tmp/ccSQU2GF.s 			page 24


 1297 05a6 58       		.byte	0x58
 1298 05a7 08       		.uleb128 0x8
 1299 05a8 72313100 		.ascii	"r11\000"
 1300 05ac 09       		.byte	0x9
 1301 05ad 0E01     		.2byte	0x10e
 1302 05af 51040000 		.4byte	0x451
 1303 05b3 5C       		.byte	0x5c
 1304 05b4 08       		.uleb128 0x8
 1305 05b5 6C7200   		.ascii	"lr\000"
 1306 05b8 09       		.byte	0x9
 1307 05b9 0F01     		.2byte	0x10f
 1308 05bb 51040000 		.4byte	0x451
 1309 05bf 60       		.byte	0x60
 1310 05c0 00       		.byte	0
 1311 05c1 0B       		.uleb128 0xb
 1312 05c2 04       		.byte	0x4
 1313 05c3 80040000 		.4byte	0x480
 1314 05c7 13       		.uleb128 0x13
 1315 05c8 60       		.byte	0x60
 1316 05c9 0A       		.byte	0xa
 1317 05ca 9E01     		.2byte	0x19e
 1318 05cc D3060000 		.4byte	0x6d3
 1319 05d0 08       		.uleb128 0x8
 1320 05d1 43523100 		.ascii	"CR1\000"
 1321 05d5 0A       		.byte	0xa
 1322 05d6 9F01     		.2byte	0x19f
 1323 05d8 C8000000 		.4byte	0xc8
 1324 05dc 00       		.byte	0
 1325 05dd 08       		.uleb128 0x8
 1326 05de 43523200 		.ascii	"CR2\000"
 1327 05e2 0A       		.byte	0xa
 1328 05e3 A001     		.2byte	0x1a0
 1329 05e5 C8000000 		.4byte	0xc8
 1330 05e9 04       		.byte	0x4
 1331 05ea 09       		.uleb128 0x9
 1332 05eb F4050000 		.4byte	.LASF81
 1333 05ef 0A       		.byte	0xa
 1334 05f0 A101     		.2byte	0x1a1
 1335 05f2 C8000000 		.4byte	0xc8
 1336 05f6 08       		.byte	0x8
 1337 05f7 09       		.uleb128 0x9
 1338 05f8 0D000000 		.4byte	.LASF82
 1339 05fc 0A       		.byte	0xa
 1340 05fd A201     		.2byte	0x1a2
 1341 05ff C8000000 		.4byte	0xc8
 1342 0603 0C       		.byte	0xc
 1343 0604 08       		.uleb128 0x8
 1344 0605 535200   		.ascii	"SR\000"
 1345 0608 0A       		.byte	0xa
 1346 0609 A301     		.2byte	0x1a3
 1347 060b C8000000 		.4byte	0xc8
 1348 060f 10       		.byte	0x10
 1349 0610 08       		.uleb128 0x8
 1350 0611 45475200 		.ascii	"EGR\000"
 1351 0615 0A       		.byte	0xa
 1352 0616 A401     		.2byte	0x1a4
 1353 0618 C8000000 		.4byte	0xc8
ARM GAS  /tmp/ccSQU2GF.s 			page 25


 1354 061c 14       		.byte	0x14
 1355 061d 09       		.uleb128 0x9
 1356 061e FA000000 		.4byte	.LASF83
 1357 0622 0A       		.byte	0xa
 1358 0623 A501     		.2byte	0x1a5
 1359 0625 C8000000 		.4byte	0xc8
 1360 0629 18       		.byte	0x18
 1361 062a 09       		.uleb128 0x9
 1362 062b 00010000 		.4byte	.LASF84
 1363 062f 0A       		.byte	0xa
 1364 0630 A601     		.2byte	0x1a6
 1365 0632 C8000000 		.4byte	0xc8
 1366 0636 1C       		.byte	0x1c
 1367 0637 09       		.uleb128 0x9
 1368 0638 0E060000 		.4byte	.LASF85
 1369 063c 0A       		.byte	0xa
 1370 063d A701     		.2byte	0x1a7
 1371 063f C8000000 		.4byte	0xc8
 1372 0643 20       		.byte	0x20
 1373 0644 08       		.uleb128 0x8
 1374 0645 434E5400 		.ascii	"CNT\000"
 1375 0649 0A       		.byte	0xa
 1376 064a A801     		.2byte	0x1a8
 1377 064c C8000000 		.4byte	0xc8
 1378 0650 24       		.byte	0x24
 1379 0651 08       		.uleb128 0x8
 1380 0652 50534300 		.ascii	"PSC\000"
 1381 0656 0A       		.byte	0xa
 1382 0657 A901     		.2byte	0x1a9
 1383 0659 C8000000 		.4byte	0xc8
 1384 065d 28       		.byte	0x28
 1385 065e 08       		.uleb128 0x8
 1386 065f 41525200 		.ascii	"ARR\000"
 1387 0663 0A       		.byte	0xa
 1388 0664 AA01     		.2byte	0x1aa
 1389 0666 C8000000 		.4byte	0xc8
 1390 066a 2C       		.byte	0x2c
 1391 066b 08       		.uleb128 0x8
 1392 066c 52435200 		.ascii	"RCR\000"
 1393 0670 0A       		.byte	0xa
 1394 0671 AB01     		.2byte	0x1ab
 1395 0673 C8000000 		.4byte	0xc8
 1396 0677 30       		.byte	0x30
 1397 0678 08       		.uleb128 0x8
 1398 0679 43435200 		.ascii	"CCR\000"
 1399 067d 0A       		.byte	0xa
 1400 067e AC01     		.2byte	0x1ac
 1401 0680 D3060000 		.4byte	0x6d3
 1402 0684 34       		.byte	0x34
 1403 0685 09       		.uleb128 0x9
 1404 0686 E4000000 		.4byte	.LASF86
 1405 068a 0A       		.byte	0xa
 1406 068b AD01     		.2byte	0x1ad
 1407 068d C8000000 		.4byte	0xc8
 1408 0691 44       		.byte	0x44
 1409 0692 08       		.uleb128 0x8
 1410 0693 44435200 		.ascii	"DCR\000"
ARM GAS  /tmp/ccSQU2GF.s 			page 26


 1411 0697 0A       		.byte	0xa
 1412 0698 AE01     		.2byte	0x1ae
 1413 069a C8000000 		.4byte	0xc8
 1414 069e 48       		.byte	0x48
 1415 069f 09       		.uleb128 0x9
 1416 06a0 00060000 		.4byte	.LASF87
 1417 06a4 0A       		.byte	0xa
 1418 06a5 AF01     		.2byte	0x1af
 1419 06a7 C8000000 		.4byte	0xc8
 1420 06ab 4C       		.byte	0x4c
 1421 06ac 08       		.uleb128 0x8
 1422 06ad 4F5200   		.ascii	"OR\000"
 1423 06b0 0A       		.byte	0xa
 1424 06b1 B001     		.2byte	0x1b0
 1425 06b3 C8000000 		.4byte	0xc8
 1426 06b7 50       		.byte	0x50
 1427 06b8 09       		.uleb128 0x9
 1428 06b9 06010000 		.4byte	.LASF88
 1429 06bd 0A       		.byte	0xa
 1430 06be B101     		.2byte	0x1b1
 1431 06c0 C8000000 		.4byte	0xc8
 1432 06c4 54       		.byte	0x54
 1433 06c5 09       		.uleb128 0x9
 1434 06c6 93050000 		.4byte	.LASF89
 1435 06ca 0A       		.byte	0xa
 1436 06cb B201     		.2byte	0x1b2
 1437 06cd D8060000 		.4byte	0x6d8
 1438 06d1 58       		.byte	0x58
 1439 06d2 00       		.byte	0
 1440 06d3 05       		.uleb128 0x5
 1441 06d4 41040000 		.4byte	0x441
 1442 06d8 05       		.uleb128 0x5
 1443 06d9 31040000 		.4byte	0x431
 1444 06dd 14       		.uleb128 0x14
 1445 06de B4020000 		.4byte	.LASF90
 1446 06e2 0A       		.byte	0xa
 1447 06e3 B301     		.2byte	0x1b3
 1448 06e5 C7050000 		.4byte	0x5c7
 1449 06e9 15       		.uleb128 0x15
 1450 06ea 04       		.byte	0x4
 1451 06eb 0B       		.byte	0xb
 1452 06ec 38       		.byte	0x38
 1453 06ed FE060000 		.4byte	0x6fe
 1454 06f1 07       		.uleb128 0x7
 1455 06f2 5B060000 		.4byte	.LASF91
 1456 06f6 0B       		.byte	0xb
 1457 06f7 3C       		.byte	0x3c
 1458 06f8 CD000000 		.4byte	0xcd
 1459 06fc 00       		.byte	0
 1460 06fd 00       		.byte	0
 1461 06fe 04       		.uleb128 0x4
 1462 06ff 70030000 		.4byte	.LASF92
 1463 0703 0B       		.byte	0xb
 1464 0704 3D       		.byte	0x3d
 1465 0705 E9060000 		.4byte	0x6e9
 1466 0709 0B       		.uleb128 0xb
 1467 070a 04       		.byte	0x4
ARM GAS  /tmp/ccSQU2GF.s 			page 27


 1468 070b 25010000 		.4byte	0x125
 1469 070f 16       		.uleb128 0x16
 1470 0710 04       		.byte	0x4
 1471 0711 07       		.byte	0x7
 1472 0712 F6       		.byte	0xf6
 1473 0713 47070000 		.4byte	0x747
 1474 0717 17       		.uleb128 0x17
 1475 0718 12000000 		.4byte	.LASF93
 1476 071c 07       		.byte	0x7
 1477 071d FD       		.byte	0xfd
 1478 071e 04010000 		.4byte	0x104
 1479 0722 18       		.uleb128 0x18
 1480 0723 8B000000 		.4byte	.LASF94
 1481 0727 07       		.byte	0x7
 1482 0728 0401     		.2byte	0x104
 1483 072a 04010000 		.4byte	0x104
 1484 072e 18       		.uleb128 0x18
 1485 072f EF060000 		.4byte	.LASF95
 1486 0733 07       		.byte	0x7
 1487 0734 0B01     		.2byte	0x10b
 1488 0736 F4020000 		.4byte	0x2f4
 1489 073a 18       		.uleb128 0x18
 1490 073b 4B050000 		.4byte	.LASF96
 1491 073f 07       		.byte	0x7
 1492 0740 1201     		.2byte	0x112
 1493 0742 0F010000 		.4byte	0x10f
 1494 0746 00       		.byte	0
 1495 0747 0B       		.uleb128 0xb
 1496 0748 04       		.byte	0x4
 1497 0749 4D070000 		.4byte	0x74d
 1498 074d 19       		.uleb128 0x19
 1499 074e 52070000 		.4byte	0x752
 1500 0752 03       		.uleb128 0x3
 1501 0753 01       		.byte	0x1
 1502 0754 08       		.byte	0x8
 1503 0755 EF050000 		.4byte	.LASF97
 1504 0759 06       		.uleb128 0x6
 1505 075a F6040000 		.4byte	.LASF98
 1506 075e 10       		.byte	0x10
 1507 075f 0C       		.byte	0xc
 1508 0760 39       		.byte	0x39
 1509 0761 8A070000 		.4byte	0x78a
 1510 0765 07       		.uleb128 0x7
 1511 0766 18010000 		.4byte	.LASF99
 1512 076a 0C       		.byte	0xc
 1513 076b 3A       		.byte	0x3a
 1514 076c 41020000 		.4byte	0x241
 1515 0770 00       		.byte	0
 1516 0771 07       		.uleb128 0x7
 1517 0772 34070000 		.4byte	.LASF100
 1518 0776 0C       		.byte	0xc
 1519 0777 3C       		.byte	0x3c
 1520 0778 09070000 		.4byte	0x709
 1521 077c 08       		.byte	0x8
 1522 077d 07       		.uleb128 0x7
 1523 077e 13060000 		.4byte	.LASF101
 1524 0782 0C       		.byte	0xc
ARM GAS  /tmp/ccSQU2GF.s 			page 28


 1525 0783 3E       		.byte	0x3e
 1526 0784 B6070000 		.4byte	0x7b6
 1527 0788 0C       		.byte	0xc
 1528 0789 00       		.byte	0
 1529 078a 0B       		.uleb128 0xb
 1530 078b 04       		.byte	0x4
 1531 078c 59070000 		.4byte	0x759
 1532 0790 0B       		.uleb128 0xb
 1533 0791 04       		.byte	0x4
 1534 0792 F6020000 		.4byte	0x2f6
 1535 0796 05       		.uleb128 0x5
 1536 0797 47070000 		.4byte	0x747
 1537 079b 10       		.uleb128 0x10
 1538 079c 5C040000 		.4byte	0x45c
 1539 07a0 AB070000 		.4byte	0x7ab
 1540 07a4 11       		.uleb128 0x11
 1541 07a5 2A040000 		.4byte	0x42a
 1542 07a9 2B       		.byte	0x2b
 1543 07aa 00       		.byte	0
 1544 07ab 04       		.uleb128 0x4
 1545 07ac 2C070000 		.4byte	.LASF102
 1546 07b0 0C       		.byte	0xc
 1547 07b1 34       		.byte	0x34
 1548 07b2 59070000 		.4byte	0x759
 1549 07b6 0B       		.uleb128 0xb
 1550 07b7 04       		.byte	0x4
 1551 07b8 AB070000 		.4byte	0x7ab
 1552 07bc 03       		.uleb128 0x3
 1553 07bd 01       		.byte	0x1
 1554 07be 02       		.byte	0x2
 1555 07bf 0C050000 		.4byte	.LASF103
 1556 07c3 1A       		.uleb128 0x1a
 1557 07c4 01       		.byte	0x1
 1558 07c5 0D       		.byte	0xd
 1559 07c6 34       		.byte	0x34
 1560 07c7 EA070000 		.4byte	0x7ea
 1561 07cb 1B       		.uleb128 0x1b
 1562 07cc 66020000 		.4byte	.LASF104
 1563 07d0 00       		.sleb128 0
 1564 07d1 1B       		.uleb128 0x1b
 1565 07d2 A3050000 		.4byte	.LASF105
 1566 07d6 01       		.sleb128 1
 1567 07d7 1B       		.uleb128 0x1b
 1568 07d8 39030000 		.4byte	.LASF106
 1569 07dc 02       		.sleb128 2
 1570 07dd 1B       		.uleb128 0x1b
 1571 07de 20010000 		.4byte	.LASF107
 1572 07e2 03       		.sleb128 3
 1573 07e3 1B       		.uleb128 0x1b
 1574 07e4 2C000000 		.4byte	.LASF108
 1575 07e8 04       		.sleb128 4
 1576 07e9 00       		.byte	0
 1577 07ea 04       		.uleb128 0x4
 1578 07eb 15020000 		.4byte	.LASF109
 1579 07ef 0D       		.byte	0xd
 1580 07f0 3A       		.byte	0x3a
 1581 07f1 C3070000 		.4byte	0x7c3
ARM GAS  /tmp/ccSQU2GF.s 			page 29


 1582 07f5 04       		.uleb128 0x4
 1583 07f6 C4010000 		.4byte	.LASF110
 1584 07fa 0D       		.byte	0xd
 1585 07fb 3F       		.byte	0x3f
 1586 07fc 00080000 		.4byte	0x800
 1587 0800 0A       		.uleb128 0xa
 1588 0801 C4010000 		.4byte	.LASF110
 1589 0805 10       		.byte	0x10
 1590 0806 0E       		.byte	0xe
 1591 0807 9701     		.2byte	0x197
 1592 0809 42080000 		.4byte	0x842
 1593 080d 09       		.uleb128 0x9
 1594 080e 3B010000 		.4byte	.LASF111
 1595 0812 0E       		.byte	0xe
 1596 0813 9B01     		.2byte	0x19b
 1597 0815 EA070000 		.4byte	0x7ea
 1598 0819 00       		.byte	0
 1599 081a 09       		.uleb128 0x9
 1600 081b F9050000 		.4byte	.LASF112
 1601 081f 0E       		.byte	0xe
 1602 0820 9F01     		.2byte	0x19f
 1603 0822 C6080000 		.4byte	0x8c6
 1604 0826 04       		.byte	0x4
 1605 0827 09       		.uleb128 0x9
 1606 0828 26070000 		.4byte	.LASF113
 1607 082c 0E       		.byte	0xe
 1608 082d A701     		.2byte	0x1a7
 1609 082f AD000000 		.4byte	0xad
 1610 0833 08       		.byte	0x8
 1611 0834 08       		.uleb128 0x8
 1612 0835 74696D00 		.ascii	"tim\000"
 1613 0839 0E       		.byte	0xe
 1614 083a AB01     		.2byte	0x1ab
 1615 083c D1080000 		.4byte	0x8d1
 1616 0840 0C       		.byte	0xc
 1617 0841 00       		.byte	0
 1618 0842 04       		.uleb128 0x4
 1619 0843 7E010000 		.4byte	.LASF114
 1620 0847 0D       		.byte	0xd
 1621 0848 46       		.byte	0x46
 1622 0849 4D080000 		.4byte	0x84d
 1623 084d 0B       		.uleb128 0xb
 1624 084e 04       		.byte	0x4
 1625 084f 53080000 		.4byte	0x853
 1626 0853 0C       		.uleb128 0xc
 1627 0854 5E080000 		.4byte	0x85e
 1628 0858 0D       		.uleb128 0xd
 1629 0859 5E080000 		.4byte	0x85e
 1630 085d 00       		.byte	0
 1631 085e 0B       		.uleb128 0xb
 1632 085f 04       		.byte	0x4
 1633 0860 F5070000 		.4byte	0x7f5
 1634 0864 14       		.uleb128 0x14
 1635 0865 71020000 		.4byte	.LASF115
 1636 0869 0E       		.byte	0xe
 1637 086a 6D01     		.2byte	0x16d
 1638 086c AD000000 		.4byte	0xad
ARM GAS  /tmp/ccSQU2GF.s 			page 30


 1639 0870 14       		.uleb128 0x14
 1640 0871 54010000 		.4byte	.LASF116
 1641 0875 0E       		.byte	0xe
 1642 0876 7201     		.2byte	0x172
 1643 0878 AD000000 		.4byte	0xad
 1644 087c 13       		.uleb128 0x13
 1645 087d 10       		.byte	0x10
 1646 087e 0E       		.byte	0xe
 1647 087f 7801     		.2byte	0x178
 1648 0881 BA080000 		.4byte	0x8ba
 1649 0885 09       		.uleb128 0x9
 1650 0886 E9000000 		.4byte	.LASF117
 1651 088a 0E       		.byte	0xe
 1652 088b 7E01     		.2byte	0x17e
 1653 088d 64080000 		.4byte	0x864
 1654 0891 00       		.byte	0
 1655 0892 09       		.uleb128 0x9
 1656 0893 9E020000 		.4byte	.LASF118
 1657 0897 0E       		.byte	0xe
 1658 0898 8501     		.2byte	0x185
 1659 089a 42080000 		.4byte	0x842
 1660 089e 04       		.byte	0x4
 1661 089f 08       		.uleb128 0x8
 1662 08a0 63723200 		.ascii	"cr2\000"
 1663 08a4 0E       		.byte	0xe
 1664 08a5 8B01     		.2byte	0x18b
 1665 08a7 AD000000 		.4byte	0xad
 1666 08ab 08       		.byte	0x8
 1667 08ac 09       		.uleb128 0x9
 1668 08ad 77070000 		.4byte	.LASF119
 1669 08b1 0E       		.byte	0xe
 1670 08b2 9101     		.2byte	0x191
 1671 08b4 AD000000 		.4byte	0xad
 1672 08b8 0C       		.byte	0xc
 1673 08b9 00       		.byte	0
 1674 08ba 14       		.uleb128 0x14
 1675 08bb 62060000 		.4byte	.LASF120
 1676 08bf 0E       		.byte	0xe
 1677 08c0 9201     		.2byte	0x192
 1678 08c2 7C080000 		.4byte	0x87c
 1679 08c6 0B       		.uleb128 0xb
 1680 08c7 04       		.byte	0x4
 1681 08c8 CC080000 		.4byte	0x8cc
 1682 08cc 19       		.uleb128 0x19
 1683 08cd BA080000 		.4byte	0x8ba
 1684 08d1 0B       		.uleb128 0xb
 1685 08d2 04       		.byte	0x4
 1686 08d3 DD060000 		.4byte	0x6dd
 1687 08d7 1C       		.uleb128 0x1c
 1688 08d8 43060000 		.4byte	.LASF124
 1689 08dc 02       		.byte	0x2
 1690 08dd 2002     		.2byte	0x220
 1691 08df 03       		.byte	0x3
 1692 08e0 F1080000 		.4byte	0x8f1
 1693 08e4 1D       		.uleb128 0x1d
 1694 08e5 00020000 		.4byte	.LASF128
 1695 08e9 02       		.byte	0x2
ARM GAS  /tmp/ccSQU2GF.s 			page 31


 1696 08ea 2002     		.2byte	0x220
 1697 08ec AD000000 		.4byte	0xad
 1698 08f0 00       		.byte	0
 1699 08f1 1E       		.uleb128 0x1e
 1700 08f2 58000000 		.4byte	.LASF121
 1701 08f6 09       		.byte	0x9
 1702 08f7 BB01     		.2byte	0x1bb
 1703 08f9 03       		.byte	0x3
 1704 08fa 1E       		.uleb128 0x1e
 1705 08fb 2F010000 		.4byte	.LASF122
 1706 08ff 09       		.byte	0x9
 1707 0900 C901     		.2byte	0x1c9
 1708 0902 03       		.byte	0x3
 1709 0903 1E       		.uleb128 0x1e
 1710 0904 6A050000 		.4byte	.LASF123
 1711 0908 0F       		.byte	0xf
 1712 0909 2901     		.2byte	0x129
 1713 090b 03       		.byte	0x3
 1714 090c 1C       		.uleb128 0x1c
 1715 090d 14070000 		.4byte	.LASF125
 1716 0911 0F       		.byte	0xf
 1717 0912 3501     		.2byte	0x135
 1718 0914 03       		.byte	0x3
 1719 0915 27090000 		.4byte	0x927
 1720 0919 1F       		.uleb128 0x1f
 1721 091a 61050000 		.4byte	.LASF131
 1722 091e 37090000 		.4byte	0x937
 1723 0922 14070000 		.4byte	.LASF125
 1724 0926 00       		.byte	0
 1725 0927 10       		.uleb128 0x10
 1726 0928 52070000 		.4byte	0x752
 1727 092c 37090000 		.4byte	0x937
 1728 0930 11       		.uleb128 0x11
 1729 0931 2A040000 		.4byte	0x42a
 1730 0935 0B       		.byte	0xb
 1731 0936 00       		.byte	0
 1732 0937 19       		.uleb128 0x19
 1733 0938 27090000 		.4byte	0x927
 1734 093c 1E       		.uleb128 0x1e
 1735 093d E6010000 		.4byte	.LASF126
 1736 0941 10       		.byte	0x10
 1737 0942 A701     		.2byte	0x1a7
 1738 0944 03       		.byte	0x3
 1739 0945 1E       		.uleb128 0x1e
 1740 0946 74050000 		.4byte	.LASF127
 1741 094a 10       		.byte	0x10
 1742 094b B201     		.2byte	0x1b2
 1743 094d 03       		.byte	0x3
 1744 094e 20       		.uleb128 0x20
 1745 094f 8C010000 		.4byte	.LASF132
 1746 0953 01       		.byte	0x1
 1747 0954 A2       		.byte	0xa2
 1748 0955 01       		.byte	0x1
 1749 0956 7E090000 		.4byte	0x97e
 1750 095a 21       		.uleb128 0x21
 1751 095b 61020000 		.4byte	.LASF129
 1752 095f 01       		.byte	0x1
ARM GAS  /tmp/ccSQU2GF.s 			page 32


 1753 0960 A2       		.byte	0xa2
 1754 0961 5E080000 		.4byte	0x85e
 1755 0965 21       		.uleb128 0x21
 1756 0966 B3010000 		.4byte	.LASF130
 1757 096a 01       		.byte	0x1
 1758 096b A2       		.byte	0xa2
 1759 096c 70080000 		.4byte	0x870
 1760 0970 1F       		.uleb128 0x1f
 1761 0971 61050000 		.4byte	.LASF131
 1762 0975 8E090000 		.4byte	0x98e
 1763 0979 8C010000 		.4byte	.LASF132
 1764 097d 00       		.byte	0
 1765 097e 10       		.uleb128 0x10
 1766 097f 52070000 		.4byte	0x752
 1767 0983 8E090000 		.4byte	0x98e
 1768 0987 11       		.uleb128 0x11
 1769 0988 2A040000 		.4byte	0x42a
 1770 098c 13       		.byte	0x13
 1771 098d 00       		.byte	0
 1772 098e 19       		.uleb128 0x19
 1773 098f 7E090000 		.4byte	0x97e
 1774 0993 20       		.uleb128 0x20
 1775 0994 66070000 		.4byte	.LASF133
 1776 0998 01       		.byte	0x1
 1777 0999 C4       		.byte	0xc4
 1778 099a 01       		.byte	0x1
 1779 099b C3090000 		.4byte	0x9c3
 1780 099f 21       		.uleb128 0x21
 1781 09a0 61020000 		.4byte	.LASF129
 1782 09a4 01       		.byte	0x1
 1783 09a5 C4       		.byte	0xc4
 1784 09a6 5E080000 		.4byte	0x85e
 1785 09aa 21       		.uleb128 0x21
 1786 09ab B3010000 		.4byte	.LASF130
 1787 09af 01       		.byte	0x1
 1788 09b0 C4       		.byte	0xc4
 1789 09b1 70080000 		.4byte	0x870
 1790 09b5 1F       		.uleb128 0x1f
 1791 09b6 61050000 		.4byte	.LASF131
 1792 09ba D3090000 		.4byte	0x9d3
 1793 09be 66070000 		.4byte	.LASF133
 1794 09c2 00       		.byte	0
 1795 09c3 10       		.uleb128 0x10
 1796 09c4 52070000 		.4byte	0x752
 1797 09c8 D3090000 		.4byte	0x9d3
 1798 09cc 11       		.uleb128 0x11
 1799 09cd 2A040000 		.4byte	0x42a
 1800 09d1 10       		.byte	0x10
 1801 09d2 00       		.byte	0
 1802 09d3 19       		.uleb128 0x19
 1803 09d4 C3090000 		.4byte	0x9c3
 1804 09d8 20       		.uleb128 0x20
 1805 09d9 7C070000 		.4byte	.LASF134
 1806 09dd 01       		.byte	0x1
 1807 09de E5       		.byte	0xe5
 1808 09df 01       		.byte	0x1
 1809 09e0 FD090000 		.4byte	0x9fd
ARM GAS  /tmp/ccSQU2GF.s 			page 33


 1810 09e4 21       		.uleb128 0x21
 1811 09e5 61020000 		.4byte	.LASF129
 1812 09e9 01       		.byte	0x1
 1813 09ea E5       		.byte	0xe5
 1814 09eb 5E080000 		.4byte	0x85e
 1815 09ef 1F       		.uleb128 0x1f
 1816 09f0 61050000 		.4byte	.LASF131
 1817 09f4 0D0A0000 		.4byte	0xa0d
 1818 09f8 7C070000 		.4byte	.LASF134
 1819 09fc 00       		.byte	0
 1820 09fd 10       		.uleb128 0x10
 1821 09fe 52070000 		.4byte	0x752
 1822 0a02 0D0A0000 		.4byte	0xa0d
 1823 0a06 11       		.uleb128 0x11
 1824 0a07 2A040000 		.4byte	0x42a
 1825 0a0b 0D       		.byte	0xd
 1826 0a0c 00       		.byte	0
 1827 0a0d 19       		.uleb128 0x19
 1828 0a0e FD090000 		.4byte	0x9fd
 1829 0a12 22       		.uleb128 0x22
 1830 0a13 6E010000 		.4byte	.LASF135
 1831 0a17 01       		.byte	0x1
 1832 0a18 3B       		.byte	0x3b
 1833 0a19 00000000 		.4byte	.LFB255
 1834 0a1d 04000000 		.4byte	.LFE255-.LFB255
 1835 0a21 01       		.uleb128 0x1
 1836 0a22 9C       		.byte	0x9c
 1837 0a23 310A0000 		.4byte	0xa31
 1838 0a27 23       		.uleb128 0x23
 1839 0a28 04000000 		.4byte	.LVL0
 1840 0a2c DC110000 		.4byte	0x11dc
 1841 0a30 00       		.byte	0
 1842 0a31 22       		.uleb128 0x22
 1843 0a32 35020000 		.4byte	.LASF136
 1844 0a36 01       		.byte	0x1
 1845 0a37 47       		.byte	0x47
 1846 0a38 00000000 		.4byte	.LFB256
 1847 0a3c 0A000000 		.4byte	.LFE256-.LFB256
 1848 0a40 01       		.uleb128 0x1
 1849 0a41 9C       		.byte	0x9c
 1850 0a42 540A0000 		.4byte	0xa54
 1851 0a46 24       		.uleb128 0x24
 1852 0a47 61020000 		.4byte	.LASF129
 1853 0a4b 01       		.byte	0x1
 1854 0a4c 47       		.byte	0x47
 1855 0a4d 5E080000 		.4byte	0x85e
 1856 0a51 01       		.uleb128 0x1
 1857 0a52 50       		.byte	0x50
 1858 0a53 00       		.byte	0
 1859 0a54 22       		.uleb128 0x22
 1860 0a55 89020000 		.4byte	.LASF137
 1861 0a59 01       		.byte	0x1
 1862 0a5a 55       		.byte	0x55
 1863 0a5b 00000000 		.4byte	.LFB257
 1864 0a5f 1C000000 		.4byte	.LFE257-.LFB257
 1865 0a63 01       		.uleb128 0x1
 1866 0a64 9C       		.byte	0x9c
ARM GAS  /tmp/ccSQU2GF.s 			page 34


 1867 0a65 4A0B0000 		.4byte	0xb4a
 1868 0a69 25       		.uleb128 0x25
 1869 0a6a 61020000 		.4byte	.LASF129
 1870 0a6e 01       		.byte	0x1
 1871 0a6f 55       		.byte	0x55
 1872 0a70 5E080000 		.4byte	0x85e
 1873 0a74 00000000 		.4byte	.LLST0
 1874 0a78 25       		.uleb128 0x25
 1875 0a79 F9050000 		.4byte	.LASF112
 1876 0a7d 01       		.byte	0x1
 1877 0a7e 55       		.byte	0x55
 1878 0a7f C6080000 		.4byte	0x8c6
 1879 0a83 1E000000 		.4byte	.LLST1
 1880 0a87 26       		.uleb128 0x26
 1881 0a88 61050000 		.4byte	.LASF131
 1882 0a8c 5A0B0000 		.4byte	0xb5a
 1883 0a90 27       		.uleb128 0x27
 1884 0a91 3C090000 		.4byte	0x93c
 1885 0a95 02000000 		.4byte	.LBB108
 1886 0a99 00000000 		.4byte	.Ldebug_ranges0+0
 1887 0a9d 01       		.byte	0x1
 1888 0a9e 59       		.byte	0x59
 1889 0a9f DD0A0000 		.4byte	0xadd
 1890 0aa3 28       		.uleb128 0x28
 1891 0aa4 03090000 		.4byte	0x903
 1892 0aa8 02000000 		.4byte	.LBB109
 1893 0aac 00000000 		.4byte	.Ldebug_ranges0+0
 1894 0ab0 10       		.byte	0x10
 1895 0ab1 A901     		.2byte	0x1a9
 1896 0ab3 28       		.uleb128 0x28
 1897 0ab4 F1080000 		.4byte	0x8f1
 1898 0ab8 02000000 		.4byte	.LBB110
 1899 0abc 00000000 		.4byte	.Ldebug_ranges0+0
 1900 0ac0 0F       		.byte	0xf
 1901 0ac1 2B01     		.2byte	0x12b
 1902 0ac3 28       		.uleb128 0x28
 1903 0ac4 D7080000 		.4byte	0x8d7
 1904 0ac8 02000000 		.4byte	.LBB111
 1905 0acc 00000000 		.4byte	.Ldebug_ranges0+0
 1906 0ad0 09       		.byte	0x9
 1907 0ad1 BE01     		.2byte	0x1be
 1908 0ad3 29       		.uleb128 0x29
 1909 0ad4 E4080000 		.4byte	0x8e4
 1910 0ad8 20       		.byte	0x20
 1911 0ad9 00       		.byte	0
 1912 0ada 00       		.byte	0
 1913 0adb 00       		.byte	0
 1914 0adc 00       		.byte	0
 1915 0add 2A       		.uleb128 0x2a
 1916 0ade 45090000 		.4byte	0x945
 1917 0ae2 14000000 		.4byte	.LBB118
 1918 0ae6 08000000 		.4byte	.LBE118-.LBB118
 1919 0aea 01       		.byte	0x1
 1920 0aeb 5F       		.byte	0x5f
 1921 0aec 390B0000 		.4byte	0xb39
 1922 0af0 2B       		.uleb128 0x2b
 1923 0af1 0C090000 		.4byte	0x90c
ARM GAS  /tmp/ccSQU2GF.s 			page 35


 1924 0af5 14000000 		.4byte	.LBB119
 1925 0af9 08000000 		.4byte	.LBE119-.LBB119
 1926 0afd 10       		.byte	0x10
 1927 0afe B401     		.2byte	0x1b4
 1928 0b00 2C       		.uleb128 0x2c
 1929 0b01 14000000 		.4byte	.LBB120
 1930 0b05 08000000 		.4byte	.LBE120-.LBB120
 1931 0b09 2D       		.uleb128 0x2d
 1932 0b0a 19090000 		.4byte	0x919
 1933 0b0e 2B       		.uleb128 0x2b
 1934 0b0f FA080000 		.4byte	0x8fa
 1935 0b13 14000000 		.4byte	.LBB121
 1936 0b17 08000000 		.4byte	.LBE121-.LBB121
 1937 0b1b 0F       		.byte	0xf
 1938 0b1c 4101     		.2byte	0x141
 1939 0b1e 2B       		.uleb128 0x2b
 1940 0b1f D7080000 		.4byte	0x8d7
 1941 0b23 14000000 		.4byte	.LBB122
 1942 0b27 08000000 		.4byte	.LBE122-.LBB122
 1943 0b2b 09       		.byte	0x9
 1944 0b2c CC01     		.2byte	0x1cc
 1945 0b2e 29       		.uleb128 0x29
 1946 0b2f E4080000 		.4byte	0x8e4
 1947 0b33 00       		.byte	0
 1948 0b34 00       		.byte	0
 1949 0b35 00       		.byte	0
 1950 0b36 00       		.byte	0
 1951 0b37 00       		.byte	0
 1952 0b38 00       		.byte	0
 1953 0b39 2E       		.uleb128 0x2e
 1954 0b3a 10000000 		.4byte	.LVL3
 1955 0b3e E4110000 		.4byte	0x11e4
 1956 0b42 2F       		.uleb128 0x2f
 1957 0b43 01       		.uleb128 0x1
 1958 0b44 50       		.byte	0x50
 1959 0b45 02       		.uleb128 0x2
 1960 0b46 74       		.byte	0x74
 1961 0b47 00       		.sleb128 0
 1962 0b48 00       		.byte	0
 1963 0b49 00       		.byte	0
 1964 0b4a 10       		.uleb128 0x10
 1965 0b4b 52070000 		.4byte	0x752
 1966 0b4f 5A0B0000 		.4byte	0xb5a
 1967 0b53 11       		.uleb128 0x11
 1968 0b54 2A040000 		.4byte	0x42a
 1969 0b58 08       		.byte	0x8
 1970 0b59 00       		.byte	0
 1971 0b5a 19       		.uleb128 0x19
 1972 0b5b 4A0B0000 		.4byte	0xb4a
 1973 0b5f 22       		.uleb128 0x22
 1974 0b60 5D010000 		.4byte	.LASF138
 1975 0b64 01       		.byte	0x1
 1976 0b65 69       		.byte	0x69
 1977 0b66 00000000 		.4byte	.LFB258
 1978 0b6a 1A000000 		.4byte	.LFE258-.LFB258
 1979 0b6e 01       		.uleb128 0x1
 1980 0b6f 9C       		.byte	0x9c
ARM GAS  /tmp/ccSQU2GF.s 			page 36


 1981 0b70 460C0000 		.4byte	0xc46
 1982 0b74 25       		.uleb128 0x25
 1983 0b75 61020000 		.4byte	.LASF129
 1984 0b79 01       		.byte	0x1
 1985 0b7a 69       		.byte	0x69
 1986 0b7b 5E080000 		.4byte	0x85e
 1987 0b7f 3F000000 		.4byte	.LLST2
 1988 0b83 26       		.uleb128 0x26
 1989 0b84 61050000 		.4byte	.LASF131
 1990 0b88 560C0000 		.4byte	0xc56
 1991 0b8c 27       		.uleb128 0x27
 1992 0b8d 3C090000 		.4byte	0x93c
 1993 0b91 02000000 		.4byte	.LBB124
 1994 0b95 18000000 		.4byte	.Ldebug_ranges0+0x18
 1995 0b99 01       		.byte	0x1
 1996 0b9a 6D       		.byte	0x6d
 1997 0b9b D90B0000 		.4byte	0xbd9
 1998 0b9f 28       		.uleb128 0x28
 1999 0ba0 03090000 		.4byte	0x903
 2000 0ba4 02000000 		.4byte	.LBB125
 2001 0ba8 18000000 		.4byte	.Ldebug_ranges0+0x18
 2002 0bac 10       		.byte	0x10
 2003 0bad A901     		.2byte	0x1a9
 2004 0baf 28       		.uleb128 0x28
 2005 0bb0 F1080000 		.4byte	0x8f1
 2006 0bb4 02000000 		.4byte	.LBB126
 2007 0bb8 18000000 		.4byte	.Ldebug_ranges0+0x18
 2008 0bbc 0F       		.byte	0xf
 2009 0bbd 2B01     		.2byte	0x12b
 2010 0bbf 28       		.uleb128 0x28
 2011 0bc0 D7080000 		.4byte	0x8d7
 2012 0bc4 02000000 		.4byte	.LBB127
 2013 0bc8 18000000 		.4byte	.Ldebug_ranges0+0x18
 2014 0bcc 09       		.byte	0x9
 2015 0bcd BE01     		.2byte	0x1be
 2016 0bcf 29       		.uleb128 0x29
 2017 0bd0 E4080000 		.4byte	0x8e4
 2018 0bd4 20       		.byte	0x20
 2019 0bd5 00       		.byte	0
 2020 0bd6 00       		.byte	0
 2021 0bd7 00       		.byte	0
 2022 0bd8 00       		.byte	0
 2023 0bd9 2A       		.uleb128 0x2a
 2024 0bda 45090000 		.4byte	0x945
 2025 0bde 12000000 		.4byte	.LBB134
 2026 0be2 08000000 		.4byte	.LBE134-.LBB134
 2027 0be6 01       		.byte	0x1
 2028 0be7 72       		.byte	0x72
 2029 0be8 350C0000 		.4byte	0xc35
 2030 0bec 2B       		.uleb128 0x2b
 2031 0bed 0C090000 		.4byte	0x90c
 2032 0bf1 12000000 		.4byte	.LBB135
 2033 0bf5 08000000 		.4byte	.LBE135-.LBB135
 2034 0bf9 10       		.byte	0x10
 2035 0bfa B401     		.2byte	0x1b4
 2036 0bfc 2C       		.uleb128 0x2c
 2037 0bfd 12000000 		.4byte	.LBB136
ARM GAS  /tmp/ccSQU2GF.s 			page 37


 2038 0c01 08000000 		.4byte	.LBE136-.LBB136
 2039 0c05 2D       		.uleb128 0x2d
 2040 0c06 19090000 		.4byte	0x919
 2041 0c0a 2B       		.uleb128 0x2b
 2042 0c0b FA080000 		.4byte	0x8fa
 2043 0c0f 12000000 		.4byte	.LBB137
 2044 0c13 08000000 		.4byte	.LBE137-.LBB137
 2045 0c17 0F       		.byte	0xf
 2046 0c18 4101     		.2byte	0x141
 2047 0c1a 2B       		.uleb128 0x2b
 2048 0c1b D7080000 		.4byte	0x8d7
 2049 0c1f 12000000 		.4byte	.LBB138
 2050 0c23 08000000 		.4byte	.LBE138-.LBB138
 2051 0c27 09       		.byte	0x9
 2052 0c28 CC01     		.2byte	0x1cc
 2053 0c2a 29       		.uleb128 0x29
 2054 0c2b E4080000 		.4byte	0x8e4
 2055 0c2f 00       		.byte	0
 2056 0c30 00       		.byte	0
 2057 0c31 00       		.byte	0
 2058 0c32 00       		.byte	0
 2059 0c33 00       		.byte	0
 2060 0c34 00       		.byte	0
 2061 0c35 2E       		.uleb128 0x2e
 2062 0c36 0E000000 		.4byte	.LVL6
 2063 0c3a F6110000 		.4byte	0x11f6
 2064 0c3e 2F       		.uleb128 0x2f
 2065 0c3f 01       		.uleb128 0x1
 2066 0c40 50       		.byte	0x50
 2067 0c41 02       		.uleb128 0x2
 2068 0c42 74       		.byte	0x74
 2069 0c43 00       		.sleb128 0
 2070 0c44 00       		.byte	0
 2071 0c45 00       		.byte	0
 2072 0c46 10       		.uleb128 0x10
 2073 0c47 52070000 		.4byte	0x752
 2074 0c4b 560C0000 		.4byte	0xc56
 2075 0c4f 11       		.uleb128 0x11
 2076 0c50 2A040000 		.4byte	0x42a
 2077 0c54 07       		.byte	0x7
 2078 0c55 00       		.byte	0
 2079 0c56 19       		.uleb128 0x19
 2080 0c57 460C0000 		.4byte	0xc46
 2081 0c5b 22       		.uleb128 0x22
 2082 0c5c 62000000 		.4byte	.LASF139
 2083 0c60 01       		.byte	0x1
 2084 0c61 80       		.byte	0x80
 2085 0c62 00000000 		.4byte	.LFB259
 2086 0c66 14000000 		.4byte	.LFE259-.LFB259
 2087 0c6a 01       		.uleb128 0x1
 2088 0c6b 9C       		.byte	0x9c
 2089 0c6c 3B0D0000 		.4byte	0xd3b
 2090 0c70 24       		.uleb128 0x24
 2091 0c71 61020000 		.4byte	.LASF129
 2092 0c75 01       		.byte	0x1
 2093 0c76 80       		.byte	0x80
 2094 0c77 5E080000 		.4byte	0x85e
ARM GAS  /tmp/ccSQU2GF.s 			page 38


 2095 0c7b 01       		.uleb128 0x1
 2096 0c7c 50       		.byte	0x50
 2097 0c7d 25       		.uleb128 0x25
 2098 0c7e B3010000 		.4byte	.LASF130
 2099 0c82 01       		.byte	0x1
 2100 0c83 80       		.byte	0x80
 2101 0c84 70080000 		.4byte	0x870
 2102 0c88 5D000000 		.4byte	.LLST3
 2103 0c8c 26       		.uleb128 0x26
 2104 0c8d 61050000 		.4byte	.LASF131
 2105 0c91 4B0D0000 		.4byte	0xd4b
 2106 0c95 2A       		.uleb128 0x2a
 2107 0c96 3C090000 		.4byte	0x93c
 2108 0c9a 00000000 		.4byte	.LBB140
 2109 0c9e 06000000 		.4byte	.LBE140-.LBB140
 2110 0ca2 01       		.byte	0x1
 2111 0ca3 84       		.byte	0x84
 2112 0ca4 E20C0000 		.4byte	0xce2
 2113 0ca8 2B       		.uleb128 0x2b
 2114 0ca9 03090000 		.4byte	0x903
 2115 0cad 00000000 		.4byte	.LBB141
 2116 0cb1 06000000 		.4byte	.LBE141-.LBB141
 2117 0cb5 10       		.byte	0x10
 2118 0cb6 A901     		.2byte	0x1a9
 2119 0cb8 2B       		.uleb128 0x2b
 2120 0cb9 F1080000 		.4byte	0x8f1
 2121 0cbd 00000000 		.4byte	.LBB142
 2122 0cc1 06000000 		.4byte	.LBE142-.LBB142
 2123 0cc5 0F       		.byte	0xf
 2124 0cc6 2B01     		.2byte	0x12b
 2125 0cc8 2B       		.uleb128 0x2b
 2126 0cc9 D7080000 		.4byte	0x8d7
 2127 0ccd 00000000 		.4byte	.LBB143
 2128 0cd1 06000000 		.4byte	.LBE143-.LBB143
 2129 0cd5 09       		.byte	0x9
 2130 0cd6 BE01     		.2byte	0x1be
 2131 0cd8 29       		.uleb128 0x29
 2132 0cd9 E4080000 		.4byte	0x8e4
 2133 0cdd 20       		.byte	0x20
 2134 0cde 00       		.byte	0
 2135 0cdf 00       		.byte	0
 2136 0ce0 00       		.byte	0
 2137 0ce1 00       		.byte	0
 2138 0ce2 30       		.uleb128 0x30
 2139 0ce3 45090000 		.4byte	0x945
 2140 0ce7 0C000000 		.4byte	.LBB145
 2141 0ceb 08000000 		.4byte	.LBE145-.LBB145
 2142 0cef 01       		.byte	0x1
 2143 0cf0 88       		.byte	0x88
 2144 0cf1 2B       		.uleb128 0x2b
 2145 0cf2 0C090000 		.4byte	0x90c
 2146 0cf6 0C000000 		.4byte	.LBB146
 2147 0cfa 08000000 		.4byte	.LBE146-.LBB146
 2148 0cfe 10       		.byte	0x10
 2149 0cff B401     		.2byte	0x1b4
 2150 0d01 2C       		.uleb128 0x2c
 2151 0d02 0C000000 		.4byte	.LBB147
ARM GAS  /tmp/ccSQU2GF.s 			page 39


 2152 0d06 08000000 		.4byte	.LBE147-.LBB147
 2153 0d0a 2D       		.uleb128 0x2d
 2154 0d0b 19090000 		.4byte	0x919
 2155 0d0f 2B       		.uleb128 0x2b
 2156 0d10 FA080000 		.4byte	0x8fa
 2157 0d14 0C000000 		.4byte	.LBB148
 2158 0d18 08000000 		.4byte	.LBE148-.LBB148
 2159 0d1c 0F       		.byte	0xf
 2160 0d1d 4101     		.2byte	0x141
 2161 0d1f 2B       		.uleb128 0x2b
 2162 0d20 D7080000 		.4byte	0x8d7
 2163 0d24 0C000000 		.4byte	.LBB149
 2164 0d28 08000000 		.4byte	.LBE149-.LBB149
 2165 0d2c 09       		.byte	0x9
 2166 0d2d CC01     		.2byte	0x1cc
 2167 0d2f 29       		.uleb128 0x29
 2168 0d30 E4080000 		.4byte	0x8e4
 2169 0d34 00       		.byte	0
 2170 0d35 00       		.byte	0
 2171 0d36 00       		.byte	0
 2172 0d37 00       		.byte	0
 2173 0d38 00       		.byte	0
 2174 0d39 00       		.byte	0
 2175 0d3a 00       		.byte	0
 2176 0d3b 10       		.uleb128 0x10
 2177 0d3c 52070000 		.4byte	0x752
 2178 0d40 4B0D0000 		.4byte	0xd4b
 2179 0d44 11       		.uleb128 0x11
 2180 0d45 2A040000 		.4byte	0x42a
 2181 0d49 11       		.byte	0x11
 2182 0d4a 00       		.byte	0
 2183 0d4b 19       		.uleb128 0x19
 2184 0d4c 3B0D0000 		.4byte	0xd3b
 2185 0d50 22       		.uleb128 0x22
 2186 0d51 C0020000 		.4byte	.LASF140
 2187 0d55 01       		.byte	0x1
 2188 0d56 93       		.byte	0x93
 2189 0d57 00000000 		.4byte	.LFB260
 2190 0d5b 18000000 		.4byte	.LFE260-.LFB260
 2191 0d5f 01       		.uleb128 0x1
 2192 0d60 9C       		.byte	0x9c
 2193 0d61 760E0000 		.4byte	0xe76
 2194 0d65 25       		.uleb128 0x25
 2195 0d66 61020000 		.4byte	.LASF129
 2196 0d6a 01       		.byte	0x1
 2197 0d6b 93       		.byte	0x93
 2198 0d6c 5E080000 		.4byte	0x85e
 2199 0d70 7D000000 		.4byte	.LLST4
 2200 0d74 25       		.uleb128 0x25
 2201 0d75 B3010000 		.4byte	.LASF130
 2202 0d79 01       		.byte	0x1
 2203 0d7a 93       		.byte	0x93
 2204 0d7b 70080000 		.4byte	0x870
 2205 0d7f 9E000000 		.4byte	.LLST5
 2206 0d83 2A       		.uleb128 0x2a
 2207 0d84 3C090000 		.4byte	0x93c
 2208 0d88 02000000 		.4byte	.LBB151
ARM GAS  /tmp/ccSQU2GF.s 			page 40


 2209 0d8c 06000000 		.4byte	.LBE151-.LBB151
 2210 0d90 01       		.byte	0x1
 2211 0d91 95       		.byte	0x95
 2212 0d92 D00D0000 		.4byte	0xdd0
 2213 0d96 2B       		.uleb128 0x2b
 2214 0d97 03090000 		.4byte	0x903
 2215 0d9b 02000000 		.4byte	.LBB152
 2216 0d9f 06000000 		.4byte	.LBE152-.LBB152
 2217 0da3 10       		.byte	0x10
 2218 0da4 A901     		.2byte	0x1a9
 2219 0da6 2B       		.uleb128 0x2b
 2220 0da7 F1080000 		.4byte	0x8f1
 2221 0dab 02000000 		.4byte	.LBB153
 2222 0daf 06000000 		.4byte	.LBE153-.LBB153
 2223 0db3 0F       		.byte	0xf
 2224 0db4 2B01     		.2byte	0x12b
 2225 0db6 2B       		.uleb128 0x2b
 2226 0db7 D7080000 		.4byte	0x8d7
 2227 0dbb 02000000 		.4byte	.LBB154
 2228 0dbf 06000000 		.4byte	.LBE154-.LBB154
 2229 0dc3 09       		.byte	0x9
 2230 0dc4 BE01     		.2byte	0x1be
 2231 0dc6 29       		.uleb128 0x29
 2232 0dc7 E4080000 		.4byte	0x8e4
 2233 0dcb 20       		.byte	0x20
 2234 0dcc 00       		.byte	0
 2235 0dcd 00       		.byte	0
 2236 0dce 00       		.byte	0
 2237 0dcf 00       		.byte	0
 2238 0dd0 2A       		.uleb128 0x2a
 2239 0dd1 4E090000 		.4byte	0x94e
 2240 0dd5 08000000 		.4byte	.LBB156
 2241 0dd9 08000000 		.4byte	.LBE156-.LBB156
 2242 0ddd 01       		.byte	0x1
 2243 0dde 96       		.byte	0x96
 2244 0ddf 1D0E0000 		.4byte	0xe1d
 2245 0de3 31       		.uleb128 0x31
 2246 0de4 65090000 		.4byte	0x965
 2247 0de8 BF000000 		.4byte	.LLST6
 2248 0dec 31       		.uleb128 0x31
 2249 0ded 5A090000 		.4byte	0x95a
 2250 0df1 E0000000 		.4byte	.LLST7
 2251 0df5 2C       		.uleb128 0x2c
 2252 0df6 08000000 		.4byte	.LBB157
 2253 0dfa 08000000 		.4byte	.LBE157-.LBB157
 2254 0dfe 2D       		.uleb128 0x2d
 2255 0dff 70090000 		.4byte	0x970
 2256 0e03 2E       		.uleb128 0x2e
 2257 0e04 10000000 		.4byte	.LVL13
 2258 0e08 08120000 		.4byte	0x1208
 2259 0e0c 2F       		.uleb128 0x2f
 2260 0e0d 01       		.uleb128 0x1
 2261 0e0e 51       		.byte	0x51
 2262 0e0f 03       		.uleb128 0x3
 2263 0e10 F3       		.byte	0xf3
 2264 0e11 01       		.uleb128 0x1
 2265 0e12 51       		.byte	0x51
ARM GAS  /tmp/ccSQU2GF.s 			page 41


 2266 0e13 2F       		.uleb128 0x2f
 2267 0e14 01       		.uleb128 0x1
 2268 0e15 50       		.byte	0x50
 2269 0e16 03       		.uleb128 0x3
 2270 0e17 F3       		.byte	0xf3
 2271 0e18 01       		.uleb128 0x1
 2272 0e19 50       		.byte	0x50
 2273 0e1a 00       		.byte	0
 2274 0e1b 00       		.byte	0
 2275 0e1c 00       		.byte	0
 2276 0e1d 30       		.uleb128 0x30
 2277 0e1e 45090000 		.4byte	0x945
 2278 0e22 10000000 		.4byte	.LBB158
 2279 0e26 08000000 		.4byte	.LBE158-.LBB158
 2280 0e2a 01       		.byte	0x1
 2281 0e2b 97       		.byte	0x97
 2282 0e2c 2B       		.uleb128 0x2b
 2283 0e2d 0C090000 		.4byte	0x90c
 2284 0e31 10000000 		.4byte	.LBB159
 2285 0e35 08000000 		.4byte	.LBE159-.LBB159
 2286 0e39 10       		.byte	0x10
 2287 0e3a B401     		.2byte	0x1b4
 2288 0e3c 2C       		.uleb128 0x2c
 2289 0e3d 10000000 		.4byte	.LBB160
 2290 0e41 08000000 		.4byte	.LBE160-.LBB160
 2291 0e45 2D       		.uleb128 0x2d
 2292 0e46 19090000 		.4byte	0x919
 2293 0e4a 2B       		.uleb128 0x2b
 2294 0e4b FA080000 		.4byte	0x8fa
 2295 0e4f 10000000 		.4byte	.LBB161
 2296 0e53 08000000 		.4byte	.LBE161-.LBB161
 2297 0e57 0F       		.byte	0xf
 2298 0e58 4101     		.2byte	0x141
 2299 0e5a 2B       		.uleb128 0x2b
 2300 0e5b D7080000 		.4byte	0x8d7
 2301 0e5f 10000000 		.4byte	.LBB162
 2302 0e63 08000000 		.4byte	.LBE162-.LBB162
 2303 0e67 09       		.byte	0x9
 2304 0e68 CC01     		.2byte	0x1cc
 2305 0e6a 29       		.uleb128 0x29
 2306 0e6b E4080000 		.4byte	0x8e4
 2307 0e6f 00       		.byte	0
 2308 0e70 00       		.byte	0
 2309 0e71 00       		.byte	0
 2310 0e72 00       		.byte	0
 2311 0e73 00       		.byte	0
 2312 0e74 00       		.byte	0
 2313 0e75 00       		.byte	0
 2314 0e76 32       		.uleb128 0x32
 2315 0e77 4E090000 		.4byte	0x94e
 2316 0e7b 00000000 		.4byte	.LFB261
 2317 0e7f 08000000 		.4byte	.LFE261-.LFB261
 2318 0e83 01       		.uleb128 0x1
 2319 0e84 9C       		.byte	0x9c
 2320 0e85 B90E0000 		.4byte	0xeb9
 2321 0e89 31       		.uleb128 0x31
 2322 0e8a 5A090000 		.4byte	0x95a
ARM GAS  /tmp/ccSQU2GF.s 			page 42


 2323 0e8e 01010000 		.4byte	.LLST8
 2324 0e92 31       		.uleb128 0x31
 2325 0e93 65090000 		.4byte	0x965
 2326 0e97 22010000 		.4byte	.LLST9
 2327 0e9b 2D       		.uleb128 0x2d
 2328 0e9c 70090000 		.4byte	0x970
 2329 0ea0 33       		.uleb128 0x33
 2330 0ea1 08000000 		.4byte	.LVL15
 2331 0ea5 08120000 		.4byte	0x1208
 2332 0ea9 2F       		.uleb128 0x2f
 2333 0eaa 01       		.uleb128 0x1
 2334 0eab 51       		.byte	0x51
 2335 0eac 03       		.uleb128 0x3
 2336 0ead F3       		.byte	0xf3
 2337 0eae 01       		.uleb128 0x1
 2338 0eaf 51       		.byte	0x51
 2339 0eb0 2F       		.uleb128 0x2f
 2340 0eb1 01       		.uleb128 0x1
 2341 0eb2 50       		.byte	0x50
 2342 0eb3 03       		.uleb128 0x3
 2343 0eb4 F3       		.byte	0xf3
 2344 0eb5 01       		.uleb128 0x1
 2345 0eb6 50       		.byte	0x50
 2346 0eb7 00       		.byte	0
 2347 0eb8 00       		.byte	0
 2348 0eb9 22       		.uleb128 0x22
 2349 0eba AC050000 		.4byte	.LASF141
 2350 0ebe 01       		.byte	0x1
 2351 0ebf B5       		.byte	0xb5
 2352 0ec0 00000000 		.4byte	.LFB262
 2353 0ec4 18000000 		.4byte	.LFE262-.LFB262
 2354 0ec8 01       		.uleb128 0x1
 2355 0ec9 9C       		.byte	0x9c
 2356 0eca DF0F0000 		.4byte	0xfdf
 2357 0ece 25       		.uleb128 0x25
 2358 0ecf 61020000 		.4byte	.LASF129
 2359 0ed3 01       		.byte	0x1
 2360 0ed4 B5       		.byte	0xb5
 2361 0ed5 5E080000 		.4byte	0x85e
 2362 0ed9 43010000 		.4byte	.LLST10
 2363 0edd 25       		.uleb128 0x25
 2364 0ede B3010000 		.4byte	.LASF130
 2365 0ee2 01       		.byte	0x1
 2366 0ee3 B5       		.byte	0xb5
 2367 0ee4 70080000 		.4byte	0x870
 2368 0ee8 64010000 		.4byte	.LLST11
 2369 0eec 2A       		.uleb128 0x2a
 2370 0eed 3C090000 		.4byte	0x93c
 2371 0ef1 02000000 		.4byte	.LBB164
 2372 0ef5 06000000 		.4byte	.LBE164-.LBB164
 2373 0ef9 01       		.byte	0x1
 2374 0efa B7       		.byte	0xb7
 2375 0efb 390F0000 		.4byte	0xf39
 2376 0eff 2B       		.uleb128 0x2b
 2377 0f00 03090000 		.4byte	0x903
 2378 0f04 02000000 		.4byte	.LBB165
 2379 0f08 06000000 		.4byte	.LBE165-.LBB165
ARM GAS  /tmp/ccSQU2GF.s 			page 43


 2380 0f0c 10       		.byte	0x10
 2381 0f0d A901     		.2byte	0x1a9
 2382 0f0f 2B       		.uleb128 0x2b
 2383 0f10 F1080000 		.4byte	0x8f1
 2384 0f14 02000000 		.4byte	.LBB166
 2385 0f18 06000000 		.4byte	.LBE166-.LBB166
 2386 0f1c 0F       		.byte	0xf
 2387 0f1d 2B01     		.2byte	0x12b
 2388 0f1f 2B       		.uleb128 0x2b
 2389 0f20 D7080000 		.4byte	0x8d7
 2390 0f24 02000000 		.4byte	.LBB167
 2391 0f28 06000000 		.4byte	.LBE167-.LBB167
 2392 0f2c 09       		.byte	0x9
 2393 0f2d BE01     		.2byte	0x1be
 2394 0f2f 29       		.uleb128 0x29
 2395 0f30 E4080000 		.4byte	0x8e4
 2396 0f34 20       		.byte	0x20
 2397 0f35 00       		.byte	0
 2398 0f36 00       		.byte	0
 2399 0f37 00       		.byte	0
 2400 0f38 00       		.byte	0
 2401 0f39 2A       		.uleb128 0x2a
 2402 0f3a 93090000 		.4byte	0x993
 2403 0f3e 08000000 		.4byte	.LBB169
 2404 0f42 08000000 		.4byte	.LBE169-.LBB169
 2405 0f46 01       		.byte	0x1
 2406 0f47 B8       		.byte	0xb8
 2407 0f48 860F0000 		.4byte	0xf86
 2408 0f4c 31       		.uleb128 0x31
 2409 0f4d AA090000 		.4byte	0x9aa
 2410 0f51 85010000 		.4byte	.LLST12
 2411 0f55 31       		.uleb128 0x31
 2412 0f56 9F090000 		.4byte	0x99f
 2413 0f5a A6010000 		.4byte	.LLST13
 2414 0f5e 2C       		.uleb128 0x2c
 2415 0f5f 08000000 		.4byte	.LBB170
 2416 0f63 08000000 		.4byte	.LBE170-.LBB170
 2417 0f67 2D       		.uleb128 0x2d
 2418 0f68 B5090000 		.4byte	0x9b5
 2419 0f6c 2E       		.uleb128 0x2e
 2420 0f6d 10000000 		.4byte	.LVL18
 2421 0f71 08120000 		.4byte	0x1208
 2422 0f75 2F       		.uleb128 0x2f
 2423 0f76 01       		.uleb128 0x1
 2424 0f77 51       		.byte	0x51
 2425 0f78 03       		.uleb128 0x3
 2426 0f79 F3       		.byte	0xf3
 2427 0f7a 01       		.uleb128 0x1
 2428 0f7b 51       		.byte	0x51
 2429 0f7c 2F       		.uleb128 0x2f
 2430 0f7d 01       		.uleb128 0x1
 2431 0f7e 50       		.byte	0x50
 2432 0f7f 03       		.uleb128 0x3
 2433 0f80 F3       		.byte	0xf3
 2434 0f81 01       		.uleb128 0x1
 2435 0f82 50       		.byte	0x50
 2436 0f83 00       		.byte	0
ARM GAS  /tmp/ccSQU2GF.s 			page 44


 2437 0f84 00       		.byte	0
 2438 0f85 00       		.byte	0
 2439 0f86 30       		.uleb128 0x30
 2440 0f87 45090000 		.4byte	0x945
 2441 0f8b 10000000 		.4byte	.LBB171
 2442 0f8f 08000000 		.4byte	.LBE171-.LBB171
 2443 0f93 01       		.byte	0x1
 2444 0f94 B9       		.byte	0xb9
 2445 0f95 2B       		.uleb128 0x2b
 2446 0f96 0C090000 		.4byte	0x90c
 2447 0f9a 10000000 		.4byte	.LBB172
 2448 0f9e 08000000 		.4byte	.LBE172-.LBB172
 2449 0fa2 10       		.byte	0x10
 2450 0fa3 B401     		.2byte	0x1b4
 2451 0fa5 2C       		.uleb128 0x2c
 2452 0fa6 10000000 		.4byte	.LBB173
 2453 0faa 08000000 		.4byte	.LBE173-.LBB173
 2454 0fae 2D       		.uleb128 0x2d
 2455 0faf 19090000 		.4byte	0x919
 2456 0fb3 2B       		.uleb128 0x2b
 2457 0fb4 FA080000 		.4byte	0x8fa
 2458 0fb8 10000000 		.4byte	.LBB174
 2459 0fbc 08000000 		.4byte	.LBE174-.LBB174
 2460 0fc0 0F       		.byte	0xf
 2461 0fc1 4101     		.2byte	0x141
 2462 0fc3 2B       		.uleb128 0x2b
 2463 0fc4 D7080000 		.4byte	0x8d7
 2464 0fc8 10000000 		.4byte	.LBB175
 2465 0fcc 08000000 		.4byte	.LBE175-.LBB175
 2466 0fd0 09       		.byte	0x9
 2467 0fd1 CC01     		.2byte	0x1cc
 2468 0fd3 29       		.uleb128 0x29
 2469 0fd4 E4080000 		.4byte	0x8e4
 2470 0fd8 00       		.byte	0
 2471 0fd9 00       		.byte	0
 2472 0fda 00       		.byte	0
 2473 0fdb 00       		.byte	0
 2474 0fdc 00       		.byte	0
 2475 0fdd 00       		.byte	0
 2476 0fde 00       		.byte	0
 2477 0fdf 32       		.uleb128 0x32
 2478 0fe0 93090000 		.4byte	0x993
 2479 0fe4 00000000 		.4byte	.LFB263
 2480 0fe8 08000000 		.4byte	.LFE263-.LFB263
 2481 0fec 01       		.uleb128 0x1
 2482 0fed 9C       		.byte	0x9c
 2483 0fee 22100000 		.4byte	0x1022
 2484 0ff2 31       		.uleb128 0x31
 2485 0ff3 9F090000 		.4byte	0x99f
 2486 0ff7 C7010000 		.4byte	.LLST14
 2487 0ffb 31       		.uleb128 0x31
 2488 0ffc AA090000 		.4byte	0x9aa
 2489 1000 E8010000 		.4byte	.LLST15
 2490 1004 2D       		.uleb128 0x2d
 2491 1005 B5090000 		.4byte	0x9b5
 2492 1009 33       		.uleb128 0x33
 2493 100a 08000000 		.4byte	.LVL20
ARM GAS  /tmp/ccSQU2GF.s 			page 45


 2494 100e 08120000 		.4byte	0x1208
 2495 1012 2F       		.uleb128 0x2f
 2496 1013 01       		.uleb128 0x1
 2497 1014 51       		.byte	0x51
 2498 1015 03       		.uleb128 0x3
 2499 1016 F3       		.byte	0xf3
 2500 1017 01       		.uleb128 0x1
 2501 1018 51       		.byte	0x51
 2502 1019 2F       		.uleb128 0x2f
 2503 101a 01       		.uleb128 0x1
 2504 101b 50       		.byte	0x50
 2505 101c 03       		.uleb128 0x3
 2506 101d F3       		.byte	0xf3
 2507 101e 01       		.uleb128 0x1
 2508 101f 50       		.byte	0x50
 2509 1020 00       		.byte	0
 2510 1021 00       		.byte	0
 2511 1022 22       		.uleb128 0x22
 2512 1023 02030000 		.4byte	.LASF142
 2513 1027 01       		.byte	0x1
 2514 1028 D7       		.byte	0xd7
 2515 1029 00000000 		.4byte	.LFB264
 2516 102d 18000000 		.4byte	.LFE264-.LFB264
 2517 1031 01       		.uleb128 0x1
 2518 1032 9C       		.byte	0x9c
 2519 1033 29110000 		.4byte	0x1129
 2520 1037 25       		.uleb128 0x25
 2521 1038 61020000 		.4byte	.LASF129
 2522 103c 01       		.byte	0x1
 2523 103d D7       		.byte	0xd7
 2524 103e 5E080000 		.4byte	0x85e
 2525 1042 09020000 		.4byte	.LLST16
 2526 1046 2A       		.uleb128 0x2a
 2527 1047 3C090000 		.4byte	0x93c
 2528 104b 02000000 		.4byte	.LBB177
 2529 104f 06000000 		.4byte	.LBE177-.LBB177
 2530 1053 01       		.byte	0x1
 2531 1054 D9       		.byte	0xd9
 2532 1055 93100000 		.4byte	0x1093
 2533 1059 2B       		.uleb128 0x2b
 2534 105a 03090000 		.4byte	0x903
 2535 105e 02000000 		.4byte	.LBB178
 2536 1062 06000000 		.4byte	.LBE178-.LBB178
 2537 1066 10       		.byte	0x10
 2538 1067 A901     		.2byte	0x1a9
 2539 1069 2B       		.uleb128 0x2b
 2540 106a F1080000 		.4byte	0x8f1
 2541 106e 02000000 		.4byte	.LBB179
 2542 1072 06000000 		.4byte	.LBE179-.LBB179
 2543 1076 0F       		.byte	0xf
 2544 1077 2B01     		.2byte	0x12b
 2545 1079 2B       		.uleb128 0x2b
 2546 107a D7080000 		.4byte	0x8d7
 2547 107e 02000000 		.4byte	.LBB180
 2548 1082 06000000 		.4byte	.LBE180-.LBB180
 2549 1086 09       		.byte	0x9
 2550 1087 BE01     		.2byte	0x1be
ARM GAS  /tmp/ccSQU2GF.s 			page 46


 2551 1089 29       		.uleb128 0x29
 2552 108a E4080000 		.4byte	0x8e4
 2553 108e 20       		.byte	0x20
 2554 108f 00       		.byte	0
 2555 1090 00       		.byte	0
 2556 1091 00       		.byte	0
 2557 1092 00       		.byte	0
 2558 1093 2A       		.uleb128 0x2a
 2559 1094 D8090000 		.4byte	0x9d8
 2560 1098 08000000 		.4byte	.LBB182
 2561 109c 08000000 		.4byte	.LBE182-.LBB182
 2562 10a0 01       		.byte	0x1
 2563 10a1 DA       		.byte	0xda
 2564 10a2 D0100000 		.4byte	0x10d0
 2565 10a6 31       		.uleb128 0x31
 2566 10a7 E4090000 		.4byte	0x9e4
 2567 10ab 2A020000 		.4byte	.LLST17
 2568 10af 2C       		.uleb128 0x2c
 2569 10b0 08000000 		.4byte	.LBB183
 2570 10b4 08000000 		.4byte	.LBE183-.LBB183
 2571 10b8 2D       		.uleb128 0x2d
 2572 10b9 EF090000 		.4byte	0x9ef
 2573 10bd 2E       		.uleb128 0x2e
 2574 10be 10000000 		.4byte	.LVL23
 2575 10c2 1F120000 		.4byte	0x121f
 2576 10c6 2F       		.uleb128 0x2f
 2577 10c7 01       		.uleb128 0x1
 2578 10c8 50       		.byte	0x50
 2579 10c9 03       		.uleb128 0x3
 2580 10ca F3       		.byte	0xf3
 2581 10cb 01       		.uleb128 0x1
 2582 10cc 50       		.byte	0x50
 2583 10cd 00       		.byte	0
 2584 10ce 00       		.byte	0
 2585 10cf 00       		.byte	0
 2586 10d0 30       		.uleb128 0x30
 2587 10d1 45090000 		.4byte	0x945
 2588 10d5 10000000 		.4byte	.LBB184
 2589 10d9 08000000 		.4byte	.LBE184-.LBB184
 2590 10dd 01       		.byte	0x1
 2591 10de DB       		.byte	0xdb
 2592 10df 2B       		.uleb128 0x2b
 2593 10e0 0C090000 		.4byte	0x90c
 2594 10e4 10000000 		.4byte	.LBB185
 2595 10e8 08000000 		.4byte	.LBE185-.LBB185
 2596 10ec 10       		.byte	0x10
 2597 10ed B401     		.2byte	0x1b4
 2598 10ef 2C       		.uleb128 0x2c
 2599 10f0 10000000 		.4byte	.LBB186
 2600 10f4 08000000 		.4byte	.LBE186-.LBB186
 2601 10f8 2D       		.uleb128 0x2d
 2602 10f9 19090000 		.4byte	0x919
 2603 10fd 2B       		.uleb128 0x2b
 2604 10fe FA080000 		.4byte	0x8fa
 2605 1102 10000000 		.4byte	.LBB187
 2606 1106 08000000 		.4byte	.LBE187-.LBB187
 2607 110a 0F       		.byte	0xf
ARM GAS  /tmp/ccSQU2GF.s 			page 47


 2608 110b 4101     		.2byte	0x141
 2609 110d 2B       		.uleb128 0x2b
 2610 110e D7080000 		.4byte	0x8d7
 2611 1112 10000000 		.4byte	.LBB188
 2612 1116 08000000 		.4byte	.LBE188-.LBB188
 2613 111a 09       		.byte	0x9
 2614 111b CC01     		.2byte	0x1cc
 2615 111d 29       		.uleb128 0x29
 2616 111e E4080000 		.4byte	0x8e4
 2617 1122 00       		.byte	0
 2618 1123 00       		.byte	0
 2619 1124 00       		.byte	0
 2620 1125 00       		.byte	0
 2621 1126 00       		.byte	0
 2622 1127 00       		.byte	0
 2623 1128 00       		.byte	0
 2624 1129 32       		.uleb128 0x32
 2625 112a D8090000 		.4byte	0x9d8
 2626 112e 00000000 		.4byte	.LFB265
 2627 1132 08000000 		.4byte	.LFE265-.LFB265
 2628 1136 01       		.uleb128 0x1
 2629 1137 9C       		.byte	0x9c
 2630 1138 5C110000 		.4byte	0x115c
 2631 113c 31       		.uleb128 0x31
 2632 113d E4090000 		.4byte	0x9e4
 2633 1141 4B020000 		.4byte	.LLST18
 2634 1145 2D       		.uleb128 0x2d
 2635 1146 EF090000 		.4byte	0x9ef
 2636 114a 33       		.uleb128 0x33
 2637 114b 08000000 		.4byte	.LVL25
 2638 114f 1F120000 		.4byte	0x121f
 2639 1153 2F       		.uleb128 0x2f
 2640 1154 01       		.uleb128 0x1
 2641 1155 50       		.byte	0x50
 2642 1156 03       		.uleb128 0x3
 2643 1157 F3       		.byte	0xf3
 2644 1158 01       		.uleb128 0x1
 2645 1159 50       		.byte	0x50
 2646 115a 00       		.byte	0
 2647 115b 00       		.byte	0
 2648 115c 22       		.uleb128 0x22
 2649 115d E0060000 		.4byte	.LASF143
 2650 1161 01       		.byte	0x1
 2651 1162 FD       		.byte	0xfd
 2652 1163 00000000 		.4byte	.LFB266
 2653 1167 12000000 		.4byte	.LFE266-.LFB266
 2654 116b 01       		.uleb128 0x1
 2655 116c 9C       		.byte	0x9c
 2656 116d B0110000 		.4byte	0x11b0
 2657 1171 25       		.uleb128 0x25
 2658 1172 61020000 		.4byte	.LASF129
 2659 1176 01       		.byte	0x1
 2660 1177 FD       		.byte	0xfd
 2661 1178 5E080000 		.4byte	0x85e
 2662 117c 6C020000 		.4byte	.LLST19
 2663 1180 25       		.uleb128 0x25
 2664 1181 B3010000 		.4byte	.LASF130
ARM GAS  /tmp/ccSQU2GF.s 			page 48


 2665 1185 01       		.byte	0x1
 2666 1186 FD       		.byte	0xfd
 2667 1187 70080000 		.4byte	0x870
 2668 118b 8A020000 		.4byte	.LLST20
 2669 118f 26       		.uleb128 0x26
 2670 1190 61050000 		.4byte	.LASF131
 2671 1194 C0110000 		.4byte	0x11c0
 2672 1198 2E       		.uleb128 0x2e
 2673 1199 0C000000 		.4byte	.LVL27
 2674 119d 31120000 		.4byte	0x1231
 2675 11a1 2F       		.uleb128 0x2f
 2676 11a2 01       		.uleb128 0x1
 2677 11a3 51       		.byte	0x51
 2678 11a4 03       		.uleb128 0x3
 2679 11a5 F3       		.byte	0xf3
 2680 11a6 01       		.uleb128 0x1
 2681 11a7 51       		.byte	0x51
 2682 11a8 2F       		.uleb128 0x2f
 2683 11a9 01       		.uleb128 0x1
 2684 11aa 50       		.byte	0x50
 2685 11ab 02       		.uleb128 0x2
 2686 11ac 74       		.byte	0x74
 2687 11ad 00       		.sleb128 0
 2688 11ae 00       		.byte	0
 2689 11af 00       		.byte	0
 2690 11b0 10       		.uleb128 0x10
 2691 11b1 52070000 		.4byte	0x752
 2692 11b5 C0110000 		.4byte	0x11c0
 2693 11b9 11       		.uleb128 0x11
 2694 11ba 2A040000 		.4byte	0x42a
 2695 11be 0E       		.byte	0xe
 2696 11bf 00       		.byte	0
 2697 11c0 19       		.uleb128 0x19
 2698 11c1 B0110000 		.4byte	0x11b0
 2699 11c5 34       		.uleb128 0x34
 2700 11c6 B5000000 		.4byte	.LASF144
 2701 11ca 11       		.byte	0x11
 2702 11cb A706     		.2byte	0x6a7
 2703 11cd C3000000 		.4byte	0xc3
 2704 11d1 35       		.uleb128 0x35
 2705 11d2 636800   		.ascii	"ch\000"
 2706 11d5 07       		.byte	0x7
 2707 11d6 EB01     		.2byte	0x1eb
 2708 11d8 C3030000 		.4byte	0x3c3
 2709 11dc 36       		.uleb128 0x36
 2710 11dd A7020000 		.4byte	.LASF152
 2711 11e1 0E       		.byte	0xe
 2712 11e2 1002     		.2byte	0x210
 2713 11e4 37       		.uleb128 0x37
 2714 11e5 84060000 		.4byte	.LASF145
 2715 11e9 0E       		.byte	0xe
 2716 11ea 1102     		.2byte	0x211
 2717 11ec F6110000 		.4byte	0x11f6
 2718 11f0 0D       		.uleb128 0xd
 2719 11f1 5E080000 		.4byte	0x85e
 2720 11f5 00       		.byte	0
 2721 11f6 37       		.uleb128 0x37
ARM GAS  /tmp/ccSQU2GF.s 			page 49


 2722 11f7 C5060000 		.4byte	.LASF146
 2723 11fb 0E       		.byte	0xe
 2724 11fc 1202     		.2byte	0x212
 2725 11fe 08120000 		.4byte	0x1208
 2726 1202 0D       		.uleb128 0xd
 2727 1203 5E080000 		.4byte	0x85e
 2728 1207 00       		.byte	0
 2729 1208 37       		.uleb128 0x37
 2730 1209 8B030000 		.4byte	.LASF147
 2731 120d 0E       		.byte	0xe
 2732 120e 1302     		.2byte	0x213
 2733 1210 1F120000 		.4byte	0x121f
 2734 1214 0D       		.uleb128 0xd
 2735 1215 5E080000 		.4byte	0x85e
 2736 1219 0D       		.uleb128 0xd
 2737 121a 70080000 		.4byte	0x870
 2738 121e 00       		.byte	0
 2739 121f 37       		.uleb128 0x37
 2740 1220 43030000 		.4byte	.LASF148
 2741 1224 0E       		.byte	0xe
 2742 1225 1402     		.2byte	0x214
 2743 1227 31120000 		.4byte	0x1231
 2744 122b 0D       		.uleb128 0xd
 2745 122c 5E080000 		.4byte	0x85e
 2746 1230 00       		.byte	0
 2747 1231 38       		.uleb128 0x38
 2748 1232 B0060000 		.4byte	.LASF153
 2749 1236 0E       		.byte	0xe
 2750 1237 1502     		.2byte	0x215
 2751 1239 0D       		.uleb128 0xd
 2752 123a 5E080000 		.4byte	0x85e
 2753 123e 0D       		.uleb128 0xd
 2754 123f 70080000 		.4byte	0x870
 2755 1243 00       		.byte	0
 2756 1244 00       		.byte	0
 2757              		.section	.debug_abbrev,"",%progbits
 2758              	.Ldebug_abbrev0:
 2759 0000 01       		.uleb128 0x1
 2760 0001 11       		.uleb128 0x11
 2761 0002 01       		.byte	0x1
 2762 0003 25       		.uleb128 0x25
 2763 0004 0E       		.uleb128 0xe
 2764 0005 13       		.uleb128 0x13
 2765 0006 0B       		.uleb128 0xb
 2766 0007 03       		.uleb128 0x3
 2767 0008 0E       		.uleb128 0xe
 2768 0009 1B       		.uleb128 0x1b
 2769 000a 0E       		.uleb128 0xe
 2770 000b 55       		.uleb128 0x55
 2771 000c 17       		.uleb128 0x17
 2772 000d 11       		.uleb128 0x11
 2773 000e 01       		.uleb128 0x1
 2774 000f 10       		.uleb128 0x10
 2775 0010 17       		.uleb128 0x17
 2776 0011 00       		.byte	0
 2777 0012 00       		.byte	0
 2778 0013 02       		.uleb128 0x2
ARM GAS  /tmp/ccSQU2GF.s 			page 50


 2779 0014 24       		.uleb128 0x24
 2780 0015 00       		.byte	0
 2781 0016 0B       		.uleb128 0xb
 2782 0017 0B       		.uleb128 0xb
 2783 0018 3E       		.uleb128 0x3e
 2784 0019 0B       		.uleb128 0xb
 2785 001a 03       		.uleb128 0x3
 2786 001b 08       		.uleb128 0x8
 2787 001c 00       		.byte	0
 2788 001d 00       		.byte	0
 2789 001e 03       		.uleb128 0x3
 2790 001f 24       		.uleb128 0x24
 2791 0020 00       		.byte	0
 2792 0021 0B       		.uleb128 0xb
 2793 0022 0B       		.uleb128 0xb
 2794 0023 3E       		.uleb128 0x3e
 2795 0024 0B       		.uleb128 0xb
 2796 0025 03       		.uleb128 0x3
 2797 0026 0E       		.uleb128 0xe
 2798 0027 00       		.byte	0
 2799 0028 00       		.byte	0
 2800 0029 04       		.uleb128 0x4
 2801 002a 16       		.uleb128 0x16
 2802 002b 00       		.byte	0
 2803 002c 03       		.uleb128 0x3
 2804 002d 0E       		.uleb128 0xe
 2805 002e 3A       		.uleb128 0x3a
 2806 002f 0B       		.uleb128 0xb
 2807 0030 3B       		.uleb128 0x3b
 2808 0031 0B       		.uleb128 0xb
 2809 0032 49       		.uleb128 0x49
 2810 0033 13       		.uleb128 0x13
 2811 0034 00       		.byte	0
 2812 0035 00       		.byte	0
 2813 0036 05       		.uleb128 0x5
 2814 0037 35       		.uleb128 0x35
 2815 0038 00       		.byte	0
 2816 0039 49       		.uleb128 0x49
 2817 003a 13       		.uleb128 0x13
 2818 003b 00       		.byte	0
 2819 003c 00       		.byte	0
 2820 003d 06       		.uleb128 0x6
 2821 003e 13       		.uleb128 0x13
 2822 003f 01       		.byte	0x1
 2823 0040 03       		.uleb128 0x3
 2824 0041 0E       		.uleb128 0xe
 2825 0042 0B       		.uleb128 0xb
 2826 0043 0B       		.uleb128 0xb
 2827 0044 3A       		.uleb128 0x3a
 2828 0045 0B       		.uleb128 0xb
 2829 0046 3B       		.uleb128 0x3b
 2830 0047 0B       		.uleb128 0xb
 2831 0048 01       		.uleb128 0x1
 2832 0049 13       		.uleb128 0x13
 2833 004a 00       		.byte	0
 2834 004b 00       		.byte	0
 2835 004c 07       		.uleb128 0x7
ARM GAS  /tmp/ccSQU2GF.s 			page 51


 2836 004d 0D       		.uleb128 0xd
 2837 004e 00       		.byte	0
 2838 004f 03       		.uleb128 0x3
 2839 0050 0E       		.uleb128 0xe
 2840 0051 3A       		.uleb128 0x3a
 2841 0052 0B       		.uleb128 0xb
 2842 0053 3B       		.uleb128 0x3b
 2843 0054 0B       		.uleb128 0xb
 2844 0055 49       		.uleb128 0x49
 2845 0056 13       		.uleb128 0x13
 2846 0057 38       		.uleb128 0x38
 2847 0058 0B       		.uleb128 0xb
 2848 0059 00       		.byte	0
 2849 005a 00       		.byte	0
 2850 005b 08       		.uleb128 0x8
 2851 005c 0D       		.uleb128 0xd
 2852 005d 00       		.byte	0
 2853 005e 03       		.uleb128 0x3
 2854 005f 08       		.uleb128 0x8
 2855 0060 3A       		.uleb128 0x3a
 2856 0061 0B       		.uleb128 0xb
 2857 0062 3B       		.uleb128 0x3b
 2858 0063 05       		.uleb128 0x5
 2859 0064 49       		.uleb128 0x49
 2860 0065 13       		.uleb128 0x13
 2861 0066 38       		.uleb128 0x38
 2862 0067 0B       		.uleb128 0xb
 2863 0068 00       		.byte	0
 2864 0069 00       		.byte	0
 2865 006a 09       		.uleb128 0x9
 2866 006b 0D       		.uleb128 0xd
 2867 006c 00       		.byte	0
 2868 006d 03       		.uleb128 0x3
 2869 006e 0E       		.uleb128 0xe
 2870 006f 3A       		.uleb128 0x3a
 2871 0070 0B       		.uleb128 0xb
 2872 0071 3B       		.uleb128 0x3b
 2873 0072 05       		.uleb128 0x5
 2874 0073 49       		.uleb128 0x49
 2875 0074 13       		.uleb128 0x13
 2876 0075 38       		.uleb128 0x38
 2877 0076 0B       		.uleb128 0xb
 2878 0077 00       		.byte	0
 2879 0078 00       		.byte	0
 2880 0079 0A       		.uleb128 0xa
 2881 007a 13       		.uleb128 0x13
 2882 007b 01       		.byte	0x1
 2883 007c 03       		.uleb128 0x3
 2884 007d 0E       		.uleb128 0xe
 2885 007e 0B       		.uleb128 0xb
 2886 007f 0B       		.uleb128 0xb
 2887 0080 3A       		.uleb128 0x3a
 2888 0081 0B       		.uleb128 0xb
 2889 0082 3B       		.uleb128 0x3b
 2890 0083 05       		.uleb128 0x5
 2891 0084 01       		.uleb128 0x1
 2892 0085 13       		.uleb128 0x13
ARM GAS  /tmp/ccSQU2GF.s 			page 52


 2893 0086 00       		.byte	0
 2894 0087 00       		.byte	0
 2895 0088 0B       		.uleb128 0xb
 2896 0089 0F       		.uleb128 0xf
 2897 008a 00       		.byte	0
 2898 008b 0B       		.uleb128 0xb
 2899 008c 0B       		.uleb128 0xb
 2900 008d 49       		.uleb128 0x49
 2901 008e 13       		.uleb128 0x13
 2902 008f 00       		.byte	0
 2903 0090 00       		.byte	0
 2904 0091 0C       		.uleb128 0xc
 2905 0092 15       		.uleb128 0x15
 2906 0093 01       		.byte	0x1
 2907 0094 27       		.uleb128 0x27
 2908 0095 19       		.uleb128 0x19
 2909 0096 01       		.uleb128 0x1
 2910 0097 13       		.uleb128 0x13
 2911 0098 00       		.byte	0
 2912 0099 00       		.byte	0
 2913 009a 0D       		.uleb128 0xd
 2914 009b 05       		.uleb128 0x5
 2915 009c 00       		.byte	0
 2916 009d 49       		.uleb128 0x49
 2917 009e 13       		.uleb128 0x13
 2918 009f 00       		.byte	0
 2919 00a0 00       		.byte	0
 2920 00a1 0E       		.uleb128 0xe
 2921 00a2 0F       		.uleb128 0xf
 2922 00a3 00       		.byte	0
 2923 00a4 0B       		.uleb128 0xb
 2924 00a5 0B       		.uleb128 0xb
 2925 00a6 00       		.byte	0
 2926 00a7 00       		.byte	0
 2927 00a8 0F       		.uleb128 0xf
 2928 00a9 13       		.uleb128 0x13
 2929 00aa 01       		.byte	0x1
 2930 00ab 03       		.uleb128 0x3
 2931 00ac 0E       		.uleb128 0xe
 2932 00ad 0B       		.uleb128 0xb
 2933 00ae 05       		.uleb128 0x5
 2934 00af 3A       		.uleb128 0x3a
 2935 00b0 0B       		.uleb128 0xb
 2936 00b1 3B       		.uleb128 0x3b
 2937 00b2 05       		.uleb128 0x5
 2938 00b3 01       		.uleb128 0x1
 2939 00b4 13       		.uleb128 0x13
 2940 00b5 00       		.byte	0
 2941 00b6 00       		.byte	0
 2942 00b7 10       		.uleb128 0x10
 2943 00b8 01       		.uleb128 0x1
 2944 00b9 01       		.byte	0x1
 2945 00ba 49       		.uleb128 0x49
 2946 00bb 13       		.uleb128 0x13
 2947 00bc 01       		.uleb128 0x1
 2948 00bd 13       		.uleb128 0x13
 2949 00be 00       		.byte	0
ARM GAS  /tmp/ccSQU2GF.s 			page 53


 2950 00bf 00       		.byte	0
 2951 00c0 11       		.uleb128 0x11
 2952 00c1 21       		.uleb128 0x21
 2953 00c2 00       		.byte	0
 2954 00c3 49       		.uleb128 0x49
 2955 00c4 13       		.uleb128 0x13
 2956 00c5 2F       		.uleb128 0x2f
 2957 00c6 0B       		.uleb128 0xb
 2958 00c7 00       		.byte	0
 2959 00c8 00       		.byte	0
 2960 00c9 12       		.uleb128 0x12
 2961 00ca 0D       		.uleb128 0xd
 2962 00cb 00       		.byte	0
 2963 00cc 03       		.uleb128 0x3
 2964 00cd 08       		.uleb128 0x8
 2965 00ce 3A       		.uleb128 0x3a
 2966 00cf 0B       		.uleb128 0xb
 2967 00d0 3B       		.uleb128 0x3b
 2968 00d1 0B       		.uleb128 0xb
 2969 00d2 49       		.uleb128 0x49
 2970 00d3 13       		.uleb128 0x13
 2971 00d4 38       		.uleb128 0x38
 2972 00d5 0B       		.uleb128 0xb
 2973 00d6 00       		.byte	0
 2974 00d7 00       		.byte	0
 2975 00d8 13       		.uleb128 0x13
 2976 00d9 13       		.uleb128 0x13
 2977 00da 01       		.byte	0x1
 2978 00db 0B       		.uleb128 0xb
 2979 00dc 0B       		.uleb128 0xb
 2980 00dd 3A       		.uleb128 0x3a
 2981 00de 0B       		.uleb128 0xb
 2982 00df 3B       		.uleb128 0x3b
 2983 00e0 05       		.uleb128 0x5
 2984 00e1 01       		.uleb128 0x1
 2985 00e2 13       		.uleb128 0x13
 2986 00e3 00       		.byte	0
 2987 00e4 00       		.byte	0
 2988 00e5 14       		.uleb128 0x14
 2989 00e6 16       		.uleb128 0x16
 2990 00e7 00       		.byte	0
 2991 00e8 03       		.uleb128 0x3
 2992 00e9 0E       		.uleb128 0xe
 2993 00ea 3A       		.uleb128 0x3a
 2994 00eb 0B       		.uleb128 0xb
 2995 00ec 3B       		.uleb128 0x3b
 2996 00ed 05       		.uleb128 0x5
 2997 00ee 49       		.uleb128 0x49
 2998 00ef 13       		.uleb128 0x13
 2999 00f0 00       		.byte	0
 3000 00f1 00       		.byte	0
 3001 00f2 15       		.uleb128 0x15
 3002 00f3 13       		.uleb128 0x13
 3003 00f4 01       		.byte	0x1
 3004 00f5 0B       		.uleb128 0xb
 3005 00f6 0B       		.uleb128 0xb
 3006 00f7 3A       		.uleb128 0x3a
ARM GAS  /tmp/ccSQU2GF.s 			page 54


 3007 00f8 0B       		.uleb128 0xb
 3008 00f9 3B       		.uleb128 0x3b
 3009 00fa 0B       		.uleb128 0xb
 3010 00fb 01       		.uleb128 0x1
 3011 00fc 13       		.uleb128 0x13
 3012 00fd 00       		.byte	0
 3013 00fe 00       		.byte	0
 3014 00ff 16       		.uleb128 0x16
 3015 0100 17       		.uleb128 0x17
 3016 0101 01       		.byte	0x1
 3017 0102 0B       		.uleb128 0xb
 3018 0103 0B       		.uleb128 0xb
 3019 0104 3A       		.uleb128 0x3a
 3020 0105 0B       		.uleb128 0xb
 3021 0106 3B       		.uleb128 0x3b
 3022 0107 0B       		.uleb128 0xb
 3023 0108 01       		.uleb128 0x1
 3024 0109 13       		.uleb128 0x13
 3025 010a 00       		.byte	0
 3026 010b 00       		.byte	0
 3027 010c 17       		.uleb128 0x17
 3028 010d 0D       		.uleb128 0xd
 3029 010e 00       		.byte	0
 3030 010f 03       		.uleb128 0x3
 3031 0110 0E       		.uleb128 0xe
 3032 0111 3A       		.uleb128 0x3a
 3033 0112 0B       		.uleb128 0xb
 3034 0113 3B       		.uleb128 0x3b
 3035 0114 0B       		.uleb128 0xb
 3036 0115 49       		.uleb128 0x49
 3037 0116 13       		.uleb128 0x13
 3038 0117 00       		.byte	0
 3039 0118 00       		.byte	0
 3040 0119 18       		.uleb128 0x18
 3041 011a 0D       		.uleb128 0xd
 3042 011b 00       		.byte	0
 3043 011c 03       		.uleb128 0x3
 3044 011d 0E       		.uleb128 0xe
 3045 011e 3A       		.uleb128 0x3a
 3046 011f 0B       		.uleb128 0xb
 3047 0120 3B       		.uleb128 0x3b
 3048 0121 05       		.uleb128 0x5
 3049 0122 49       		.uleb128 0x49
 3050 0123 13       		.uleb128 0x13
 3051 0124 00       		.byte	0
 3052 0125 00       		.byte	0
 3053 0126 19       		.uleb128 0x19
 3054 0127 26       		.uleb128 0x26
 3055 0128 00       		.byte	0
 3056 0129 49       		.uleb128 0x49
 3057 012a 13       		.uleb128 0x13
 3058 012b 00       		.byte	0
 3059 012c 00       		.byte	0
 3060 012d 1A       		.uleb128 0x1a
 3061 012e 04       		.uleb128 0x4
 3062 012f 01       		.byte	0x1
 3063 0130 0B       		.uleb128 0xb
ARM GAS  /tmp/ccSQU2GF.s 			page 55


 3064 0131 0B       		.uleb128 0xb
 3065 0132 3A       		.uleb128 0x3a
 3066 0133 0B       		.uleb128 0xb
 3067 0134 3B       		.uleb128 0x3b
 3068 0135 0B       		.uleb128 0xb
 3069 0136 01       		.uleb128 0x1
 3070 0137 13       		.uleb128 0x13
 3071 0138 00       		.byte	0
 3072 0139 00       		.byte	0
 3073 013a 1B       		.uleb128 0x1b
 3074 013b 28       		.uleb128 0x28
 3075 013c 00       		.byte	0
 3076 013d 03       		.uleb128 0x3
 3077 013e 0E       		.uleb128 0xe
 3078 013f 1C       		.uleb128 0x1c
 3079 0140 0D       		.uleb128 0xd
 3080 0141 00       		.byte	0
 3081 0142 00       		.byte	0
 3082 0143 1C       		.uleb128 0x1c
 3083 0144 2E       		.uleb128 0x2e
 3084 0145 01       		.byte	0x1
 3085 0146 03       		.uleb128 0x3
 3086 0147 0E       		.uleb128 0xe
 3087 0148 3A       		.uleb128 0x3a
 3088 0149 0B       		.uleb128 0xb
 3089 014a 3B       		.uleb128 0x3b
 3090 014b 05       		.uleb128 0x5
 3091 014c 27       		.uleb128 0x27
 3092 014d 19       		.uleb128 0x19
 3093 014e 20       		.uleb128 0x20
 3094 014f 0B       		.uleb128 0xb
 3095 0150 01       		.uleb128 0x1
 3096 0151 13       		.uleb128 0x13
 3097 0152 00       		.byte	0
 3098 0153 00       		.byte	0
 3099 0154 1D       		.uleb128 0x1d
 3100 0155 05       		.uleb128 0x5
 3101 0156 00       		.byte	0
 3102 0157 03       		.uleb128 0x3
 3103 0158 0E       		.uleb128 0xe
 3104 0159 3A       		.uleb128 0x3a
 3105 015a 0B       		.uleb128 0xb
 3106 015b 3B       		.uleb128 0x3b
 3107 015c 05       		.uleb128 0x5
 3108 015d 49       		.uleb128 0x49
 3109 015e 13       		.uleb128 0x13
 3110 015f 00       		.byte	0
 3111 0160 00       		.byte	0
 3112 0161 1E       		.uleb128 0x1e
 3113 0162 2E       		.uleb128 0x2e
 3114 0163 00       		.byte	0
 3115 0164 03       		.uleb128 0x3
 3116 0165 0E       		.uleb128 0xe
 3117 0166 3A       		.uleb128 0x3a
 3118 0167 0B       		.uleb128 0xb
 3119 0168 3B       		.uleb128 0x3b
 3120 0169 05       		.uleb128 0x5
ARM GAS  /tmp/ccSQU2GF.s 			page 56


 3121 016a 27       		.uleb128 0x27
 3122 016b 19       		.uleb128 0x19
 3123 016c 20       		.uleb128 0x20
 3124 016d 0B       		.uleb128 0xb
 3125 016e 00       		.byte	0
 3126 016f 00       		.byte	0
 3127 0170 1F       		.uleb128 0x1f
 3128 0171 34       		.uleb128 0x34
 3129 0172 00       		.byte	0
 3130 0173 03       		.uleb128 0x3
 3131 0174 0E       		.uleb128 0xe
 3132 0175 49       		.uleb128 0x49
 3133 0176 13       		.uleb128 0x13
 3134 0177 34       		.uleb128 0x34
 3135 0178 19       		.uleb128 0x19
 3136 0179 1C       		.uleb128 0x1c
 3137 017a 0E       		.uleb128 0xe
 3138 017b 00       		.byte	0
 3139 017c 00       		.byte	0
 3140 017d 20       		.uleb128 0x20
 3141 017e 2E       		.uleb128 0x2e
 3142 017f 01       		.byte	0x1
 3143 0180 3F       		.uleb128 0x3f
 3144 0181 19       		.uleb128 0x19
 3145 0182 03       		.uleb128 0x3
 3146 0183 0E       		.uleb128 0xe
 3147 0184 3A       		.uleb128 0x3a
 3148 0185 0B       		.uleb128 0xb
 3149 0186 3B       		.uleb128 0x3b
 3150 0187 0B       		.uleb128 0xb
 3151 0188 27       		.uleb128 0x27
 3152 0189 19       		.uleb128 0x19
 3153 018a 20       		.uleb128 0x20
 3154 018b 0B       		.uleb128 0xb
 3155 018c 01       		.uleb128 0x1
 3156 018d 13       		.uleb128 0x13
 3157 018e 00       		.byte	0
 3158 018f 00       		.byte	0
 3159 0190 21       		.uleb128 0x21
 3160 0191 05       		.uleb128 0x5
 3161 0192 00       		.byte	0
 3162 0193 03       		.uleb128 0x3
 3163 0194 0E       		.uleb128 0xe
 3164 0195 3A       		.uleb128 0x3a
 3165 0196 0B       		.uleb128 0xb
 3166 0197 3B       		.uleb128 0x3b
 3167 0198 0B       		.uleb128 0xb
 3168 0199 49       		.uleb128 0x49
 3169 019a 13       		.uleb128 0x13
 3170 019b 00       		.byte	0
 3171 019c 00       		.byte	0
 3172 019d 22       		.uleb128 0x22
 3173 019e 2E       		.uleb128 0x2e
 3174 019f 01       		.byte	0x1
 3175 01a0 3F       		.uleb128 0x3f
 3176 01a1 19       		.uleb128 0x19
 3177 01a2 03       		.uleb128 0x3
ARM GAS  /tmp/ccSQU2GF.s 			page 57


 3178 01a3 0E       		.uleb128 0xe
 3179 01a4 3A       		.uleb128 0x3a
 3180 01a5 0B       		.uleb128 0xb
 3181 01a6 3B       		.uleb128 0x3b
 3182 01a7 0B       		.uleb128 0xb
 3183 01a8 27       		.uleb128 0x27
 3184 01a9 19       		.uleb128 0x19
 3185 01aa 11       		.uleb128 0x11
 3186 01ab 01       		.uleb128 0x1
 3187 01ac 12       		.uleb128 0x12
 3188 01ad 06       		.uleb128 0x6
 3189 01ae 40       		.uleb128 0x40
 3190 01af 18       		.uleb128 0x18
 3191 01b0 9742     		.uleb128 0x2117
 3192 01b2 19       		.uleb128 0x19
 3193 01b3 01       		.uleb128 0x1
 3194 01b4 13       		.uleb128 0x13
 3195 01b5 00       		.byte	0
 3196 01b6 00       		.byte	0
 3197 01b7 23       		.uleb128 0x23
 3198 01b8 898201   		.uleb128 0x4109
 3199 01bb 00       		.byte	0
 3200 01bc 11       		.uleb128 0x11
 3201 01bd 01       		.uleb128 0x1
 3202 01be 9542     		.uleb128 0x2115
 3203 01c0 19       		.uleb128 0x19
 3204 01c1 31       		.uleb128 0x31
 3205 01c2 13       		.uleb128 0x13
 3206 01c3 00       		.byte	0
 3207 01c4 00       		.byte	0
 3208 01c5 24       		.uleb128 0x24
 3209 01c6 05       		.uleb128 0x5
 3210 01c7 00       		.byte	0
 3211 01c8 03       		.uleb128 0x3
 3212 01c9 0E       		.uleb128 0xe
 3213 01ca 3A       		.uleb128 0x3a
 3214 01cb 0B       		.uleb128 0xb
 3215 01cc 3B       		.uleb128 0x3b
 3216 01cd 0B       		.uleb128 0xb
 3217 01ce 49       		.uleb128 0x49
 3218 01cf 13       		.uleb128 0x13
 3219 01d0 02       		.uleb128 0x2
 3220 01d1 18       		.uleb128 0x18
 3221 01d2 00       		.byte	0
 3222 01d3 00       		.byte	0
 3223 01d4 25       		.uleb128 0x25
 3224 01d5 05       		.uleb128 0x5
 3225 01d6 00       		.byte	0
 3226 01d7 03       		.uleb128 0x3
 3227 01d8 0E       		.uleb128 0xe
 3228 01d9 3A       		.uleb128 0x3a
 3229 01da 0B       		.uleb128 0xb
 3230 01db 3B       		.uleb128 0x3b
 3231 01dc 0B       		.uleb128 0xb
 3232 01dd 49       		.uleb128 0x49
 3233 01de 13       		.uleb128 0x13
 3234 01df 02       		.uleb128 0x2
ARM GAS  /tmp/ccSQU2GF.s 			page 58


 3235 01e0 17       		.uleb128 0x17
 3236 01e1 00       		.byte	0
 3237 01e2 00       		.byte	0
 3238 01e3 26       		.uleb128 0x26
 3239 01e4 34       		.uleb128 0x34
 3240 01e5 00       		.byte	0
 3241 01e6 03       		.uleb128 0x3
 3242 01e7 0E       		.uleb128 0xe
 3243 01e8 49       		.uleb128 0x49
 3244 01e9 13       		.uleb128 0x13
 3245 01ea 34       		.uleb128 0x34
 3246 01eb 19       		.uleb128 0x19
 3247 01ec 00       		.byte	0
 3248 01ed 00       		.byte	0
 3249 01ee 27       		.uleb128 0x27
 3250 01ef 1D       		.uleb128 0x1d
 3251 01f0 01       		.byte	0x1
 3252 01f1 31       		.uleb128 0x31
 3253 01f2 13       		.uleb128 0x13
 3254 01f3 52       		.uleb128 0x52
 3255 01f4 01       		.uleb128 0x1
 3256 01f5 55       		.uleb128 0x55
 3257 01f6 17       		.uleb128 0x17
 3258 01f7 58       		.uleb128 0x58
 3259 01f8 0B       		.uleb128 0xb
 3260 01f9 59       		.uleb128 0x59
 3261 01fa 0B       		.uleb128 0xb
 3262 01fb 01       		.uleb128 0x1
 3263 01fc 13       		.uleb128 0x13
 3264 01fd 00       		.byte	0
 3265 01fe 00       		.byte	0
 3266 01ff 28       		.uleb128 0x28
 3267 0200 1D       		.uleb128 0x1d
 3268 0201 01       		.byte	0x1
 3269 0202 31       		.uleb128 0x31
 3270 0203 13       		.uleb128 0x13
 3271 0204 52       		.uleb128 0x52
 3272 0205 01       		.uleb128 0x1
 3273 0206 55       		.uleb128 0x55
 3274 0207 17       		.uleb128 0x17
 3275 0208 58       		.uleb128 0x58
 3276 0209 0B       		.uleb128 0xb
 3277 020a 59       		.uleb128 0x59
 3278 020b 05       		.uleb128 0x5
 3279 020c 00       		.byte	0
 3280 020d 00       		.byte	0
 3281 020e 29       		.uleb128 0x29
 3282 020f 05       		.uleb128 0x5
 3283 0210 00       		.byte	0
 3284 0211 31       		.uleb128 0x31
 3285 0212 13       		.uleb128 0x13
 3286 0213 1C       		.uleb128 0x1c
 3287 0214 0B       		.uleb128 0xb
 3288 0215 00       		.byte	0
 3289 0216 00       		.byte	0
 3290 0217 2A       		.uleb128 0x2a
 3291 0218 1D       		.uleb128 0x1d
ARM GAS  /tmp/ccSQU2GF.s 			page 59


 3292 0219 01       		.byte	0x1
 3293 021a 31       		.uleb128 0x31
 3294 021b 13       		.uleb128 0x13
 3295 021c 11       		.uleb128 0x11
 3296 021d 01       		.uleb128 0x1
 3297 021e 12       		.uleb128 0x12
 3298 021f 06       		.uleb128 0x6
 3299 0220 58       		.uleb128 0x58
 3300 0221 0B       		.uleb128 0xb
 3301 0222 59       		.uleb128 0x59
 3302 0223 0B       		.uleb128 0xb
 3303 0224 01       		.uleb128 0x1
 3304 0225 13       		.uleb128 0x13
 3305 0226 00       		.byte	0
 3306 0227 00       		.byte	0
 3307 0228 2B       		.uleb128 0x2b
 3308 0229 1D       		.uleb128 0x1d
 3309 022a 01       		.byte	0x1
 3310 022b 31       		.uleb128 0x31
 3311 022c 13       		.uleb128 0x13
 3312 022d 11       		.uleb128 0x11
 3313 022e 01       		.uleb128 0x1
 3314 022f 12       		.uleb128 0x12
 3315 0230 06       		.uleb128 0x6
 3316 0231 58       		.uleb128 0x58
 3317 0232 0B       		.uleb128 0xb
 3318 0233 59       		.uleb128 0x59
 3319 0234 05       		.uleb128 0x5
 3320 0235 00       		.byte	0
 3321 0236 00       		.byte	0
 3322 0237 2C       		.uleb128 0x2c
 3323 0238 0B       		.uleb128 0xb
 3324 0239 01       		.byte	0x1
 3325 023a 11       		.uleb128 0x11
 3326 023b 01       		.uleb128 0x1
 3327 023c 12       		.uleb128 0x12
 3328 023d 06       		.uleb128 0x6
 3329 023e 00       		.byte	0
 3330 023f 00       		.byte	0
 3331 0240 2D       		.uleb128 0x2d
 3332 0241 34       		.uleb128 0x34
 3333 0242 00       		.byte	0
 3334 0243 31       		.uleb128 0x31
 3335 0244 13       		.uleb128 0x13
 3336 0245 00       		.byte	0
 3337 0246 00       		.byte	0
 3338 0247 2E       		.uleb128 0x2e
 3339 0248 898201   		.uleb128 0x4109
 3340 024b 01       		.byte	0x1
 3341 024c 11       		.uleb128 0x11
 3342 024d 01       		.uleb128 0x1
 3343 024e 31       		.uleb128 0x31
 3344 024f 13       		.uleb128 0x13
 3345 0250 00       		.byte	0
 3346 0251 00       		.byte	0
 3347 0252 2F       		.uleb128 0x2f
 3348 0253 8A8201   		.uleb128 0x410a
ARM GAS  /tmp/ccSQU2GF.s 			page 60


 3349 0256 00       		.byte	0
 3350 0257 02       		.uleb128 0x2
 3351 0258 18       		.uleb128 0x18
 3352 0259 9142     		.uleb128 0x2111
 3353 025b 18       		.uleb128 0x18
 3354 025c 00       		.byte	0
 3355 025d 00       		.byte	0
 3356 025e 30       		.uleb128 0x30
 3357 025f 1D       		.uleb128 0x1d
 3358 0260 01       		.byte	0x1
 3359 0261 31       		.uleb128 0x31
 3360 0262 13       		.uleb128 0x13
 3361 0263 11       		.uleb128 0x11
 3362 0264 01       		.uleb128 0x1
 3363 0265 12       		.uleb128 0x12
 3364 0266 06       		.uleb128 0x6
 3365 0267 58       		.uleb128 0x58
 3366 0268 0B       		.uleb128 0xb
 3367 0269 59       		.uleb128 0x59
 3368 026a 0B       		.uleb128 0xb
 3369 026b 00       		.byte	0
 3370 026c 00       		.byte	0
 3371 026d 31       		.uleb128 0x31
 3372 026e 05       		.uleb128 0x5
 3373 026f 00       		.byte	0
 3374 0270 31       		.uleb128 0x31
 3375 0271 13       		.uleb128 0x13
 3376 0272 02       		.uleb128 0x2
 3377 0273 17       		.uleb128 0x17
 3378 0274 00       		.byte	0
 3379 0275 00       		.byte	0
 3380 0276 32       		.uleb128 0x32
 3381 0277 2E       		.uleb128 0x2e
 3382 0278 01       		.byte	0x1
 3383 0279 31       		.uleb128 0x31
 3384 027a 13       		.uleb128 0x13
 3385 027b 11       		.uleb128 0x11
 3386 027c 01       		.uleb128 0x1
 3387 027d 12       		.uleb128 0x12
 3388 027e 06       		.uleb128 0x6
 3389 027f 40       		.uleb128 0x40
 3390 0280 18       		.uleb128 0x18
 3391 0281 9742     		.uleb128 0x2117
 3392 0283 19       		.uleb128 0x19
 3393 0284 01       		.uleb128 0x1
 3394 0285 13       		.uleb128 0x13
 3395 0286 00       		.byte	0
 3396 0287 00       		.byte	0
 3397 0288 33       		.uleb128 0x33
 3398 0289 898201   		.uleb128 0x4109
 3399 028c 01       		.byte	0x1
 3400 028d 11       		.uleb128 0x11
 3401 028e 01       		.uleb128 0x1
 3402 028f 9542     		.uleb128 0x2115
 3403 0291 19       		.uleb128 0x19
 3404 0292 31       		.uleb128 0x31
 3405 0293 13       		.uleb128 0x13
ARM GAS  /tmp/ccSQU2GF.s 			page 61


 3406 0294 00       		.byte	0
 3407 0295 00       		.byte	0
 3408 0296 34       		.uleb128 0x34
 3409 0297 34       		.uleb128 0x34
 3410 0298 00       		.byte	0
 3411 0299 03       		.uleb128 0x3
 3412 029a 0E       		.uleb128 0xe
 3413 029b 3A       		.uleb128 0x3a
 3414 029c 0B       		.uleb128 0xb
 3415 029d 3B       		.uleb128 0x3b
 3416 029e 05       		.uleb128 0x5
 3417 029f 49       		.uleb128 0x49
 3418 02a0 13       		.uleb128 0x13
 3419 02a1 3F       		.uleb128 0x3f
 3420 02a2 19       		.uleb128 0x19
 3421 02a3 3C       		.uleb128 0x3c
 3422 02a4 19       		.uleb128 0x19
 3423 02a5 00       		.byte	0
 3424 02a6 00       		.byte	0
 3425 02a7 35       		.uleb128 0x35
 3426 02a8 34       		.uleb128 0x34
 3427 02a9 00       		.byte	0
 3428 02aa 03       		.uleb128 0x3
 3429 02ab 08       		.uleb128 0x8
 3430 02ac 3A       		.uleb128 0x3a
 3431 02ad 0B       		.uleb128 0xb
 3432 02ae 3B       		.uleb128 0x3b
 3433 02af 05       		.uleb128 0x5
 3434 02b0 49       		.uleb128 0x49
 3435 02b1 13       		.uleb128 0x13
 3436 02b2 3F       		.uleb128 0x3f
 3437 02b3 19       		.uleb128 0x19
 3438 02b4 3C       		.uleb128 0x3c
 3439 02b5 19       		.uleb128 0x19
 3440 02b6 00       		.byte	0
 3441 02b7 00       		.byte	0
 3442 02b8 36       		.uleb128 0x36
 3443 02b9 2E       		.uleb128 0x2e
 3444 02ba 00       		.byte	0
 3445 02bb 3F       		.uleb128 0x3f
 3446 02bc 19       		.uleb128 0x19
 3447 02bd 03       		.uleb128 0x3
 3448 02be 0E       		.uleb128 0xe
 3449 02bf 3A       		.uleb128 0x3a
 3450 02c0 0B       		.uleb128 0xb
 3451 02c1 3B       		.uleb128 0x3b
 3452 02c2 05       		.uleb128 0x5
 3453 02c3 27       		.uleb128 0x27
 3454 02c4 19       		.uleb128 0x19
 3455 02c5 3C       		.uleb128 0x3c
 3456 02c6 19       		.uleb128 0x19
 3457 02c7 00       		.byte	0
 3458 02c8 00       		.byte	0
 3459 02c9 37       		.uleb128 0x37
 3460 02ca 2E       		.uleb128 0x2e
 3461 02cb 01       		.byte	0x1
 3462 02cc 3F       		.uleb128 0x3f
ARM GAS  /tmp/ccSQU2GF.s 			page 62


 3463 02cd 19       		.uleb128 0x19
 3464 02ce 03       		.uleb128 0x3
 3465 02cf 0E       		.uleb128 0xe
 3466 02d0 3A       		.uleb128 0x3a
 3467 02d1 0B       		.uleb128 0xb
 3468 02d2 3B       		.uleb128 0x3b
 3469 02d3 05       		.uleb128 0x5
 3470 02d4 27       		.uleb128 0x27
 3471 02d5 19       		.uleb128 0x19
 3472 02d6 3C       		.uleb128 0x3c
 3473 02d7 19       		.uleb128 0x19
 3474 02d8 01       		.uleb128 0x1
 3475 02d9 13       		.uleb128 0x13
 3476 02da 00       		.byte	0
 3477 02db 00       		.byte	0
 3478 02dc 38       		.uleb128 0x38
 3479 02dd 2E       		.uleb128 0x2e
 3480 02de 01       		.byte	0x1
 3481 02df 3F       		.uleb128 0x3f
 3482 02e0 19       		.uleb128 0x19
 3483 02e1 03       		.uleb128 0x3
 3484 02e2 0E       		.uleb128 0xe
 3485 02e3 3A       		.uleb128 0x3a
 3486 02e4 0B       		.uleb128 0xb
 3487 02e5 3B       		.uleb128 0x3b
 3488 02e6 05       		.uleb128 0x5
 3489 02e7 27       		.uleb128 0x27
 3490 02e8 19       		.uleb128 0x19
 3491 02e9 3C       		.uleb128 0x3c
 3492 02ea 19       		.uleb128 0x19
 3493 02eb 00       		.byte	0
 3494 02ec 00       		.byte	0
 3495 02ed 00       		.byte	0
 3496              		.section	.debug_loc,"",%progbits
 3497              	.Ldebug_loc0:
 3498              	.LLST0:
 3499 0000 00000000 		.4byte	.LVL2
 3500 0004 0F000000 		.4byte	.LVL3-1
 3501 0008 0100     		.2byte	0x1
 3502 000a 50       		.byte	0x50
 3503 000b 0F000000 		.4byte	.LVL3-1
 3504 000f 1C000000 		.4byte	.LFE257
 3505 0013 0100     		.2byte	0x1
 3506 0015 54       		.byte	0x54
 3507 0016 00000000 		.4byte	0
 3508 001a 00000000 		.4byte	0
 3509              	.LLST1:
 3510 001e 00000000 		.4byte	.LVL2
 3511 0022 0F000000 		.4byte	.LVL3-1
 3512 0026 0100     		.2byte	0x1
 3513 0028 51       		.byte	0x51
 3514 0029 0F000000 		.4byte	.LVL3-1
 3515 002d 1C000000 		.4byte	.LFE257
 3516 0031 0400     		.2byte	0x4
 3517 0033 F3       		.byte	0xf3
 3518 0034 01       		.uleb128 0x1
 3519 0035 51       		.byte	0x51
ARM GAS  /tmp/ccSQU2GF.s 			page 63


 3520 0036 9F       		.byte	0x9f
 3521 0037 00000000 		.4byte	0
 3522 003b 00000000 		.4byte	0
 3523              	.LLST2:
 3524 003f 00000000 		.4byte	.LVL5
 3525 0043 0D000000 		.4byte	.LVL6-1
 3526 0047 0100     		.2byte	0x1
 3527 0049 50       		.byte	0x50
 3528 004a 0D000000 		.4byte	.LVL6-1
 3529 004e 1A000000 		.4byte	.LFE258
 3530 0052 0100     		.2byte	0x1
 3531 0054 54       		.byte	0x54
 3532 0055 00000000 		.4byte	0
 3533 0059 00000000 		.4byte	0
 3534              	.LLST3:
 3535 005d 00000000 		.4byte	.LVL8
 3536 0061 0A000000 		.4byte	.LVL9
 3537 0065 0100     		.2byte	0x1
 3538 0067 51       		.byte	0x51
 3539 0068 0A000000 		.4byte	.LVL9
 3540 006c 14000000 		.4byte	.LFE259
 3541 0070 0300     		.2byte	0x3
 3542 0072 71       		.byte	0x71
 3543 0073 01       		.sleb128 1
 3544 0074 9F       		.byte	0x9f
 3545 0075 00000000 		.4byte	0
 3546 0079 00000000 		.4byte	0
 3547              	.LLST4:
 3548 007d 00000000 		.4byte	.LVL11
 3549 0081 0F000000 		.4byte	.LVL13-1
 3550 0085 0100     		.2byte	0x1
 3551 0087 50       		.byte	0x50
 3552 0088 0F000000 		.4byte	.LVL13-1
 3553 008c 18000000 		.4byte	.LFE260
 3554 0090 0400     		.2byte	0x4
 3555 0092 F3       		.byte	0xf3
 3556 0093 01       		.uleb128 0x1
 3557 0094 50       		.byte	0x50
 3558 0095 9F       		.byte	0x9f
 3559 0096 00000000 		.4byte	0
 3560 009a 00000000 		.4byte	0
 3561              	.LLST5:
 3562 009e 00000000 		.4byte	.LVL11
 3563 00a2 0F000000 		.4byte	.LVL13-1
 3564 00a6 0100     		.2byte	0x1
 3565 00a8 51       		.byte	0x51
 3566 00a9 0F000000 		.4byte	.LVL13-1
 3567 00ad 18000000 		.4byte	.LFE260
 3568 00b1 0400     		.2byte	0x4
 3569 00b3 F3       		.byte	0xf3
 3570 00b4 01       		.uleb128 0x1
 3571 00b5 51       		.byte	0x51
 3572 00b6 9F       		.byte	0x9f
 3573 00b7 00000000 		.4byte	0
 3574 00bb 00000000 		.4byte	0
 3575              	.LLST6:
 3576 00bf 08000000 		.4byte	.LVL12
ARM GAS  /tmp/ccSQU2GF.s 			page 64


 3577 00c3 0F000000 		.4byte	.LVL13-1
 3578 00c7 0100     		.2byte	0x1
 3579 00c9 51       		.byte	0x51
 3580 00ca 0F000000 		.4byte	.LVL13-1
 3581 00ce 18000000 		.4byte	.LFE260
 3582 00d2 0400     		.2byte	0x4
 3583 00d4 F3       		.byte	0xf3
 3584 00d5 01       		.uleb128 0x1
 3585 00d6 51       		.byte	0x51
 3586 00d7 9F       		.byte	0x9f
 3587 00d8 00000000 		.4byte	0
 3588 00dc 00000000 		.4byte	0
 3589              	.LLST7:
 3590 00e0 08000000 		.4byte	.LVL12
 3591 00e4 0F000000 		.4byte	.LVL13-1
 3592 00e8 0100     		.2byte	0x1
 3593 00ea 50       		.byte	0x50
 3594 00eb 0F000000 		.4byte	.LVL13-1
 3595 00ef 18000000 		.4byte	.LFE260
 3596 00f3 0400     		.2byte	0x4
 3597 00f5 F3       		.byte	0xf3
 3598 00f6 01       		.uleb128 0x1
 3599 00f7 50       		.byte	0x50
 3600 00f8 9F       		.byte	0x9f
 3601 00f9 00000000 		.4byte	0
 3602 00fd 00000000 		.4byte	0
 3603              	.LLST8:
 3604 0101 00000000 		.4byte	.LVL14
 3605 0105 07000000 		.4byte	.LVL15-1
 3606 0109 0100     		.2byte	0x1
 3607 010b 50       		.byte	0x50
 3608 010c 07000000 		.4byte	.LVL15-1
 3609 0110 08000000 		.4byte	.LFE261
 3610 0114 0400     		.2byte	0x4
 3611 0116 F3       		.byte	0xf3
 3612 0117 01       		.uleb128 0x1
 3613 0118 50       		.byte	0x50
 3614 0119 9F       		.byte	0x9f
 3615 011a 00000000 		.4byte	0
 3616 011e 00000000 		.4byte	0
 3617              	.LLST9:
 3618 0122 00000000 		.4byte	.LVL14
 3619 0126 07000000 		.4byte	.LVL15-1
 3620 012a 0100     		.2byte	0x1
 3621 012c 51       		.byte	0x51
 3622 012d 07000000 		.4byte	.LVL15-1
 3623 0131 08000000 		.4byte	.LFE261
 3624 0135 0400     		.2byte	0x4
 3625 0137 F3       		.byte	0xf3
 3626 0138 01       		.uleb128 0x1
 3627 0139 51       		.byte	0x51
 3628 013a 9F       		.byte	0x9f
 3629 013b 00000000 		.4byte	0
 3630 013f 00000000 		.4byte	0
 3631              	.LLST10:
 3632 0143 00000000 		.4byte	.LVL16
 3633 0147 0F000000 		.4byte	.LVL18-1
ARM GAS  /tmp/ccSQU2GF.s 			page 65


 3634 014b 0100     		.2byte	0x1
 3635 014d 50       		.byte	0x50
 3636 014e 0F000000 		.4byte	.LVL18-1
 3637 0152 18000000 		.4byte	.LFE262
 3638 0156 0400     		.2byte	0x4
 3639 0158 F3       		.byte	0xf3
 3640 0159 01       		.uleb128 0x1
 3641 015a 50       		.byte	0x50
 3642 015b 9F       		.byte	0x9f
 3643 015c 00000000 		.4byte	0
 3644 0160 00000000 		.4byte	0
 3645              	.LLST11:
 3646 0164 00000000 		.4byte	.LVL16
 3647 0168 0F000000 		.4byte	.LVL18-1
 3648 016c 0100     		.2byte	0x1
 3649 016e 51       		.byte	0x51
 3650 016f 0F000000 		.4byte	.LVL18-1
 3651 0173 18000000 		.4byte	.LFE262
 3652 0177 0400     		.2byte	0x4
 3653 0179 F3       		.byte	0xf3
 3654 017a 01       		.uleb128 0x1
 3655 017b 51       		.byte	0x51
 3656 017c 9F       		.byte	0x9f
 3657 017d 00000000 		.4byte	0
 3658 0181 00000000 		.4byte	0
 3659              	.LLST12:
 3660 0185 08000000 		.4byte	.LVL17
 3661 0189 0F000000 		.4byte	.LVL18-1
 3662 018d 0100     		.2byte	0x1
 3663 018f 51       		.byte	0x51
 3664 0190 0F000000 		.4byte	.LVL18-1
 3665 0194 18000000 		.4byte	.LFE262
 3666 0198 0400     		.2byte	0x4
 3667 019a F3       		.byte	0xf3
 3668 019b 01       		.uleb128 0x1
 3669 019c 51       		.byte	0x51
 3670 019d 9F       		.byte	0x9f
 3671 019e 00000000 		.4byte	0
 3672 01a2 00000000 		.4byte	0
 3673              	.LLST13:
 3674 01a6 08000000 		.4byte	.LVL17
 3675 01aa 0F000000 		.4byte	.LVL18-1
 3676 01ae 0100     		.2byte	0x1
 3677 01b0 50       		.byte	0x50
 3678 01b1 0F000000 		.4byte	.LVL18-1
 3679 01b5 18000000 		.4byte	.LFE262
 3680 01b9 0400     		.2byte	0x4
 3681 01bb F3       		.byte	0xf3
 3682 01bc 01       		.uleb128 0x1
 3683 01bd 50       		.byte	0x50
 3684 01be 9F       		.byte	0x9f
 3685 01bf 00000000 		.4byte	0
 3686 01c3 00000000 		.4byte	0
 3687              	.LLST14:
 3688 01c7 00000000 		.4byte	.LVL19
 3689 01cb 07000000 		.4byte	.LVL20-1
 3690 01cf 0100     		.2byte	0x1
ARM GAS  /tmp/ccSQU2GF.s 			page 66


 3691 01d1 50       		.byte	0x50
 3692 01d2 07000000 		.4byte	.LVL20-1
 3693 01d6 08000000 		.4byte	.LFE263
 3694 01da 0400     		.2byte	0x4
 3695 01dc F3       		.byte	0xf3
 3696 01dd 01       		.uleb128 0x1
 3697 01de 50       		.byte	0x50
 3698 01df 9F       		.byte	0x9f
 3699 01e0 00000000 		.4byte	0
 3700 01e4 00000000 		.4byte	0
 3701              	.LLST15:
 3702 01e8 00000000 		.4byte	.LVL19
 3703 01ec 07000000 		.4byte	.LVL20-1
 3704 01f0 0100     		.2byte	0x1
 3705 01f2 51       		.byte	0x51
 3706 01f3 07000000 		.4byte	.LVL20-1
 3707 01f7 08000000 		.4byte	.LFE263
 3708 01fb 0400     		.2byte	0x4
 3709 01fd F3       		.byte	0xf3
 3710 01fe 01       		.uleb128 0x1
 3711 01ff 51       		.byte	0x51
 3712 0200 9F       		.byte	0x9f
 3713 0201 00000000 		.4byte	0
 3714 0205 00000000 		.4byte	0
 3715              	.LLST16:
 3716 0209 00000000 		.4byte	.LVL21
 3717 020d 0F000000 		.4byte	.LVL23-1
 3718 0211 0100     		.2byte	0x1
 3719 0213 50       		.byte	0x50
 3720 0214 0F000000 		.4byte	.LVL23-1
 3721 0218 18000000 		.4byte	.LFE264
 3722 021c 0400     		.2byte	0x4
 3723 021e F3       		.byte	0xf3
 3724 021f 01       		.uleb128 0x1
 3725 0220 50       		.byte	0x50
 3726 0221 9F       		.byte	0x9f
 3727 0222 00000000 		.4byte	0
 3728 0226 00000000 		.4byte	0
 3729              	.LLST17:
 3730 022a 08000000 		.4byte	.LVL22
 3731 022e 0F000000 		.4byte	.LVL23-1
 3732 0232 0100     		.2byte	0x1
 3733 0234 50       		.byte	0x50
 3734 0235 0F000000 		.4byte	.LVL23-1
 3735 0239 18000000 		.4byte	.LFE264
 3736 023d 0400     		.2byte	0x4
 3737 023f F3       		.byte	0xf3
 3738 0240 01       		.uleb128 0x1
 3739 0241 50       		.byte	0x50
 3740 0242 9F       		.byte	0x9f
 3741 0243 00000000 		.4byte	0
 3742 0247 00000000 		.4byte	0
 3743              	.LLST18:
 3744 024b 00000000 		.4byte	.LVL24
 3745 024f 07000000 		.4byte	.LVL25-1
 3746 0253 0100     		.2byte	0x1
 3747 0255 50       		.byte	0x50
ARM GAS  /tmp/ccSQU2GF.s 			page 67


 3748 0256 07000000 		.4byte	.LVL25-1
 3749 025a 08000000 		.4byte	.LFE265
 3750 025e 0400     		.2byte	0x4
 3751 0260 F3       		.byte	0xf3
 3752 0261 01       		.uleb128 0x1
 3753 0262 50       		.byte	0x50
 3754 0263 9F       		.byte	0x9f
 3755 0264 00000000 		.4byte	0
 3756 0268 00000000 		.4byte	0
 3757              	.LLST19:
 3758 026c 00000000 		.4byte	.LVL26
 3759 0270 0B000000 		.4byte	.LVL27-1
 3760 0274 0100     		.2byte	0x1
 3761 0276 50       		.byte	0x50
 3762 0277 0B000000 		.4byte	.LVL27-1
 3763 027b 12000000 		.4byte	.LFE266
 3764 027f 0100     		.2byte	0x1
 3765 0281 54       		.byte	0x54
 3766 0282 00000000 		.4byte	0
 3767 0286 00000000 		.4byte	0
 3768              	.LLST20:
 3769 028a 00000000 		.4byte	.LVL26
 3770 028e 0B000000 		.4byte	.LVL27-1
 3771 0292 0100     		.2byte	0x1
 3772 0294 51       		.byte	0x51
 3773 0295 0B000000 		.4byte	.LVL27-1
 3774 0299 12000000 		.4byte	.LFE266
 3775 029d 0400     		.2byte	0x4
 3776 029f F3       		.byte	0xf3
 3777 02a0 01       		.uleb128 0x1
 3778 02a1 51       		.byte	0x51
 3779 02a2 9F       		.byte	0x9f
 3780 02a3 00000000 		.4byte	0
 3781 02a7 00000000 		.4byte	0
 3782              		.section	.debug_aranges,"",%progbits
 3783 0000 74000000 		.4byte	0x74
 3784 0004 0200     		.2byte	0x2
 3785 0006 00000000 		.4byte	.Ldebug_info0
 3786 000a 04       		.byte	0x4
 3787 000b 00       		.byte	0
 3788 000c 0000     		.2byte	0
 3789 000e 0000     		.2byte	0
 3790 0010 00000000 		.4byte	.LFB255
 3791 0014 04000000 		.4byte	.LFE255-.LFB255
 3792 0018 00000000 		.4byte	.LFB256
 3793 001c 0A000000 		.4byte	.LFE256-.LFB256
 3794 0020 00000000 		.4byte	.LFB257
 3795 0024 1C000000 		.4byte	.LFE257-.LFB257
 3796 0028 00000000 		.4byte	.LFB258
 3797 002c 1A000000 		.4byte	.LFE258-.LFB258
 3798 0030 00000000 		.4byte	.LFB259
 3799 0034 14000000 		.4byte	.LFE259-.LFB259
 3800 0038 00000000 		.4byte	.LFB260
 3801 003c 18000000 		.4byte	.LFE260-.LFB260
 3802 0040 00000000 		.4byte	.LFB261
 3803 0044 08000000 		.4byte	.LFE261-.LFB261
 3804 0048 00000000 		.4byte	.LFB262
ARM GAS  /tmp/ccSQU2GF.s 			page 68


 3805 004c 18000000 		.4byte	.LFE262-.LFB262
 3806 0050 00000000 		.4byte	.LFB263
 3807 0054 08000000 		.4byte	.LFE263-.LFB263
 3808 0058 00000000 		.4byte	.LFB264
 3809 005c 18000000 		.4byte	.LFE264-.LFB264
 3810 0060 00000000 		.4byte	.LFB265
 3811 0064 08000000 		.4byte	.LFE265-.LFB265
 3812 0068 00000000 		.4byte	.LFB266
 3813 006c 12000000 		.4byte	.LFE266-.LFB266
 3814 0070 00000000 		.4byte	0
 3815 0074 00000000 		.4byte	0
 3816              		.section	.debug_ranges,"",%progbits
 3817              	.Ldebug_ranges0:
 3818 0000 02000000 		.4byte	.LBB108
 3819 0004 04000000 		.4byte	.LBE108
 3820 0008 06000000 		.4byte	.LBB117
 3821 000c 0A000000 		.4byte	.LBE117
 3822 0010 00000000 		.4byte	0
 3823 0014 00000000 		.4byte	0
 3824 0018 02000000 		.4byte	.LBB124
 3825 001c 04000000 		.4byte	.LBE124
 3826 0020 06000000 		.4byte	.LBB133
 3827 0024 0A000000 		.4byte	.LBE133
 3828 0028 00000000 		.4byte	0
 3829 002c 00000000 		.4byte	0
 3830 0030 00000000 		.4byte	.LFB255
 3831 0034 04000000 		.4byte	.LFE255
 3832 0038 00000000 		.4byte	.LFB256
 3833 003c 0A000000 		.4byte	.LFE256
 3834 0040 00000000 		.4byte	.LFB257
 3835 0044 1C000000 		.4byte	.LFE257
 3836 0048 00000000 		.4byte	.LFB258
 3837 004c 1A000000 		.4byte	.LFE258
 3838 0050 00000000 		.4byte	.LFB259
 3839 0054 14000000 		.4byte	.LFE259
 3840 0058 00000000 		.4byte	.LFB260
 3841 005c 18000000 		.4byte	.LFE260
 3842 0060 00000000 		.4byte	.LFB261
 3843 0064 08000000 		.4byte	.LFE261
 3844 0068 00000000 		.4byte	.LFB262
 3845 006c 18000000 		.4byte	.LFE262
 3846 0070 00000000 		.4byte	.LFB263
 3847 0074 08000000 		.4byte	.LFE263
 3848 0078 00000000 		.4byte	.LFB264
 3849 007c 18000000 		.4byte	.LFE264
 3850 0080 00000000 		.4byte	.LFB265
 3851 0084 08000000 		.4byte	.LFE265
 3852 0088 00000000 		.4byte	.LFB266
 3853 008c 12000000 		.4byte	.LFE266
 3854 0090 00000000 		.4byte	0
 3855 0094 00000000 		.4byte	0
 3856              		.section	.debug_line,"",%progbits
 3857              	.Ldebug_line0:
 3858 0000 C1030000 		.section	.debug_str,"MS",%progbits,1
 3858      02006202 
 3858      00000201 
 3858      FB0E0D00 
ARM GAS  /tmp/ccSQU2GF.s 			page 69


 3858      01010101 
 3859              	.LASF48:
 3860 0000 72656164 		.ascii	"ready_list_t\000"
 3860      795F6C69 
 3860      73745F74 
 3860      00
 3861              	.LASF82:
 3862 000d 44494552 		.ascii	"DIER\000"
 3862      00
 3863              	.LASF93:
 3864 0012 7264796D 		.ascii	"rdymsg\000"
 3864      736700
 3865              	.LASF16:
 3866 0019 75696E74 		.ascii	"uint64_t\000"
 3866      36345F74 
 3866      00
 3867              	.LASF5:
 3868 0022 5F5F7569 		.ascii	"__uint8_t\000"
 3868      6E74385F 
 3868      7400
 3869              	.LASF108:
 3870 002c 4750545F 		.ascii	"GPT_ONESHOT\000"
 3870      4F4E4553 
 3870      484F5400 
 3871              	.LASF47:
 3872 0038 63685F74 		.ascii	"ch_threads_queue\000"
 3872      68726561 
 3872      64735F71 
 3872      75657565 
 3872      00
 3873              	.LASF67:
 3874 0049 73797374 		.ascii	"system_debug_t\000"
 3874      656D5F64 
 3874      65627567 
 3874      5F7400
 3875              	.LASF121:
 3876 0058 706F7274 		.ascii	"port_lock\000"
 3876      5F6C6F63 
 3876      6B00
 3877              	.LASF139:
 3878 0062 67707443 		.ascii	"gptChangeInterval\000"
 3878      68616E67 
 3878      65496E74 
 3878      65727661 
 3878      6C00
 3879              	.LASF12:
 3880 0074 6C6F6E67 		.ascii	"long long unsigned int\000"
 3880      206C6F6E 
 3880      6720756E 
 3880      7369676E 
 3880      65642069 
 3881              	.LASF94:
 3882 008b 65786974 		.ascii	"exitcode\000"
 3882      636F6465 
 3882      00
 3883              	.LASF74:
 3884 0094 6D61696E 		.ascii	"mainthread\000"
ARM GAS  /tmp/ccSQU2GF.s 			page 70


 3884      74687265 
 3884      616400
 3885              	.LASF64:
 3886 009f 76697274 		.ascii	"virtual_timers_list_t\000"
 3886      75616C5F 
 3886      74696D65 
 3886      72735F6C 
 3886      6973745F 
 3887              	.LASF144:
 3888 00b5 49544D5F 		.ascii	"ITM_RxBuffer\000"
 3888      52784275 
 3888      66666572 
 3888      00
 3889              	.LASF151:
 3890 00c2 2F686F6D 		.ascii	"/home/bhimebau/forge/annsynth/src\000"
 3890      652F6268 
 3890      696D6562 
 3890      61752F66 
 3890      6F726765 
 3891              	.LASF86:
 3892 00e4 42445452 		.ascii	"BDTR\000"
 3892      00
 3893              	.LASF117:
 3894 00e9 66726571 		.ascii	"frequency\000"
 3894      75656E63 
 3894      7900
 3895              	.LASF28:
 3896 00f3 705F7072 		.ascii	"p_prio\000"
 3896      696F00
 3897              	.LASF83:
 3898 00fa 43434D52 		.ascii	"CCMR1\000"
 3898      3100
 3899              	.LASF84:
 3900 0100 43434D52 		.ascii	"CCMR2\000"
 3900      3200
 3901              	.LASF88:
 3902 0106 43434D52 		.ascii	"CCMR3\000"
 3902      3300
 3903              	.LASF1:
 3904 010c 7369676E 		.ascii	"signed char\000"
 3904      65642063 
 3904      68617200 
 3905              	.LASF99:
 3906 0118 6D5F7175 		.ascii	"m_queue\000"
 3906      65756500 
 3907              	.LASF107:
 3908 0120 4750545F 		.ascii	"GPT_CONTINUOUS\000"
 3908      434F4E54 
 3908      494E554F 
 3908      555300
 3909              	.LASF122:
 3910 012f 706F7274 		.ascii	"port_unlock\000"
 3910      5F756E6C 
 3910      6F636B00 
 3911              	.LASF111:
 3912 013b 73746174 		.ascii	"state\000"
 3912      6500
ARM GAS  /tmp/ccSQU2GF.s 			page 71


 3913              	.LASF71:
 3914 0141 63685F73 		.ascii	"ch_system\000"
 3914      79737465 
 3914      6D00
 3915              	.LASF7:
 3916 014b 6C6F6E67 		.ascii	"long int\000"
 3916      20696E74 
 3916      00
 3917              	.LASF116:
 3918 0154 67707463 		.ascii	"gptcnt_t\000"
 3918      6E745F74 
 3918      00
 3919              	.LASF138:
 3920 015d 67707453 		.ascii	"gptStop\000"
 3920      746F7000 
 3921              	.LASF19:
 3922 0165 74737461 		.ascii	"tstate_t\000"
 3922      74655F74 
 3922      00
 3923              	.LASF135:
 3924 016e 67707449 		.ascii	"gptInit\000"
 3924      6E697400 
 3925              	.LASF30:
 3926 0176 705F6E65 		.ascii	"p_newer\000"
 3926      77657200 
 3927              	.LASF114:
 3928 017e 67707463 		.ascii	"gptcallback_t\000"
 3928      616C6C62 
 3928      61636B5F 
 3928      7400
 3929              	.LASF132:
 3930 018c 67707453 		.ascii	"gptStartContinuousI\000"
 3930      74617274 
 3930      436F6E74 
 3930      696E756F 
 3930      75734900 
 3931              	.LASF4:
 3932 01a0 73686F72 		.ascii	"short unsigned int\000"
 3932      7420756E 
 3932      7369676E 
 3932      65642069 
 3932      6E7400
 3933              	.LASF130:
 3934 01b3 696E7465 		.ascii	"interval\000"
 3934      7276616C 
 3934      00
 3935              	.LASF53:
 3936 01bc 725F6E65 		.ascii	"r_newer\000"
 3936      77657200 
 3937              	.LASF110:
 3938 01c4 47505444 		.ascii	"GPTDriver\000"
 3938      72697665 
 3938      7200
 3939              	.LASF77:
 3940 01ce 72656761 		.ascii	"regarm_t\000"
 3940      726D5F74 
 3940      00
ARM GAS  /tmp/ccSQU2GF.s 			page 72


 3941              	.LASF60:
 3942 01d7 76745F70 		.ascii	"vt_prev\000"
 3942      72657600 
 3943              	.LASF73:
 3944 01df 76746C69 		.ascii	"vtlist\000"
 3944      737400
 3945              	.LASF126:
 3946 01e6 6F73616C 		.ascii	"osalSysLock\000"
 3946      5379734C 
 3946      6F636B00 
 3947              	.LASF10:
 3948 01f2 6C6F6E67 		.ascii	"long long int\000"
 3948      206C6F6E 
 3948      6720696E 
 3948      7400
 3949              	.LASF128:
 3950 0200 76616C75 		.ascii	"value\000"
 3950      6500
 3951              	.LASF75:
 3952 0206 69646C65 		.ascii	"idle_thread_wa\000"
 3952      5F746872 
 3952      6561645F 
 3952      776100
 3953              	.LASF109:
 3954 0215 67707473 		.ascii	"gptstate_t\000"
 3954      74617465 
 3954      5F7400
 3955              	.LASF0:
 3956 0220 756E7369 		.ascii	"unsigned int\000"
 3956      676E6564 
 3956      20696E74 
 3956      00
 3957              	.LASF59:
 3958 022d 76745F6E 		.ascii	"vt_next\000"
 3958      65787400 
 3959              	.LASF136:
 3960 0235 6770744F 		.ascii	"gptObjectInit\000"
 3960      626A6563 
 3960      74496E69 
 3960      7400
 3961              	.LASF61:
 3962 0243 76745F64 		.ascii	"vt_delta\000"
 3962      656C7461 
 3962      00
 3963              	.LASF37:
 3964 024c 705F6D73 		.ascii	"p_msgqueue\000"
 3964      67717565 
 3964      756500
 3965              	.LASF44:
 3966 0257 63685F74 		.ascii	"ch_thread\000"
 3966      68726561 
 3966      6400
 3967              	.LASF129:
 3968 0261 67707470 		.ascii	"gptp\000"
 3968      00
 3969              	.LASF104:
 3970 0266 4750545F 		.ascii	"GPT_UNINIT\000"
ARM GAS  /tmp/ccSQU2GF.s 			page 73


 3970      554E494E 
 3970      495400
 3971              	.LASF115:
 3972 0271 67707466 		.ascii	"gptfreq_t\000"
 3972      7265715F 
 3972      7400
 3973              	.LASF42:
 3974 027b 705F6D70 		.ascii	"p_mpool\000"
 3974      6F6F6C00 
 3975              	.LASF22:
 3976 0283 6D73675F 		.ascii	"msg_t\000"
 3976      7400
 3977              	.LASF137:
 3978 0289 67707453 		.ascii	"gptStart\000"
 3978      74617274 
 3978      00
 3979              	.LASF70:
 3980 0292 63685F73 		.ascii	"ch_system_t\000"
 3980      79737465 
 3980      6D5F7400 
 3981              	.LASF118:
 3982 029e 63616C6C 		.ascii	"callback\000"
 3982      6261636B 
 3982      00
 3983              	.LASF152:
 3984 02a7 6770745F 		.ascii	"gpt_lld_init\000"
 3984      6C6C645F 
 3984      696E6974 
 3984      00
 3985              	.LASF90:
 3986 02b4 73746D33 		.ascii	"stm32_tim_t\000"
 3986      325F7469 
 3986      6D5F7400 
 3987              	.LASF140:
 3988 02c0 67707453 		.ascii	"gptStartContinuous\000"
 3988      74617274 
 3988      436F6E74 
 3988      696E756F 
 3988      757300
 3989              	.LASF49:
 3990 02d3 63685F72 		.ascii	"ch_ready_list\000"
 3990      65616479 
 3990      5F6C6973 
 3990      7400
 3991              	.LASF23:
 3992 02e1 6576656E 		.ascii	"eventmask_t\000"
 3992      746D6173 
 3992      6B5F7400 
 3993              	.LASF6:
 3994 02ed 5F5F696E 		.ascii	"__int32_t\000"
 3994      7433325F 
 3994      7400
 3995              	.LASF78:
 3996 02f7 73746B61 		.ascii	"stkalign_t\000"
 3996      6C69676E 
 3996      5F7400
 3997              	.LASF142:
ARM GAS  /tmp/ccSQU2GF.s 			page 74


 3998 0302 67707453 		.ascii	"gptStopTimer\000"
 3998      746F7054 
 3998      696D6572 
 3998      00
 3999              	.LASF36:
 4000 030f 705F7761 		.ascii	"p_waiting\000"
 4000      6974696E 
 4000      6700
 4001              	.LASF76:
 4002 0319 73697A65 		.ascii	"sizetype\000"
 4002      74797065 
 4002      00
 4003              	.LASF65:
 4004 0322 63685F76 		.ascii	"ch_virtual_timers_list\000"
 4004      69727475 
 4004      616C5F74 
 4004      696D6572 
 4004      735F6C69 
 4005              	.LASF106:
 4006 0339 4750545F 		.ascii	"GPT_READY\000"
 4006      52454144 
 4006      5900
 4007              	.LASF148:
 4008 0343 6770745F 		.ascii	"gpt_lld_stop_timer\000"
 4008      6C6C645F 
 4008      73746F70 
 4008      5F74696D 
 4008      657200
 4009              	.LASF66:
 4010 0356 76745F6C 		.ascii	"vt_lasttime\000"
 4010      61737474 
 4010      696D6500 
 4011              	.LASF31:
 4012 0362 705F6F6C 		.ascii	"p_older\000"
 4012      64657200 
 4013              	.LASF52:
 4014 036a 725F6374 		.ascii	"r_ctx\000"
 4014      7800
 4015              	.LASF92:
 4016 0370 746D5F63 		.ascii	"tm_calibration_t\000"
 4016      616C6962 
 4016      72617469 
 4016      6F6E5F74 
 4016      00
 4017              	.LASF55:
 4018 0381 725F6375 		.ascii	"r_current\000"
 4018      7272656E 
 4018      7400
 4019              	.LASF147:
 4020 038b 6770745F 		.ascii	"gpt_lld_start_timer\000"
 4020      6C6C645F 
 4020      73746172 
 4020      745F7469 
 4020      6D657200 
 4021              	.LASF149:
 4022 039f 474E5520 		.ascii	"GNU C 4.9.3 20141119 (release) [ARM/embedded-4_9-br"
 4022      4320342E 
ARM GAS  /tmp/ccSQU2GF.s 			page 75


 4022      392E3320 
 4022      32303134 
 4022      31313139 
 4023 03d2 616E6368 		.ascii	"anch revision 218278] -mcpu=cortex-m4 -mfloat-abi=h"
 4023      20726576 
 4023      6973696F 
 4023      6E203231 
 4023      38323738 
 4024 0405 61726420 		.ascii	"ard -mfpu=fpv4-sp-d16 -mno-thumb-interwork -mthumb "
 4024      2D6D6670 
 4024      753D6670 
 4024      76342D73 
 4024      702D6431 
 4025 0438 2D676764 		.ascii	"-ggdb -O2 -fomit-frame-pointer -falign-functions=16"
 4025      62202D4F 
 4025      32202D66 
 4025      6F6D6974 
 4025      2D667261 
 4026 046b 202D6666 		.ascii	" -ffunction-sections -fdata-sections -fno-common -f"
 4026      756E6374 
 4026      696F6E2D 
 4026      73656374 
 4026      696F6E73 
 4027 049e 73696E67 		.ascii	"single-precision-constant\000"
 4027      6C652D70 
 4027      72656369 
 4027      73696F6E 
 4027      2D636F6E 
 4028              	.LASF11:
 4029 04b8 5F5F7569 		.ascii	"__uint64_t\000"
 4029      6E743634 
 4029      5F7400
 4030              	.LASF20:
 4031 04c3 74726566 		.ascii	"trefs_t\000"
 4031      735F7400 
 4032              	.LASF80:
 4033 04cb 706F7274 		.ascii	"port_intctx\000"
 4033      5F696E74 
 4033      63747800 
 4034              	.LASF57:
 4035 04d7 76697274 		.ascii	"virtual_timer_t\000"
 4035      75616C5F 
 4035      74696D65 
 4035      725F7400 
 4036              	.LASF27:
 4037 04e7 705F7072 		.ascii	"p_prev\000"
 4037      657600
 4038              	.LASF21:
 4039 04ee 74707269 		.ascii	"tprio_t\000"
 4039      6F5F7400 
 4040              	.LASF98:
 4041 04f6 6D757465 		.ascii	"mutex\000"
 4041      7800
 4042              	.LASF68:
 4043 04fc 63685F73 		.ascii	"ch_system_debug\000"
 4043      79737465 
 4043      6D5F6465 
ARM GAS  /tmp/ccSQU2GF.s 			page 76


 4043      62756700 
 4044              	.LASF103:
 4045 050c 5F426F6F 		.ascii	"_Bool\000"
 4045      6C00
 4046              	.LASF14:
 4047 0512 696E7433 		.ascii	"int32_t\000"
 4047      325F7400 
 4048              	.LASF2:
 4049 051a 756E7369 		.ascii	"unsigned char\000"
 4049      676E6564 
 4049      20636861 
 4049      7200
 4050              	.LASF40:
 4051 0528 705F6D74 		.ascii	"p_mtxlist\000"
 4051      786C6973 
 4051      7400
 4052              	.LASF3:
 4053 0532 73686F72 		.ascii	"short int\000"
 4053      7420696E 
 4053      7400
 4054              	.LASF33:
 4055 053c 705F7374 		.ascii	"p_state\000"
 4055      61746500 
 4056              	.LASF51:
 4057 0544 725F7072 		.ascii	"r_prio\000"
 4057      696F00
 4058              	.LASF96:
 4059 054b 65776D61 		.ascii	"ewmask\000"
 4059      736B00
 4060              	.LASF26:
 4061 0552 705F6E65 		.ascii	"p_next\000"
 4061      787400
 4062              	.LASF34:
 4063 0559 705F666C 		.ascii	"p_flags\000"
 4063      61677300 
 4064              	.LASF131:
 4065 0561 5F5F6675 		.ascii	"__func__\000"
 4065      6E635F5F 
 4065      00
 4066              	.LASF123:
 4067 056a 63685379 		.ascii	"chSysLock\000"
 4067      734C6F63 
 4067      6B00
 4068              	.LASF127:
 4069 0574 6F73616C 		.ascii	"osalSysUnlock\000"
 4069      53797355 
 4069      6E6C6F63 
 4069      6B00
 4070              	.LASF58:
 4071 0582 63685F76 		.ascii	"ch_virtual_timer\000"
 4071      69727475 
 4071      616C5F74 
 4071      696D6572 
 4071      00
 4072              	.LASF89:
 4073 0593 43435852 		.ascii	"CCXR\000"
 4073      00
ARM GAS  /tmp/ccSQU2GF.s 			page 77


 4074              	.LASF39:
 4075 0598 705F6570 		.ascii	"p_epending\000"
 4075      656E6469 
 4075      6E6700
 4076              	.LASF105:
 4077 05a3 4750545F 		.ascii	"GPT_STOP\000"
 4077      53544F50 
 4077      00
 4078              	.LASF141:
 4079 05ac 67707453 		.ascii	"gptStartOneShot\000"
 4079      74617274 
 4079      4F6E6553 
 4079      686F7400 
 4080              	.LASF15:
 4081 05bc 75696E74 		.ascii	"uint32_t\000"
 4081      33325F74 
 4081      00
 4082              	.LASF50:
 4083 05c5 725F7175 		.ascii	"r_queue\000"
 4083      65756500 
 4084              	.LASF45:
 4085 05cd 63685F74 		.ascii	"ch_threads_list\000"
 4085      68726561 
 4085      64735F6C 
 4085      69737400 
 4086              	.LASF9:
 4087 05dd 6C6F6E67 		.ascii	"long unsigned int\000"
 4087      20756E73 
 4087      69676E65 
 4087      6420696E 
 4087      7400
 4088              	.LASF97:
 4089 05ef 63686172 		.ascii	"char\000"
 4089      00
 4090              	.LASF81:
 4091 05f4 534D4352 		.ascii	"SMCR\000"
 4091      00
 4092              	.LASF112:
 4093 05f9 636F6E66 		.ascii	"config\000"
 4093      696700
 4094              	.LASF87:
 4095 0600 444D4152 		.ascii	"DMAR\000"
 4095      00
 4096              	.LASF25:
 4097 0605 74687265 		.ascii	"thread_t\000"
 4097      61645F74 
 4097      00
 4098              	.LASF85:
 4099 060e 43434552 		.ascii	"CCER\000"
 4099      00
 4100              	.LASF101:
 4101 0613 6D5F6E65 		.ascii	"m_next\000"
 4101      787400
 4102              	.LASF24:
 4103 061a 73797374 		.ascii	"systime_t\000"
 4103      696D655F 
 4103      7400
ARM GAS  /tmp/ccSQU2GF.s 			page 78


 4104              	.LASF41:
 4105 0624 705F7265 		.ascii	"p_realprio\000"
 4105      616C7072 
 4105      696F00
 4106              	.LASF56:
 4107 062f 76746675 		.ascii	"vtfunc_t\000"
 4107      6E635F74 
 4107      00
 4108              	.LASF8:
 4109 0638 5F5F7569 		.ascii	"__uint32_t\000"
 4109      6E743332 
 4109      5F7400
 4110              	.LASF124:
 4111 0643 5F5F7365 		.ascii	"__set_BASEPRI\000"
 4111      745F4241 
 4111      53455052 
 4111      4900
 4112              	.LASF69:
 4113 0651 70616E69 		.ascii	"panic_msg\000"
 4113      635F6D73 
 4113      6700
 4114              	.LASF91:
 4115 065b 6F666673 		.ascii	"offset\000"
 4115      657400
 4116              	.LASF120:
 4117 0662 47505443 		.ascii	"GPTConfig\000"
 4117      6F6E6669 
 4117      6700
 4118              	.LASF79:
 4119 066c 636F6E74 		.ascii	"context\000"
 4119      65787400 
 4120              	.LASF54:
 4121 0674 725F6F6C 		.ascii	"r_older\000"
 4121      64657200 
 4122              	.LASF17:
 4123 067c 7274636E 		.ascii	"rtcnt_t\000"
 4123      745F7400 
 4124              	.LASF145:
 4125 0684 6770745F 		.ascii	"gpt_lld_start\000"
 4125      6C6C645F 
 4125      73746172 
 4125      7400
 4126              	.LASF63:
 4127 0692 76745F70 		.ascii	"vt_par\000"
 4127      617200
 4128              	.LASF46:
 4129 0699 74687265 		.ascii	"threads_queue_t\000"
 4129      6164735F 
 4129      71756575 
 4129      655F7400 
 4130              	.LASF35:
 4131 06a9 705F7265 		.ascii	"p_refs\000"
 4131      667300
 4132              	.LASF153:
 4133 06b0 6770745F 		.ascii	"gpt_lld_polled_delay\000"
 4133      6C6C645F 
 4133      706F6C6C 
ARM GAS  /tmp/ccSQU2GF.s 			page 79


 4133      65645F64 
 4133      656C6179 
 4134              	.LASF146:
 4135 06c5 6770745F 		.ascii	"gpt_lld_stop\000"
 4135      6C6C645F 
 4135      73746F70 
 4135      00
 4136              	.LASF72:
 4137 06d2 726C6973 		.ascii	"rlist\000"
 4137      7400
 4138              	.LASF13:
 4139 06d8 75696E74 		.ascii	"uint8_t\000"
 4139      385F7400 
 4140              	.LASF143:
 4141 06e0 67707450 		.ascii	"gptPolledDelay\000"
 4141      6F6C6C65 
 4141      6444656C 
 4141      617900
 4142              	.LASF95:
 4143 06ef 77746F62 		.ascii	"wtobjp\000"
 4143      6A7000
 4144              	.LASF32:
 4145 06f6 705F6E61 		.ascii	"p_name\000"
 4145      6D6500
 4146              	.LASF43:
 4147 06fd 74687265 		.ascii	"threads_list_t\000"
 4147      6164735F 
 4147      6C697374 
 4147      5F7400
 4148              	.LASF18:
 4149 070c 746D6F64 		.ascii	"tmode_t\000"
 4149      655F7400 
 4150              	.LASF125:
 4151 0714 63685379 		.ascii	"chSysUnlock\000"
 4151      73556E6C 
 4151      6F636B00 
 4152              	.LASF38:
 4153 0720 705F6D73 		.ascii	"p_msg\000"
 4153      6700
 4154              	.LASF113:
 4155 0726 636C6F63 		.ascii	"clock\000"
 4155      6B00
 4156              	.LASF102:
 4157 072c 6D757465 		.ascii	"mutex_t\000"
 4157      785F7400 
 4158              	.LASF100:
 4159 0734 6D5F6F77 		.ascii	"m_owner\000"
 4159      6E657200 
 4160              	.LASF150:
 4161 073c 2E2E2F43 		.ascii	"../ChibiOS/os/hal/src/gpt.c\000"
 4161      68696269 
 4161      4F532F6F 
 4161      732F6861 
 4161      6C2F7372 
 4162              	.LASF29:
 4163 0758 705F6374 		.ascii	"p_ctx\000"
 4163      7800
ARM GAS  /tmp/ccSQU2GF.s 			page 80


 4164              	.LASF62:
 4165 075e 76745F66 		.ascii	"vt_func\000"
 4165      756E6300 
 4166              	.LASF133:
 4167 0766 67707453 		.ascii	"gptStartOneShotI\000"
 4167      74617274 
 4167      4F6E6553 
 4167      686F7449 
 4167      00
 4168              	.LASF119:
 4169 0777 64696572 		.ascii	"dier\000"
 4169      00
 4170              	.LASF134:
 4171 077c 67707453 		.ascii	"gptStopTimerI\000"
 4171      746F7054 
 4171      696D6572 
 4171      4900
 4172              		.ident	"GCC: (GNU Tools for ARM Embedded Processors) 4.9.3 20141119 (release) [ARM/embedded-4_9-br
ARM GAS  /tmp/ccSQU2GF.s 			page 81


DEFINED SYMBOLS
                            *ABS*:00000000 gpt.c
     /tmp/ccSQU2GF.s:21     .text.gptInit:00000000 $t
     /tmp/ccSQU2GF.s:27     .text.gptInit:00000000 gptInit
     /tmp/ccSQU2GF.s:42     .text.gptObjectInit:00000000 $t
     /tmp/ccSQU2GF.s:48     .text.gptObjectInit:00000000 gptObjectInit
     /tmp/ccSQU2GF.s:69     .text.gptStart:00000000 $t
     /tmp/ccSQU2GF.s:75     .text.gptStart:00000000 gptStart
     /tmp/ccSQU2GF.s:148    .text.gptStop:00000000 $t
     /tmp/ccSQU2GF.s:154    .text.gptStop:00000000 gptStop
     /tmp/ccSQU2GF.s:224    .text.gptChangeInterval:00000000 $t
     /tmp/ccSQU2GF.s:230    .text.gptChangeInterval:00000000 gptChangeInterval
     /tmp/ccSQU2GF.s:283    .text.gptStartContinuous:00000000 $t
     /tmp/ccSQU2GF.s:289    .text.gptStartContinuous:00000000 gptStartContinuous
     /tmp/ccSQU2GF.s:350    .text.gptStartContinuousI:00000000 $t
     /tmp/ccSQU2GF.s:356    .text.gptStartContinuousI:00000000 gptStartContinuousI
     /tmp/ccSQU2GF.s:374    .text.gptStartOneShot:00000000 $t
     /tmp/ccSQU2GF.s:380    .text.gptStartOneShot:00000000 gptStartOneShot
     /tmp/ccSQU2GF.s:441    .text.gptStartOneShotI:00000000 $t
     /tmp/ccSQU2GF.s:447    .text.gptStartOneShotI:00000000 gptStartOneShotI
     /tmp/ccSQU2GF.s:465    .text.gptStopTimer:00000000 $t
     /tmp/ccSQU2GF.s:471    .text.gptStopTimer:00000000 gptStopTimer
     /tmp/ccSQU2GF.s:532    .text.gptStopTimerI:00000000 $t
     /tmp/ccSQU2GF.s:538    .text.gptStopTimerI:00000000 gptStopTimerI
     /tmp/ccSQU2GF.s:556    .text.gptPolledDelay:00000000 $t
     /tmp/ccSQU2GF.s:562    .text.gptPolledDelay:00000000 gptPolledDelay
                     .debug_frame:00000010 $d

UNDEFINED SYMBOLS
gpt_lld_init
gpt_lld_start
gpt_lld_stop
gpt_lld_start_timer
gpt_lld_stop_timer
gpt_lld_polled_delay
