ARM GAS  /tmp/ccbr6Prn.s 			page 1


   1              		.syntax unified
   2              		.cpu cortex-m4
   3              		.eabi_attribute 27, 3
   4              		.eabi_attribute 28, 1
   5              		.fpu fpv4-sp-d16
   6              		.eabi_attribute 20, 1
   7              		.eabi_attribute 21, 1
   8              		.eabi_attribute 23, 3
   9              		.eabi_attribute 24, 1
  10              		.eabi_attribute 25, 1
  11              		.eabi_attribute 26, 1
  12              		.eabi_attribute 30, 2
  13              		.eabi_attribute 34, 1
  14              		.eabi_attribute 18, 4
  15              		.thumb
  16              		.file	"gpt_lld.c"
  17              		.text
  18              	.Ltext0:
  19              		.cfi_sections	.debug_frame
  20              		.section	.text.VectorA4,"ax",%progbits
  21              		.align	2
  22              		.p2align 4,,15
  23              		.global	VectorA4
  24              		.thumb
  25              		.thumb_func
  26              		.type	VectorA4, %function
  27              	VectorA4:
  28              	.LFB256:
  29              		.file 1 "../ChibiOS/os/hal/ports/STM32/LLD/TIMv1/gpt_lld.c"
  30              		.loc 1 169 0
  31              		.cfi_startproc
  32              		@ args = 0, pretend = 0, frame = 0
  33              		@ frame_needed = 0, uses_anonymous_args = 0
  34              	.LVL0:
  35 0000 08B5     		push	{r3, lr}
  36              		.cfi_def_cfa_offset 8
  37              		.cfi_offset 3, -8
  38              		.cfi_offset 14, -4
  39              	.LBB10:
  40              	.LBB11:
  41              		.loc 1 148 0
  42 0002 0B4B     		ldr	r3, .L5
  43              		.loc 1 149 0
  44 0004 1878     		ldrb	r0, [r3]	@ zero_extendqisi2
  45              		.loc 1 148 0
  46 0006 DA68     		ldr	r2, [r3, #12]
  47 0008 0021     		movs	r1, #0
  48              		.loc 1 149 0
  49 000a 0428     		cmp	r0, #4
  50              		.loc 1 148 0
  51 000c 1161     		str	r1, [r2, #16]
  52              		.loc 1 149 0
  53 000e 07D1     		bne	.L2
  54              		.loc 1 150 0
  55 0010 0220     		movs	r0, #2
  56 0012 1870     		strb	r0, [r3]
  57              	.LVL1:
ARM GAS  /tmp/ccbr6Prn.s 			page 2


  58              	.LBB12:
  59              	.LBB13:
  60              		.loc 1 733 0
  61 0014 1160     		str	r1, [r2]
  62              		.loc 1 734 0
  63 0016 1161     		str	r1, [r2, #16]
  64              		.loc 1 737 0
  65 0018 D168     		ldr	r1, [r2, #12]
  66 001a 21F0FF01 		bic	r1, r1, #255
  67 001e D160     		str	r1, [r2, #12]
  68              	.LVL2:
  69              	.L2:
  70              	.LBE13:
  71              	.LBE12:
  72              		.loc 1 153 0
  73 0020 5B68     		ldr	r3, [r3, #4]
  74 0022 0348     		ldr	r0, .L5
  75 0024 5B68     		ldr	r3, [r3, #4]
  76 0026 9847     		blx	r3
  77              	.LVL3:
  78              	.LBE11:
  79              	.LBE10:
  80              		.loc 1 176 0
  81 0028 BDE80840 		pop	{r3, lr}
  82              		.cfi_restore 14
  83              		.cfi_restore 3
  84              		.cfi_def_cfa_offset 0
  85              		.loc 1 175 0
  86 002c FFF7FEBF 		b	_port_irq_epilogue
  87              	.LVL4:
  88              	.L6:
  89              		.align	2
  90              	.L5:
  91 0030 00000000 		.word	.LANCHOR0
  92              		.cfi_endproc
  93              	.LFE256:
  94              		.size	VectorA4, .-VectorA4
  95 0034 AFF30080 		.section	.text.gpt_lld_init,"ax",%progbits
  95      AFF30080 
  95      AFF30080 
  96              		.align	2
  97              		.p2align 4,,15
  98              		.global	gpt_lld_init
  99              		.thumb
 100              		.thumb_func
 101              		.type	gpt_lld_init, %function
 102              	gpt_lld_init:
 103              	.LFB257:
 104              		.loc 1 397 0
 105              		.cfi_startproc
 106              		@ args = 0, pretend = 0, frame = 0
 107              		@ frame_needed = 0, uses_anonymous_args = 0
 108              		@ link register save eliminated.
 109              		.loc 1 401 0
 110 0000 0248     		ldr	r0, .L8
 111 0002 034B     		ldr	r3, .L8+4
 112 0004 C360     		str	r3, [r0, #12]
ARM GAS  /tmp/ccbr6Prn.s 			page 3


 113              		.loc 1 402 0
 114 0006 FFF7FEBF 		b	gptObjectInit
 115              	.LVL5:
 116              	.L9:
 117 000a 00BF     		.align	2
 118              	.L8:
 119 000c 00000000 		.word	.LANCHOR0
 120 0010 002C0140 		.word	1073818624
 121              		.cfi_endproc
 122              	.LFE257:
 123              		.size	gpt_lld_init, .-gpt_lld_init
 124 0014 AFF30080 		.section	.text.gpt_lld_start,"ax",%progbits
 124      AFF30080 
 124      AFF30080 
 125              		.align	2
 126              		.p2align 4,,15
 127              		.global	gpt_lld_start
 128              		.thumb
 129              		.thumb_func
 130              		.type	gpt_lld_start, %function
 131              	gpt_lld_start:
 132              	.LFB258:
 133              		.loc 1 479 0
 134              		.cfi_startproc
 135              		@ args = 0, pretend = 0, frame = 0
 136              		@ frame_needed = 0, uses_anonymous_args = 0
 137              	.LVL6:
 138 0000 38B5     		push	{r3, r4, r5, lr}
 139              		.cfi_def_cfa_offset 16
 140              		.cfi_offset 3, -16
 141              		.cfi_offset 4, -12
 142              		.cfi_offset 5, -8
 143              		.cfi_offset 14, -4
 144              		.loc 1 482 0
 145 0002 0378     		ldrb	r3, [r0]	@ zero_extendqisi2
 146 0004 012B     		cmp	r3, #1
 147              		.loc 1 479 0
 148 0006 0446     		mov	r4, r0
 149              		.loc 1 482 0
 150 0008 12D0     		beq	.L13
 151              	.LVL7:
 152              	.L11:
 153              		.loc 1 599 0
 154 000a 6068     		ldr	r0, [r4, #4]
 155 000c A368     		ldr	r3, [r4, #8]
 156              		.loc 1 608 0
 157 000e C168     		ldr	r1, [r0, #12]
 158              		.loc 1 599 0
 159 0010 0568     		ldr	r5, [r0]
 160              		.loc 1 604 0
 161 0012 E268     		ldr	r2, [r4, #12]
 162              		.loc 1 599 0
 163 0014 B3FBF5F3 		udiv	r3, r3, r5
 164 0018 013B     		subs	r3, r3, #1
 165              		.loc 1 605 0
 166 001a 8468     		ldr	r4, [r0, #8]
 167              	.LVL8:
ARM GAS  /tmp/ccbr6Prn.s 			page 4


 168              		.loc 1 599 0
 169 001c 9BB2     		uxth	r3, r3
 170              	.LVL9:
 171              		.loc 1 604 0
 172 001e 0020     		movs	r0, #0
 173              		.loc 1 608 0
 174 0020 21F0FF01 		bic	r1, r1, #255
 175              		.loc 1 604 0
 176 0024 1060     		str	r0, [r2]
 177              		.loc 1 605 0
 178 0026 5460     		str	r4, [r2, #4]
 179              		.loc 1 606 0
 180 0028 9362     		str	r3, [r2, #40]
 181              		.loc 1 607 0
 182 002a 1061     		str	r0, [r2, #16]
 183              		.loc 1 608 0
 184 002c D160     		str	r1, [r2, #12]
 185 002e 38BD     		pop	{r3, r4, r5, pc}
 186              	.LVL10:
 187              	.L13:
 188              		.loc 1 485 0
 189 0030 0A4B     		ldr	r3, .L14
 190 0032 9842     		cmp	r0, r3
 191 0034 E9D1     		bne	.L11
 192              		.loc 1 486 0
 193 0036 0A4B     		ldr	r3, .L14+4
 194 0038 9A69     		ldr	r2, [r3, #24]
 195 003a 42F40062 		orr	r2, r2, #2048
 196 003e 9A61     		str	r2, [r3, #24]
 197              		.loc 1 487 0
 198 0040 DA68     		ldr	r2, [r3, #12]
 199 0042 0021     		movs	r1, #0
 200 0044 42F40062 		orr	r2, r2, #2048
 201 0048 DA60     		str	r2, [r3, #12]
 202              		.loc 1 488 0
 203 004a 1920     		movs	r0, #25
 204              	.LVL11:
 205              		.loc 1 487 0
 206 004c D960     		str	r1, [r3, #12]
 207              		.loc 1 488 0
 208 004e 0721     		movs	r1, #7
 209 0050 FFF7FEFF 		bl	nvicEnableVector
 210              	.LVL12:
 211              		.loc 1 490 0
 212 0054 034B     		ldr	r3, .L14+8
 213 0056 A360     		str	r3, [r4, #8]
 214 0058 D7E7     		b	.L11
 215              	.L15:
 216 005a 00BF     		.align	2
 217              	.L14:
 218 005c 00000000 		.word	.LANCHOR0
 219 0060 00100240 		.word	1073876992
 220 0064 00A24A04 		.word	72000000
 221              		.cfi_endproc
 222              	.LFE258:
 223              		.size	gpt_lld_start, .-gpt_lld_start
 224 0068 AFF30080 		.section	.text.gpt_lld_stop,"ax",%progbits
ARM GAS  /tmp/ccbr6Prn.s 			page 5


 224      AFF30080 
 225              		.align	2
 226              		.p2align 4,,15
 227              		.global	gpt_lld_stop
 228              		.thumb
 229              		.thumb_func
 230              		.type	gpt_lld_stop, %function
 231              	gpt_lld_stop:
 232              	.LFB259:
 233              		.loc 1 619 0
 234              		.cfi_startproc
 235              		@ args = 0, pretend = 0, frame = 0
 236              		@ frame_needed = 0, uses_anonymous_args = 0
 237              	.LVL13:
 238 0000 08B5     		push	{r3, lr}
 239              		.cfi_def_cfa_offset 8
 240              		.cfi_offset 3, -8
 241              		.cfi_offset 14, -4
 242              		.loc 1 621 0
 243 0002 0378     		ldrb	r3, [r0]	@ zero_extendqisi2
 244 0004 022B     		cmp	r3, #2
 245 0006 00D0     		beq	.L21
 246              	.LVL14:
 247              	.L16:
 248 0008 08BD     		pop	{r3, pc}
 249              	.LVL15:
 250              	.L21:
 251              		.loc 1 627 0
 252 000a 0849     		ldr	r1, .L22
 253              		.loc 1 622 0
 254 000c C368     		ldr	r3, [r0, #12]
 255 000e 0022     		movs	r2, #0
 256              		.loc 1 627 0
 257 0010 8842     		cmp	r0, r1
 258              		.loc 1 622 0
 259 0012 1A60     		str	r2, [r3]
 260              		.loc 1 623 0
 261 0014 DA60     		str	r2, [r3, #12]
 262              		.loc 1 624 0
 263 0016 1A61     		str	r2, [r3, #16]
 264              		.loc 1 627 0
 265 0018 F6D1     		bne	.L16
 266              		.loc 1 628 0
 267 001a 1920     		movs	r0, #25
 268              	.LVL16:
 269 001c FFF7FEFF 		bl	nvicDisableVector
 270              	.LVL17:
 271              		.loc 1 629 0
 272 0020 034A     		ldr	r2, .L22+4
 273 0022 9369     		ldr	r3, [r2, #24]
 274 0024 23F40063 		bic	r3, r3, #2048
 275 0028 9361     		str	r3, [r2, #24]
 276 002a EDE7     		b	.L16
 277              	.L23:
 278              		.align	2
 279              	.L22:
 280 002c 00000000 		.word	.LANCHOR0
ARM GAS  /tmp/ccbr6Prn.s 			page 6


 281 0030 00100240 		.word	1073876992
 282              		.cfi_endproc
 283              	.LFE259:
 284              		.size	gpt_lld_stop, .-gpt_lld_stop
 285 0034 AFF30080 		.section	.text.gpt_lld_start_timer,"ax",%progbits
 285      AFF30080 
 285      AFF30080 
 286              		.align	2
 287              		.p2align 4,,15
 288              		.global	gpt_lld_start_timer
 289              		.thumb
 290              		.thumb_func
 291              		.type	gpt_lld_start_timer, %function
 292              	gpt_lld_start_timer:
 293              	.LFB260:
 294              		.loc 1 709 0
 295              		.cfi_startproc
 296              		@ args = 0, pretend = 0, frame = 0
 297              		@ frame_needed = 0, uses_anonymous_args = 0
 298              		@ link register save eliminated.
 299              	.LVL18:
 300              		.loc 1 719 0
 301 0000 4268     		ldr	r2, [r0, #4]
 302              		.loc 1 711 0
 303 0002 C368     		ldr	r3, [r0, #12]
 304              		.loc 1 719 0
 305 0004 5068     		ldr	r0, [r2, #4]
 306              	.LVL19:
 307              		.loc 1 711 0
 308 0006 0139     		subs	r1, r1, #1
 309              	.LVL20:
 310 0008 D962     		str	r1, [r3, #44]
 311              		.loc 1 713 0
 312 000a 0022     		movs	r2, #0
 313              		.loc 1 712 0
 314 000c 0121     		movs	r1, #1
 315              	.LVL21:
 316 000e 5961     		str	r1, [r3, #20]
 317              	.LVL22:
 318              		.loc 1 713 0
 319 0010 5A62     		str	r2, [r3, #36]
 320              		.loc 1 718 0
 321 0012 1A61     		str	r2, [r3, #16]
 322              		.loc 1 719 0
 323 0014 10B1     		cbz	r0, .L25
 324              		.loc 1 720 0
 325 0016 DA68     		ldr	r2, [r3, #12]
 326 0018 0A43     		orrs	r2, r2, r1
 327 001a DA60     		str	r2, [r3, #12]
 328              	.L25:
 329              		.loc 1 721 0
 330 001c 0522     		movs	r2, #5
 331 001e 1A60     		str	r2, [r3]
 332 0020 7047     		bx	lr
 333              		.cfi_endproc
 334              	.LFE260:
 335              		.size	gpt_lld_start_timer, .-gpt_lld_start_timer
ARM GAS  /tmp/ccbr6Prn.s 			page 7


 336 0022 00BFAFF3 		.section	.text.gpt_lld_stop_timer,"ax",%progbits
 336      0080AFF3 
 336      0080AFF3 
 336      0080
 337              		.align	2
 338              		.p2align 4,,15
 339              		.global	gpt_lld_stop_timer
 340              		.thumb
 341              		.thumb_func
 342              		.type	gpt_lld_stop_timer, %function
 343              	gpt_lld_stop_timer:
 344              	.LFB261:
 345              		.loc 1 731 0
 346              		.cfi_startproc
 347              		@ args = 0, pretend = 0, frame = 0
 348              		@ frame_needed = 0, uses_anonymous_args = 0
 349              		@ link register save eliminated.
 350              	.LVL23:
 351              		.loc 1 733 0
 352 0000 C368     		ldr	r3, [r0, #12]
 353 0002 0022     		movs	r2, #0
 354 0004 1A60     		str	r2, [r3]
 355              		.loc 1 734 0
 356 0006 1A61     		str	r2, [r3, #16]
 357              		.loc 1 737 0
 358 0008 DA68     		ldr	r2, [r3, #12]
 359 000a 22F0FF02 		bic	r2, r2, #255
 360 000e DA60     		str	r2, [r3, #12]
 361 0010 7047     		bx	lr
 362              		.cfi_endproc
 363              	.LFE261:
 364              		.size	gpt_lld_stop_timer, .-gpt_lld_stop_timer
 365 0012 00BFAFF3 		.section	.text.gpt_lld_polled_delay,"ax",%progbits
 365      0080AFF3 
 365      0080AFF3 
 365      0080
 366              		.align	2
 367              		.p2align 4,,15
 368              		.global	gpt_lld_polled_delay
 369              		.thumb
 370              		.thumb_func
 371              		.type	gpt_lld_polled_delay, %function
 372              	gpt_lld_polled_delay:
 373              	.LFB262:
 374              		.loc 1 751 0
 375              		.cfi_startproc
 376              		@ args = 0, pretend = 0, frame = 0
 377              		@ frame_needed = 0, uses_anonymous_args = 0
 378              		@ link register save eliminated.
 379              	.LVL24:
 380              		.loc 1 753 0
 381 0000 C268     		ldr	r2, [r0, #12]
 382 0002 0139     		subs	r1, r1, #1
 383              	.LVL25:
 384              		.loc 1 754 0
 385 0004 0120     		movs	r0, #1
 386              	.LVL26:
ARM GAS  /tmp/ccbr6Prn.s 			page 8


 387              		.loc 1 755 0
 388 0006 0D23     		movs	r3, #13
 389              		.loc 1 753 0
 390 0008 D162     		str	r1, [r2, #44]
 391              		.loc 1 754 0
 392 000a 5061     		str	r0, [r2, #20]
 393              		.loc 1 755 0
 394 000c 1360     		str	r3, [r2]
 395              	.L31:
 396              		.loc 1 756 0 discriminator 1
 397 000e 1369     		ldr	r3, [r2, #16]
 398 0010 DB07     		lsls	r3, r3, #31
 399 0012 FCD5     		bpl	.L31
 400              		.loc 1 758 0
 401 0014 0023     		movs	r3, #0
 402 0016 1361     		str	r3, [r2, #16]
 403 0018 7047     		bx	lr
 404              		.cfi_endproc
 405              	.LFE262:
 406              		.size	gpt_lld_polled_delay, .-gpt_lld_polled_delay
 407              		.global	GPTD1
 408 001a 00BFAFF3 		.section	.bss.GPTD1,"aw",%nobits
 408      0080
 409              		.align	2
 410              		.set	.LANCHOR0,. + 0
 411              		.type	GPTD1, %object
 412              		.size	GPTD1, 16
 413              	GPTD1:
 414 0000 00000000 		.space	16
 414      00000000 
 414      00000000 
 414      00000000 
 415              		.text
 416              	.Letext0:
 417              		.file 2 "/l/arm2/gcc-arm-none-eabi-4_9-2014q4/lib/gcc/arm-none-eabi/4.9.3/include/stddef.h"
 418              		.file 3 "/l/arm2/gcc-arm-none-eabi-4_9-2014q4/arm-none-eabi/include/machine/_default_types.h"
 419              		.file 4 "/l/arm2/gcc-arm-none-eabi-4_9-2014q4/arm-none-eabi/include/stdint.h"
 420              		.file 5 "../ChibiOS/os/rt/ports/ARMCMx/compilers/GCC/chtypes.h"
 421              		.file 6 "../ChibiOS/os/rt/include/chsystypes.h"
 422              		.file 7 "../ChibiOS/os/rt/include/chschd.h"
 423              		.file 8 "../ChibiOS/os/ext/CMSIS/ST/stm32f303xc.h"
 424              		.file 9 "../ChibiOS/os/rt/ports/ARMCMx/chcore.h"
 425              		.file 10 "../ChibiOS/os/rt/ports/ARMCMx/chcore_v7m.h"
 426              		.file 11 "../ChibiOS/os/hal/ports/STM32/LLD/TIMv1/stm32_tim.h"
 427              		.file 12 "../ChibiOS/os/rt/include/chtm.h"
 428              		.file 13 "../ChibiOS/os/rt/include/chmtx.h"
 429              		.file 14 "../ChibiOS/os/hal/include/gpt.h"
 430              		.file 15 "../ChibiOS/os/hal/ports/STM32/LLD/TIMv1/gpt_lld.h"
 431              		.file 16 "../ChibiOS/os/ext/CMSIS/include/core_cm4.h"
 432              		.file 17 "../ChibiOS/os/hal/ports/common/ARMCMx/nvic.h"