ARM GAS  /tmp/ccbr6Prn.s 			page 1


   1              		.syntax unified
   2              		.cpu cortex-m4
   3              		.eabi_attribute 27, 3
   4              		.eabi_attribute 28, 1
   5              		.fpu fpv4-sp-d16
   6              		.eabi_attribute 20, 1
   7              		.eabi_attribute 21, 1
   8              		.eabi_attribute 23, 3
   9              		.eabi_attribute 24, 1
  10              		.eabi_attribute 25, 1
  11              		.eabi_attribute 26, 1
  12              		.eabi_attribute 30, 2
  13              		.eabi_attribute 34, 1
  14              		.eabi_attribute 18, 4
  15              		.thumb
  16              		.file	"gpt_lld.c"
  17              		.text
  18              	.Ltext0:
  19              		.cfi_sections	.debug_frame
  20              		.section	.text.VectorA4,"ax",%progbits
  21              		.align	2
  22              		.p2align 4,,15
  23              		.global	VectorA4
  24              		.thumb
  25              		.thumb_func
  26              		.type	VectorA4, %function
  27              	VectorA4:
  28              	.LFB256:
  29              		.file 1 "../ChibiOS/os/hal/ports/STM32/LLD/TIMv1/gpt_lld.c"
  30              		.loc 1 169 0
  31              		.cfi_startproc
  32              		@ args = 0, pretend = 0, frame = 0
  33              		@ frame_needed = 0, uses_anonymous_args = 0
  34              	.LVL0:
  35 0000 08B5     		push	{r3, lr}
  36              		.cfi_def_cfa_offset 8
  37              		.cfi_offset 3, -8
  38              		.cfi_offset 14, -4
  39              	.LBB10:
  40              	.LBB11:
  41              		.loc 1 148 0
  42 0002 0B4B     		ldr	r3, .L5
  43              		.loc 1 149 0
  44 0004 1878     		ldrb	r0, [r3]	@ zero_extendqisi2
  45              		.loc 1 148 0
  46 0006 DA68     		ldr	r2, [r3, #12]
  47 0008 0021     		movs	r1, #0
  48              		.loc 1 149 0
  49 000a 0428     		cmp	r0, #4
  50              		.loc 1 148 0
  51 000c 1161     		str	r1, [r2, #16]
  52              		.loc 1 149 0
  53 000e 07D1     		bne	.L2
  54              		.loc 1 150 0
  55 0010 0220     		movs	r0, #2
  56 0012 1870     		strb	r0, [r3]
  57              	.LVL1:
ARM GAS  /tmp/ccbr6Prn.s 			page 2


  58              	.LBB12:
  59              	.LBB13:
  60              		.loc 1 733 0
  61 0014 1160     		str	r1, [r2]
  62              		.loc 1 734 0
  63 0016 1161     		str	r1, [r2, #16]
  64              		.loc 1 737 0
  65 0018 D168     		ldr	r1, [r2, #12]
  66 001a 21F0FF01 		bic	r1, r1, #255
  67 001e D160     		str	r1, [r2, #12]
  68              	.LVL2:
  69              	.L2:
  70              	.LBE13:
  71              	.LBE12:
  72              		.loc 1 153 0
  73 0020 5B68     		ldr	r3, [r3, #4]
  74 0022 0348     		ldr	r0, .L5
  75 0024 5B68     		ldr	r3, [r3, #4]
  76 0026 9847     		blx	r3
  77              	.LVL3:
  78              	.LBE11:
  79              	.LBE10:
  80              		.loc 1 176 0
  81 0028 BDE80840 		pop	{r3, lr}
  82              		.cfi_restore 14
  83              		.cfi_restore 3
  84              		.cfi_def_cfa_offset 0
  85              		.loc 1 175 0
  86 002c FFF7FEBF 		b	_port_irq_epilogue
  87              	.LVL4:
  88              	.L6:
  89              		.align	2
  90              	.L5:
  91 0030 00000000 		.word	.LANCHOR0
  92              		.cfi_endproc
  93              	.LFE256:
  94              		.size	VectorA4, .-VectorA4
  95 0034 AFF30080 		.section	.text.gpt_lld_init,"ax",%progbits
  95      AFF30080 
  95      AFF30080 
  96              		.align	2
  97              		.p2align 4,,15
  98              		.global	gpt_lld_init
  99              		.thumb
 100              		.thumb_func
 101              		.type	gpt_lld_init, %function
 102              	gpt_lld_init:
 103              	.LFB257:
 104              		.loc 1 397 0
 105              		.cfi_startproc
 106              		@ args = 0, pretend = 0, frame = 0
 107              		@ frame_needed = 0, uses_anonymous_args = 0
 108              		@ link register save eliminated.
 109              		.loc 1 401 0
 110 0000 0248     		ldr	r0, .L8
 111 0002 034B     		ldr	r3, .L8+4
 112 0004 C360     		str	r3, [r0, #12]
ARM GAS  /tmp/ccbr6Prn.s 			page 3


 113              		.loc 1 402 0
 114 0006 FFF7FEBF 		b	gptObjectInit
 115              	.LVL5:
 116              	.L9:
 117 000a 00BF     		.align	2
 118              	.L8:
 119 000c 00000000 		.word	.LANCHOR0
 120 0010 002C0140 		.word	1073818624
 121              		.cfi_endproc
 122              	.LFE257:
 123              		.size	gpt_lld_init, .-gpt_lld_init
 124 0014 AFF30080 		.section	.text.gpt_lld_start,"ax",%progbits
 124      AFF30080 
 124      AFF30080 
 125              		.align	2
 126              		.p2align 4,,15
 127              		.global	gpt_lld_start
 128              		.thumb
 129              		.thumb_func
 130              		.type	gpt_lld_start, %function
 131              	gpt_lld_start:
 132              	.LFB258:
 133              		.loc 1 479 0
 134              		.cfi_startproc
 135              		@ args = 0, pretend = 0, frame = 0
 136              		@ frame_needed = 0, uses_anonymous_args = 0
 137              	.LVL6:
 138 0000 38B5     		push	{r3, r4, r5, lr}
 139              		.cfi_def_cfa_offset 16
 140              		.cfi_offset 3, -16
 141              		.cfi_offset 4, -12
 142              		.cfi_offset 5, -8
 143              		.cfi_offset 14, -4
 144              		.loc 1 482 0
 145 0002 0378     		ldrb	r3, [r0]	@ zero_extendqisi2
 146 0004 012B     		cmp	r3, #1
 147              		.loc 1 479 0
 148 0006 0446     		mov	r4, r0
 149              		.loc 1 482 0
 150 0008 12D0     		beq	.L13
 151              	.LVL7:
 152              	.L11:
 153              		.loc 1 599 0
 154 000a 6068     		ldr	r0, [r4, #4]
 155 000c A368     		ldr	r3, [r4, #8]
 156              		.loc 1 608 0
 157 000e C168     		ldr	r1, [r0, #12]
 158              		.loc 1 599 0
 159 0010 0568     		ldr	r5, [r0]
 160              		.loc 1 604 0
 161 0012 E268     		ldr	r2, [r4, #12]
 162              		.loc 1 599 0
 163 0014 B3FBF5F3 		udiv	r3, r3, r5
 164 0018 013B     		subs	r3, r3, #1
 165              		.loc 1 605 0
 166 001a 8468     		ldr	r4, [r0, #8]
 167              	.LVL8:
ARM GAS  /tmp/ccbr6Prn.s 			page 4


 168              		.loc 1 599 0
 169 001c 9BB2     		uxth	r3, r3
 170              	.LVL9:
 171              		.loc 1 604 0
 172 001e 0020     		movs	r0, #0
 173              		.loc 1 608 0
 174 0020 21F0FF01 		bic	r1, r1, #255
 175              		.loc 1 604 0
 176 0024 1060     		str	r0, [r2]
 177              		.loc 1 605 0
 178 0026 5460     		str	r4, [r2, #4]
 179              		.loc 1 606 0
 180 0028 9362     		str	r3, [r2, #40]
 181              		.loc 1 607 0
 182 002a 1061     		str	r0, [r2, #16]
 183              		.loc 1 608 0
 184 002c D160     		str	r1, [r2, #12]
 185 002e 38BD     		pop	{r3, r4, r5, pc}
 186              	.LVL10:
 187              	.L13:
 188              		.loc 1 485 0
 189 0030 0A4B     		ldr	r3, .L14
 190 0032 9842     		cmp	r0, r3
 191 0034 E9D1     		bne	.L11
 192              		.loc 1 486 0
 193 0036 0A4B     		ldr	r3, .L14+4
 194 0038 9A69     		ldr	r2, [r3, #24]
 195 003a 42F40062 		orr	r2, r2, #2048
 196 003e 9A61     		str	r2, [r3, #24]
 197              		.loc 1 487 0
 198 0040 DA68     		ldr	r2, [r3, #12]
 199 0042 0021     		movs	r1, #0
 200 0044 42F40062 		orr	r2, r2, #2048
 201 0048 DA60     		str	r2, [r3, #12]
 202              		.loc 1 488 0
 203 004a 1920     		movs	r0, #25
 204              	.LVL11:
 205              		.loc 1 487 0
 206 004c D960     		str	r1, [r3, #12]
 207              		.loc 1 488 0
 208 004e 0721     		movs	r1, #7
 209 0050 FFF7FEFF 		bl	nvicEnableVector
 210              	.LVL12:
 211              		.loc 1 490 0
 212 0054 034B     		ldr	r3, .L14+8
 213 0056 A360     		str	r3, [r4, #8]
 214 0058 D7E7     		b	.L11
 215              	.L15:
 216 005a 00BF     		.align	2
 217              	.L14:
 218 005c 00000000 		.word	.LANCHOR0
 219 0060 00100240 		.word	1073876992
 220 0064 00A24A04 		.word	72000000
 221              		.cfi_endproc
 222              	.LFE258:
 223              		.size	gpt_lld_start, .-gpt_lld_start
 224 0068 AFF30080 		.section	.text.gpt_lld_stop,"ax",%progbits
ARM GAS  /tmp/ccbr6Prn.s 			page 5


 224      AFF30080 
 225              		.align	2
 226              		.p2align 4,,15
 227              		.global	gpt_lld_stop
 228              		.thumb
 229              		.thumb_func
 230              		.type	gpt_lld_stop, %function
 231              	gpt_lld_stop:
 232              	.LFB259:
 233              		.loc 1 619 0
 234              		.cfi_startproc
 235              		@ args = 0, pretend = 0, frame = 0
 236              		@ frame_needed = 0, uses_anonymous_args = 0
 237              	.LVL13:
 238 0000 08B5     		push	{r3, lr}
 239              		.cfi_def_cfa_offset 8
 240              		.cfi_offset 3, -8
 241              		.cfi_offset 14, -4
 242              		.loc 1 621 0
 243 0002 0378     		ldrb	r3, [r0]	@ zero_extendqisi2
 244 0004 022B     		cmp	r3, #2
 245 0006 00D0     		beq	.L21
 246              	.LVL14:
 247              	.L16:
 248 0008 08BD     		pop	{r3, pc}
 249              	.LVL15:
 250              	.L21:
 251              		.loc 1 627 0
 252 000a 0849     		ldr	r1, .L22
 253              		.loc 1 622 0
 254 000c C368     		ldr	r3, [r0, #12]
 255 000e 0022     		movs	r2, #0
 256              		.loc 1 627 0
 257 0010 8842     		cmp	r0, r1
 258              		.loc 1 622 0
 259 0012 1A60     		str	r2, [r3]
 260              		.loc 1 623 0
 261 0014 DA60     		str	r2, [r3, #12]
 262              		.loc 1 624 0
 263 0016 1A61     		str	r2, [r3, #16]
 264              		.loc 1 627 0
 265 0018 F6D1     		bne	.L16
 266              		.loc 1 628 0
 267 001a 1920     		movs	r0, #25
 268              	.LVL16:
 269 001c FFF7FEFF 		bl	nvicDisableVector
 270              	.LVL17:
 271              		.loc 1 629 0
 272 0020 034A     		ldr	r2, .L22+4
 273 0022 9369     		ldr	r3, [r2, #24]
 274 0024 23F40063 		bic	r3, r3, #2048
 275 0028 9361     		str	r3, [r2, #24]
 276 002a EDE7     		b	.L16
 277              	.L23:
 278              		.align	2
 279              	.L22:
 280 002c 00000000 		.word	.LANCHOR0
ARM GAS  /tmp/ccbr6Prn.s 			page 6


 281 0030 00100240 		.word	1073876992
 282              		.cfi_endproc
 283              	.LFE259:
 284              		.size	gpt_lld_stop, .-gpt_lld_stop
 285 0034 AFF30080 		.section	.text.gpt_lld_start_timer,"ax",%progbits
 285      AFF30080 
 285      AFF30080 
 286              		.align	2
 287              		.p2align 4,,15
 288              		.global	gpt_lld_start_timer
 289              		.thumb
 290              		.thumb_func
 291              		.type	gpt_lld_start_timer, %function
 292              	gpt_lld_start_timer:
 293              	.LFB260:
 294              		.loc 1 709 0
 295              		.cfi_startproc
 296              		@ args = 0, pretend = 0, frame = 0
 297              		@ frame_needed = 0, uses_anonymous_args = 0
 298              		@ link register save eliminated.
 299              	.LVL18:
 300              		.loc 1 719 0
 301 0000 4268     		ldr	r2, [r0, #4]
 302              		.loc 1 711 0
 303 0002 C368     		ldr	r3, [r0, #12]
 304              		.loc 1 719 0
 305 0004 5068     		ldr	r0, [r2, #4]
 306              	.LVL19:
 307              		.loc 1 711 0
 308 0006 0139     		subs	r1, r1, #1
 309              	.LVL20:
 310 0008 D962     		str	r1, [r3, #44]
 311              		.loc 1 713 0
 312 000a 0022     		movs	r2, #0
 313              		.loc 1 712 0
 314 000c 0121     		movs	r1, #1
 315              	.LVL21:
 316 000e 5961     		str	r1, [r3, #20]
 317              	.LVL22:
 318              		.loc 1 713 0
 319 0010 5A62     		str	r2, [r3, #36]
 320              		.loc 1 718 0
 321 0012 1A61     		str	r2, [r3, #16]
 322              		.loc 1 719 0
 323 0014 10B1     		cbz	r0, .L25
 324              		.loc 1 720 0
 325 0016 DA68     		ldr	r2, [r3, #12]
 326 0018 0A43     		orrs	r2, r2, r1
 327 001a DA60     		str	r2, [r3, #12]
 328              	.L25:
 329              		.loc 1 721 0
 330 001c 0522     		movs	r2, #5
 331 001e 1A60     		str	r2, [r3]
 332 0020 7047     		bx	lr
 333              		.cfi_endproc
 334              	.LFE260:
 335              		.size	gpt_lld_start_timer, .-gpt_lld_start_timer
ARM GAS  /tmp/ccbr6Prn.s 			page 7


 336 0022 00BFAFF3 		.section	.text.gpt_lld_stop_timer,"ax",%progbits
 336      0080AFF3 
 336      0080AFF3 
 336      0080
 337              		.align	2
 338              		.p2align 4,,15
 339              		.global	gpt_lld_stop_timer
 340              		.thumb
 341              		.thumb_func
 342              		.type	gpt_lld_stop_timer, %function
 343              	gpt_lld_stop_timer:
 344              	.LFB261:
 345              		.loc 1 731 0
 346              		.cfi_startproc
 347              		@ args = 0, pretend = 0, frame = 0
 348              		@ frame_needed = 0, uses_anonymous_args = 0
 349              		@ link register save eliminated.
 350              	.LVL23:
 351              		.loc 1 733 0
 352 0000 C368     		ldr	r3, [r0, #12]
 353 0002 0022     		movs	r2, #0
 354 0004 1A60     		str	r2, [r3]
 355              		.loc 1 734 0
 356 0006 1A61     		str	r2, [r3, #16]
 357              		.loc 1 737 0
 358 0008 DA68     		ldr	r2, [r3, #12]
 359 000a 22F0FF02 		bic	r2, r2, #255
 360 000e DA60     		str	r2, [r3, #12]
 361 0010 7047     		bx	lr
 362              		.cfi_endproc
 363              	.LFE261:
 364              		.size	gpt_lld_stop_timer, .-gpt_lld_stop_timer
 365 0012 00BFAFF3 		.section	.text.gpt_lld_polled_delay,"ax",%progbits
 365      0080AFF3 
 365      0080AFF3 
 365      0080
 366              		.align	2
 367              		.p2align 4,,15
 368              		.global	gpt_lld_polled_delay
 369              		.thumb
 370              		.thumb_func
 371              		.type	gpt_lld_polled_delay, %function
 372              	gpt_lld_polled_delay:
 373              	.LFB262:
 374              		.loc 1 751 0
 375              		.cfi_startproc
 376              		@ args = 0, pretend = 0, frame = 0
 377              		@ frame_needed = 0, uses_anonymous_args = 0
 378              		@ link register save eliminated.
 379              	.LVL24:
 380              		.loc 1 753 0
 381 0000 C268     		ldr	r2, [r0, #12]
 382 0002 0139     		subs	r1, r1, #1
 383              	.LVL25:
 384              		.loc 1 754 0
 385 0004 0120     		movs	r0, #1
 386              	.LVL26:
ARM GAS  /tmp/ccbr6Prn.s 			page 8


 387              		.loc 1 755 0
 388 0006 0D23     		movs	r3, #13
 389              		.loc 1 753 0
 390 0008 D162     		str	r1, [r2, #44]
 391              		.loc 1 754 0
 392 000a 5061     		str	r0, [r2, #20]
 393              		.loc 1 755 0
 394 000c 1360     		str	r3, [r2]
 395              	.L31:
 396              		.loc 1 756 0 discriminator 1
 397 000e 1369     		ldr	r3, [r2, #16]
 398 0010 DB07     		lsls	r3, r3, #31
 399 0012 FCD5     		bpl	.L31
 400              		.loc 1 758 0
 401 0014 0023     		movs	r3, #0
 402 0016 1361     		str	r3, [r2, #16]
 403 0018 7047     		bx	lr
 404              		.cfi_endproc
 405              	.LFE262:
 406              		.size	gpt_lld_polled_delay, .-gpt_lld_polled_delay
 407              		.global	GPTD1
 408 001a 00BFAFF3 		.section	.bss.GPTD1,"aw",%nobits
 408      0080
 409              		.align	2
 410              		.set	.LANCHOR0,. + 0
 411              		.type	GPTD1, %object
 412              		.size	GPTD1, 16
 413              	GPTD1:
 414 0000 00000000 		.space	16
 414      00000000 
 414      00000000 
 414      00000000 
 415              		.text
 416              	.Letext0:
 417              		.file 2 "/l/arm2/gcc-arm-none-eabi-4_9-2014q4/lib/gcc/arm-none-eabi/4.9.3/include/stddef.h"
 418              		.file 3 "/l/arm2/gcc-arm-none-eabi-4_9-2014q4/arm-none-eabi/include/machine/_default_types.h"
 419              		.file 4 "/l/arm2/gcc-arm-none-eabi-4_9-2014q4/arm-none-eabi/include/stdint.h"
 420              		.file 5 "../ChibiOS/os/rt/ports/ARMCMx/compilers/GCC/chtypes.h"
 421              		.file 6 "../ChibiOS/os/rt/include/chsystypes.h"
 422              		.file 7 "../ChibiOS/os/rt/include/chschd.h"
 423              		.file 8 "../ChibiOS/os/ext/CMSIS/ST/stm32f303xc.h"
 424              		.file 9 "../ChibiOS/os/rt/ports/ARMCMx/chcore.h"
 425              		.file 10 "../ChibiOS/os/rt/ports/ARMCMx/chcore_v7m.h"
 426              		.file 11 "../ChibiOS/os/hal/ports/STM32/LLD/TIMv1/stm32_tim.h"
 427              		.file 12 "../ChibiOS/os/rt/include/chtm.h"
 428              		.file 13 "../ChibiOS/os/rt/include/chmtx.h"
 429              		.file 14 "../ChibiOS/os/hal/include/gpt.h"
 430              		.file 15 "../ChibiOS/os/hal/ports/STM32/LLD/TIMv1/gpt_lld.h"
 431              		.file 16 "../ChibiOS/os/ext/CMSIS/include/core_cm4.h"
 432              		.file 17 "../ChibiOS/os/hal/ports/common/ARMCMx/nvic.h"
 433              		.section	.debug_info,"",%progbits
 434              	.Ldebug_info0:
 435 0000 060C0000 		.4byte	0xc06
 436 0004 0400     		.2byte	0x4
 437 0006 00000000 		.4byte	.Ldebug_abbrev0
 438 000a 04       		.byte	0x4
 439 000b 01       		.uleb128 0x1
ARM GAS  /tmp/ccbr6Prn.s 			page 9


 440 000c CF020000 		.4byte	.LASF148
 441 0010 01       		.byte	0x1
 442 0011 7C060000 		.4byte	.LASF149
 443 0015 AA050000 		.4byte	.LASF150
 444 0019 00000000 		.4byte	.Ldebug_ranges0+0
 445 001d 00000000 		.4byte	0
 446 0021 00000000 		.4byte	.Ldebug_line0
 447 0025 02       		.uleb128 0x2
 448 0026 04       		.byte	0x4
 449 0027 05       		.byte	0x5
 450 0028 696E7400 		.ascii	"int\000"
 451 002c 03       		.uleb128 0x3
 452 002d 12000000 		.4byte	.LASF2
 453 0031 02       		.byte	0x2
 454 0032 D4       		.byte	0xd4
 455 0033 37000000 		.4byte	0x37
 456 0037 04       		.uleb128 0x4
 457 0038 04       		.byte	0x4
 458 0039 07       		.byte	0x7
 459 003a CC010000 		.4byte	.LASF0
 460 003e 04       		.uleb128 0x4
 461 003f 01       		.byte	0x1
 462 0040 06       		.byte	0x6
 463 0041 E8000000 		.4byte	.LASF1
 464 0045 03       		.uleb128 0x3
 465 0046 32000000 		.4byte	.LASF3
 466 004a 03       		.byte	0x3
 467 004b 1D       		.byte	0x1d
 468 004c 50000000 		.4byte	0x50
 469 0050 04       		.uleb128 0x4
 470 0051 01       		.byte	0x1
 471 0052 08       		.byte	0x8
 472 0053 01050000 		.4byte	.LASF4
 473 0057 04       		.uleb128 0x4
 474 0058 02       		.byte	0x2
 475 0059 05       		.byte	0x5
 476 005a 26050000 		.4byte	.LASF5
 477 005e 03       		.uleb128 0x3
 478 005f E3050000 		.4byte	.LASF6
 479 0063 03       		.byte	0x3
 480 0064 2B       		.byte	0x2b
 481 0065 69000000 		.4byte	0x69
 482 0069 04       		.uleb128 0x4
 483 006a 02       		.byte	0x2
 484 006b 07       		.byte	0x7
 485 006c 5E010000 		.4byte	.LASF7
 486 0070 03       		.uleb128 0x3
 487 0071 AB020000 		.4byte	.LASF8
 488 0075 03       		.byte	0x3
 489 0076 3F       		.byte	0x3f
 490 0077 7B000000 		.4byte	0x7b
 491 007b 04       		.uleb128 0x4
 492 007c 04       		.byte	0x4
 493 007d 05       		.byte	0x5
 494 007e 24010000 		.4byte	.LASF9
 495 0082 03       		.uleb128 0x3
 496 0083 32060000 		.4byte	.LASF10
ARM GAS  /tmp/ccbr6Prn.s 			page 10


 497 0087 03       		.byte	0x3
 498 0088 41       		.byte	0x41
 499 0089 8D000000 		.4byte	0x8d
 500 008d 04       		.uleb128 0x4
 501 008e 04       		.byte	0x4
 502 008f 07       		.byte	0x7
 503 0090 CC050000 		.4byte	.LASF11
 504 0094 04       		.uleb128 0x4
 505 0095 08       		.byte	0x8
 506 0096 05       		.byte	0x5
 507 0097 A4010000 		.4byte	.LASF12
 508 009b 03       		.uleb128 0x3
 509 009c 87040000 		.4byte	.LASF13
 510 00a0 03       		.byte	0x3
 511 00a1 5B       		.byte	0x5b
 512 00a2 A6000000 		.4byte	0xa6
 513 00a6 04       		.uleb128 0x4
 514 00a7 08       		.byte	0x8
 515 00a8 07       		.byte	0x7
 516 00a9 68000000 		.4byte	.LASF14
 517 00ad 03       		.uleb128 0x3
 518 00ae 1B070000 		.4byte	.LASF15
 519 00b2 04       		.byte	0x4
 520 00b3 15       		.byte	0x15
 521 00b4 45000000 		.4byte	0x45
 522 00b8 03       		.uleb128 0x3
 523 00b9 88020000 		.4byte	.LASF16
 524 00bd 04       		.byte	0x4
 525 00be 21       		.byte	0x21
 526 00bf 5E000000 		.4byte	0x5e
 527 00c3 03       		.uleb128 0x3
 528 00c4 F9040000 		.4byte	.LASF17
 529 00c8 04       		.byte	0x4
 530 00c9 2C       		.byte	0x2c
 531 00ca 70000000 		.4byte	0x70
 532 00ce 03       		.uleb128 0x3
 533 00cf 89050000 		.4byte	.LASF18
 534 00d3 04       		.byte	0x4
 535 00d4 2D       		.byte	0x2d
 536 00d5 82000000 		.4byte	0x82
 537 00d9 03       		.uleb128 0x3
 538 00da 20000000 		.4byte	.LASF19
 539 00de 04       		.byte	0x4
 540 00df 39       		.byte	0x39
 541 00e0 9B000000 		.4byte	0x9b
 542 00e4 05       		.uleb128 0x5
 543 00e5 C3000000 		.4byte	0xc3
 544 00e9 05       		.uleb128 0x5
 545 00ea CE000000 		.4byte	0xce
 546 00ee 03       		.uleb128 0x3
 547 00ef AE060000 		.4byte	.LASF20
 548 00f3 05       		.byte	0x5
 549 00f4 45       		.byte	0x45
 550 00f5 CE000000 		.4byte	0xce
 551 00f9 03       		.uleb128 0x3
 552 00fa 36070000 		.4byte	.LASF21
 553 00fe 05       		.byte	0x5
ARM GAS  /tmp/ccbr6Prn.s 			page 11


 554 00ff 48       		.byte	0x48
 555 0100 AD000000 		.4byte	0xad
 556 0104 03       		.uleb128 0x3
 557 0105 3F010000 		.4byte	.LASF22
 558 0109 05       		.byte	0x5
 559 010a 49       		.byte	0x49
 560 010b AD000000 		.4byte	0xad
 561 010f 03       		.uleb128 0x3
 562 0110 AA040000 		.4byte	.LASF23
 563 0114 05       		.byte	0x5
 564 0115 4A       		.byte	0x4a
 565 0116 AD000000 		.4byte	0xad
 566 011a 03       		.uleb128 0x3
 567 011b D5040000 		.4byte	.LASF24
 568 011f 05       		.byte	0x5
 569 0120 4C       		.byte	0x4c
 570 0121 CE000000 		.4byte	0xce
 571 0125 03       		.uleb128 0x3
 572 0126 4D020000 		.4byte	.LASF25
 573 012a 05       		.byte	0x5
 574 012b 4D       		.byte	0x4d
 575 012c C3000000 		.4byte	0xc3
 576 0130 03       		.uleb128 0x3
 577 0131 9F020000 		.4byte	.LASF26
 578 0135 05       		.byte	0x5
 579 0136 4F       		.byte	0x4f
 580 0137 CE000000 		.4byte	0xce
 581 013b 03       		.uleb128 0x3
 582 013c 14060000 		.4byte	.LASF27
 583 0140 06       		.byte	0x6
 584 0141 33       		.byte	0x33
 585 0142 CE000000 		.4byte	0xce
 586 0146 03       		.uleb128 0x3
 587 0147 FF050000 		.4byte	.LASF28
 588 014b 06       		.byte	0x6
 589 014c 3F       		.byte	0x3f
 590 014d 51010000 		.4byte	0x151
 591 0151 06       		.uleb128 0x6
 592 0152 21020000 		.4byte	.LASF47
 593 0156 44       		.byte	0x44
 594 0157 07       		.byte	0x7
 595 0158 BE       		.byte	0xbe
 596 0159 3E020000 		.4byte	0x23e
 597 015d 07       		.uleb128 0x7
 598 015e 1C040000 		.4byte	.LASF29
 599 0162 07       		.byte	0x7
 600 0163 BF       		.byte	0xbf
 601 0164 E8070000 		.4byte	0x7e8
 602 0168 00       		.byte	0
 603 0169 07       		.uleb128 0x7
 604 016a CE040000 		.4byte	.LASF30
 605 016e 07       		.byte	0x7
 606 016f C1       		.byte	0xc1
 607 0170 E8070000 		.4byte	0x7e8
 608 0174 04       		.byte	0x4
 609 0175 07       		.uleb128 0x7
 610 0176 BE000000 		.4byte	.LASF31
ARM GAS  /tmp/ccbr6Prn.s 			page 12


 611 017a 07       		.byte	0x7
 612 017b C3       		.byte	0xc3
 613 017c 1A010000 		.4byte	0x11a
 614 0180 08       		.byte	0x8
 615 0181 07       		.uleb128 0x7
 616 0182 5A070000 		.4byte	.LASF32
 617 0186 07       		.byte	0x7
 618 0187 C4       		.byte	0xc4
 619 0188 46050000 		.4byte	0x546
 620 018c 0C       		.byte	0xc
 621 018d 07       		.uleb128 0x7
 622 018e 48010000 		.4byte	.LASF33
 623 0192 07       		.byte	0x7
 624 0193 C6       		.byte	0xc6
 625 0194 E8070000 		.4byte	0x7e8
 626 0198 10       		.byte	0x10
 627 0199 07       		.uleb128 0x7
 628 019a 42040000 		.4byte	.LASF34
 629 019e 07       		.byte	0x7
 630 019f C7       		.byte	0xc7
 631 01a0 E8070000 		.4byte	0x7e8
 632 01a4 14       		.byte	0x14
 633 01a5 07       		.uleb128 0x7
 634 01a6 2A070000 		.4byte	.LASF35
 635 01aa 07       		.byte	0x7
 636 01ab CE       		.byte	0xce
 637 01ac 26080000 		.4byte	0x826
 638 01b0 18       		.byte	0x18
 639 01b1 07       		.uleb128 0x7
 640 01b2 30050000 		.4byte	.LASF36
 641 01b6 07       		.byte	0x7
 642 01b7 D9       		.byte	0xd9
 643 01b8 04010000 		.4byte	0x104
 644 01bc 1C       		.byte	0x1c
 645 01bd 07       		.uleb128 0x7
 646 01be 46050000 		.4byte	.LASF37
 647 01c2 07       		.byte	0x7
 648 01c3 DD       		.byte	0xdd
 649 01c4 F9000000 		.4byte	0xf9
 650 01c8 1D       		.byte	0x1d
 651 01c9 07       		.uleb128 0x7
 652 01ca DB060000 		.4byte	.LASF38
 653 01ce 07       		.byte	0x7
 654 01cf E2       		.byte	0xe2
 655 01d0 0F010000 		.4byte	0x10f
 656 01d4 1E       		.byte	0x1e
 657 01d5 08       		.uleb128 0x8
 658 01d6 705F7500 		.ascii	"p_u\000"
 659 01da 07       		.byte	0x7
 660 01db 1401     		.2byte	0x114
 661 01dd EE070000 		.4byte	0x7ee
 662 01e1 20       		.byte	0x20
 663 01e2 09       		.uleb128 0x9
 664 01e3 E8030000 		.4byte	.LASF39
 665 01e7 07       		.byte	0x7
 666 01e8 1901     		.2byte	0x119
 667 01ea 3E020000 		.4byte	0x23e
ARM GAS  /tmp/ccbr6Prn.s 			page 13


 668 01ee 24       		.byte	0x24
 669 01ef 09       		.uleb128 0x9
 670 01f0 0A020000 		.4byte	.LASF40
 671 01f4 07       		.byte	0x7
 672 01f5 1F01     		.2byte	0x11f
 673 01f7 62020000 		.4byte	0x262
 674 01fb 28       		.byte	0x28
 675 01fc 09       		.uleb128 0x9
 676 01fd 44070000 		.4byte	.LASF41
 677 0201 07       		.byte	0x7
 678 0202 2301     		.2byte	0x123
 679 0204 25010000 		.4byte	0x125
 680 0208 30       		.byte	0x30
 681 0209 09       		.uleb128 0x9
 682 020a 75050000 		.4byte	.LASF42
 683 020e 07       		.byte	0x7
 684 020f 2901     		.2byte	0x129
 685 0211 30010000 		.4byte	0x130
 686 0215 34       		.byte	0x34
 687 0216 09       		.uleb128 0x9
 688 0217 1C050000 		.4byte	.LASF43
 689 021b 07       		.byte	0x7
 690 021c 3001     		.2byte	0x130
 691 021e 69080000 		.4byte	0x869
 692 0222 38       		.byte	0x38
 693 0223 09       		.uleb128 0x9
 694 0224 1E060000 		.4byte	.LASF44
 695 0228 07       		.byte	0x7
 696 0229 3401     		.2byte	0x134
 697 022b 1A010000 		.4byte	0x11a
 698 022f 3C       		.byte	0x3c
 699 0230 09       		.uleb128 0x9
 700 0231 45020000 		.4byte	.LASF45
 701 0235 07       		.byte	0x7
 702 0236 3A01     		.2byte	0x13a
 703 0238 15030000 		.4byte	0x315
 704 023c 40       		.byte	0x40
 705 023d 00       		.byte	0
 706 023e 03       		.uleb128 0x3
 707 023f C0020000 		.4byte	.LASF46
 708 0243 06       		.byte	0x6
 709 0244 44       		.byte	0x44
 710 0245 49020000 		.4byte	0x249
 711 0249 06       		.uleb128 0x6
 712 024a 9A050000 		.4byte	.LASF48
 713 024e 04       		.byte	0x4
 714 024f 07       		.byte	0x7
 715 0250 AC       		.byte	0xac
 716 0251 62020000 		.4byte	0x262
 717 0255 07       		.uleb128 0x7
 718 0256 1C040000 		.4byte	.LASF29
 719 025a 07       		.byte	0x7
 720 025b AD       		.byte	0xad
 721 025c E8070000 		.4byte	0x7e8
 722 0260 00       		.byte	0
 723 0261 00       		.byte	0
 724 0262 03       		.uleb128 0x3
ARM GAS  /tmp/ccbr6Prn.s 			page 14


 725 0263 CB060000 		.4byte	.LASF49
 726 0267 06       		.byte	0x6
 727 0268 4B       		.byte	0x4b
 728 0269 6D020000 		.4byte	0x26d
 729 026d 06       		.uleb128 0x6
 730 026e 48000000 		.4byte	.LASF50
 731 0272 08       		.byte	0x8
 732 0273 07       		.byte	0x7
 733 0274 B3       		.byte	0xb3
 734 0275 92020000 		.4byte	0x292
 735 0279 07       		.uleb128 0x7
 736 027a 1C040000 		.4byte	.LASF29
 737 027e 07       		.byte	0x7
 738 027f B4       		.byte	0xb4
 739 0280 E8070000 		.4byte	0x7e8
 740 0284 00       		.byte	0
 741 0285 07       		.uleb128 0x7
 742 0286 CE040000 		.4byte	.LASF30
 743 028a 07       		.byte	0x7
 744 028b B5       		.byte	0xb5
 745 028c E8070000 		.4byte	0x7e8
 746 0290 04       		.byte	0x4
 747 0291 00       		.byte	0
 748 0292 03       		.uleb128 0x3
 749 0293 00000000 		.4byte	.LASF51
 750 0297 06       		.byte	0x6
 751 0298 52       		.byte	0x52
 752 0299 9D020000 		.4byte	0x29d
 753 029d 0A       		.uleb128 0xa
 754 029e 91020000 		.4byte	.LASF52
 755 02a2 1C       		.byte	0x1c
 756 02a3 07       		.byte	0x7
 757 02a4 7201     		.2byte	0x172
 758 02a6 F9020000 		.4byte	0x2f9
 759 02aa 09       		.uleb128 0x9
 760 02ab 92050000 		.4byte	.LASF53
 761 02af 07       		.byte	0x7
 762 02b0 7301     		.2byte	0x173
 763 02b2 62020000 		.4byte	0x262
 764 02b6 00       		.byte	0
 765 02b7 09       		.uleb128 0x9
 766 02b8 38050000 		.4byte	.LASF54
 767 02bc 07       		.byte	0x7
 768 02bd 7401     		.2byte	0x174
 769 02bf 1A010000 		.4byte	0x11a
 770 02c3 08       		.byte	0x8
 771 02c4 09       		.uleb128 0x9
 772 02c5 4A040000 		.4byte	.LASF55
 773 02c9 07       		.byte	0x7
 774 02ca 7601     		.2byte	0x176
 775 02cc 46050000 		.4byte	0x546
 776 02d0 0C       		.byte	0xc
 777 02d1 09       		.uleb128 0x9
 778 02d2 7A010000 		.4byte	.LASF56
 779 02d6 07       		.byte	0x7
 780 02d7 7901     		.2byte	0x179
 781 02d9 E8070000 		.4byte	0x7e8
ARM GAS  /tmp/ccbr6Prn.s 			page 15


 782 02dd 10       		.byte	0x10
 783 02de 09       		.uleb128 0x9
 784 02df 68060000 		.4byte	.LASF57
 785 02e3 07       		.byte	0x7
 786 02e4 7A01     		.2byte	0x17a
 787 02e6 E8070000 		.4byte	0x7e8
 788 02ea 14       		.byte	0x14
 789 02eb 09       		.uleb128 0x9
 790 02ec 69040000 		.4byte	.LASF58
 791 02f0 07       		.byte	0x7
 792 02f1 7D01     		.2byte	0x17d
 793 02f3 E8070000 		.4byte	0x7e8
 794 02f7 18       		.byte	0x18
 795 02f8 00       		.byte	0
 796 02f9 03       		.uleb128 0x3
 797 02fa 29060000 		.4byte	.LASF59
 798 02fe 06       		.byte	0x6
 799 02ff 57       		.byte	0x57
 800 0300 04030000 		.4byte	0x304
 801 0304 0B       		.uleb128 0xb
 802 0305 04       		.byte	0x4
 803 0306 0A030000 		.4byte	0x30a
 804 030a 0C       		.uleb128 0xc
 805 030b 15030000 		.4byte	0x315
 806 030f 0D       		.uleb128 0xd
 807 0310 15030000 		.4byte	0x315
 808 0314 00       		.byte	0
 809 0315 0E       		.uleb128 0xe
 810 0316 04       		.byte	0x4
 811 0317 03       		.uleb128 0x3
 812 0318 BE040000 		.4byte	.LASF60
 813 031c 06       		.byte	0x6
 814 031d 5C       		.byte	0x5c
 815 031e 22030000 		.4byte	0x322
 816 0322 0A       		.uleb128 0xa
 817 0323 5F050000 		.4byte	.LASF61
 818 0327 14       		.byte	0x14
 819 0328 07       		.byte	0x7
 820 0329 4D01     		.2byte	0x14d
 821 032b 71030000 		.4byte	0x371
 822 032f 09       		.uleb128 0x9
 823 0330 D9010000 		.4byte	.LASF62
 824 0334 07       		.byte	0x7
 825 0335 4E01     		.2byte	0x14e
 826 0337 6F080000 		.4byte	0x86f
 827 033b 00       		.byte	0
 828 033c 09       		.uleb128 0x9
 829 033d 95010000 		.4byte	.LASF63
 830 0341 07       		.byte	0x7
 831 0342 4F01     		.2byte	0x14f
 832 0344 6F080000 		.4byte	0x86f
 833 0348 04       		.byte	0x4
 834 0349 09       		.uleb128 0x9
 835 034a 01020000 		.4byte	.LASF64
 836 034e 07       		.byte	0x7
 837 034f 5001     		.2byte	0x150
 838 0351 3B010000 		.4byte	0x13b
ARM GAS  /tmp/ccbr6Prn.s 			page 16


 839 0355 08       		.byte	0x8
 840 0356 09       		.uleb128 0x9
 841 0357 60070000 		.4byte	.LASF65
 842 035b 07       		.byte	0x7
 843 035c 5101     		.2byte	0x151
 844 035e F9020000 		.4byte	0x2f9
 845 0362 0C       		.byte	0xc
 846 0363 09       		.uleb128 0x9
 847 0364 C4060000 		.4byte	.LASF66
 848 0368 07       		.byte	0x7
 849 0369 5301     		.2byte	0x153
 850 036b 15030000 		.4byte	0x315
 851 036f 10       		.byte	0x10
 852 0370 00       		.byte	0
 853 0371 03       		.uleb128 0x3
 854 0372 93000000 		.4byte	.LASF67
 855 0376 06       		.byte	0x6
 856 0377 61       		.byte	0x61
 857 0378 7C030000 		.4byte	0x37c
 858 037c 0A       		.uleb128 0xa
 859 037d FB030000 		.4byte	.LASF68
 860 0381 10       		.byte	0x10
 861 0382 07       		.byte	0x7
 862 0383 5D01     		.2byte	0x15d
 863 0385 BE030000 		.4byte	0x3be
 864 0389 09       		.uleb128 0x9
 865 038a D9010000 		.4byte	.LASF62
 866 038e 07       		.byte	0x7
 867 038f 5E01     		.2byte	0x15e
 868 0391 6F080000 		.4byte	0x86f
 869 0395 00       		.byte	0
 870 0396 09       		.uleb128 0x9
 871 0397 95010000 		.4byte	.LASF63
 872 039b 07       		.byte	0x7
 873 039c 6001     		.2byte	0x160
 874 039e 6F080000 		.4byte	0x86f
 875 03a2 04       		.byte	0x4
 876 03a3 09       		.uleb128 0x9
 877 03a4 01020000 		.4byte	.LASF64
 878 03a8 07       		.byte	0x7
 879 03a9 6201     		.2byte	0x162
 880 03ab 3B010000 		.4byte	0x13b
 881 03af 08       		.byte	0x8
 882 03b0 09       		.uleb128 0x9
 883 03b1 36040000 		.4byte	.LASF69
 884 03b5 07       		.byte	0x7
 885 03b6 6A01     		.2byte	0x16a
 886 03b8 3B010000 		.4byte	0x13b
 887 03bc 0C       		.byte	0xc
 888 03bd 00       		.byte	0
 889 03be 03       		.uleb128 0x3
 890 03bf 59000000 		.4byte	.LASF70
 891 03c3 06       		.byte	0x6
 892 03c4 66       		.byte	0x66
 893 03c5 C9030000 		.4byte	0x3c9
 894 03c9 0A       		.uleb128 0xa
 895 03ca E3040000 		.4byte	.LASF71
ARM GAS  /tmp/ccbr6Prn.s 			page 17


 896 03ce 04       		.byte	0x4
 897 03cf 07       		.byte	0x7
 898 03d0 8401     		.2byte	0x184
 899 03d2 E4030000 		.4byte	0x3e4
 900 03d6 09       		.uleb128 0x9
 901 03d7 3D060000 		.4byte	.LASF72
 902 03db 07       		.byte	0x7
 903 03dc 8C01     		.2byte	0x18c
 904 03de 75080000 		.4byte	0x875
 905 03e2 00       		.byte	0
 906 03e3 00       		.byte	0
 907 03e4 03       		.uleb128 0x3
 908 03e5 70060000 		.4byte	.LASF73
 909 03e9 06       		.byte	0x6
 910 03ea 6B       		.byte	0x6b
 911 03eb EF030000 		.4byte	0x3ef
 912 03ef 0F       		.uleb128 0xf
 913 03f0 1A010000 		.4byte	.LASF74
 914 03f4 D801     		.2byte	0x1d8
 915 03f6 07       		.byte	0x7
 916 03f7 A401     		.2byte	0x1a4
 917 03f9 4B040000 		.4byte	0x44b
 918 03fd 09       		.uleb128 0x9
 919 03fe 09070000 		.4byte	.LASF75
 920 0402 07       		.byte	0x7
 921 0403 A801     		.2byte	0x1a8
 922 0405 92020000 		.4byte	0x292
 923 0409 00       		.byte	0
 924 040a 09       		.uleb128 0x9
 925 040b 9D010000 		.4byte	.LASF76
 926 040f 07       		.byte	0x7
 927 0410 AC01     		.2byte	0x1ac
 928 0412 71030000 		.4byte	0x371
 929 0416 1C       		.byte	0x1c
 930 0417 08       		.uleb128 0x8
 931 0418 64626700 		.ascii	"dbg\000"
 932 041c 07       		.byte	0x7
 933 041d B001     		.2byte	0x1b0
 934 041f BE030000 		.4byte	0x3be
 935 0423 2C       		.byte	0x2c
 936 0424 09       		.uleb128 0x9
 937 0425 88000000 		.4byte	.LASF77
 938 0429 07       		.byte	0x7
 939 042a B401     		.2byte	0x1b4
 940 042c 46010000 		.4byte	0x146
 941 0430 30       		.byte	0x30
 942 0431 08       		.uleb128 0x8
 943 0432 746D00   		.ascii	"tm\000"
 944 0435 07       		.byte	0x7
 945 0436 B901     		.2byte	0x1b9
 946 0438 DD070000 		.4byte	0x7dd
 947 043c 74       		.byte	0x74
 948 043d 09       		.uleb128 0x9
 949 043e B2010000 		.4byte	.LASF78
 950 0442 07       		.byte	0x7
 951 0443 C501     		.2byte	0x1c5
 952 0445 7A080000 		.4byte	0x87a
ARM GAS  /tmp/ccbr6Prn.s 			page 18


 953 0449 78       		.byte	0x78
 954 044a 00       		.byte	0
 955 044b 04       		.uleb128 0x4
 956 044c 04       		.byte	0x4
 957 044d 07       		.byte	0x7
 958 044e F2030000 		.4byte	.LASF79
 959 0452 10       		.uleb128 0x10
 960 0453 CE000000 		.4byte	0xce
 961 0457 62040000 		.4byte	0x462
 962 045b 11       		.uleb128 0x11
 963 045c 4B040000 		.4byte	0x44b
 964 0460 01       		.byte	0x1
 965 0461 00       		.byte	0
 966 0462 10       		.uleb128 0x10
 967 0463 CE000000 		.4byte	0xce
 968 0467 72040000 		.4byte	0x472
 969 046b 11       		.uleb128 0x11
 970 046c 4B040000 		.4byte	0x44b
 971 0470 03       		.byte	0x3
 972 0471 00       		.byte	0
 973 0472 12       		.uleb128 0x12
 974 0473 34       		.byte	0x34
 975 0474 08       		.byte	0x8
 976 0475 FC01     		.2byte	0x1fc
 977 0477 24050000 		.4byte	0x524
 978 047b 08       		.uleb128 0x8
 979 047c 435200   		.ascii	"CR\000"
 980 047f 08       		.byte	0x8
 981 0480 FE01     		.2byte	0x1fe
 982 0482 E9000000 		.4byte	0xe9
 983 0486 00       		.byte	0
 984 0487 09       		.uleb128 0x9
 985 0488 31070000 		.4byte	.LASF80
 986 048c 08       		.byte	0x8
 987 048d FF01     		.2byte	0x1ff
 988 048f E9000000 		.4byte	0xe9
 989 0493 04       		.byte	0x4
 990 0494 08       		.uleb128 0x8
 991 0495 43495200 		.ascii	"CIR\000"
 992 0499 08       		.byte	0x8
 993 049a 0002     		.2byte	0x200
 994 049c E9000000 		.4byte	0xe9
 995 04a0 08       		.byte	0x8
 996 04a1 09       		.uleb128 0x9
 997 04a2 36010000 		.4byte	.LASF81
 998 04a6 08       		.byte	0x8
 999 04a7 0102     		.2byte	0x201
 1000 04a9 E9000000 		.4byte	0xe9
 1001 04ad 0C       		.byte	0xc
 1002 04ae 09       		.uleb128 0x9
 1003 04af FC000000 		.4byte	.LASF82
 1004 04b3 08       		.byte	0x8
 1005 04b4 0202     		.2byte	0x202
 1006 04b6 E9000000 		.4byte	0xe9
 1007 04ba 10       		.byte	0x10
 1008 04bb 09       		.uleb128 0x9
 1009 04bc 68070000 		.4byte	.LASF83
ARM GAS  /tmp/ccbr6Prn.s 			page 19


 1010 04c0 08       		.byte	0x8
 1011 04c1 0302     		.2byte	0x203
 1012 04c3 E9000000 		.4byte	0xe9
 1013 04c7 14       		.byte	0x14
 1014 04c8 09       		.uleb128 0x9
 1015 04c9 57050000 		.4byte	.LASF84
 1016 04cd 08       		.byte	0x8
 1017 04ce 0402     		.2byte	0x204
 1018 04d0 E9000000 		.4byte	0xe9
 1019 04d4 18       		.byte	0x18
 1020 04d5 09       		.uleb128 0x9
 1021 04d6 4E060000 		.4byte	.LASF85
 1022 04da 08       		.byte	0x8
 1023 04db 0502     		.2byte	0x205
 1024 04dd E9000000 		.4byte	0xe9
 1025 04e1 1C       		.byte	0x1c
 1026 04e2 09       		.uleb128 0x9
 1027 04e3 04070000 		.4byte	.LASF86
 1028 04e7 08       		.byte	0x8
 1029 04e8 0602     		.2byte	0x206
 1030 04ea E9000000 		.4byte	0xe9
 1031 04ee 20       		.byte	0x20
 1032 04ef 08       		.uleb128 0x8
 1033 04f0 43535200 		.ascii	"CSR\000"
 1034 04f4 08       		.byte	0x8
 1035 04f5 0702     		.2byte	0x207
 1036 04f7 E9000000 		.4byte	0xe9
 1037 04fb 24       		.byte	0x24
 1038 04fc 09       		.uleb128 0x9
 1039 04fd 61040000 		.4byte	.LASF87
 1040 0501 08       		.byte	0x8
 1041 0502 0802     		.2byte	0x208
 1042 0504 E9000000 		.4byte	0xe9
 1043 0508 28       		.byte	0x28
 1044 0509 09       		.uleb128 0x9
 1045 050a 0F070000 		.4byte	.LASF88
 1046 050e 08       		.byte	0x8
 1047 050f 0902     		.2byte	0x209
 1048 0511 E9000000 		.4byte	0xe9
 1049 0515 2C       		.byte	0x2c
 1050 0516 09       		.uleb128 0x9
 1051 0517 15070000 		.4byte	.LASF89
 1052 051b 08       		.byte	0x8
 1053 051c 0A02     		.2byte	0x20a
 1054 051e E9000000 		.4byte	0xe9
 1055 0522 30       		.byte	0x30
 1056 0523 00       		.byte	0
 1057 0524 13       		.uleb128 0x13
 1058 0525 15020000 		.4byte	.LASF90
 1059 0529 08       		.byte	0x8
 1060 052a 0B02     		.2byte	0x20b
 1061 052c 72040000 		.4byte	0x472
 1062 0530 03       		.uleb128 0x3
 1063 0531 8C010000 		.4byte	.LASF91
 1064 0535 09       		.byte	0x9
 1065 0536 85       		.byte	0x85
 1066 0537 15030000 		.4byte	0x315
ARM GAS  /tmp/ccbr6Prn.s 			page 20


 1067 053b 03       		.uleb128 0x3
 1068 053c B5020000 		.4byte	.LASF92
 1069 0540 09       		.byte	0x9
 1070 0541 8D       		.byte	0x8d
 1071 0542 D9000000 		.4byte	0xd9
 1072 0546 06       		.uleb128 0x6
 1073 0547 60060000 		.4byte	.LASF93
 1074 054b 04       		.byte	0x4
 1075 054c 09       		.byte	0x9
 1076 054d A9       		.byte	0xa9
 1077 054e 5F050000 		.4byte	0x55f
 1078 0552 14       		.uleb128 0x14
 1079 0553 72313300 		.ascii	"r13\000"
 1080 0557 09       		.byte	0x9
 1081 0558 AA       		.byte	0xaa
 1082 0559 A0060000 		.4byte	0x6a0
 1083 055d 00       		.byte	0
 1084 055e 00       		.byte	0
 1085 055f 06       		.uleb128 0x6
 1086 0560 B2040000 		.4byte	.LASF94
 1087 0564 64       		.byte	0x64
 1088 0565 0A       		.byte	0xa
 1089 0566 F4       		.byte	0xf4
 1090 0567 A0060000 		.4byte	0x6a0
 1091 056b 14       		.uleb128 0x14
 1092 056c 73313600 		.ascii	"s16\000"
 1093 0570 0A       		.byte	0xa
 1094 0571 F6       		.byte	0xf6
 1095 0572 30050000 		.4byte	0x530
 1096 0576 00       		.byte	0
 1097 0577 14       		.uleb128 0x14
 1098 0578 73313700 		.ascii	"s17\000"
 1099 057c 0A       		.byte	0xa
 1100 057d F7       		.byte	0xf7
 1101 057e 30050000 		.4byte	0x530
 1102 0582 04       		.byte	0x4
 1103 0583 14       		.uleb128 0x14
 1104 0584 73313800 		.ascii	"s18\000"
 1105 0588 0A       		.byte	0xa
 1106 0589 F8       		.byte	0xf8
 1107 058a 30050000 		.4byte	0x530
 1108 058e 08       		.byte	0x8
 1109 058f 14       		.uleb128 0x14
 1110 0590 73313900 		.ascii	"s19\000"
 1111 0594 0A       		.byte	0xa
 1112 0595 F9       		.byte	0xf9
 1113 0596 30050000 		.4byte	0x530
 1114 059a 0C       		.byte	0xc
 1115 059b 14       		.uleb128 0x14
 1116 059c 73323000 		.ascii	"s20\000"
 1117 05a0 0A       		.byte	0xa
 1118 05a1 FA       		.byte	0xfa
 1119 05a2 30050000 		.4byte	0x530
 1120 05a6 10       		.byte	0x10
 1121 05a7 14       		.uleb128 0x14
 1122 05a8 73323100 		.ascii	"s21\000"
 1123 05ac 0A       		.byte	0xa
ARM GAS  /tmp/ccbr6Prn.s 			page 21


 1124 05ad FB       		.byte	0xfb
 1125 05ae 30050000 		.4byte	0x530
 1126 05b2 14       		.byte	0x14
 1127 05b3 14       		.uleb128 0x14
 1128 05b4 73323200 		.ascii	"s22\000"
 1129 05b8 0A       		.byte	0xa
 1130 05b9 FC       		.byte	0xfc
 1131 05ba 30050000 		.4byte	0x530
 1132 05be 18       		.byte	0x18
 1133 05bf 14       		.uleb128 0x14
 1134 05c0 73323300 		.ascii	"s23\000"
 1135 05c4 0A       		.byte	0xa
 1136 05c5 FD       		.byte	0xfd
 1137 05c6 30050000 		.4byte	0x530
 1138 05ca 1C       		.byte	0x1c
 1139 05cb 14       		.uleb128 0x14
 1140 05cc 73323400 		.ascii	"s24\000"
 1141 05d0 0A       		.byte	0xa
 1142 05d1 FE       		.byte	0xfe
 1143 05d2 30050000 		.4byte	0x530
 1144 05d6 20       		.byte	0x20
 1145 05d7 14       		.uleb128 0x14
 1146 05d8 73323500 		.ascii	"s25\000"
 1147 05dc 0A       		.byte	0xa
 1148 05dd FF       		.byte	0xff
 1149 05de 30050000 		.4byte	0x530
 1150 05e2 24       		.byte	0x24
 1151 05e3 08       		.uleb128 0x8
 1152 05e4 73323600 		.ascii	"s26\000"
 1153 05e8 0A       		.byte	0xa
 1154 05e9 0001     		.2byte	0x100
 1155 05eb 30050000 		.4byte	0x530
 1156 05ef 28       		.byte	0x28
 1157 05f0 08       		.uleb128 0x8
 1158 05f1 73323700 		.ascii	"s27\000"
 1159 05f5 0A       		.byte	0xa
 1160 05f6 0101     		.2byte	0x101
 1161 05f8 30050000 		.4byte	0x530
 1162 05fc 2C       		.byte	0x2c
 1163 05fd 08       		.uleb128 0x8
 1164 05fe 73323800 		.ascii	"s28\000"
 1165 0602 0A       		.byte	0xa
 1166 0603 0201     		.2byte	0x102
 1167 0605 30050000 		.4byte	0x530
 1168 0609 30       		.byte	0x30
 1169 060a 08       		.uleb128 0x8
 1170 060b 73323900 		.ascii	"s29\000"
 1171 060f 0A       		.byte	0xa
 1172 0610 0301     		.2byte	0x103
 1173 0612 30050000 		.4byte	0x530
 1174 0616 34       		.byte	0x34
 1175 0617 08       		.uleb128 0x8
 1176 0618 73333000 		.ascii	"s30\000"
 1177 061c 0A       		.byte	0xa
 1178 061d 0401     		.2byte	0x104
 1179 061f 30050000 		.4byte	0x530
 1180 0623 38       		.byte	0x38
ARM GAS  /tmp/ccbr6Prn.s 			page 22


 1181 0624 08       		.uleb128 0x8
 1182 0625 73333100 		.ascii	"s31\000"
 1183 0629 0A       		.byte	0xa
 1184 062a 0501     		.2byte	0x105
 1185 062c 30050000 		.4byte	0x530
 1186 0630 3C       		.byte	0x3c
 1187 0631 08       		.uleb128 0x8
 1188 0632 723400   		.ascii	"r4\000"
 1189 0635 0A       		.byte	0xa
 1190 0636 0701     		.2byte	0x107
 1191 0638 30050000 		.4byte	0x530
 1192 063c 40       		.byte	0x40
 1193 063d 08       		.uleb128 0x8
 1194 063e 723500   		.ascii	"r5\000"
 1195 0641 0A       		.byte	0xa
 1196 0642 0801     		.2byte	0x108
 1197 0644 30050000 		.4byte	0x530
 1198 0648 44       		.byte	0x44
 1199 0649 08       		.uleb128 0x8
 1200 064a 723600   		.ascii	"r6\000"
 1201 064d 0A       		.byte	0xa
 1202 064e 0901     		.2byte	0x109
 1203 0650 30050000 		.4byte	0x530
 1204 0654 48       		.byte	0x48
 1205 0655 08       		.uleb128 0x8
 1206 0656 723700   		.ascii	"r7\000"
 1207 0659 0A       		.byte	0xa
 1208 065a 0A01     		.2byte	0x10a
 1209 065c 30050000 		.4byte	0x530
 1210 0660 4C       		.byte	0x4c
 1211 0661 08       		.uleb128 0x8
 1212 0662 723800   		.ascii	"r8\000"
 1213 0665 0A       		.byte	0xa
 1214 0666 0B01     		.2byte	0x10b
 1215 0668 30050000 		.4byte	0x530
 1216 066c 50       		.byte	0x50
 1217 066d 08       		.uleb128 0x8
 1218 066e 723900   		.ascii	"r9\000"
 1219 0671 0A       		.byte	0xa
 1220 0672 0C01     		.2byte	0x10c
 1221 0674 30050000 		.4byte	0x530
 1222 0678 54       		.byte	0x54
 1223 0679 08       		.uleb128 0x8
 1224 067a 72313000 		.ascii	"r10\000"
 1225 067e 0A       		.byte	0xa
 1226 067f 0D01     		.2byte	0x10d
 1227 0681 30050000 		.4byte	0x530
 1228 0685 58       		.byte	0x58
 1229 0686 08       		.uleb128 0x8
 1230 0687 72313100 		.ascii	"r11\000"
 1231 068b 0A       		.byte	0xa
 1232 068c 0E01     		.2byte	0x10e
 1233 068e 30050000 		.4byte	0x530
 1234 0692 5C       		.byte	0x5c
 1235 0693 08       		.uleb128 0x8
 1236 0694 6C7200   		.ascii	"lr\000"
 1237 0697 0A       		.byte	0xa
ARM GAS  /tmp/ccbr6Prn.s 			page 23


 1238 0698 0F01     		.2byte	0x10f
 1239 069a 30050000 		.4byte	0x530
 1240 069e 60       		.byte	0x60
 1241 069f 00       		.byte	0
 1242 06a0 0B       		.uleb128 0xb
 1243 06a1 04       		.byte	0x4
 1244 06a2 5F050000 		.4byte	0x55f
 1245 06a6 12       		.uleb128 0x12
 1246 06a7 60       		.byte	0x60
 1247 06a8 0B       		.byte	0xb
 1248 06a9 9E01     		.2byte	0x19e
 1249 06ab B2070000 		.4byte	0x7b2
 1250 06af 08       		.uleb128 0x8
 1251 06b0 43523100 		.ascii	"CR1\000"
 1252 06b4 0B       		.byte	0xb
 1253 06b5 9F01     		.2byte	0x19f
 1254 06b7 E9000000 		.4byte	0xe9
 1255 06bb 00       		.byte	0
 1256 06bc 08       		.uleb128 0x8
 1257 06bd 43523200 		.ascii	"CR2\000"
 1258 06c1 0B       		.byte	0xb
 1259 06c2 A001     		.2byte	0x1a0
 1260 06c4 E9000000 		.4byte	0xe9
 1261 06c8 04       		.byte	0x4
 1262 06c9 09       		.uleb128 0x9
 1263 06ca EE050000 		.4byte	.LASF95
 1264 06ce 0B       		.byte	0xb
 1265 06cf A101     		.2byte	0x1a1
 1266 06d1 E9000000 		.4byte	0xe9
 1267 06d5 08       		.byte	0x8
 1268 06d6 09       		.uleb128 0x9
 1269 06d7 0D000000 		.4byte	.LASF96
 1270 06db 0B       		.byte	0xb
 1271 06dc A201     		.2byte	0x1a2
 1272 06de E9000000 		.4byte	0xe9
 1273 06e2 0C       		.byte	0xc
 1274 06e3 08       		.uleb128 0x8
 1275 06e4 535200   		.ascii	"SR\000"
 1276 06e7 0B       		.byte	0xb
 1277 06e8 A301     		.2byte	0x1a3
 1278 06ea E9000000 		.4byte	0xe9
 1279 06ee 10       		.byte	0x10
 1280 06ef 08       		.uleb128 0x8
 1281 06f0 45475200 		.ascii	"EGR\000"
 1282 06f4 0B       		.byte	0xb
 1283 06f5 A401     		.2byte	0x1a4
 1284 06f7 E9000000 		.4byte	0xe9
 1285 06fb 14       		.byte	0x14
 1286 06fc 09       		.uleb128 0x9
 1287 06fd D6000000 		.4byte	.LASF97
 1288 0701 0B       		.byte	0xb
 1289 0702 A501     		.2byte	0x1a5
 1290 0704 E9000000 		.4byte	0xe9
 1291 0708 18       		.byte	0x18
 1292 0709 09       		.uleb128 0x9
 1293 070a DC000000 		.4byte	.LASF98
 1294 070e 0B       		.byte	0xb
ARM GAS  /tmp/ccbr6Prn.s 			page 24


 1295 070f A601     		.2byte	0x1a6
 1296 0711 E9000000 		.4byte	0xe9
 1297 0715 1C       		.byte	0x1c
 1298 0716 09       		.uleb128 0x9
 1299 0717 08060000 		.4byte	.LASF99
 1300 071b 0B       		.byte	0xb
 1301 071c A701     		.2byte	0x1a7
 1302 071e E9000000 		.4byte	0xe9
 1303 0722 20       		.byte	0x20
 1304 0723 08       		.uleb128 0x8
 1305 0724 434E5400 		.ascii	"CNT\000"
 1306 0728 0B       		.byte	0xb
 1307 0729 A801     		.2byte	0x1a8
 1308 072b E9000000 		.4byte	0xe9
 1309 072f 24       		.byte	0x24
 1310 0730 08       		.uleb128 0x8
 1311 0731 50534300 		.ascii	"PSC\000"
 1312 0735 0B       		.byte	0xb
 1313 0736 A901     		.2byte	0x1a9
 1314 0738 E9000000 		.4byte	0xe9
 1315 073c 28       		.byte	0x28
 1316 073d 08       		.uleb128 0x8
 1317 073e 41525200 		.ascii	"ARR\000"
 1318 0742 0B       		.byte	0xb
 1319 0743 AA01     		.2byte	0x1aa
 1320 0745 E9000000 		.4byte	0xe9
 1321 0749 2C       		.byte	0x2c
 1322 074a 08       		.uleb128 0x8
 1323 074b 52435200 		.ascii	"RCR\000"
 1324 074f 0B       		.byte	0xb
 1325 0750 AB01     		.2byte	0x1ab
 1326 0752 E9000000 		.4byte	0xe9
 1327 0756 30       		.byte	0x30
 1328 0757 08       		.uleb128 0x8
 1329 0758 43435200 		.ascii	"CCR\000"
 1330 075c 0B       		.byte	0xb
 1331 075d AC01     		.2byte	0x1ac
 1332 075f B2070000 		.4byte	0x7b2
 1333 0763 34       		.byte	0x34
 1334 0764 09       		.uleb128 0x9
 1335 0765 AF000000 		.4byte	.LASF100
 1336 0769 0B       		.byte	0xb
 1337 076a AD01     		.2byte	0x1ad
 1338 076c E9000000 		.4byte	0xe9
 1339 0770 44       		.byte	0x44
 1340 0771 08       		.uleb128 0x8
 1341 0772 44435200 		.ascii	"DCR\000"
 1342 0776 0B       		.byte	0xb
 1343 0777 AE01     		.2byte	0x1ae
 1344 0779 E9000000 		.4byte	0xe9
 1345 077d 48       		.byte	0x48
 1346 077e 09       		.uleb128 0x9
 1347 077f FA050000 		.4byte	.LASF101
 1348 0783 0B       		.byte	0xb
 1349 0784 AF01     		.2byte	0x1af
 1350 0786 E9000000 		.4byte	0xe9
 1351 078a 4C       		.byte	0x4c
ARM GAS  /tmp/ccbr6Prn.s 			page 25


 1352 078b 08       		.uleb128 0x8
 1353 078c 4F5200   		.ascii	"OR\000"
 1354 078f 0B       		.byte	0xb
 1355 0790 B001     		.2byte	0x1b0
 1356 0792 E9000000 		.4byte	0xe9
 1357 0796 50       		.byte	0x50
 1358 0797 09       		.uleb128 0x9
 1359 0798 E2000000 		.4byte	.LASF102
 1360 079c 0B       		.byte	0xb
 1361 079d B101     		.2byte	0x1b1
 1362 079f E9000000 		.4byte	0xe9
 1363 07a3 54       		.byte	0x54
 1364 07a4 09       		.uleb128 0x9
 1365 07a5 70050000 		.4byte	.LASF103
 1366 07a9 0B       		.byte	0xb
 1367 07aa B201     		.2byte	0x1b2
 1368 07ac B7070000 		.4byte	0x7b7
 1369 07b0 58       		.byte	0x58
 1370 07b1 00       		.byte	0
 1371 07b2 05       		.uleb128 0x5
 1372 07b3 62040000 		.4byte	0x462
 1373 07b7 05       		.uleb128 0x5
 1374 07b8 52040000 		.4byte	0x452
 1375 07bc 13       		.uleb128 0x13
 1376 07bd 7C020000 		.4byte	.LASF104
 1377 07c1 0B       		.byte	0xb
 1378 07c2 B301     		.2byte	0x1b3
 1379 07c4 A6060000 		.4byte	0x6a6
 1380 07c8 15       		.uleb128 0x15
 1381 07c9 04       		.byte	0x4
 1382 07ca 0C       		.byte	0xc
 1383 07cb 38       		.byte	0x38
 1384 07cc DD070000 		.4byte	0x7dd
 1385 07d0 07       		.uleb128 0x7
 1386 07d1 47060000 		.4byte	.LASF105
 1387 07d5 0C       		.byte	0xc
 1388 07d6 3C       		.byte	0x3c
 1389 07d7 EE000000 		.4byte	0xee
 1390 07db 00       		.byte	0
 1391 07dc 00       		.byte	0
 1392 07dd 03       		.uleb128 0x3
 1393 07de 50040000 		.4byte	.LASF106
 1394 07e2 0C       		.byte	0xc
 1395 07e3 3D       		.byte	0x3d
 1396 07e4 C8070000 		.4byte	0x7c8
 1397 07e8 0B       		.uleb128 0xb
 1398 07e9 04       		.byte	0x4
 1399 07ea 46010000 		.4byte	0x146
 1400 07ee 16       		.uleb128 0x16
 1401 07ef 04       		.byte	0x4
 1402 07f0 07       		.byte	0x7
 1403 07f1 F6       		.byte	0xf6
 1404 07f2 26080000 		.4byte	0x826
 1405 07f6 17       		.uleb128 0x17
 1406 07f7 19000000 		.4byte	.LASF107
 1407 07fb 07       		.byte	0x7
 1408 07fc FD       		.byte	0xfd
ARM GAS  /tmp/ccbr6Prn.s 			page 26


 1409 07fd 25010000 		.4byte	0x125
 1410 0801 18       		.uleb128 0x18
 1411 0802 7F000000 		.4byte	.LASF108
 1412 0806 07       		.byte	0x7
 1413 0807 0401     		.2byte	0x104
 1414 0809 25010000 		.4byte	0x125
 1415 080d 18       		.uleb128 0x18
 1416 080e 23070000 		.4byte	.LASF109
 1417 0812 07       		.byte	0x7
 1418 0813 0B01     		.2byte	0x10b
 1419 0815 15030000 		.4byte	0x315
 1420 0819 18       		.uleb128 0x18
 1421 081a 3F050000 		.4byte	.LASF110
 1422 081e 07       		.byte	0x7
 1423 081f 1201     		.2byte	0x112
 1424 0821 30010000 		.4byte	0x130
 1425 0825 00       		.byte	0
 1426 0826 0B       		.uleb128 0xb
 1427 0827 04       		.byte	0x4
 1428 0828 2C080000 		.4byte	0x82c
 1429 082c 19       		.uleb128 0x19
 1430 082d 31080000 		.4byte	0x831
 1431 0831 04       		.uleb128 0x4
 1432 0832 01       		.byte	0x1
 1433 0833 08       		.byte	0x8
 1434 0834 DE050000 		.4byte	.LASF111
 1435 0838 06       		.uleb128 0x6
 1436 0839 DD040000 		.4byte	.LASF112
 1437 083d 10       		.byte	0x10
 1438 083e 0D       		.byte	0xd
 1439 083f 39       		.byte	0x39
 1440 0840 69080000 		.4byte	0x869
 1441 0844 07       		.uleb128 0x7
 1442 0845 F4000000 		.4byte	.LASF113
 1443 0849 0D       		.byte	0xd
 1444 084a 3A       		.byte	0x3a
 1445 084b 62020000 		.4byte	0x262
 1446 084f 00       		.byte	0
 1447 0850 07       		.uleb128 0x7
 1448 0851 52070000 		.4byte	.LASF114
 1449 0855 0D       		.byte	0xd
 1450 0856 3C       		.byte	0x3c
 1451 0857 E8070000 		.4byte	0x7e8
 1452 085b 08       		.byte	0x8
 1453 085c 07       		.uleb128 0x7
 1454 085d 0D060000 		.4byte	.LASF115
 1455 0861 0D       		.byte	0xd
 1456 0862 3E       		.byte	0x3e
 1457 0863 95080000 		.4byte	0x895
 1458 0867 0C       		.byte	0xc
 1459 0868 00       		.byte	0
 1460 0869 0B       		.uleb128 0xb
 1461 086a 04       		.byte	0x4
 1462 086b 38080000 		.4byte	0x838
 1463 086f 0B       		.uleb128 0xb
 1464 0870 04       		.byte	0x4
 1465 0871 17030000 		.4byte	0x317
ARM GAS  /tmp/ccbr6Prn.s 			page 27


 1466 0875 05       		.uleb128 0x5
 1467 0876 26080000 		.4byte	0x826
 1468 087a 10       		.uleb128 0x10
 1469 087b 3B050000 		.4byte	0x53b
 1470 087f 8A080000 		.4byte	0x88a
 1471 0883 11       		.uleb128 0x11
 1472 0884 4B040000 		.4byte	0x44b
 1473 0888 2B       		.byte	0x2b
 1474 0889 00       		.byte	0
 1475 088a 03       		.uleb128 0x3
 1476 088b 4A070000 		.4byte	.LASF116
 1477 088f 0D       		.byte	0xd
 1478 0890 34       		.byte	0x34
 1479 0891 38080000 		.4byte	0x838
 1480 0895 0B       		.uleb128 0xb
 1481 0896 04       		.byte	0x4
 1482 0897 8A080000 		.4byte	0x88a
 1483 089b 04       		.uleb128 0x4
 1484 089c 01       		.byte	0x1
 1485 089d 02       		.byte	0x2
 1486 089e F3040000 		.4byte	.LASF117
 1487 08a2 1A       		.uleb128 0x1a
 1488 08a3 01       		.byte	0x1
 1489 08a4 0E       		.byte	0xe
 1490 08a5 34       		.byte	0x34
 1491 08a6 C9080000 		.4byte	0x8c9
 1492 08aa 1B       		.uleb128 0x1b
 1493 08ab 30020000 		.4byte	.LASF118
 1494 08af 00       		.sleb128 0
 1495 08b0 1B       		.uleb128 0x1b
 1496 08b1 80050000 		.4byte	.LASF119
 1497 08b5 01       		.sleb128 1
 1498 08b6 1B       		.uleb128 0x1b
 1499 08b7 12040000 		.4byte	.LASF120
 1500 08bb 02       		.sleb128 2
 1501 08bc 1B       		.uleb128 0x1b
 1502 08bd 05010000 		.4byte	.LASF121
 1503 08c1 03       		.sleb128 3
 1504 08c2 1B       		.uleb128 0x1b
 1505 08c3 3C000000 		.4byte	.LASF122
 1506 08c7 04       		.sleb128 4
 1507 08c8 00       		.byte	0
 1508 08c9 03       		.uleb128 0x3
 1509 08ca C1010000 		.4byte	.LASF123
 1510 08ce 0E       		.byte	0xe
 1511 08cf 3A       		.byte	0x3a
 1512 08d0 A2080000 		.4byte	0x8a2
 1513 08d4 03       		.uleb128 0x3
 1514 08d5 82010000 		.4byte	.LASF124
 1515 08d9 0E       		.byte	0xe
 1516 08da 3F       		.byte	0x3f
 1517 08db DF080000 		.4byte	0x8df
 1518 08df 0A       		.uleb128 0xa
 1519 08e0 82010000 		.4byte	.LASF124
 1520 08e4 10       		.byte	0x10
 1521 08e5 0F       		.byte	0xf
 1522 08e6 9701     		.2byte	0x197
ARM GAS  /tmp/ccbr6Prn.s 			page 28


 1523 08e8 21090000 		.4byte	0x921
 1524 08ec 09       		.uleb128 0x9
 1525 08ed 14010000 		.4byte	.LASF125
 1526 08f1 0F       		.byte	0xf
 1527 08f2 9B01     		.2byte	0x19b
 1528 08f4 C9080000 		.4byte	0x8c9
 1529 08f8 00       		.byte	0
 1530 08f9 09       		.uleb128 0x9
 1531 08fa F3050000 		.4byte	.LASF126
 1532 08fe 0F       		.byte	0xf
 1533 08ff 9F01     		.2byte	0x19f
 1534 0901 A5090000 		.4byte	0x9a5
 1535 0905 04       		.byte	0x4
 1536 0906 09       		.uleb128 0x9
 1537 0907 3E070000 		.4byte	.LASF127
 1538 090b 0F       		.byte	0xf
 1539 090c A701     		.2byte	0x1a7
 1540 090e CE000000 		.4byte	0xce
 1541 0912 08       		.byte	0x8
 1542 0913 08       		.uleb128 0x8
 1543 0914 74696D00 		.ascii	"tim\000"
 1544 0918 0F       		.byte	0xf
 1545 0919 AB01     		.2byte	0x1ab
 1546 091b B0090000 		.4byte	0x9b0
 1547 091f 0C       		.byte	0xc
 1548 0920 00       		.byte	0
 1549 0921 03       		.uleb128 0x3
 1550 0922 50010000 		.4byte	.LASF128
 1551 0926 0E       		.byte	0xe
 1552 0927 46       		.byte	0x46
 1553 0928 2C090000 		.4byte	0x92c
 1554 092c 0B       		.uleb128 0xb
 1555 092d 04       		.byte	0x4
 1556 092e 32090000 		.4byte	0x932
 1557 0932 0C       		.uleb128 0xc
 1558 0933 3D090000 		.4byte	0x93d
 1559 0937 0D       		.uleb128 0xd
 1560 0938 3D090000 		.4byte	0x93d
 1561 093c 00       		.byte	0
 1562 093d 0B       		.uleb128 0xb
 1563 093e 04       		.byte	0x4
 1564 093f D4080000 		.4byte	0x8d4
 1565 0943 13       		.uleb128 0x13
 1566 0944 3B020000 		.4byte	.LASF129
 1567 0948 0F       		.byte	0xf
 1568 0949 6D01     		.2byte	0x16d
 1569 094b CE000000 		.4byte	0xce
 1570 094f 13       		.uleb128 0x13
 1571 0950 2D010000 		.4byte	.LASF130
 1572 0954 0F       		.byte	0xf
 1573 0955 7201     		.2byte	0x172
 1574 0957 CE000000 		.4byte	0xce
 1575 095b 12       		.uleb128 0x12
 1576 095c 10       		.byte	0x10
 1577 095d 0F       		.byte	0xf
 1578 095e 7801     		.2byte	0x178
 1579 0960 99090000 		.4byte	0x999
ARM GAS  /tmp/ccbr6Prn.s 			page 29


 1580 0964 09       		.uleb128 0x9
 1581 0965 B4000000 		.4byte	.LASF131
 1582 0969 0F       		.byte	0xf
 1583 096a 7E01     		.2byte	0x17e
 1584 096c 43090000 		.4byte	0x943
 1585 0970 00       		.byte	0
 1586 0971 09       		.uleb128 0x9
 1587 0972 66020000 		.4byte	.LASF132
 1588 0976 0F       		.byte	0xf
 1589 0977 8501     		.2byte	0x185
 1590 0979 21090000 		.4byte	0x921
 1591 097d 04       		.byte	0x4
 1592 097e 08       		.uleb128 0x8
 1593 097f 63723200 		.ascii	"cr2\000"
 1594 0983 0F       		.byte	0xf
 1595 0984 8B01     		.2byte	0x18b
 1596 0986 CE000000 		.4byte	0xce
 1597 098a 08       		.byte	0x8
 1598 098b 09       		.uleb128 0x9
 1599 098c 6F070000 		.4byte	.LASF133
 1600 0990 0F       		.byte	0xf
 1601 0991 9101     		.2byte	0x191
 1602 0993 CE000000 		.4byte	0xce
 1603 0997 0C       		.byte	0xc
 1604 0998 00       		.byte	0
 1605 0999 13       		.uleb128 0x13
 1606 099a 56060000 		.4byte	.LASF134
 1607 099e 0F       		.byte	0xf
 1608 099f 9201     		.2byte	0x192
 1609 09a1 5B090000 		.4byte	0x95b
 1610 09a5 0B       		.uleb128 0xb
 1611 09a6 04       		.byte	0x4
 1612 09a7 AB090000 		.4byte	0x9ab
 1613 09ab 19       		.uleb128 0x19
 1614 09ac 99090000 		.4byte	0x999
 1615 09b0 0B       		.uleb128 0xb
 1616 09b1 04       		.byte	0x4
 1617 09b2 BC070000 		.4byte	0x7bc
 1618 09b6 1C       		.uleb128 0x1c
 1619 09b7 23040000 		.4byte	.LASF145
 1620 09bb 01       		.byte	0x1
 1621 09bc DB02     		.2byte	0x2db
 1622 09be 01       		.byte	0x1
 1623 09bf D0090000 		.4byte	0x9d0
 1624 09c3 1D       		.uleb128 0x1d
 1625 09c4 2B020000 		.4byte	.LASF135
 1626 09c8 01       		.byte	0x1
 1627 09c9 DB02     		.2byte	0x2db
 1628 09cb 3D090000 		.4byte	0x93d
 1629 09cf 00       		.byte	0
 1630 09d0 1E       		.uleb128 0x1e
 1631 09d1 92040000 		.4byte	.LASF151
 1632 09d5 01       		.byte	0x1
 1633 09d6 92       		.byte	0x92
 1634 09d7 01       		.byte	0x1
 1635 09d8 E8090000 		.4byte	0x9e8
 1636 09dc 1F       		.uleb128 0x1f
ARM GAS  /tmp/ccbr6Prn.s 			page 30


 1637 09dd 2B020000 		.4byte	.LASF135
 1638 09e1 01       		.byte	0x1
 1639 09e2 92       		.byte	0x92
 1640 09e3 3D090000 		.4byte	0x93d
 1641 09e7 00       		.byte	0
 1642 09e8 20       		.uleb128 0x20
 1643 09e9 29000000 		.4byte	.LASF136
 1644 09ed 01       		.byte	0x1
 1645 09ee A9       		.byte	0xa9
 1646 09ef 00000000 		.4byte	.LFB256
 1647 09f3 34000000 		.4byte	.LFE256-.LFB256
 1648 09f7 01       		.uleb128 0x1
 1649 09f8 9C       		.byte	0x9c
 1650 09f9 530A0000 		.4byte	0xa53
 1651 09fd 21       		.uleb128 0x21
 1652 09fe D0090000 		.4byte	0x9d0
 1653 0a02 02000000 		.4byte	.LBB10
 1654 0a06 26000000 		.4byte	.LBE10-.LBB10
 1655 0a0a 01       		.byte	0x1
 1656 0a0b AD       		.byte	0xad
 1657 0a0c 490A0000 		.4byte	0xa49
 1658 0a10 22       		.uleb128 0x22
 1659 0a11 DC090000 		.4byte	0x9dc
 1660 0a15 06       		.uleb128 0x6
 1661 0a16 03       		.byte	0x3
 1662 0a17 00000000 		.4byte	GPTD1
 1663 0a1b 9F       		.byte	0x9f
 1664 0a1c 21       		.uleb128 0x21
 1665 0a1d B6090000 		.4byte	0x9b6
 1666 0a21 14000000 		.4byte	.LBB12
 1667 0a25 0C000000 		.4byte	.LBE12-.LBB12
 1668 0a29 01       		.byte	0x1
 1669 0a2a 97       		.byte	0x97
 1670 0a2b 390A0000 		.4byte	0xa39
 1671 0a2f 23       		.uleb128 0x23
 1672 0a30 C3090000 		.4byte	0x9c3
 1673 0a34 00000000 		.4byte	.LLST0
 1674 0a38 00       		.byte	0
 1675 0a39 24       		.uleb128 0x24
 1676 0a3a 28000000 		.4byte	.LVL3
 1677 0a3e 25       		.uleb128 0x25
 1678 0a3f 01       		.uleb128 0x1
 1679 0a40 50       		.byte	0x50
 1680 0a41 05       		.uleb128 0x5
 1681 0a42 03       		.byte	0x3
 1682 0a43 00000000 		.4byte	.LANCHOR0
 1683 0a47 00       		.byte	0
 1684 0a48 00       		.byte	0
 1685 0a49 26       		.uleb128 0x26
 1686 0a4a 30000000 		.4byte	.LVL4
 1687 0a4e CD0B0000 		.4byte	0xbcd
 1688 0a52 00       		.byte	0
 1689 0a53 27       		.uleb128 0x27
 1690 0a54 6F020000 		.4byte	.LASF137
 1691 0a58 01       		.byte	0x1
 1692 0a59 8D01     		.2byte	0x18d
 1693 0a5b 00000000 		.4byte	.LFB257
ARM GAS  /tmp/ccbr6Prn.s 			page 31


 1694 0a5f 14000000 		.4byte	.LFE257-.LFB257
 1695 0a63 01       		.uleb128 0x1
 1696 0a64 9C       		.byte	0x9c
 1697 0a65 7D0A0000 		.4byte	0xa7d
 1698 0a69 28       		.uleb128 0x28
 1699 0a6a 0A000000 		.4byte	.LVL5
 1700 0a6e D50B0000 		.4byte	0xbd5
 1701 0a72 25       		.uleb128 0x25
 1702 0a73 01       		.uleb128 0x1
 1703 0a74 50       		.byte	0x50
 1704 0a75 05       		.uleb128 0x5
 1705 0a76 03       		.byte	0x3
 1706 0a77 00000000 		.4byte	.LANCHOR0
 1707 0a7b 00       		.byte	0
 1708 0a7c 00       		.byte	0
 1709 0a7d 27       		.uleb128 0x27
 1710 0a7e B6060000 		.4byte	.LASF138
 1711 0a82 01       		.byte	0x1
 1712 0a83 DF01     		.2byte	0x1df
 1713 0a85 00000000 		.4byte	.LFB258
 1714 0a89 68000000 		.4byte	.LFE258-.LFB258
 1715 0a8d 01       		.uleb128 0x1
 1716 0a8e 9C       		.byte	0x9c
 1717 0a8f D10A0000 		.4byte	0xad1
 1718 0a93 29       		.uleb128 0x29
 1719 0a94 2B020000 		.4byte	.LASF135
 1720 0a98 01       		.byte	0x1
 1721 0a99 DF01     		.2byte	0x1df
 1722 0a9b 3D090000 		.4byte	0x93d
 1723 0a9f 18000000 		.4byte	.LLST1
 1724 0aa3 2A       		.uleb128 0x2a
 1725 0aa4 70736300 		.ascii	"psc\000"
 1726 0aa8 01       		.byte	0x1
 1727 0aa9 E001     		.2byte	0x1e0
 1728 0aab B8000000 		.4byte	0xb8
 1729 0aaf 5A000000 		.4byte	.LLST2
 1730 0ab3 2B       		.uleb128 0x2b
 1731 0ab4 4E050000 		.4byte	.LASF152
 1732 0ab8 E10A0000 		.4byte	0xae1
 1733 0abc 2C       		.uleb128 0x2c
 1734 0abd 54000000 		.4byte	.LVL12
 1735 0ac1 E60B0000 		.4byte	0xbe6
 1736 0ac5 25       		.uleb128 0x25
 1737 0ac6 01       		.uleb128 0x1
 1738 0ac7 51       		.byte	0x51
 1739 0ac8 01       		.uleb128 0x1
 1740 0ac9 37       		.byte	0x37
 1741 0aca 25       		.uleb128 0x25
 1742 0acb 01       		.uleb128 0x1
 1743 0acc 50       		.byte	0x50
 1744 0acd 01       		.uleb128 0x1
 1745 0ace 49       		.byte	0x49
 1746 0acf 00       		.byte	0
 1747 0ad0 00       		.byte	0
 1748 0ad1 10       		.uleb128 0x10
 1749 0ad2 31080000 		.4byte	0x831
 1750 0ad6 E10A0000 		.4byte	0xae1
ARM GAS  /tmp/ccbr6Prn.s 			page 32


 1751 0ada 11       		.uleb128 0x11
 1752 0adb 4B040000 		.4byte	0x44b
 1753 0adf 0D       		.byte	0xd
 1754 0ae0 00       		.byte	0
 1755 0ae1 19       		.uleb128 0x19
 1756 0ae2 D10A0000 		.4byte	0xad1
 1757 0ae6 27       		.uleb128 0x27
 1758 0ae7 F7060000 		.4byte	.LASF139
 1759 0aeb 01       		.byte	0x1
 1760 0aec 6B02     		.2byte	0x26b
 1761 0aee 00000000 		.4byte	.LFB259
 1762 0af2 34000000 		.4byte	.LFE259-.LFB259
 1763 0af6 01       		.uleb128 0x1
 1764 0af7 9C       		.byte	0x9c
 1765 0af8 1C0B0000 		.4byte	0xb1c
 1766 0afc 29       		.uleb128 0x29
 1767 0afd 2B020000 		.4byte	.LASF135
 1768 0b01 01       		.byte	0x1
 1769 0b02 6B02     		.2byte	0x26b
 1770 0b04 3D090000 		.4byte	0x93d
 1771 0b08 6D000000 		.4byte	.LLST3
 1772 0b0c 2C       		.uleb128 0x2c
 1773 0b0d 20000000 		.4byte	.LVL17
 1774 0b11 FC0B0000 		.4byte	0xbfc
 1775 0b15 25       		.uleb128 0x25
 1776 0b16 01       		.uleb128 0x1
 1777 0b17 50       		.byte	0x50
 1778 0b18 01       		.uleb128 0x1
 1779 0b19 49       		.byte	0x49
 1780 0b1a 00       		.byte	0
 1781 0b1b 00       		.byte	0
 1782 0b1c 27       		.uleb128 0x27
 1783 0b1d 73040000 		.4byte	.LASF140
 1784 0b21 01       		.byte	0x1
 1785 0b22 C502     		.2byte	0x2c5
 1786 0b24 00000000 		.4byte	.LFB260
 1787 0b28 22000000 		.4byte	.LFE260-.LFB260
 1788 0b2c 01       		.uleb128 0x1
 1789 0b2d 9C       		.byte	0x9c
 1790 0b2e 530B0000 		.4byte	0xb53
 1791 0b32 29       		.uleb128 0x29
 1792 0b33 2B020000 		.4byte	.LASF135
 1793 0b37 01       		.byte	0x1
 1794 0b38 C502     		.2byte	0x2c5
 1795 0b3a 3D090000 		.4byte	0x93d
 1796 0b3e A7000000 		.4byte	.LLST4
 1797 0b42 29       		.uleb128 0x29
 1798 0b43 71010000 		.4byte	.LASF141
 1799 0b47 01       		.byte	0x1
 1800 0b48 C502     		.2byte	0x2c5
 1801 0b4a 4F090000 		.4byte	0x94f
 1802 0b4e C8000000 		.4byte	.LLST5
 1803 0b52 00       		.byte	0
 1804 0b53 2D       		.uleb128 0x2d
 1805 0b54 B6090000 		.4byte	0x9b6
 1806 0b58 00000000 		.4byte	.LFB261
 1807 0b5c 12000000 		.4byte	.LFE261-.LFB261
ARM GAS  /tmp/ccbr6Prn.s 			page 33


 1808 0b60 01       		.uleb128 0x1
 1809 0b61 9C       		.byte	0x9c
 1810 0b62 6E0B0000 		.4byte	0xb6e
 1811 0b66 22       		.uleb128 0x22
 1812 0b67 C3090000 		.4byte	0x9c3
 1813 0b6b 01       		.uleb128 0x1
 1814 0b6c 50       		.byte	0x50
 1815 0b6d 00       		.byte	0
 1816 0b6e 27       		.uleb128 0x27
 1817 0b6f E2060000 		.4byte	.LASF142
 1818 0b73 01       		.byte	0x1
 1819 0b74 EF02     		.2byte	0x2ef
 1820 0b76 00000000 		.4byte	.LFB262
 1821 0b7a 1A000000 		.4byte	.LFE262-.LFB262
 1822 0b7e 01       		.uleb128 0x1
 1823 0b7f 9C       		.byte	0x9c
 1824 0b80 A50B0000 		.4byte	0xba5
 1825 0b84 29       		.uleb128 0x29
 1826 0b85 2B020000 		.4byte	.LASF135
 1827 0b89 01       		.byte	0x1
 1828 0b8a EF02     		.2byte	0x2ef
 1829 0b8c 3D090000 		.4byte	0x93d
 1830 0b90 06010000 		.4byte	.LLST6
 1831 0b94 29       		.uleb128 0x29
 1832 0b95 71010000 		.4byte	.LASF141
 1833 0b99 01       		.byte	0x1
 1834 0b9a EF02     		.2byte	0x2ef
 1835 0b9c 4F090000 		.4byte	0x94f
 1836 0ba0 27010000 		.4byte	.LLST7
 1837 0ba4 00       		.byte	0
 1838 0ba5 2E       		.uleb128 0x2e
 1839 0ba6 0F050000 		.4byte	.LASF143
 1840 0baa 10       		.byte	0x10
 1841 0bab A706     		.2byte	0x6a7
 1842 0bad E4000000 		.4byte	0xe4
 1843 0bb1 2F       		.uleb128 0x2f
 1844 0bb2 636800   		.ascii	"ch\000"
 1845 0bb5 07       		.byte	0x7
 1846 0bb6 EB01     		.2byte	0x1eb
 1847 0bb8 E4030000 		.4byte	0x3e4
 1848 0bbc 30       		.uleb128 0x30
 1849 0bbd A9000000 		.4byte	.LASF144
 1850 0bc1 01       		.byte	0x1
 1851 0bc2 2A       		.byte	0x2a
 1852 0bc3 D4080000 		.4byte	0x8d4
 1853 0bc7 05       		.uleb128 0x5
 1854 0bc8 03       		.byte	0x3
 1855 0bc9 00000000 		.4byte	GPTD1
 1856 0bcd 31       		.uleb128 0x31
 1857 0bce 53020000 		.4byte	.LASF153
 1858 0bd2 0A       		.byte	0xa
 1859 0bd3 6501     		.2byte	0x165
 1860 0bd5 32       		.uleb128 0x32
 1861 0bd6 E1010000 		.4byte	.LASF146
 1862 0bda 0E       		.byte	0xe
 1863 0bdb 7D       		.byte	0x7d
 1864 0bdc E60B0000 		.4byte	0xbe6
ARM GAS  /tmp/ccbr6Prn.s 			page 34


 1865 0be0 0D       		.uleb128 0xd
 1866 0be1 3D090000 		.4byte	0x93d
 1867 0be5 00       		.byte	0
 1868 0be6 32       		.uleb128 0x32
 1869 0be7 C5000000 		.4byte	.LASF147
 1870 0beb 11       		.byte	0x11
 1871 0bec 4E       		.byte	0x4e
 1872 0bed FC0B0000 		.4byte	0xbfc
 1873 0bf1 0D       		.uleb128 0xd
 1874 0bf2 CE000000 		.4byte	0xce
 1875 0bf6 0D       		.uleb128 0xd
 1876 0bf7 CE000000 		.4byte	0xce
 1877 0bfb 00       		.byte	0
 1878 0bfc 33       		.uleb128 0x33
 1879 0bfd EF010000 		.4byte	.LASF154
 1880 0c01 11       		.byte	0x11
 1881 0c02 4F       		.byte	0x4f
 1882 0c03 0D       		.uleb128 0xd
 1883 0c04 CE000000 		.4byte	0xce
 1884 0c08 00       		.byte	0
 1885 0c09 00       		.byte	0
 1886              		.section	.debug_abbrev,"",%progbits
 1887              	.Ldebug_abbrev0:
 1888 0000 01       		.uleb128 0x1
 1889 0001 11       		.uleb128 0x11
 1890 0002 01       		.byte	0x1
 1891 0003 25       		.uleb128 0x25
 1892 0004 0E       		.uleb128 0xe
 1893 0005 13       		.uleb128 0x13
 1894 0006 0B       		.uleb128 0xb
 1895 0007 03       		.uleb128 0x3
 1896 0008 0E       		.uleb128 0xe
 1897 0009 1B       		.uleb128 0x1b
 1898 000a 0E       		.uleb128 0xe
 1899 000b 55       		.uleb128 0x55
 1900 000c 17       		.uleb128 0x17
 1901 000d 11       		.uleb128 0x11
 1902 000e 01       		.uleb128 0x1
 1903 000f 10       		.uleb128 0x10
 1904 0010 17       		.uleb128 0x17
 1905 0011 00       		.byte	0
 1906 0012 00       		.byte	0
 1907 0013 02       		.uleb128 0x2
 1908 0014 24       		.uleb128 0x24
 1909 0015 00       		.byte	0
 1910 0016 0B       		.uleb128 0xb
 1911 0017 0B       		.uleb128 0xb
 1912 0018 3E       		.uleb128 0x3e
 1913 0019 0B       		.uleb128 0xb
 1914 001a 03       		.uleb128 0x3
 1915 001b 08       		.uleb128 0x8
 1916 001c 00       		.byte	0
 1917 001d 00       		.byte	0
 1918 001e 03       		.uleb128 0x3
 1919 001f 16       		.uleb128 0x16
 1920 0020 00       		.byte	0
 1921 0021 03       		.uleb128 0x3
ARM GAS  /tmp/ccbr6Prn.s 			page 35


 1922 0022 0E       		.uleb128 0xe
 1923 0023 3A       		.uleb128 0x3a
 1924 0024 0B       		.uleb128 0xb
 1925 0025 3B       		.uleb128 0x3b
 1926 0026 0B       		.uleb128 0xb
 1927 0027 49       		.uleb128 0x49
 1928 0028 13       		.uleb128 0x13
 1929 0029 00       		.byte	0
 1930 002a 00       		.byte	0
 1931 002b 04       		.uleb128 0x4
 1932 002c 24       		.uleb128 0x24
 1933 002d 00       		.byte	0
 1934 002e 0B       		.uleb128 0xb
 1935 002f 0B       		.uleb128 0xb
 1936 0030 3E       		.uleb128 0x3e
 1937 0031 0B       		.uleb128 0xb
 1938 0032 03       		.uleb128 0x3
 1939 0033 0E       		.uleb128 0xe
 1940 0034 00       		.byte	0
 1941 0035 00       		.byte	0
 1942 0036 05       		.uleb128 0x5
 1943 0037 35       		.uleb128 0x35
 1944 0038 00       		.byte	0
 1945 0039 49       		.uleb128 0x49
 1946 003a 13       		.uleb128 0x13
 1947 003b 00       		.byte	0
 1948 003c 00       		.byte	0
 1949 003d 06       		.uleb128 0x6
 1950 003e 13       		.uleb128 0x13
 1951 003f 01       		.byte	0x1
 1952 0040 03       		.uleb128 0x3
 1953 0041 0E       		.uleb128 0xe
 1954 0042 0B       		.uleb128 0xb
 1955 0043 0B       		.uleb128 0xb
 1956 0044 3A       		.uleb128 0x3a
 1957 0045 0B       		.uleb128 0xb
 1958 0046 3B       		.uleb128 0x3b
 1959 0047 0B       		.uleb128 0xb
 1960 0048 01       		.uleb128 0x1
 1961 0049 13       		.uleb128 0x13
 1962 004a 00       		.byte	0
 1963 004b 00       		.byte	0
 1964 004c 07       		.uleb128 0x7
 1965 004d 0D       		.uleb128 0xd
 1966 004e 00       		.byte	0
 1967 004f 03       		.uleb128 0x3
 1968 0050 0E       		.uleb128 0xe
 1969 0051 3A       		.uleb128 0x3a
 1970 0052 0B       		.uleb128 0xb
 1971 0053 3B       		.uleb128 0x3b
 1972 0054 0B       		.uleb128 0xb
 1973 0055 49       		.uleb128 0x49
 1974 0056 13       		.uleb128 0x13
 1975 0057 38       		.uleb128 0x38
 1976 0058 0B       		.uleb128 0xb
 1977 0059 00       		.byte	0
 1978 005a 00       		.byte	0
ARM GAS  /tmp/ccbr6Prn.s 			page 36


 1979 005b 08       		.uleb128 0x8
 1980 005c 0D       		.uleb128 0xd
 1981 005d 00       		.byte	0
 1982 005e 03       		.uleb128 0x3
 1983 005f 08       		.uleb128 0x8
 1984 0060 3A       		.uleb128 0x3a
 1985 0061 0B       		.uleb128 0xb
 1986 0062 3B       		.uleb128 0x3b
 1987 0063 05       		.uleb128 0x5
 1988 0064 49       		.uleb128 0x49
 1989 0065 13       		.uleb128 0x13
 1990 0066 38       		.uleb128 0x38
 1991 0067 0B       		.uleb128 0xb
 1992 0068 00       		.byte	0
 1993 0069 00       		.byte	0
 1994 006a 09       		.uleb128 0x9
 1995 006b 0D       		.uleb128 0xd
 1996 006c 00       		.byte	0
 1997 006d 03       		.uleb128 0x3
 1998 006e 0E       		.uleb128 0xe
 1999 006f 3A       		.uleb128 0x3a
 2000 0070 0B       		.uleb128 0xb
 2001 0071 3B       		.uleb128 0x3b
 2002 0072 05       		.uleb128 0x5
 2003 0073 49       		.uleb128 0x49
 2004 0074 13       		.uleb128 0x13
 2005 0075 38       		.uleb128 0x38
 2006 0076 0B       		.uleb128 0xb
 2007 0077 00       		.byte	0
 2008 0078 00       		.byte	0
 2009 0079 0A       		.uleb128 0xa
 2010 007a 13       		.uleb128 0x13
 2011 007b 01       		.byte	0x1
 2012 007c 03       		.uleb128 0x3
 2013 007d 0E       		.uleb128 0xe
 2014 007e 0B       		.uleb128 0xb
 2015 007f 0B       		.uleb128 0xb
 2016 0080 3A       		.uleb128 0x3a
 2017 0081 0B       		.uleb128 0xb
 2018 0082 3B       		.uleb128 0x3b
 2019 0083 05       		.uleb128 0x5
 2020 0084 01       		.uleb128 0x1
 2021 0085 13       		.uleb128 0x13
 2022 0086 00       		.byte	0
 2023 0087 00       		.byte	0
 2024 0088 0B       		.uleb128 0xb
 2025 0089 0F       		.uleb128 0xf
 2026 008a 00       		.byte	0
 2027 008b 0B       		.uleb128 0xb
 2028 008c 0B       		.uleb128 0xb
 2029 008d 49       		.uleb128 0x49
 2030 008e 13       		.uleb128 0x13
 2031 008f 00       		.byte	0
 2032 0090 00       		.byte	0
 2033 0091 0C       		.uleb128 0xc
 2034 0092 15       		.uleb128 0x15
 2035 0093 01       		.byte	0x1
ARM GAS  /tmp/ccbr6Prn.s 			page 37


 2036 0094 27       		.uleb128 0x27
 2037 0095 19       		.uleb128 0x19
 2038 0096 01       		.uleb128 0x1
 2039 0097 13       		.uleb128 0x13
 2040 0098 00       		.byte	0
 2041 0099 00       		.byte	0
 2042 009a 0D       		.uleb128 0xd
 2043 009b 05       		.uleb128 0x5
 2044 009c 00       		.byte	0
 2045 009d 49       		.uleb128 0x49
 2046 009e 13       		.uleb128 0x13
 2047 009f 00       		.byte	0
 2048 00a0 00       		.byte	0
 2049 00a1 0E       		.uleb128 0xe
 2050 00a2 0F       		.uleb128 0xf
 2051 00a3 00       		.byte	0
 2052 00a4 0B       		.uleb128 0xb
 2053 00a5 0B       		.uleb128 0xb
 2054 00a6 00       		.byte	0
 2055 00a7 00       		.byte	0
 2056 00a8 0F       		.uleb128 0xf
 2057 00a9 13       		.uleb128 0x13
 2058 00aa 01       		.byte	0x1
 2059 00ab 03       		.uleb128 0x3
 2060 00ac 0E       		.uleb128 0xe
 2061 00ad 0B       		.uleb128 0xb
 2062 00ae 05       		.uleb128 0x5
 2063 00af 3A       		.uleb128 0x3a
 2064 00b0 0B       		.uleb128 0xb
 2065 00b1 3B       		.uleb128 0x3b
 2066 00b2 05       		.uleb128 0x5
 2067 00b3 01       		.uleb128 0x1
 2068 00b4 13       		.uleb128 0x13
 2069 00b5 00       		.byte	0
 2070 00b6 00       		.byte	0
 2071 00b7 10       		.uleb128 0x10
 2072 00b8 01       		.uleb128 0x1
 2073 00b9 01       		.byte	0x1
 2074 00ba 49       		.uleb128 0x49
 2075 00bb 13       		.uleb128 0x13
 2076 00bc 01       		.uleb128 0x1
 2077 00bd 13       		.uleb128 0x13
 2078 00be 00       		.byte	0
 2079 00bf 00       		.byte	0
 2080 00c0 11       		.uleb128 0x11
 2081 00c1 21       		.uleb128 0x21
 2082 00c2 00       		.byte	0
 2083 00c3 49       		.uleb128 0x49
 2084 00c4 13       		.uleb128 0x13
 2085 00c5 2F       		.uleb128 0x2f
 2086 00c6 0B       		.uleb128 0xb
 2087 00c7 00       		.byte	0
 2088 00c8 00       		.byte	0
 2089 00c9 12       		.uleb128 0x12
 2090 00ca 13       		.uleb128 0x13
 2091 00cb 01       		.byte	0x1
 2092 00cc 0B       		.uleb128 0xb
ARM GAS  /tmp/ccbr6Prn.s 			page 38


 2093 00cd 0B       		.uleb128 0xb
 2094 00ce 3A       		.uleb128 0x3a
 2095 00cf 0B       		.uleb128 0xb
 2096 00d0 3B       		.uleb128 0x3b
 2097 00d1 05       		.uleb128 0x5
 2098 00d2 01       		.uleb128 0x1
 2099 00d3 13       		.uleb128 0x13
 2100 00d4 00       		.byte	0
 2101 00d5 00       		.byte	0
 2102 00d6 13       		.uleb128 0x13
 2103 00d7 16       		.uleb128 0x16
 2104 00d8 00       		.byte	0
 2105 00d9 03       		.uleb128 0x3
 2106 00da 0E       		.uleb128 0xe
 2107 00db 3A       		.uleb128 0x3a
 2108 00dc 0B       		.uleb128 0xb
 2109 00dd 3B       		.uleb128 0x3b
 2110 00de 05       		.uleb128 0x5
 2111 00df 49       		.uleb128 0x49
 2112 00e0 13       		.uleb128 0x13
 2113 00e1 00       		.byte	0
 2114 00e2 00       		.byte	0
 2115 00e3 14       		.uleb128 0x14
 2116 00e4 0D       		.uleb128 0xd
 2117 00e5 00       		.byte	0
 2118 00e6 03       		.uleb128 0x3
 2119 00e7 08       		.uleb128 0x8
 2120 00e8 3A       		.uleb128 0x3a
 2121 00e9 0B       		.uleb128 0xb
 2122 00ea 3B       		.uleb128 0x3b
 2123 00eb 0B       		.uleb128 0xb
 2124 00ec 49       		.uleb128 0x49
 2125 00ed 13       		.uleb128 0x13
 2126 00ee 38       		.uleb128 0x38
 2127 00ef 0B       		.uleb128 0xb
 2128 00f0 00       		.byte	0
 2129 00f1 00       		.byte	0
 2130 00f2 15       		.uleb128 0x15
 2131 00f3 13       		.uleb128 0x13
 2132 00f4 01       		.byte	0x1
 2133 00f5 0B       		.uleb128 0xb
 2134 00f6 0B       		.uleb128 0xb
 2135 00f7 3A       		.uleb128 0x3a
 2136 00f8 0B       		.uleb128 0xb
 2137 00f9 3B       		.uleb128 0x3b
 2138 00fa 0B       		.uleb128 0xb
 2139 00fb 01       		.uleb128 0x1
 2140 00fc 13       		.uleb128 0x13
 2141 00fd 00       		.byte	0
 2142 00fe 00       		.byte	0
 2143 00ff 16       		.uleb128 0x16
 2144 0100 17       		.uleb128 0x17
 2145 0101 01       		.byte	0x1
 2146 0102 0B       		.uleb128 0xb
 2147 0103 0B       		.uleb128 0xb
 2148 0104 3A       		.uleb128 0x3a
 2149 0105 0B       		.uleb128 0xb
ARM GAS  /tmp/ccbr6Prn.s 			page 39


 2150 0106 3B       		.uleb128 0x3b
 2151 0107 0B       		.uleb128 0xb
 2152 0108 01       		.uleb128 0x1
 2153 0109 13       		.uleb128 0x13
 2154 010a 00       		.byte	0
 2155 010b 00       		.byte	0
 2156 010c 17       		.uleb128 0x17
 2157 010d 0D       		.uleb128 0xd
 2158 010e 00       		.byte	0
 2159 010f 03       		.uleb128 0x3
 2160 0110 0E       		.uleb128 0xe
 2161 0111 3A       		.uleb128 0x3a
 2162 0112 0B       		.uleb128 0xb
 2163 0113 3B       		.uleb128 0x3b
 2164 0114 0B       		.uleb128 0xb
 2165 0115 49       		.uleb128 0x49
 2166 0116 13       		.uleb128 0x13
 2167 0117 00       		.byte	0
 2168 0118 00       		.byte	0
 2169 0119 18       		.uleb128 0x18
 2170 011a 0D       		.uleb128 0xd
 2171 011b 00       		.byte	0
 2172 011c 03       		.uleb128 0x3
 2173 011d 0E       		.uleb128 0xe
 2174 011e 3A       		.uleb128 0x3a
 2175 011f 0B       		.uleb128 0xb
 2176 0120 3B       		.uleb128 0x3b
 2177 0121 05       		.uleb128 0x5
 2178 0122 49       		.uleb128 0x49
 2179 0123 13       		.uleb128 0x13
 2180 0124 00       		.byte	0
 2181 0125 00       		.byte	0
 2182 0126 19       		.uleb128 0x19
 2183 0127 26       		.uleb128 0x26
 2184 0128 00       		.byte	0
 2185 0129 49       		.uleb128 0x49
 2186 012a 13       		.uleb128 0x13
 2187 012b 00       		.byte	0
 2188 012c 00       		.byte	0
 2189 012d 1A       		.uleb128 0x1a
 2190 012e 04       		.uleb128 0x4
 2191 012f 01       		.byte	0x1
 2192 0130 0B       		.uleb128 0xb
 2193 0131 0B       		.uleb128 0xb
 2194 0132 3A       		.uleb128 0x3a
 2195 0133 0B       		.uleb128 0xb
 2196 0134 3B       		.uleb128 0x3b
 2197 0135 0B       		.uleb128 0xb
 2198 0136 01       		.uleb128 0x1
 2199 0137 13       		.uleb128 0x13
 2200 0138 00       		.byte	0
 2201 0139 00       		.byte	0
 2202 013a 1B       		.uleb128 0x1b
 2203 013b 28       		.uleb128 0x28
 2204 013c 00       		.byte	0
 2205 013d 03       		.uleb128 0x3
 2206 013e 0E       		.uleb128 0xe
ARM GAS  /tmp/ccbr6Prn.s 			page 40


 2207 013f 1C       		.uleb128 0x1c
 2208 0140 0D       		.uleb128 0xd
 2209 0141 00       		.byte	0
 2210 0142 00       		.byte	0
 2211 0143 1C       		.uleb128 0x1c
 2212 0144 2E       		.uleb128 0x2e
 2213 0145 01       		.byte	0x1
 2214 0146 3F       		.uleb128 0x3f
 2215 0147 19       		.uleb128 0x19
 2216 0148 03       		.uleb128 0x3
 2217 0149 0E       		.uleb128 0xe
 2218 014a 3A       		.uleb128 0x3a
 2219 014b 0B       		.uleb128 0xb
 2220 014c 3B       		.uleb128 0x3b
 2221 014d 05       		.uleb128 0x5
 2222 014e 27       		.uleb128 0x27
 2223 014f 19       		.uleb128 0x19
 2224 0150 20       		.uleb128 0x20
 2225 0151 0B       		.uleb128 0xb
 2226 0152 01       		.uleb128 0x1
 2227 0153 13       		.uleb128 0x13
 2228 0154 00       		.byte	0
 2229 0155 00       		.byte	0
 2230 0156 1D       		.uleb128 0x1d
 2231 0157 05       		.uleb128 0x5
 2232 0158 00       		.byte	0
 2233 0159 03       		.uleb128 0x3
 2234 015a 0E       		.uleb128 0xe
 2235 015b 3A       		.uleb128 0x3a
 2236 015c 0B       		.uleb128 0xb
 2237 015d 3B       		.uleb128 0x3b
 2238 015e 05       		.uleb128 0x5
 2239 015f 49       		.uleb128 0x49
 2240 0160 13       		.uleb128 0x13
 2241 0161 00       		.byte	0
 2242 0162 00       		.byte	0
 2243 0163 1E       		.uleb128 0x1e
 2244 0164 2E       		.uleb128 0x2e
 2245 0165 01       		.byte	0x1
 2246 0166 03       		.uleb128 0x3
 2247 0167 0E       		.uleb128 0xe
 2248 0168 3A       		.uleb128 0x3a
 2249 0169 0B       		.uleb128 0xb
 2250 016a 3B       		.uleb128 0x3b
 2251 016b 0B       		.uleb128 0xb
 2252 016c 27       		.uleb128 0x27
 2253 016d 19       		.uleb128 0x19
 2254 016e 20       		.uleb128 0x20
 2255 016f 0B       		.uleb128 0xb
 2256 0170 01       		.uleb128 0x1
 2257 0171 13       		.uleb128 0x13
 2258 0172 00       		.byte	0
 2259 0173 00       		.byte	0
 2260 0174 1F       		.uleb128 0x1f
 2261 0175 05       		.uleb128 0x5
 2262 0176 00       		.byte	0
 2263 0177 03       		.uleb128 0x3
ARM GAS  /tmp/ccbr6Prn.s 			page 41


 2264 0178 0E       		.uleb128 0xe
 2265 0179 3A       		.uleb128 0x3a
 2266 017a 0B       		.uleb128 0xb
 2267 017b 3B       		.uleb128 0x3b
 2268 017c 0B       		.uleb128 0xb
 2269 017d 49       		.uleb128 0x49
 2270 017e 13       		.uleb128 0x13
 2271 017f 00       		.byte	0
 2272 0180 00       		.byte	0
 2273 0181 20       		.uleb128 0x20
 2274 0182 2E       		.uleb128 0x2e
 2275 0183 01       		.byte	0x1
 2276 0184 3F       		.uleb128 0x3f
 2277 0185 19       		.uleb128 0x19
 2278 0186 03       		.uleb128 0x3
 2279 0187 0E       		.uleb128 0xe
 2280 0188 3A       		.uleb128 0x3a
 2281 0189 0B       		.uleb128 0xb
 2282 018a 3B       		.uleb128 0x3b
 2283 018b 0B       		.uleb128 0xb
 2284 018c 27       		.uleb128 0x27
 2285 018d 19       		.uleb128 0x19
 2286 018e 11       		.uleb128 0x11
 2287 018f 01       		.uleb128 0x1
 2288 0190 12       		.uleb128 0x12
 2289 0191 06       		.uleb128 0x6
 2290 0192 40       		.uleb128 0x40
 2291 0193 18       		.uleb128 0x18
 2292 0194 9742     		.uleb128 0x2117
 2293 0196 19       		.uleb128 0x19
 2294 0197 01       		.uleb128 0x1
 2295 0198 13       		.uleb128 0x13
 2296 0199 00       		.byte	0
 2297 019a 00       		.byte	0
 2298 019b 21       		.uleb128 0x21
 2299 019c 1D       		.uleb128 0x1d
 2300 019d 01       		.byte	0x1
 2301 019e 31       		.uleb128 0x31
 2302 019f 13       		.uleb128 0x13
 2303 01a0 11       		.uleb128 0x11
 2304 01a1 01       		.uleb128 0x1
 2305 01a2 12       		.uleb128 0x12
 2306 01a3 06       		.uleb128 0x6
 2307 01a4 58       		.uleb128 0x58
 2308 01a5 0B       		.uleb128 0xb
 2309 01a6 59       		.uleb128 0x59
 2310 01a7 0B       		.uleb128 0xb
 2311 01a8 01       		.uleb128 0x1
 2312 01a9 13       		.uleb128 0x13
 2313 01aa 00       		.byte	0
 2314 01ab 00       		.byte	0
 2315 01ac 22       		.uleb128 0x22
 2316 01ad 05       		.uleb128 0x5
 2317 01ae 00       		.byte	0
 2318 01af 31       		.uleb128 0x31
 2319 01b0 13       		.uleb128 0x13
 2320 01b1 02       		.uleb128 0x2
ARM GAS  /tmp/ccbr6Prn.s 			page 42


 2321 01b2 18       		.uleb128 0x18
 2322 01b3 00       		.byte	0
 2323 01b4 00       		.byte	0
 2324 01b5 23       		.uleb128 0x23
 2325 01b6 05       		.uleb128 0x5
 2326 01b7 00       		.byte	0
 2327 01b8 31       		.uleb128 0x31
 2328 01b9 13       		.uleb128 0x13
 2329 01ba 02       		.uleb128 0x2
 2330 01bb 17       		.uleb128 0x17
 2331 01bc 00       		.byte	0
 2332 01bd 00       		.byte	0
 2333 01be 24       		.uleb128 0x24
 2334 01bf 898201   		.uleb128 0x4109
 2335 01c2 01       		.byte	0x1
 2336 01c3 11       		.uleb128 0x11
 2337 01c4 01       		.uleb128 0x1
 2338 01c5 00       		.byte	0
 2339 01c6 00       		.byte	0
 2340 01c7 25       		.uleb128 0x25
 2341 01c8 8A8201   		.uleb128 0x410a
 2342 01cb 00       		.byte	0
 2343 01cc 02       		.uleb128 0x2
 2344 01cd 18       		.uleb128 0x18
 2345 01ce 9142     		.uleb128 0x2111
 2346 01d0 18       		.uleb128 0x18
 2347 01d1 00       		.byte	0
 2348 01d2 00       		.byte	0
 2349 01d3 26       		.uleb128 0x26
 2350 01d4 898201   		.uleb128 0x4109
 2351 01d7 00       		.byte	0
 2352 01d8 11       		.uleb128 0x11
 2353 01d9 01       		.uleb128 0x1
 2354 01da 9542     		.uleb128 0x2115
 2355 01dc 19       		.uleb128 0x19
 2356 01dd 31       		.uleb128 0x31
 2357 01de 13       		.uleb128 0x13
 2358 01df 00       		.byte	0
 2359 01e0 00       		.byte	0
 2360 01e1 27       		.uleb128 0x27
 2361 01e2 2E       		.uleb128 0x2e
 2362 01e3 01       		.byte	0x1
 2363 01e4 3F       		.uleb128 0x3f
 2364 01e5 19       		.uleb128 0x19
 2365 01e6 03       		.uleb128 0x3
 2366 01e7 0E       		.uleb128 0xe
 2367 01e8 3A       		.uleb128 0x3a
 2368 01e9 0B       		.uleb128 0xb
 2369 01ea 3B       		.uleb128 0x3b
 2370 01eb 05       		.uleb128 0x5
 2371 01ec 27       		.uleb128 0x27
 2372 01ed 19       		.uleb128 0x19
 2373 01ee 11       		.uleb128 0x11
 2374 01ef 01       		.uleb128 0x1
 2375 01f0 12       		.uleb128 0x12
 2376 01f1 06       		.uleb128 0x6
 2377 01f2 40       		.uleb128 0x40
ARM GAS  /tmp/ccbr6Prn.s 			page 43


 2378 01f3 18       		.uleb128 0x18
 2379 01f4 9742     		.uleb128 0x2117
 2380 01f6 19       		.uleb128 0x19
 2381 01f7 01       		.uleb128 0x1
 2382 01f8 13       		.uleb128 0x13
 2383 01f9 00       		.byte	0
 2384 01fa 00       		.byte	0
 2385 01fb 28       		.uleb128 0x28
 2386 01fc 898201   		.uleb128 0x4109
 2387 01ff 01       		.byte	0x1
 2388 0200 11       		.uleb128 0x11
 2389 0201 01       		.uleb128 0x1
 2390 0202 9542     		.uleb128 0x2115
 2391 0204 19       		.uleb128 0x19
 2392 0205 31       		.uleb128 0x31
 2393 0206 13       		.uleb128 0x13
 2394 0207 00       		.byte	0
 2395 0208 00       		.byte	0
 2396 0209 29       		.uleb128 0x29
 2397 020a 05       		.uleb128 0x5
 2398 020b 00       		.byte	0
 2399 020c 03       		.uleb128 0x3
 2400 020d 0E       		.uleb128 0xe
 2401 020e 3A       		.uleb128 0x3a
 2402 020f 0B       		.uleb128 0xb
 2403 0210 3B       		.uleb128 0x3b
 2404 0211 05       		.uleb128 0x5
 2405 0212 49       		.uleb128 0x49
 2406 0213 13       		.uleb128 0x13
 2407 0214 02       		.uleb128 0x2
 2408 0215 17       		.uleb128 0x17
 2409 0216 00       		.byte	0
 2410 0217 00       		.byte	0
 2411 0218 2A       		.uleb128 0x2a
 2412 0219 34       		.uleb128 0x34
 2413 021a 00       		.byte	0
 2414 021b 03       		.uleb128 0x3
 2415 021c 08       		.uleb128 0x8
 2416 021d 3A       		.uleb128 0x3a
 2417 021e 0B       		.uleb128 0xb
 2418 021f 3B       		.uleb128 0x3b
 2419 0220 05       		.uleb128 0x5
 2420 0221 49       		.uleb128 0x49
 2421 0222 13       		.uleb128 0x13
 2422 0223 02       		.uleb128 0x2
 2423 0224 17       		.uleb128 0x17
 2424 0225 00       		.byte	0
 2425 0226 00       		.byte	0
 2426 0227 2B       		.uleb128 0x2b
 2427 0228 34       		.uleb128 0x34
 2428 0229 00       		.byte	0
 2429 022a 03       		.uleb128 0x3
 2430 022b 0E       		.uleb128 0xe
 2431 022c 49       		.uleb128 0x49
 2432 022d 13       		.uleb128 0x13
 2433 022e 34       		.uleb128 0x34
 2434 022f 19       		.uleb128 0x19
ARM GAS  /tmp/ccbr6Prn.s 			page 44


 2435 0230 00       		.byte	0
 2436 0231 00       		.byte	0
 2437 0232 2C       		.uleb128 0x2c
 2438 0233 898201   		.uleb128 0x4109
 2439 0236 01       		.byte	0x1
 2440 0237 11       		.uleb128 0x11
 2441 0238 01       		.uleb128 0x1
 2442 0239 31       		.uleb128 0x31
 2443 023a 13       		.uleb128 0x13
 2444 023b 00       		.byte	0
 2445 023c 00       		.byte	0
 2446 023d 2D       		.uleb128 0x2d
 2447 023e 2E       		.uleb128 0x2e
 2448 023f 01       		.byte	0x1
 2449 0240 31       		.uleb128 0x31
 2450 0241 13       		.uleb128 0x13
 2451 0242 11       		.uleb128 0x11
 2452 0243 01       		.uleb128 0x1
 2453 0244 12       		.uleb128 0x12
 2454 0245 06       		.uleb128 0x6
 2455 0246 40       		.uleb128 0x40
 2456 0247 18       		.uleb128 0x18
 2457 0248 9742     		.uleb128 0x2117
 2458 024a 19       		.uleb128 0x19
 2459 024b 01       		.uleb128 0x1
 2460 024c 13       		.uleb128 0x13
 2461 024d 00       		.byte	0
 2462 024e 00       		.byte	0
 2463 024f 2E       		.uleb128 0x2e
 2464 0250 34       		.uleb128 0x34
 2465 0251 00       		.byte	0
 2466 0252 03       		.uleb128 0x3
 2467 0253 0E       		.uleb128 0xe
 2468 0254 3A       		.uleb128 0x3a
 2469 0255 0B       		.uleb128 0xb
 2470 0256 3B       		.uleb128 0x3b
 2471 0257 05       		.uleb128 0x5
 2472 0258 49       		.uleb128 0x49
 2473 0259 13       		.uleb128 0x13
 2474 025a 3F       		.uleb128 0x3f
 2475 025b 19       		.uleb128 0x19
 2476 025c 3C       		.uleb128 0x3c
 2477 025d 19       		.uleb128 0x19
 2478 025e 00       		.byte	0
 2479 025f 00       		.byte	0
 2480 0260 2F       		.uleb128 0x2f
 2481 0261 34       		.uleb128 0x34
 2482 0262 00       		.byte	0
 2483 0263 03       		.uleb128 0x3
 2484 0264 08       		.uleb128 0x8
 2485 0265 3A       		.uleb128 0x3a
 2486 0266 0B       		.uleb128 0xb
 2487 0267 3B       		.uleb128 0x3b
 2488 0268 05       		.uleb128 0x5
 2489 0269 49       		.uleb128 0x49
 2490 026a 13       		.uleb128 0x13
 2491 026b 3F       		.uleb128 0x3f
ARM GAS  /tmp/ccbr6Prn.s 			page 45


 2492 026c 19       		.uleb128 0x19
 2493 026d 3C       		.uleb128 0x3c
 2494 026e 19       		.uleb128 0x19
 2495 026f 00       		.byte	0
 2496 0270 00       		.byte	0
 2497 0271 30       		.uleb128 0x30
 2498 0272 34       		.uleb128 0x34
 2499 0273 00       		.byte	0
 2500 0274 03       		.uleb128 0x3
 2501 0275 0E       		.uleb128 0xe
 2502 0276 3A       		.uleb128 0x3a
 2503 0277 0B       		.uleb128 0xb
 2504 0278 3B       		.uleb128 0x3b
 2505 0279 0B       		.uleb128 0xb
 2506 027a 49       		.uleb128 0x49
 2507 027b 13       		.uleb128 0x13
 2508 027c 3F       		.uleb128 0x3f
 2509 027d 19       		.uleb128 0x19
 2510 027e 02       		.uleb128 0x2
 2511 027f 18       		.uleb128 0x18
 2512 0280 00       		.byte	0
 2513 0281 00       		.byte	0
 2514 0282 31       		.uleb128 0x31
 2515 0283 2E       		.uleb128 0x2e
 2516 0284 00       		.byte	0
 2517 0285 3F       		.uleb128 0x3f
 2518 0286 19       		.uleb128 0x19
 2519 0287 03       		.uleb128 0x3
 2520 0288 0E       		.uleb128 0xe
 2521 0289 3A       		.uleb128 0x3a
 2522 028a 0B       		.uleb128 0xb
 2523 028b 3B       		.uleb128 0x3b
 2524 028c 05       		.uleb128 0x5
 2525 028d 27       		.uleb128 0x27
 2526 028e 19       		.uleb128 0x19
 2527 028f 3C       		.uleb128 0x3c
 2528 0290 19       		.uleb128 0x19
 2529 0291 00       		.byte	0
 2530 0292 00       		.byte	0
 2531 0293 32       		.uleb128 0x32
 2532 0294 2E       		.uleb128 0x2e
 2533 0295 01       		.byte	0x1
 2534 0296 3F       		.uleb128 0x3f
 2535 0297 19       		.uleb128 0x19
 2536 0298 03       		.uleb128 0x3
 2537 0299 0E       		.uleb128 0xe
 2538 029a 3A       		.uleb128 0x3a
 2539 029b 0B       		.uleb128 0xb
 2540 029c 3B       		.uleb128 0x3b
 2541 029d 0B       		.uleb128 0xb
 2542 029e 27       		.uleb128 0x27
 2543 029f 19       		.uleb128 0x19
 2544 02a0 3C       		.uleb128 0x3c
 2545 02a1 19       		.uleb128 0x19
 2546 02a2 01       		.uleb128 0x1
 2547 02a3 13       		.uleb128 0x13
 2548 02a4 00       		.byte	0
ARM GAS  /tmp/ccbr6Prn.s 			page 46


 2549 02a5 00       		.byte	0
 2550 02a6 33       		.uleb128 0x33
 2551 02a7 2E       		.uleb128 0x2e
 2552 02a8 01       		.byte	0x1
 2553 02a9 3F       		.uleb128 0x3f
 2554 02aa 19       		.uleb128 0x19
 2555 02ab 03       		.uleb128 0x3
 2556 02ac 0E       		.uleb128 0xe
 2557 02ad 3A       		.uleb128 0x3a
 2558 02ae 0B       		.uleb128 0xb
 2559 02af 3B       		.uleb128 0x3b
 2560 02b0 0B       		.uleb128 0xb
 2561 02b1 27       		.uleb128 0x27
 2562 02b2 19       		.uleb128 0x19
 2563 02b3 3C       		.uleb128 0x3c
 2564 02b4 19       		.uleb128 0x19
 2565 02b5 00       		.byte	0
 2566 02b6 00       		.byte	0
 2567 02b7 00       		.byte	0
 2568              		.section	.debug_loc,"",%progbits
 2569              	.Ldebug_loc0:
 2570              	.LLST0:
 2571 0000 14000000 		.4byte	.LVL1
 2572 0004 20000000 		.4byte	.LVL2
 2573 0008 0600     		.2byte	0x6
 2574 000a 03       		.byte	0x3
 2575 000b 00000000 		.4byte	GPTD1
 2576 000f 9F       		.byte	0x9f
 2577 0010 00000000 		.4byte	0
 2578 0014 00000000 		.4byte	0
 2579              	.LLST1:
 2580 0018 00000000 		.4byte	.LVL6
 2581 001c 0A000000 		.4byte	.LVL7
 2582 0020 0100     		.2byte	0x1
 2583 0022 50       		.byte	0x50
 2584 0023 0A000000 		.4byte	.LVL7
 2585 0027 1C000000 		.4byte	.LVL8
 2586 002b 0100     		.2byte	0x1
 2587 002d 54       		.byte	0x54
 2588 002e 1C000000 		.4byte	.LVL8
 2589 0032 30000000 		.4byte	.LVL10
 2590 0036 0400     		.2byte	0x4
 2591 0038 F3       		.byte	0xf3
 2592 0039 01       		.uleb128 0x1
 2593 003a 50       		.byte	0x50
 2594 003b 9F       		.byte	0x9f
 2595 003c 30000000 		.4byte	.LVL10
 2596 0040 4C000000 		.4byte	.LVL11
 2597 0044 0100     		.2byte	0x1
 2598 0046 50       		.byte	0x50
 2599 0047 4C000000 		.4byte	.LVL11
 2600 004b 68000000 		.4byte	.LFE258
 2601 004f 0100     		.2byte	0x1
 2602 0051 54       		.byte	0x54
 2603 0052 00000000 		.4byte	0
 2604 0056 00000000 		.4byte	0
 2605              	.LLST2:
ARM GAS  /tmp/ccbr6Prn.s 			page 47


 2606 005a 1E000000 		.4byte	.LVL9
 2607 005e 30000000 		.4byte	.LVL10
 2608 0062 0100     		.2byte	0x1
 2609 0064 53       		.byte	0x53
 2610 0065 00000000 		.4byte	0
 2611 0069 00000000 		.4byte	0
 2612              	.LLST3:
 2613 006d 00000000 		.4byte	.LVL13
 2614 0071 08000000 		.4byte	.LVL14
 2615 0075 0100     		.2byte	0x1
 2616 0077 50       		.byte	0x50
 2617 0078 08000000 		.4byte	.LVL14
 2618 007c 0A000000 		.4byte	.LVL15
 2619 0080 0400     		.2byte	0x4
 2620 0082 F3       		.byte	0xf3
 2621 0083 01       		.uleb128 0x1
 2622 0084 50       		.byte	0x50
 2623 0085 9F       		.byte	0x9f
 2624 0086 0A000000 		.4byte	.LVL15
 2625 008a 1C000000 		.4byte	.LVL16
 2626 008e 0100     		.2byte	0x1
 2627 0090 50       		.byte	0x50
 2628 0091 1C000000 		.4byte	.LVL16
 2629 0095 34000000 		.4byte	.LFE259
 2630 0099 0400     		.2byte	0x4
 2631 009b F3       		.byte	0xf3
 2632 009c 01       		.uleb128 0x1
 2633 009d 50       		.byte	0x50
 2634 009e 9F       		.byte	0x9f
 2635 009f 00000000 		.4byte	0
 2636 00a3 00000000 		.4byte	0
 2637              	.LLST4:
 2638 00a7 00000000 		.4byte	.LVL18
 2639 00ab 06000000 		.4byte	.LVL19
 2640 00af 0100     		.2byte	0x1
 2641 00b1 50       		.byte	0x50
 2642 00b2 06000000 		.4byte	.LVL19
 2643 00b6 22000000 		.4byte	.LFE260
 2644 00ba 0400     		.2byte	0x4
 2645 00bc F3       		.byte	0xf3
 2646 00bd 01       		.uleb128 0x1
 2647 00be 50       		.byte	0x50
 2648 00bf 9F       		.byte	0x9f
 2649 00c0 00000000 		.4byte	0
 2650 00c4 00000000 		.4byte	0
 2651              	.LLST5:
 2652 00c8 00000000 		.4byte	.LVL18
 2653 00cc 08000000 		.4byte	.LVL20
 2654 00d0 0100     		.2byte	0x1
 2655 00d2 51       		.byte	0x51
 2656 00d3 08000000 		.4byte	.LVL20
 2657 00d7 0E000000 		.4byte	.LVL21
 2658 00db 0300     		.2byte	0x3
 2659 00dd 71       		.byte	0x71
 2660 00de 01       		.sleb128 1
 2661 00df 9F       		.byte	0x9f
 2662 00e0 0E000000 		.4byte	.LVL21
ARM GAS  /tmp/ccbr6Prn.s 			page 48


 2663 00e4 10000000 		.4byte	.LVL22
 2664 00e8 0600     		.2byte	0x6
 2665 00ea 73       		.byte	0x73
 2666 00eb 2C       		.sleb128 44
 2667 00ec 06       		.byte	0x6
 2668 00ed 23       		.byte	0x23
 2669 00ee 01       		.uleb128 0x1
 2670 00ef 9F       		.byte	0x9f
 2671 00f0 10000000 		.4byte	.LVL22
 2672 00f4 22000000 		.4byte	.LFE260
 2673 00f8 0400     		.2byte	0x4
 2674 00fa F3       		.byte	0xf3
 2675 00fb 01       		.uleb128 0x1
 2676 00fc 51       		.byte	0x51
 2677 00fd 9F       		.byte	0x9f
 2678 00fe 00000000 		.4byte	0
 2679 0102 00000000 		.4byte	0
 2680              	.LLST6:
 2681 0106 00000000 		.4byte	.LVL24
 2682 010a 06000000 		.4byte	.LVL26
 2683 010e 0100     		.2byte	0x1
 2684 0110 50       		.byte	0x50
 2685 0111 06000000 		.4byte	.LVL26
 2686 0115 1A000000 		.4byte	.LFE262
 2687 0119 0400     		.2byte	0x4
 2688 011b F3       		.byte	0xf3
 2689 011c 01       		.uleb128 0x1
 2690 011d 50       		.byte	0x50
 2691 011e 9F       		.byte	0x9f
 2692 011f 00000000 		.4byte	0
 2693 0123 00000000 		.4byte	0
 2694              	.LLST7:
 2695 0127 00000000 		.4byte	.LVL24
 2696 012b 04000000 		.4byte	.LVL25
 2697 012f 0100     		.2byte	0x1
 2698 0131 51       		.byte	0x51
 2699 0132 04000000 		.4byte	.LVL25
 2700 0136 1A000000 		.4byte	.LFE262
 2701 013a 0300     		.2byte	0x3
 2702 013c 71       		.byte	0x71
 2703 013d 01       		.sleb128 1
 2704 013e 9F       		.byte	0x9f
 2705 013f 00000000 		.4byte	0
 2706 0143 00000000 		.4byte	0
 2707              		.section	.debug_aranges,"",%progbits
 2708 0000 4C000000 		.4byte	0x4c
 2709 0004 0200     		.2byte	0x2
 2710 0006 00000000 		.4byte	.Ldebug_info0
 2711 000a 04       		.byte	0x4
 2712 000b 00       		.byte	0
 2713 000c 0000     		.2byte	0
 2714 000e 0000     		.2byte	0
 2715 0010 00000000 		.4byte	.LFB256
 2716 0014 34000000 		.4byte	.LFE256-.LFB256
 2717 0018 00000000 		.4byte	.LFB257
 2718 001c 14000000 		.4byte	.LFE257-.LFB257
 2719 0020 00000000 		.4byte	.LFB258
ARM GAS  /tmp/ccbr6Prn.s 			page 49


 2720 0024 68000000 		.4byte	.LFE258-.LFB258
 2721 0028 00000000 		.4byte	.LFB259
 2722 002c 34000000 		.4byte	.LFE259-.LFB259
 2723 0030 00000000 		.4byte	.LFB260
 2724 0034 22000000 		.4byte	.LFE260-.LFB260
 2725 0038 00000000 		.4byte	.LFB261
 2726 003c 12000000 		.4byte	.LFE261-.LFB261
 2727 0040 00000000 		.4byte	.LFB262
 2728 0044 1A000000 		.4byte	.LFE262-.LFB262
 2729 0048 00000000 		.4byte	0
 2730 004c 00000000 		.4byte	0
 2731              		.section	.debug_ranges,"",%progbits
 2732              	.Ldebug_ranges0:
 2733 0000 00000000 		.4byte	.LFB256
 2734 0004 34000000 		.4byte	.LFE256
 2735 0008 00000000 		.4byte	.LFB257
 2736 000c 14000000 		.4byte	.LFE257
 2737 0010 00000000 		.4byte	.LFB258
 2738 0014 68000000 		.4byte	.LFE258
 2739 0018 00000000 		.4byte	.LFB259
 2740 001c 34000000 		.4byte	.LFE259
 2741 0020 00000000 		.4byte	.LFB260
 2742 0024 22000000 		.4byte	.LFE260
 2743 0028 00000000 		.4byte	.LFB261
 2744 002c 12000000 		.4byte	.LFE261
 2745 0030 00000000 		.4byte	.LFB262
 2746 0034 1A000000 		.4byte	.LFE262
 2747 0038 00000000 		.4byte	0
 2748 003c 00000000 		.4byte	0
 2749              		.section	.debug_line,"",%progbits
 2750              	.Ldebug_line0:
 2751 0000 9E030000 		.section	.debug_str,"MS",%progbits,1
 2751      0200C102 
 2751      00000201 
 2751      FB0E0D00 
 2751      01010101 
 2752              	.LASF51:
 2753 0000 72656164 		.ascii	"ready_list_t\000"
 2753      795F6C69 
 2753      73745F74 
 2753      00
 2754              	.LASF96:
 2755 000d 44494552 		.ascii	"DIER\000"
 2755      00
 2756              	.LASF2:
 2757 0012 73697A65 		.ascii	"size_t\000"
 2757      5F7400
 2758              	.LASF107:
 2759 0019 7264796D 		.ascii	"rdymsg\000"
 2759      736700
 2760              	.LASF19:
 2761 0020 75696E74 		.ascii	"uint64_t\000"
 2761      36345F74 
 2761      00
 2762              	.LASF136:
 2763 0029 56656374 		.ascii	"VectorA4\000"
 2763      6F724134 
ARM GAS  /tmp/ccbr6Prn.s 			page 50


 2763      00
 2764              	.LASF3:
 2765 0032 5F5F7569 		.ascii	"__uint8_t\000"
 2765      6E74385F 
 2765      7400
 2766              	.LASF122:
 2767 003c 4750545F 		.ascii	"GPT_ONESHOT\000"
 2767      4F4E4553 
 2767      484F5400 
 2768              	.LASF50:
 2769 0048 63685F74 		.ascii	"ch_threads_queue\000"
 2769      68726561 
 2769      64735F71 
 2769      75657565 
 2769      00
 2770              	.LASF70:
 2771 0059 73797374 		.ascii	"system_debug_t\000"
 2771      656D5F64 
 2771      65627567 
 2771      5F7400
 2772              	.LASF14:
 2773 0068 6C6F6E67 		.ascii	"long long unsigned int\000"
 2773      206C6F6E 
 2773      6720756E 
 2773      7369676E 
 2773      65642069 
 2774              	.LASF108:
 2775 007f 65786974 		.ascii	"exitcode\000"
 2775      636F6465 
 2775      00
 2776              	.LASF77:
 2777 0088 6D61696E 		.ascii	"mainthread\000"
 2777      74687265 
 2777      616400
 2778              	.LASF67:
 2779 0093 76697274 		.ascii	"virtual_timers_list_t\000"
 2779      75616C5F 
 2779      74696D65 
 2779      72735F6C 
 2779      6973745F 
 2780              	.LASF144:
 2781 00a9 47505444 		.ascii	"GPTD1\000"
 2781      3100
 2782              	.LASF100:
 2783 00af 42445452 		.ascii	"BDTR\000"
 2783      00
 2784              	.LASF131:
 2785 00b4 66726571 		.ascii	"frequency\000"
 2785      75656E63 
 2785      7900
 2786              	.LASF31:
 2787 00be 705F7072 		.ascii	"p_prio\000"
 2787      696F00
 2788              	.LASF147:
 2789 00c5 6E766963 		.ascii	"nvicEnableVector\000"
 2789      456E6162 
 2789      6C655665 
ARM GAS  /tmp/ccbr6Prn.s 			page 51


 2789      63746F72 
 2789      00
 2790              	.LASF97:
 2791 00d6 43434D52 		.ascii	"CCMR1\000"
 2791      3100
 2792              	.LASF98:
 2793 00dc 43434D52 		.ascii	"CCMR2\000"
 2793      3200
 2794              	.LASF102:
 2795 00e2 43434D52 		.ascii	"CCMR3\000"
 2795      3300
 2796              	.LASF1:
 2797 00e8 7369676E 		.ascii	"signed char\000"
 2797      65642063 
 2797      68617200 
 2798              	.LASF113:
 2799 00f4 6D5F7175 		.ascii	"m_queue\000"
 2799      65756500 
 2800              	.LASF82:
 2801 00fc 41504231 		.ascii	"APB1RSTR\000"
 2801      52535452 
 2801      00
 2802              	.LASF121:
 2803 0105 4750545F 		.ascii	"GPT_CONTINUOUS\000"
 2803      434F4E54 
 2803      494E554F 
 2803      555300
 2804              	.LASF125:
 2805 0114 73746174 		.ascii	"state\000"
 2805      6500
 2806              	.LASF74:
 2807 011a 63685F73 		.ascii	"ch_system\000"
 2807      79737465 
 2807      6D00
 2808              	.LASF9:
 2809 0124 6C6F6E67 		.ascii	"long int\000"
 2809      20696E74 
 2809      00
 2810              	.LASF130:
 2811 012d 67707463 		.ascii	"gptcnt_t\000"
 2811      6E745F74 
 2811      00
 2812              	.LASF81:
 2813 0136 41504232 		.ascii	"APB2RSTR\000"
 2813      52535452 
 2813      00
 2814              	.LASF22:
 2815 013f 74737461 		.ascii	"tstate_t\000"
 2815      74655F74 
 2815      00
 2816              	.LASF33:
 2817 0148 705F6E65 		.ascii	"p_newer\000"
 2817      77657200 
 2818              	.LASF128:
 2819 0150 67707463 		.ascii	"gptcallback_t\000"
 2819      616C6C62 
 2819      61636B5F 
ARM GAS  /tmp/ccbr6Prn.s 			page 52


 2819      7400
 2820              	.LASF7:
 2821 015e 73686F72 		.ascii	"short unsigned int\000"
 2821      7420756E 
 2821      7369676E 
 2821      65642069 
 2821      6E7400
 2822              	.LASF141:
 2823 0171 696E7465 		.ascii	"interval\000"
 2823      7276616C 
 2823      00
 2824              	.LASF56:
 2825 017a 725F6E65 		.ascii	"r_newer\000"
 2825      77657200 
 2826              	.LASF124:
 2827 0182 47505444 		.ascii	"GPTDriver\000"
 2827      72697665 
 2827      7200
 2828              	.LASF91:
 2829 018c 72656761 		.ascii	"regarm_t\000"
 2829      726D5F74 
 2829      00
 2830              	.LASF63:
 2831 0195 76745F70 		.ascii	"vt_prev\000"
 2831      72657600 
 2832              	.LASF76:
 2833 019d 76746C69 		.ascii	"vtlist\000"
 2833      737400
 2834              	.LASF12:
 2835 01a4 6C6F6E67 		.ascii	"long long int\000"
 2835      206C6F6E 
 2835      6720696E 
 2835      7400
 2836              	.LASF78:
 2837 01b2 69646C65 		.ascii	"idle_thread_wa\000"
 2837      5F746872 
 2837      6561645F 
 2837      776100
 2838              	.LASF123:
 2839 01c1 67707473 		.ascii	"gptstate_t\000"
 2839      74617465 
 2839      5F7400
 2840              	.LASF0:
 2841 01cc 756E7369 		.ascii	"unsigned int\000"
 2841      676E6564 
 2841      20696E74 
 2841      00
 2842              	.LASF62:
 2843 01d9 76745F6E 		.ascii	"vt_next\000"
 2843      65787400 
 2844              	.LASF146:
 2845 01e1 6770744F 		.ascii	"gptObjectInit\000"
 2845      626A6563 
 2845      74496E69 
 2845      7400
 2846              	.LASF154:
 2847 01ef 6E766963 		.ascii	"nvicDisableVector\000"
ARM GAS  /tmp/ccbr6Prn.s 			page 53


 2847      44697361 
 2847      626C6556 
 2847      6563746F 
 2847      7200
 2848              	.LASF64:
 2849 0201 76745F64 		.ascii	"vt_delta\000"
 2849      656C7461 
 2849      00
 2850              	.LASF40:
 2851 020a 705F6D73 		.ascii	"p_msgqueue\000"
 2851      67717565 
 2851      756500
 2852              	.LASF90:
 2853 0215 5243435F 		.ascii	"RCC_TypeDef\000"
 2853      54797065 
 2853      44656600 
 2854              	.LASF47:
 2855 0221 63685F74 		.ascii	"ch_thread\000"
 2855      68726561 
 2855      6400
 2856              	.LASF135:
 2857 022b 67707470 		.ascii	"gptp\000"
 2857      00
 2858              	.LASF118:
 2859 0230 4750545F 		.ascii	"GPT_UNINIT\000"
 2859      554E494E 
 2859      495400
 2860              	.LASF129:
 2861 023b 67707466 		.ascii	"gptfreq_t\000"
 2861      7265715F 
 2861      7400
 2862              	.LASF45:
 2863 0245 705F6D70 		.ascii	"p_mpool\000"
 2863      6F6F6C00 
 2864              	.LASF25:
 2865 024d 6D73675F 		.ascii	"msg_t\000"
 2865      7400
 2866              	.LASF153:
 2867 0253 5F706F72 		.ascii	"_port_irq_epilogue\000"
 2867      745F6972 
 2867      715F6570 
 2867      696C6F67 
 2867      756500
 2868              	.LASF132:
 2869 0266 63616C6C 		.ascii	"callback\000"
 2869      6261636B 
 2869      00
 2870              	.LASF137:
 2871 026f 6770745F 		.ascii	"gpt_lld_init\000"
 2871      6C6C645F 
 2871      696E6974 
 2871      00
 2872              	.LASF104:
 2873 027c 73746D33 		.ascii	"stm32_tim_t\000"
 2873      325F7469 
 2873      6D5F7400 
 2874              	.LASF16:
ARM GAS  /tmp/ccbr6Prn.s 			page 54


 2875 0288 75696E74 		.ascii	"uint16_t\000"
 2875      31365F74 
 2875      00
 2876              	.LASF52:
 2877 0291 63685F72 		.ascii	"ch_ready_list\000"
 2877      65616479 
 2877      5F6C6973 
 2877      7400
 2878              	.LASF26:
 2879 029f 6576656E 		.ascii	"eventmask_t\000"
 2879      746D6173 
 2879      6B5F7400 
 2880              	.LASF8:
 2881 02ab 5F5F696E 		.ascii	"__int32_t\000"
 2881      7433325F 
 2881      7400
 2882              	.LASF92:
 2883 02b5 73746B61 		.ascii	"stkalign_t\000"
 2883      6C69676E 
 2883      5F7400
 2884              	.LASF46:
 2885 02c0 74687265 		.ascii	"threads_list_t\000"
 2885      6164735F 
 2885      6C697374 
 2885      5F7400
 2886              	.LASF148:
 2887 02cf 474E5520 		.ascii	"GNU C 4.9.3 20141119 (release) [ARM/embedded-4_9-br"
 2887      4320342E 
 2887      392E3320 
 2887      32303134 
 2887      31313139 
 2888 0302 616E6368 		.ascii	"anch revision 218278] -mcpu=cortex-m4 -mfloat-abi=h"
 2888      20726576 
 2888      6973696F 
 2888      6E203231 
 2888      38323738 
 2889 0335 61726420 		.ascii	"ard -mfpu=fpv4-sp-d16 -mno-thumb-interwork -mthumb "
 2889      2D6D6670 
 2889      753D6670 
 2889      76342D73 
 2889      702D6431 
 2890 0368 2D676764 		.ascii	"-ggdb -O2 -fomit-frame-pointer -falign-functions=16"
 2890      62202D4F 
 2890      32202D66 
 2890      6F6D6974 
 2890      2D667261 
 2891 039b 202D6666 		.ascii	" -ffunction-sections -fdata-sections -fno-common -f"
 2891      756E6374 
 2891      696F6E2D 
 2891      73656374 
 2891      696F6E73 
 2892 03ce 73696E67 		.ascii	"single-precision-constant\000"
 2892      6C652D70 
 2892      72656369 
 2892      73696F6E 
 2892      2D636F6E 
 2893              	.LASF39:
ARM GAS  /tmp/ccbr6Prn.s 			page 55


 2894 03e8 705F7761 		.ascii	"p_waiting\000"
 2894      6974696E 
 2894      6700
 2895              	.LASF79:
 2896 03f2 73697A65 		.ascii	"sizetype\000"
 2896      74797065 
 2896      00
 2897              	.LASF68:
 2898 03fb 63685F76 		.ascii	"ch_virtual_timers_list\000"
 2898      69727475 
 2898      616C5F74 
 2898      696D6572 
 2898      735F6C69 
 2899              	.LASF120:
 2900 0412 4750545F 		.ascii	"GPT_READY\000"
 2900      52454144 
 2900      5900
 2901              	.LASF29:
 2902 041c 705F6E65 		.ascii	"p_next\000"
 2902      787400
 2903              	.LASF145:
 2904 0423 6770745F 		.ascii	"gpt_lld_stop_timer\000"
 2904      6C6C645F 
 2904      73746F70 
 2904      5F74696D 
 2904      657200
 2905              	.LASF69:
 2906 0436 76745F6C 		.ascii	"vt_lasttime\000"
 2906      61737474 
 2906      696D6500 
 2907              	.LASF34:
 2908 0442 705F6F6C 		.ascii	"p_older\000"
 2908      64657200 
 2909              	.LASF55:
 2910 044a 725F6374 		.ascii	"r_ctx\000"
 2910      7800
 2911              	.LASF106:
 2912 0450 746D5F63 		.ascii	"tm_calibration_t\000"
 2912      616C6962 
 2912      72617469 
 2912      6F6E5F74 
 2912      00
 2913              	.LASF87:
 2914 0461 41484252 		.ascii	"AHBRSTR\000"
 2914      53545200 
 2915              	.LASF58:
 2916 0469 725F6375 		.ascii	"r_current\000"
 2916      7272656E 
 2916      7400
 2917              	.LASF140:
 2918 0473 6770745F 		.ascii	"gpt_lld_start_timer\000"
 2918      6C6C645F 
 2918      73746172 
 2918      745F7469 
 2918      6D657200 
 2919              	.LASF13:
 2920 0487 5F5F7569 		.ascii	"__uint64_t\000"
ARM GAS  /tmp/ccbr6Prn.s 			page 56


 2920      6E743634 
 2920      5F7400
 2921              	.LASF151:
 2922 0492 6770745F 		.ascii	"gpt_lld_serve_interrupt\000"
 2922      6C6C645F 
 2922      73657276 
 2922      655F696E 
 2922      74657272 
 2923              	.LASF23:
 2924 04aa 74726566 		.ascii	"trefs_t\000"
 2924      735F7400 
 2925              	.LASF94:
 2926 04b2 706F7274 		.ascii	"port_intctx\000"
 2926      5F696E74 
 2926      63747800 
 2927              	.LASF60:
 2928 04be 76697274 		.ascii	"virtual_timer_t\000"
 2928      75616C5F 
 2928      74696D65 
 2928      725F7400 
 2929              	.LASF30:
 2930 04ce 705F7072 		.ascii	"p_prev\000"
 2930      657600
 2931              	.LASF24:
 2932 04d5 74707269 		.ascii	"tprio_t\000"
 2932      6F5F7400 
 2933              	.LASF112:
 2934 04dd 6D757465 		.ascii	"mutex\000"
 2934      7800
 2935              	.LASF71:
 2936 04e3 63685F73 		.ascii	"ch_system_debug\000"
 2936      79737465 
 2936      6D5F6465 
 2936      62756700 
 2937              	.LASF117:
 2938 04f3 5F426F6F 		.ascii	"_Bool\000"
 2938      6C00
 2939              	.LASF17:
 2940 04f9 696E7433 		.ascii	"int32_t\000"
 2940      325F7400 
 2941              	.LASF4:
 2942 0501 756E7369 		.ascii	"unsigned char\000"
 2942      676E6564 
 2942      20636861 
 2942      7200
 2943              	.LASF143:
 2944 050f 49544D5F 		.ascii	"ITM_RxBuffer\000"
 2944      52784275 
 2944      66666572 
 2944      00
 2945              	.LASF43:
 2946 051c 705F6D74 		.ascii	"p_mtxlist\000"
 2946      786C6973 
 2946      7400
 2947              	.LASF5:
 2948 0526 73686F72 		.ascii	"short int\000"
 2948      7420696E 
ARM GAS  /tmp/ccbr6Prn.s 			page 57


 2948      7400
 2949              	.LASF36:
 2950 0530 705F7374 		.ascii	"p_state\000"
 2950      61746500 
 2951              	.LASF54:
 2952 0538 725F7072 		.ascii	"r_prio\000"
 2952      696F00
 2953              	.LASF110:
 2954 053f 65776D61 		.ascii	"ewmask\000"
 2954      736B00
 2955              	.LASF37:
 2956 0546 705F666C 		.ascii	"p_flags\000"
 2956      61677300 
 2957              	.LASF152:
 2958 054e 5F5F6675 		.ascii	"__func__\000"
 2958      6E635F5F 
 2958      00
 2959              	.LASF84:
 2960 0557 41504232 		.ascii	"APB2ENR\000"
 2960      454E5200 
 2961              	.LASF61:
 2962 055f 63685F76 		.ascii	"ch_virtual_timer\000"
 2962      69727475 
 2962      616C5F74 
 2962      696D6572 
 2962      00
 2963              	.LASF103:
 2964 0570 43435852 		.ascii	"CCXR\000"
 2964      00
 2965              	.LASF42:
 2966 0575 705F6570 		.ascii	"p_epending\000"
 2966      656E6469 
 2966      6E6700
 2967              	.LASF119:
 2968 0580 4750545F 		.ascii	"GPT_STOP\000"
 2968      53544F50 
 2968      00
 2969              	.LASF18:
 2970 0589 75696E74 		.ascii	"uint32_t\000"
 2970      33325F74 
 2970      00
 2971              	.LASF53:
 2972 0592 725F7175 		.ascii	"r_queue\000"
 2972      65756500 
 2973              	.LASF48:
 2974 059a 63685F74 		.ascii	"ch_threads_list\000"
 2974      68726561 
 2974      64735F6C 
 2974      69737400 
 2975              	.LASF150:
 2976 05aa 2F686F6D 		.ascii	"/home/bhimebau/forge/annsynth/src\000"
 2976      652F6268 
 2976      696D6562 
 2976      61752F66 
 2976      6F726765 
 2977              	.LASF11:
 2978 05cc 6C6F6E67 		.ascii	"long unsigned int\000"
ARM GAS  /tmp/ccbr6Prn.s 			page 58


 2978      20756E73 
 2978      69676E65 
 2978      6420696E 
 2978      7400
 2979              	.LASF111:
 2980 05de 63686172 		.ascii	"char\000"
 2980      00
 2981              	.LASF6:
 2982 05e3 5F5F7569 		.ascii	"__uint16_t\000"
 2982      6E743136 
 2982      5F7400
 2983              	.LASF95:
 2984 05ee 534D4352 		.ascii	"SMCR\000"
 2984      00
 2985              	.LASF126:
 2986 05f3 636F6E66 		.ascii	"config\000"
 2986      696700
 2987              	.LASF101:
 2988 05fa 444D4152 		.ascii	"DMAR\000"
 2988      00
 2989              	.LASF28:
 2990 05ff 74687265 		.ascii	"thread_t\000"
 2990      61645F74 
 2990      00
 2991              	.LASF99:
 2992 0608 43434552 		.ascii	"CCER\000"
 2992      00
 2993              	.LASF115:
 2994 060d 6D5F6E65 		.ascii	"m_next\000"
 2994      787400
 2995              	.LASF27:
 2996 0614 73797374 		.ascii	"systime_t\000"
 2996      696D655F 
 2996      7400
 2997              	.LASF44:
 2998 061e 705F7265 		.ascii	"p_realprio\000"
 2998      616C7072 
 2998      696F00
 2999              	.LASF59:
 3000 0629 76746675 		.ascii	"vtfunc_t\000"
 3000      6E635F74 
 3000      00
 3001              	.LASF10:
 3002 0632 5F5F7569 		.ascii	"__uint32_t\000"
 3002      6E743332 
 3002      5F7400
 3003              	.LASF72:
 3004 063d 70616E69 		.ascii	"panic_msg\000"
 3004      635F6D73 
 3004      6700
 3005              	.LASF105:
 3006 0647 6F666673 		.ascii	"offset\000"
 3006      657400
 3007              	.LASF85:
 3008 064e 41504231 		.ascii	"APB1ENR\000"
 3008      454E5200 
 3009              	.LASF134:
ARM GAS  /tmp/ccbr6Prn.s 			page 59


 3010 0656 47505443 		.ascii	"GPTConfig\000"
 3010      6F6E6669 
 3010      6700
 3011              	.LASF93:
 3012 0660 636F6E74 		.ascii	"context\000"
 3012      65787400 
 3013              	.LASF57:
 3014 0668 725F6F6C 		.ascii	"r_older\000"
 3014      64657200 
 3015              	.LASF73:
 3016 0670 63685F73 		.ascii	"ch_system_t\000"
 3016      79737465 
 3016      6D5F7400 
 3017              	.LASF149:
 3018 067c 2E2E2F43 		.ascii	"../ChibiOS/os/hal/ports/STM32/LLD/TIMv1/gpt_lld.c\000"
 3018      68696269 
 3018      4F532F6F 
 3018      732F6861 
 3018      6C2F706F 
 3019              	.LASF20:
 3020 06ae 7274636E 		.ascii	"rtcnt_t\000"
 3020      745F7400 
 3021              	.LASF138:
 3022 06b6 6770745F 		.ascii	"gpt_lld_start\000"
 3022      6C6C645F 
 3022      73746172 
 3022      7400
 3023              	.LASF66:
 3024 06c4 76745F70 		.ascii	"vt_par\000"
 3024      617200
 3025              	.LASF49:
 3026 06cb 74687265 		.ascii	"threads_queue_t\000"
 3026      6164735F 
 3026      71756575 
 3026      655F7400 
 3027              	.LASF38:
 3028 06db 705F7265 		.ascii	"p_refs\000"
 3028      667300
 3029              	.LASF142:
 3030 06e2 6770745F 		.ascii	"gpt_lld_polled_delay\000"
 3030      6C6C645F 
 3030      706F6C6C 
 3030      65645F64 
 3030      656C6179 
 3031              	.LASF139:
 3032 06f7 6770745F 		.ascii	"gpt_lld_stop\000"
 3032      6C6C645F 
 3032      73746F70 
 3032      00
 3033              	.LASF86:
 3034 0704 42444352 		.ascii	"BDCR\000"
 3034      00
 3035              	.LASF75:
 3036 0709 726C6973 		.ascii	"rlist\000"
 3036      7400
 3037              	.LASF88:
 3038 070f 43464752 		.ascii	"CFGR2\000"
ARM GAS  /tmp/ccbr6Prn.s 			page 60


 3038      3200
 3039              	.LASF89:
 3040 0715 43464752 		.ascii	"CFGR3\000"
 3040      3300
 3041              	.LASF15:
 3042 071b 75696E74 		.ascii	"uint8_t\000"
 3042      385F7400 
 3043              	.LASF109:
 3044 0723 77746F62 		.ascii	"wtobjp\000"
 3044      6A7000
 3045              	.LASF35:
 3046 072a 705F6E61 		.ascii	"p_name\000"
 3046      6D6500
 3047              	.LASF80:
 3048 0731 43464752 		.ascii	"CFGR\000"
 3048      00
 3049              	.LASF21:
 3050 0736 746D6F64 		.ascii	"tmode_t\000"
 3050      655F7400 
 3051              	.LASF127:
 3052 073e 636C6F63 		.ascii	"clock\000"
 3052      6B00
 3053              	.LASF41:
 3054 0744 705F6D73 		.ascii	"p_msg\000"
 3054      6700
 3055              	.LASF116:
 3056 074a 6D757465 		.ascii	"mutex_t\000"
 3056      785F7400 
 3057              	.LASF114:
 3058 0752 6D5F6F77 		.ascii	"m_owner\000"
 3058      6E657200 
 3059              	.LASF32:
 3060 075a 705F6374 		.ascii	"p_ctx\000"
 3060      7800
 3061              	.LASF65:
 3062 0760 76745F66 		.ascii	"vt_func\000"
 3062      756E6300 
 3063              	.LASF83:
 3064 0768 41484245 		.ascii	"AHBENR\000"
 3064      4E5200
 3065              	.LASF133:
 3066 076f 64696572 		.ascii	"dier\000"
 3066      00
 3067              		.ident	"GCC: (GNU Tools for ARM Embedded Processors) 4.9.3 20141119 (release) [ARM/embedded-4_9-br
ARM GAS  /tmp/ccbr6Prn.s 			page 61


DEFINED SYMBOLS
                            *ABS*:00000000 gpt_lld.c
     /tmp/ccbr6Prn.s:21     .text.VectorA4:00000000 $t
     /tmp/ccbr6Prn.s:27     .text.VectorA4:00000000 VectorA4
     /tmp/ccbr6Prn.s:91     .text.VectorA4:00000030 $d
     /tmp/ccbr6Prn.s:96     .text.gpt_lld_init:00000000 $t
     /tmp/ccbr6Prn.s:102    .text.gpt_lld_init:00000000 gpt_lld_init
     /tmp/ccbr6Prn.s:119    .text.gpt_lld_init:0000000c $d
     /tmp/ccbr6Prn.s:125    .text.gpt_lld_start:00000000 $t
     /tmp/ccbr6Prn.s:131    .text.gpt_lld_start:00000000 gpt_lld_start
     /tmp/ccbr6Prn.s:218    .text.gpt_lld_start:0000005c $d
     /tmp/ccbr6Prn.s:225    .text.gpt_lld_stop:00000000 $t
     /tmp/ccbr6Prn.s:231    .text.gpt_lld_stop:00000000 gpt_lld_stop
     /tmp/ccbr6Prn.s:280    .text.gpt_lld_stop:0000002c $d
     /tmp/ccbr6Prn.s:286    .text.gpt_lld_start_timer:00000000 $t
     /tmp/ccbr6Prn.s:292    .text.gpt_lld_start_timer:00000000 gpt_lld_start_timer
     /tmp/ccbr6Prn.s:337    .text.gpt_lld_stop_timer:00000000 $t
     /tmp/ccbr6Prn.s:343    .text.gpt_lld_stop_timer:00000000 gpt_lld_stop_timer
     /tmp/ccbr6Prn.s:366    .text.gpt_lld_polled_delay:00000000 $t
     /tmp/ccbr6Prn.s:372    .text.gpt_lld_polled_delay:00000000 gpt_lld_polled_delay
     /tmp/ccbr6Prn.s:413    .bss.GPTD1:00000000 GPTD1
     /tmp/ccbr6Prn.s:409    .bss.GPTD1:00000000 $d
                     .debug_frame:00000010 $d
     /tmp/ccbr6Prn.s:95     .text.VectorA4:00000034 $t
     /tmp/ccbr6Prn.s:124    .text.gpt_lld_init:00000014 $t
     /tmp/ccbr6Prn.s:224    .text.gpt_lld_start:00000068 $t
     /tmp/ccbr6Prn.s:285    .text.gpt_lld_stop:00000034 $t

UNDEFINED SYMBOLS
_port_irq_epilogue
gptObjectInit
nvicEnableVector
nvicDisableVector
