ARM GAS  /tmp/ccPXmjlb.s 			page 1


   1              		.syntax unified
   2              		.cpu cortex-m4
   3              		.eabi_attribute 27, 3
   4              		.eabi_attribute 28, 1
   5              		.fpu fpv4-sp-d16
   6              		.eabi_attribute 20, 1
   7              		.eabi_attribute 21, 1
   8              		.eabi_attribute 23, 3
   9              		.eabi_attribute 24, 1
  10              		.eabi_attribute 25, 1
  11              		.eabi_attribute 26, 1
  12              		.eabi_attribute 30, 2
  13              		.eabi_attribute 34, 1
  14              		.eabi_attribute 18, 4
  15              		.thumb
  16              		.file	"hal.c"
  17              		.text
  18              	.Ltext0:
  19              		.cfi_sections	.debug_frame
  20              		.section	.text.halInit,"ax",%progbits
  21              		.align	2
  22              		.p2align 4,,15
  23              		.global	halInit
  24              		.thumb
  25              		.thumb_func
  26              		.type	halInit, %function
  27              	halInit:
  28              	.LFB255:
  29              		.file 1 "../ChibiOS/os/hal/src/hal.c"
  30              		.loc 1 59 0
  31              		.cfi_startproc
  32              		@ args = 0, pretend = 0, frame = 0
  33              		@ frame_needed = 0, uses_anonymous_args = 0
  34 0000 08B5     		push	{r3, lr}
  35              		.cfi_def_cfa_offset 8
  36              		.cfi_offset 3, -8
  37              		.cfi_offset 14, -4
  38              		.loc 1 65 0
  39 0002 FFF7FEFF 		bl	hal_lld_init
  40              	.LVL0:
  41              		.loc 1 68 0
  42 0006 0948     		ldr	r0, .L3
  43 0008 FFF7FEFF 		bl	_pal_lld_init
  44              	.LVL1:
  45              		.loc 1 71 0
  46 000c FFF7FEFF 		bl	adcInit
  47              	.LVL2:
  48              		.loc 1 80 0
  49 0010 FFF7FEFF 		bl	gptInit
  50              	.LVL3:
  51              		.loc 1 98 0
  52 0014 FFF7FEFF 		bl	sdInit
  53              	.LVL4:
  54              		.loc 1 110 0
  55 0018 FFF7FEFF 		bl	usbInit
  56              	.LVL5:
  57              		.loc 1 116 0
ARM GAS  /tmp/ccPXmjlb.s 			page 2


  58 001c FFF7FEFF 		bl	sduInit
  59              	.LVL6:
  60              		.loc 1 128 0
  61 0020 FFF7FEFF 		bl	boardInit
  62              	.LVL7:
  63              		.loc 1 137 0
  64 0024 BDE80840 		pop	{r3, lr}
  65              		.cfi_restore 14
  66              		.cfi_restore 3
  67              		.cfi_def_cfa_offset 0
  68              		.loc 1 135 0
  69 0028 FFF7FEBF 		b	stInit
  70              	.LVL8:
  71              	.L4:
  72              		.align	2
  73              	.L3:
  74 002c 00000000 		.word	pal_default_config
  75              		.cfi_endproc
  76              	.LFE255:
  77              		.size	halInit, .-halInit
  78              		.text
  79              	.Letext0:
  80              		.file 2 "/l/arm2/gcc-arm-none-eabi-4_9-2014q4/arm-none-eabi/include/machine/_default_types.h"
  81              		.file 3 "/l/arm2/gcc-arm-none-eabi-4_9-2014q4/arm-none-eabi/include/stdint.h"
  82              		.file 4 "../ChibiOS/os/rt/ports/ARMCMx/compilers/GCC/chtypes.h"
  83              		.file 5 "../ChibiOS/os/rt/include/chsystypes.h"
  84              		.file 6 "../ChibiOS/os/rt/include/chschd.h"
  85              		.file 7 "../ChibiOS/os/rt/ports/ARMCMx/chcore.h"
  86              		.file 8 "../ChibiOS/os/rt/ports/ARMCMx/chcore_v7m.h"
  87              		.file 9 "../ChibiOS/os/rt/include/chtm.h"
  88              		.file 10 "../ChibiOS/os/rt/include/chmtx.h"
  89              		.file 11 "../ChibiOS/os/hal/ports/STM32/LLD/GPIOv2/pal_lld.h"
  90              		.file 12 "../ChibiOS/os/ext/CMSIS/include/core_cm4.h"
  91              		.file 13 "../ChibiOS/os/hal/ports/STM32/STM32F3xx/hal_lld.h"
  92              		.file 14 "../ChibiOS/os/hal/include/adc.h"
  93              		.file 15 "../ChibiOS/os/hal/include/gpt.h"
  94              		.file 16 "../ChibiOS/os/hal/include/serial.h"
  95              		.file 17 "../ChibiOS/os/hal/include/usb.h"
  96              		.file 18 "../ChibiOS/os/hal/include/serial_usb.h"
  97              		.file 19 "../ChibiOS/os/hal/boards/ST_STM32F3_DISCOVERY/board.h"
  98              		.file 20 "../ChibiOS/os/hal/include/st.h"
  99              		.file 21 "../ChibiOS/os/hal/osal/rt/osal.h"