ARM GAS  /tmp/cc424F2O.s 			page 1


   1              		.syntax unified
   2              		.cpu cortex-m4
   3              		.eabi_attribute 27, 3
   4              		.eabi_attribute 28, 1
   5              		.fpu fpv4-sp-d16
   6              		.eabi_attribute 20, 1
   7              		.eabi_attribute 21, 1
   8              		.eabi_attribute 23, 3
   9              		.eabi_attribute 24, 1
  10              		.eabi_attribute 25, 1
  11              		.eabi_attribute 26, 1
  12              		.eabi_attribute 30, 2
  13              		.eabi_attribute 34, 1
  14              		.eabi_attribute 18, 4
  15              		.thumb
  16              		.file	"main.c"
  17              		.text
  18              	.Ltext0:
  19              		.cfi_sections	.debug_frame
  20              		.section	.text.counterThread,"ax",%progbits
  21              		.align	2
  22              		.p2align 4,,15
  23              		.thumb
  24              		.thumb_func
  25              		.type	counterThread, %function
  26              	counterThread:
  27              	.LFB292:
  28              		.file 1 "main.c"
  29              		.loc 1 120 0
  30              		.cfi_startproc
  31              		@ Volatile: function does not return.
  32              		@ args = 0, pretend = 0, frame = 0
  33              		@ frame_needed = 0, uses_anonymous_args = 0
  34              	.LVL0:
  35 0000 08B5     		push	{r3, lr}
  36              		.cfi_def_cfa_offset 8
  37              		.cfi_offset 3, -8
  38              		.cfi_offset 14, -4
  39              		.loc 1 123 0
  40 0002 4FF40075 		mov	r5, #512
  41 0006 064C     		ldr	r4, .L5
  42 0008 2E46     		mov	r6, r5	@ movhi
  43              	.LVL1:
  44              	.L2:
  45              		.loc 1 123 0 is_stmt 0 discriminator 1
  46 000a 2683     		strh	r6, [r4, #24]	@ movhi
  47              		.loc 1 124 0 is_stmt 1 discriminator 1
  48 000c 41F28830 		movw	r0, #5000
  49 0010 FFF7FEFF 		bl	chThdSleep
  50              	.LVL2:
  51              		.loc 1 125 0 discriminator 1
  52 0014 6583     		strh	r5, [r4, #26]	@ movhi
  53              		.loc 1 126 0 discriminator 1
  54 0016 41F28830 		movw	r0, #5000
  55 001a FFF7FEFF 		bl	chThdSleep
  56              	.LVL3:
  57              		.loc 1 127 0 discriminator 1
ARM GAS  /tmp/cc424F2O.s 			page 2


  58 001e F4E7     		b	.L2
  59              	.L6:
  60              		.align	2
  61              	.L5:
  62 0020 00100048 		.word	1207963648
  63              		.cfi_endproc
  64              	.LFE292:
  65              		.size	counterThread, .-counterThread
  66 0024 AFF30080 		.section	.text.chprintf,"ax",%progbits
  66      AFF30080 
  66      AFF30080 
  67              		.align	2
  68              		.p2align 4,,15
  69              		.thumb
  70              		.thumb_func
  71              		.type	chprintf, %function
  72              	chprintf:
  73              	.LFB255:
  74              		.file 2 "../ChibiOS/os/hal/lib/streams/chprintf.h"
  75              		.loc 2 69 0
  76              		.cfi_startproc
  77              		@ args = 4, pretend = 12, frame = 8
  78              		@ frame_needed = 0, uses_anonymous_args = 1
  79              	.LVL4:
  80 0000 0EB4     		push	{r1, r2, r3}
  81              		.cfi_def_cfa_offset 12
  82              		.cfi_offset 1, -12
  83              		.cfi_offset 2, -8
  84              		.cfi_offset 3, -4
  85 0002 00B5     		push	{lr}
  86              		.cfi_def_cfa_offset 16
  87              		.cfi_offset 14, -16
  88 0004 82B0     		sub	sp, sp, #8
  89              		.cfi_def_cfa_offset 24
  90              		.loc 2 69 0
  91 0006 03AA     		add	r2, sp, #12
  92 0008 52F8041B 		ldr	r1, [r2], #4
  93              		.loc 2 73 0
  94 000c 0192     		str	r2, [sp, #4]
  95              		.loc 2 74 0
  96 000e FFF7FEFF 		bl	chvprintf
  97              	.LVL5:
  98              		.loc 2 78 0
  99 0012 02B0     		add	sp, sp, #8
 100              		.cfi_def_cfa_offset 16
 101              		@ sp needed
 102 0014 5DF804EB 		ldr	lr, [sp], #4
 103              		.cfi_restore 14
 104              		.cfi_def_cfa_offset 12
 105 0018 03B0     		add	sp, sp, #12
 106              		.cfi_restore 3
 107              		.cfi_restore 2
 108              		.cfi_restore 1
 109              		.cfi_def_cfa_offset 0
 110 001a 7047     		bx	lr
 111              		.cfi_endproc
 112              	.LFE255:
ARM GAS  /tmp/cc424F2O.s 			page 3


 113              		.size	chprintf, .-chprintf
 114 001c AFF30080 		.section	.text.termination_handler,"ax",%progbits
 115              		.align	2
 116              		.p2align 4,,15
 117              		.thumb
 118              		.thumb_func
 119              		.type	termination_handler, %function
 120              	termination_handler:
 121              	.LFB298:
 122              		.loc 1 241 0
 123              		.cfi_startproc
 124              		@ args = 0, pretend = 0, frame = 0
 125              		@ frame_needed = 0, uses_anonymous_args = 0
 126              	.LVL6:
 127 0000 10B5     		push	{r4, lr}
 128              		.cfi_def_cfa_offset 8
 129              		.cfi_offset 4, -8
 130              		.cfi_offset 14, -4
 131              		.loc 1 246 0
 132 0002 0E4C     		ldr	r4, .L16
 133              		.loc 1 244 0
 134 0004 0E48     		ldr	r0, .L16+4
 135              	.LVL7:
 136 0006 0F49     		ldr	r1, .L16+8
 137 0008 FFF7FEFF 		bl	chprintf
 138              	.LVL8:
 139              		.loc 1 246 0
 140 000c 2068     		ldr	r0, [r4]
 141 000e 10B1     		cbz	r0, .L9
 142              	.LVL9:
 143              		.loc 1 246 0 is_stmt 0 discriminator 1
 144 0010 037F     		ldrb	r3, [r0, #28]	@ zero_extendqisi2
 145 0012 0F2B     		cmp	r3, #15
 146 0014 00D0     		beq	.L15
 147              	.LVL10:
 148              	.L9:
 149 0016 10BD     		pop	{r4, pc}
 150              	.LVL11:
 151              	.L15:
 152              		.loc 1 247 0 is_stmt 1
 153 0018 FFF7FEFF 		bl	chThdWait
 154              	.LVL12:
 155              		.loc 1 248 0
 156 001c 0A49     		ldr	r1, .L16+12
 157 001e 0848     		ldr	r0, .L16+4
 158 0020 FFF7FEFF 		bl	chprintf
 159              	.LVL13:
 160              		.loc 1 249 0
 161 0024 4FF47A70 		mov	r0, #1000
 162 0028 FFF7FEFF 		bl	chThdSleep
 163              	.LVL14:
 164              		.loc 1 250 0
 165 002c 0748     		ldr	r0, .L16+16
 166 002e 4FF41561 		mov	r1, #2384
 167 0032 4022     		movs	r2, #64
 168 0034 FFF7FEFF 		bl	shellCreate
 169              	.LVL15:
ARM GAS  /tmp/cc424F2O.s 			page 4


 170 0038 2060     		str	r0, [r4]
 171 003a 10BD     		pop	{r4, pc}
 172              	.L17:
 173              		.align	2
 174              	.L16:
 175 003c 00000000 		.word	.LANCHOR0
 176 0040 00000000 		.word	SD1
 177 0044 00000000 		.word	.LC0
 178 0048 10000000 		.word	.LC1
 179 004c 00000000 		.word	.LANCHOR1
 180              		.cfi_endproc
 181              	.LFE298:
 182              		.size	termination_handler, .-termination_handler
 183              		.section	.text.cmd_myecho,"ax",%progbits
 184              		.align	2
 185              		.p2align 4,,15
 186              		.thumb
 187              		.thumb_func
 188              		.type	cmd_myecho, %function
 189              	cmd_myecho:
 190              	.LFB293:
 191              		.loc 1 131 0
 192              		.cfi_startproc
 193              		@ args = 0, pretend = 0, frame = 0
 194              		@ frame_needed = 0, uses_anonymous_args = 0
 195              	.LVL16:
 196              		.loc 1 136 0
 197 0000 0029     		cmp	r1, #0
 198 0002 0EDD     		ble	.L24
 199              		.loc 1 131 0
 200 0004 F8B5     		push	{r3, r4, r5, r6, r7, lr}
 201              		.cfi_def_cfa_offset 24
 202              		.cfi_offset 3, -24
 203              		.cfi_offset 4, -20
 204              		.cfi_offset 5, -16
 205              		.cfi_offset 6, -12
 206              		.cfi_offset 7, -8
 207              		.cfi_offset 14, -4
 208 0006 0F46     		mov	r7, r1
 209 0008 0646     		mov	r6, r0
 210 000a 151F     		subs	r5, r2, #4
 211              		.loc 1 136 0
 212 000c 0024     		movs	r4, #0
 213              	.LVL17:
 214              	.L20:
 215              		.loc 1 136 0 is_stmt 0 discriminator 3
 216 000e 0134     		adds	r4, r4, #1
 217              	.LVL18:
 218              		.loc 1 137 0 is_stmt 1 discriminator 3
 219 0010 3046     		mov	r0, r6
 220 0012 0449     		ldr	r1, .L25
 221 0014 55F8042F 		ldr	r2, [r5, #4]!
 222 0018 FFF7FEFF 		bl	chprintf
 223              	.LVL19:
 224              		.loc 1 136 0 discriminator 3
 225 001c BC42     		cmp	r4, r7
 226 001e F6D1     		bne	.L20
ARM GAS  /tmp/cc424F2O.s 			page 5


 227 0020 F8BD     		pop	{r3, r4, r5, r6, r7, pc}
 228              	.LVL20:
 229              	.L24:
 230              		.cfi_def_cfa_offset 0
 231              		.cfi_restore 3
 232              		.cfi_restore 4
 233              		.cfi_restore 5
 234              		.cfi_restore 6
 235              		.cfi_restore 7
 236              		.cfi_restore 14
 237 0022 7047     		bx	lr
 238              	.L26:
 239              		.align	2
 240              	.L25:
 241 0024 38000000 		.word	.LC2
 242              		.cfi_endproc
 243              	.LFE293:
 244              		.size	cmd_myecho, .-cmd_myecho
 245 0028 AFF30080 		.section	.text.cmd_collect,"ax",%progbits
 245      AFF30080 
 246              		.align	2
 247              		.p2align 4,,15
 248              		.thumb
 249              		.thumb_func
 250              		.type	cmd_collect, %function
 251              	cmd_collect:
 252              	.LFB297:
 253              		.loc 1 189 0
 254              		.cfi_startproc
 255              		@ args = 0, pretend = 0, frame = 32
 256              		@ frame_needed = 0, uses_anonymous_args = 0
 257              	.LVL21:
 258 0000 30B5     		push	{r4, r5, lr}
 259              		.cfi_def_cfa_offset 12
 260              		.cfi_offset 4, -12
 261              		.cfi_offset 5, -8
 262              		.cfi_offset 14, -4
 263 0002 2DED048B 		fstmfdd	sp!, {d8, d9}
 264              		.cfi_def_cfa_offset 28
 265              		.cfi_offset 80, -28
 266              		.cfi_offset 81, -24
 267              		.cfi_offset 82, -20
 268              		.cfi_offset 83, -16
 269              		.loc 1 198 0
 270 0006 1B4C     		ldr	r4, .L33
 271 0008 0123     		movs	r3, #1
 272              		.loc 1 189 0
 273 000a 89B0     		sub	sp, sp, #36
 274              		.cfi_def_cfa_offset 64
 275              		.loc 1 198 0
 276 000c 2360     		str	r3, [r4]
 277              	.LVL22:
 278              	.L28:
 279              		.loc 1 200 0
 280 000e 0A20     		movs	r0, #10
 281 0010 FFF7FEFF 		bl	chThdSleep
 282              	.LVL23:
ARM GAS  /tmp/cc424F2O.s 			page 6


 283              		.loc 1 199 0
 284 0014 2368     		ldr	r3, [r4]
 285 0016 002B     		cmp	r3, #0
 286 0018 F9D1     		bne	.L28
 287 001a 174C     		ldr	r4, .L33+4
 288              	.LBB18:
 289              	.LBB19:
 290              		.loc 1 86 0
 291 001c 9FED179A 		flds	s18, .L33+8
 292              		.loc 1 87 0
 293 0020 DFED178A 		flds	s17, .L33+12
 294 0024 9FED178A 		flds	s16, .L33+16
 295 0028 04F18005 		add	r5, r4, #128
 296              	.L29:
 297              	.LBE19:
 298              	.LBE18:
 299              		.loc 1 203 0 discriminator 3
 300 002c 54F8042F 		ldr	r2, [r4, #4]!
 301 0030 1549     		ldr	r1, .L33+20
 302 0032 1648     		ldr	r0, .L33+24
 303 0034 FFF7FEFF 		bl	chprintf
 304              	.LVL24:
 305              	.LBB22:
 306              	.LBB20:
 307              		.loc 1 86 0 discriminator 3
 308 0038 2388     		ldrh	r3, [r4]
 309 003a 07EE903A 		fmsr	s15, r3	@ int
 310 003e F8EE677A 		fuitos	s15, s15
 311 0042 B0EE087A 		fconsts	s14, #8
 312 0046 67EE897A 		fmuls	s15, s15, s18
 313              	.LBE20:
 314              	.LBE22:
 315              		.loc 1 204 0 discriminator 3
 316 004a B0EE480A 		fcpys	s0, s16
 317              	.LBB23:
 318              	.LBB21:
 319              		.loc 1 86 0 discriminator 3
 320 004e 67EE877A 		fmuls	s15, s15, s14
 321              	.LBE21:
 322              	.LBE23:
 323              		.loc 1 204 0 discriminator 3
 324 0052 6846     		mov	r0, sp
 325 0054 A7EEA80A 		vfma.f32	s0, s15, s17
 326 0058 FFF7FEFF 		bl	convFloat
 327              	.LVL25:
 328 005c 0C49     		ldr	r1, .L33+28
 329 005e 0246     		mov	r2, r0
 330 0060 0A48     		ldr	r0, .L33+24
 331 0062 FFF7FEFF 		bl	chprintf
 332              	.LVL26:
 333              		.loc 1 202 0 discriminator 3
 334 0066 AC42     		cmp	r4, r5
 335 0068 E0D1     		bne	.L29
 336              		.loc 1 206 0
 337 006a 09B0     		add	sp, sp, #36
 338              		.cfi_def_cfa_offset 28
 339              		@ sp needed
ARM GAS  /tmp/cc424F2O.s 			page 7


 340 006c BDEC048B 		fldmfdd	sp!, {d8-d9}
 341              		.cfi_restore 82
 342              		.cfi_restore 83
 343              		.cfi_restore 80
 344              		.cfi_restore 81
 345              		.cfi_def_cfa_offset 12
 346 0070 30BD     		pop	{r4, r5, pc}
 347              	.L34:
 348 0072 00BF     		.align	2
 349              	.L33:
 350 0074 00000000 		.word	.LANCHOR2
 351 0078 FCFFFFFF 		.word	.LANCHOR3-4
 352 007c 00008039 		.word	964689920
 353 0080 4815D73F 		.word	1071060296
 354 0084 142688BF 		.word	-1081596396
 355 0088 40000000 		.word	.LC3
 356 008c 00000000 		.word	SD1
 357 0090 48000000 		.word	.LC4
 358              		.cfi_endproc
 359              	.LFE297:
 360              		.size	cmd_collect, .-cmd_collect
 361 0094 AFF30080 		.section	.text.cmd_sample,"ax",%progbits
 361      AFF30080 
 361      AFF30080 
 362              		.align	2
 363              		.p2align 4,,15
 364              		.thumb
 365              		.thumb_func
 366              		.type	cmd_sample, %function
 367              	cmd_sample:
 368              	.LFB295:
 369              		.loc 1 163 0
 370              		.cfi_startproc
 371              		@ args = 0, pretend = 0, frame = 32
 372              		@ frame_needed = 0, uses_anonymous_args = 0
 373              	.LVL27:
 374 0000 30B5     		push	{r4, r5, lr}
 375              		.cfi_def_cfa_offset 12
 376              		.cfi_offset 4, -12
 377              		.cfi_offset 5, -8
 378              		.cfi_offset 14, -4
 379              		.loc 1 168 0
 380 0002 104C     		ldr	r4, .L37
 381 0004 104D     		ldr	r5, .L37+4
 382 0006 1149     		ldr	r1, .L37+8
 383              	.LVL28:
 384 0008 2A88     		ldrh	r2, [r5]
 385              	.LVL29:
 386              		.loc 1 163 0
 387 000a 89B0     		sub	sp, sp, #36
 388              		.cfi_def_cfa_offset 48
 389              		.loc 1 168 0
 390 000c 2046     		mov	r0, r4
 391              	.LVL30:
 392 000e FFF7FEFF 		bl	chprintf
 393              	.LVL31:
 394              	.LBB24:
ARM GAS  /tmp/cc424F2O.s 			page 8


 395              	.LBB25:
 396              		.loc 1 86 0
 397 0012 2B88     		ldrh	r3, [r5]
 398              		.loc 1 87 0
 399 0014 9FED0E7A 		flds	s14, .L37+12
 400 0018 9FED0E0A 		flds	s0, .L37+16
 401              		.loc 1 86 0
 402 001c 07EE903A 		fmsr	s15, r3	@ int
 403 0020 FBEECA7A 		vcvt.f32.u32	s15, s15, #12
 404 0024 F0EE086A 		fconsts	s13, #8
 405 0028 67EEA67A 		fmuls	s15, s15, s13
 406              	.LBE25:
 407              	.LBE24:
 408              		.loc 1 169 0
 409 002c 6846     		mov	r0, sp
 410 002e A7EE870A 		vfma.f32	s0, s15, s14
 411 0032 FFF7FEFF 		bl	convFloat
 412              	.LVL32:
 413 0036 0849     		ldr	r1, .L37+20
 414 0038 0246     		mov	r2, r0
 415 003a 2046     		mov	r0, r4
 416 003c FFF7FEFF 		bl	chprintf
 417              	.LVL33:
 418              		.loc 1 170 0
 419 0040 09B0     		add	sp, sp, #36
 420              		.cfi_def_cfa_offset 12
 421              		@ sp needed
 422 0042 30BD     		pop	{r4, r5, pc}
 423              	.L38:
 424              		.align	2
 425              	.L37:
 426 0044 00000000 		.word	SD1
 427 0048 00000000 		.word	.LANCHOR4
 428 004c 50000000 		.word	.LC5
 429 0050 4815D73F 		.word	1071060296
 430 0054 142688BF 		.word	-1081596396
 431 0058 38000000 		.word	.LC2
 432              		.cfi_endproc
 433              	.LFE295:
 434              		.size	cmd_sample, .-cmd_sample
 435 005c AFF30080 		.section	.text.cmd_testweights,"ax",%progbits
 436              		.align	2
 437              		.p2align 4,,15
 438              		.thumb
 439              		.thumb_func
 440              		.type	cmd_testweights, %function
 441              	cmd_testweights:
 442              	.LFB296:
 443              		.loc 1 172 0
 444              		.cfi_startproc
 445              		@ args = 0, pretend = 0, frame = 32
 446              		@ frame_needed = 0, uses_anonymous_args = 0
 447              	.LVL34:
 448 0000 70B5     		push	{r4, r5, r6, lr}
 449              		.cfi_def_cfa_offset 16
 450              		.cfi_offset 4, -16
 451              		.cfi_offset 5, -12
ARM GAS  /tmp/cc424F2O.s 			page 9


 452              		.cfi_offset 6, -8
 453              		.cfi_offset 14, -4
 454 0002 2DED048B 		fstmfdd	sp!, {d8, d9}
 455              		.cfi_def_cfa_offset 32
 456              		.cfi_offset 80, -32
 457              		.cfi_offset 81, -28
 458              		.cfi_offset 82, -24
 459              		.cfi_offset 83, -20
 460 0006 194D     		ldr	r5, .L43
 461 0008 194E     		ldr	r6, .L43+4
 462              		.loc 1 180 0
 463 000a 9FED1A9A 		flds	s18, .L43+8
 464 000e DFED1A8A 		flds	s17, .L43+12
 465              		.loc 1 172 0
 466 0012 88B0     		sub	sp, sp, #32
 467              		.cfi_def_cfa_offset 64
 468              		.loc 1 179 0
 469 0014 0024     		movs	r4, #0
 470              	.LVL35:
 471              	.L40:
 472              		.loc 1 180 0 discriminator 3
 473 0016 F5EC017A 		fldmias	r5!, {s15}
 474 001a B0EE688A 		fcpys	s16, s17
 475 001e A7EE898A 		vfma.f32	s16, s15, s18
 476              	.LVL36:
 477              		.loc 1 181 0 discriminator 3
 478 0022 B0EE480A 		fcpys	s0, s16
 479 0026 FFF7FEFF 		bl	EvaluateNet
 480              	.LVL37:
 481              		.loc 1 182 0 discriminator 3
 482 002a 2246     		mov	r2, r4
 483 002c 1349     		ldr	r1, .L43+16
 484 002e 1448     		ldr	r0, .L43+20
 485 0030 FFF7FEFF 		bl	chprintf
 486              	.LVL38:
 487              		.loc 1 183 0 discriminator 3
 488 0034 B0EE480A 		fcpys	s0, s16
 489 0038 6846     		mov	r0, sp
 490 003a FFF7FEFF 		bl	convFloat
 491              	.LVL39:
 492 003e 1149     		ldr	r1, .L43+24
 493 0040 0246     		mov	r2, r0
 494 0042 0F48     		ldr	r0, .L43+20
 495 0044 FFF7FEFF 		bl	chprintf
 496              	.LVL40:
 497              		.loc 1 184 0 discriminator 3
 498 0048 96ED000A 		flds	s0, [r6]
 499 004c 6846     		mov	r0, sp
 500 004e FFF7FEFF 		bl	convFloat
 501              	.LVL41:
 502              		.loc 1 179 0 discriminator 3
 503 0052 0134     		adds	r4, r4, #1
 504              	.LVL42:
 505              		.loc 1 184 0 discriminator 3
 506 0054 0246     		mov	r2, r0
 507 0056 0C49     		ldr	r1, .L43+28
 508 0058 0948     		ldr	r0, .L43+20
ARM GAS  /tmp/cc424F2O.s 			page 10


 509 005a FFF7FEFF 		bl	chprintf
 510              	.LVL43:
 511              		.loc 1 179 0 discriminator 3
 512 005e 202C     		cmp	r4, #32
 513 0060 D9D1     		bne	.L40
 514              		.loc 1 186 0
 515 0062 08B0     		add	sp, sp, #32
 516              		.cfi_def_cfa_offset 32
 517              		@ sp needed
 518 0064 BDEC048B 		fldmfdd	sp!, {d8-d9}
 519              		.cfi_restore 82
 520              		.cfi_restore 83
 521              		.cfi_restore 80
 522              		.cfi_restore 81
 523              		.cfi_def_cfa_offset 16
 524              	.LVL44:
 525 0068 70BD     		pop	{r4, r5, r6, pc}
 526              	.LVL45:
 527              	.L44:
 528 006a 00BF     		.align	2
 529              	.L43:
 530 006c 00000000 		.word	nntest_data_sampled
 531 0070 00000000 		.word	outputs
 532 0074 4815D73F 		.word	1071060296
 533 0078 142688BF 		.word	-1081596396
 534 007c 58000000 		.word	.LC6
 535 0080 00000000 		.word	SD1
 536 0084 5C000000 		.word	.LC7
 537 0088 38000000 		.word	.LC2
 538              		.cfi_endproc
 539              	.LFE296:
 540              		.size	cmd_testweights, .-cmd_testweights
 541 008c AFF30080 		.section	.text.gpt_adc_trigger,"ax",%progbits
 542              		.align	2
 543              		.p2align 4,,15
 544              		.thumb
 545              		.thumb_func
 546              		.type	gpt_adc_trigger, %function
 547              	gpt_adc_trigger:
 548              	.LFB291:
 549              		.loc 1 96 0
 550              		.cfi_startproc
 551              		@ args = 0, pretend = 0, frame = 8
 552              		@ frame_needed = 0, uses_anonymous_args = 0
 553              	.LVL46:
 554 0000 10B5     		push	{r4, lr}
 555              		.cfi_def_cfa_offset 8
 556              		.cfi_offset 4, -8
 557              		.cfi_offset 14, -4
 558              		.loc 1 101 0
 559 0002 1B4C     		ldr	r4, .L47
 560              	.LBB26:
 561              	.LBB27:
 562              		.loc 1 87 0
 563 0004 9FED1B7A 		flds	s14, .L47+4
 564              		.loc 1 86 0
 565 0008 2388     		ldrh	r3, [r4]
ARM GAS  /tmp/cc424F2O.s 			page 11


 566              		.loc 1 87 0
 567 000a 9FED1B0A 		flds	s0, .L47+8
 568              		.loc 1 86 0
 569 000e 07EE903A 		fmsr	s15, r3	@ int
 570 0012 FBEECA7A 		vcvt.f32.u32	s15, s15, #12
 571              	.LBE27:
 572              	.LBE26:
 573              		.loc 1 96 0
 574 0016 2DED028B 		fstmfdd	sp!, {d8}
 575              		.cfi_def_cfa_offset 16
 576              		.cfi_offset 80, -16
 577              		.cfi_offset 81, -12
 578              	.LBB29:
 579              	.LBB28:
 580              		.loc 1 86 0
 581 001a B0EE088A 		fconsts	s16, #8
 582 001e 67EE887A 		fmuls	s15, s15, s16
 583              	.LBE28:
 584              	.LBE29:
 585              		.loc 1 96 0
 586 0022 82B0     		sub	sp, sp, #8
 587              		.cfi_def_cfa_offset 24
 588              		.loc 1 101 0
 589 0024 A7EE870A 		vfma.f32	s0, s15, s14
 590 0028 FFF7FEFF 		bl	EvaluateNet
 591              	.LVL47:
 592              		.loc 1 102 0
 593 002c 134B     		ldr	r3, .L47+12
 594              	.LVL48:
 595              	.LBB30:
 596              	.LBB31:
 597              		.loc 1 91 0
 598 002e 9FED147A 		flds	s14, .L47+16
 599 0032 D3ED007A 		flds	s15, [r3]
 600              	.LBE31:
 601              	.LBE30:
 602              		.loc 1 102 0
 603 0036 1348     		ldr	r0, .L47+20
 604              	.LBB33:
 605              	.LBB32:
 606              		.loc 1 91 0
 607 0038 C7EE887A 		fdivs	s15, s15, s16
 608 003c 67EE877A 		fmuls	s15, s15, s14
 609 0040 FCEEE77A 		ftouizs	s15, s15
 610              	.LBE32:
 611              	.LBE33:
 612              		.loc 1 102 0
 613 0044 CDED017A 		fsts	s15, [sp, #4]	@ int
 614 0048 BDF80410 		ldrh	r1, [sp, #4]
 615 004c FFF7FEFF 		bl	dacConvertOne
 616              	.LVL49:
 617              		.loc 1 103 0
 618 0050 2246     		mov	r2, r4
 619 0052 0D48     		ldr	r0, .L47+24
 620 0054 0D49     		ldr	r1, .L47+28
 621 0056 0123     		movs	r3, #1
 622 0058 FFF7FEFF 		bl	adcStartConversion
ARM GAS  /tmp/cc424F2O.s 			page 12


 623              	.LVL50:
 624              		.loc 1 104 0
 625 005c 0C4A     		ldr	r2, .L47+32
 626 005e 5369     		ldr	r3, [r2, #20]
 627 0060 83F48073 		eor	r3, r3, #256
 628 0064 5361     		str	r3, [r2, #20]
 629              		.loc 1 105 0
 630 0066 02B0     		add	sp, sp, #8
 631              		.cfi_def_cfa_offset 16
 632              		@ sp needed
 633 0068 BDEC028B 		fldmfdd	sp!, {d8}
 634              		.cfi_restore 80
 635              		.cfi_restore 81
 636              		.cfi_def_cfa_offset 8
 637 006c 10BD     		pop	{r4, pc}
 638              	.L48:
 639 006e 00BF     		.align	2
 640              	.L47:
 641 0070 00000000 		.word	.LANCHOR4
 642 0074 4815D73F 		.word	1071060296
 643 0078 142688BF 		.word	-1081596396
 644 007c 00000000 		.word	outputs
 645 0080 00008045 		.word	1166016512
 646 0084 00000000 		.word	DACD1
 647 0088 00000000 		.word	ADCD1
 648 008c 00000000 		.word	.LANCHOR5
 649 0090 00100048 		.word	1207963648
 650              		.cfi_endproc
 651              	.LFE291:
 652              		.size	gpt_adc_trigger, .-gpt_adc_trigger
 653 0094 AFF30080 		.section	.text.cmd_dac,"ax",%progbits
 653      AFF30080 
 653      AFF30080 
 654              		.align	2
 655              		.p2align 4,,15
 656              		.thumb
 657              		.thumb_func
 658              		.type	cmd_dac, %function
 659              	cmd_dac:
 660              	.LFB294:
 661              		.loc 1 141 0
 662              		.cfi_startproc
 663              		@ args = 0, pretend = 0, frame = 8
 664              		@ frame_needed = 0, uses_anonymous_args = 0
 665              	.LVL51:
 666 0000 30B5     		push	{r4, r5, lr}
 667              		.cfi_def_cfa_offset 12
 668              		.cfi_offset 4, -12
 669              		.cfi_offset 5, -8
 670              		.cfi_offset 14, -4
 671              		.loc 1 145 0
 672 0002 0129     		cmp	r1, #1
 673              		.loc 1 141 0
 674 0004 83B0     		sub	sp, sp, #12
 675              		.cfi_def_cfa_offset 24
 676              		.loc 1 141 0
 677 0006 1446     		mov	r4, r2
ARM GAS  /tmp/cc424F2O.s 			page 13


 678 0008 0546     		mov	r5, r0
 679              		.loc 1 145 0
 680 000a 03D0     		beq	.L50
 681              		.loc 1 146 0
 682 000c 0A46     		mov	r2, r1
 683              	.LVL52:
 684 000e 1149     		ldr	r1, .L59
 685              	.LVL53:
 686 0010 FFF7FEFF 		bl	chprintf
 687              	.LVL54:
 688              	.L50:
 689              		.loc 1 148 0
 690 0014 2068     		ldr	r0, [r4]
 691 0016 01A9     		add	r1, sp, #4
 692 0018 FFF7FEFF 		bl	atoh
 693              	.LVL55:
 694 001c 98B9     		cbnz	r0, .L51
 695              		.loc 1 149 0
 696 001e 019A     		ldr	r2, [sp, #4]
 697 0020 B2F5805F 		cmp	r2, #4096
 698              		.loc 1 150 0
 699 0024 2846     		mov	r0, r5
 700              		.loc 1 149 0
 701 0026 09DA     		bge	.L58
 702              	.LVL56:
 703              		.loc 1 153 0
 704 0028 0B49     		ldr	r1, .L59+4
 705 002a FFF7FEFF 		bl	chprintf
 706              	.LVL57:
 707              		.loc 1 154 0
 708 002e 0B48     		ldr	r0, .L59+8
 709 0030 BDF80410 		ldrh	r1, [sp, #4]
 710 0034 FFF7FEFF 		bl	dacConvertOne
 711              	.LVL58:
 712              		.loc 1 160 0
 713 0038 03B0     		add	sp, sp, #12
 714              		.cfi_remember_state
 715              		.cfi_def_cfa_offset 12
 716              		@ sp needed
 717 003a 30BD     		pop	{r4, r5, pc}
 718              	.LVL59:
 719              	.L58:
 720              		.cfi_restore_state
 721              		.loc 1 150 0
 722 003c 0849     		ldr	r1, .L59+12
 723 003e FFF7FEFF 		bl	chprintf
 724              	.LVL60:
 725              		.loc 1 160 0
 726 0042 03B0     		add	sp, sp, #12
 727              		.cfi_remember_state
 728              		.cfi_def_cfa_offset 12
 729              		@ sp needed
 730 0044 30BD     		pop	{r4, r5, pc}
 731              	.LVL61:
 732              	.L51:
 733              		.cfi_restore_state
 734              	.LBB36:
ARM GAS  /tmp/cc424F2O.s 			page 14


 735              	.LBB37:
 736              		.loc 1 158 0
 737 0046 2846     		mov	r0, r5
 738 0048 2268     		ldr	r2, [r4]
 739 004a 0649     		ldr	r1, .L59+16
 740 004c FFF7FEFF 		bl	chprintf
 741              	.LVL62:
 742              	.LBE37:
 743              	.LBE36:
 744              		.loc 1 160 0
 745 0050 03B0     		add	sp, sp, #12
 746              		.cfi_def_cfa_offset 12
 747              		@ sp needed
 748 0052 30BD     		pop	{r4, r5, pc}
 749              	.LVL63:
 750              	.L60:
 751              		.align	2
 752              	.L59:
 753 0054 60000000 		.word	.LC8
 754 0058 DC000000 		.word	.LC10
 755 005c 00000000 		.word	DACD1
 756 0060 A4000000 		.word	.LC9
 757 0064 F4000000 		.word	.LC11
 758              		.cfi_endproc
 759              	.LFE294:
 760              		.size	cmd_dac, .-cmd_dac
 761 0068 AFF30080 		.section	.text.scale_input,"ax",%progbits
 761      AFF30080 
 762              		.align	2
 763              		.p2align 4,,15
 764              		.global	scale_input
 765              		.thumb
 766              		.thumb_func
 767              		.type	scale_input, %function
 768              	scale_input:
 769              	.LFB289:
 770              		.loc 1 84 0
 771              		.cfi_startproc
 772              		@ args = 0, pretend = 0, frame = 0
 773              		@ frame_needed = 0, uses_anonymous_args = 0
 774              		@ link register save eliminated.
 775              	.LVL64:
 776              		.loc 1 86 0
 777 0000 07EE900A 		fmsr	s15, r0	@ int
 778 0004 FBEECA7A 		vcvt.f32.u32	s15, s15, #12
 779 0008 B0EE087A 		fconsts	s14, #8
 780 000c 67EE877A 		fmuls	s15, s15, s14
 781              		.loc 1 87 0
 782 0010 9FED030A 		flds	s0, .L62
 783 0014 9FED037A 		flds	s14, .L62+4
 784              		.loc 1 88 0
 785 0018 A7EE870A 		vfma.f32	s0, s15, s14
 786 001c 7047     		bx	lr
 787              	.L63:
 788 001e 00BF     		.align	2
 789              	.L62:
 790 0020 142688BF 		.word	-1081596396
ARM GAS  /tmp/cc424F2O.s 			page 15


 791 0024 4815D73F 		.word	1071060296
 792              		.cfi_endproc
 793              	.LFE289:
 794              		.size	scale_input, .-scale_input
 795 0028 AFF30080 		.section	.text.scale_output,"ax",%progbits
 795      AFF30080 
 796              		.align	2
 797              		.p2align 4,,15
 798              		.global	scale_output
 799              		.thumb
 800              		.thumb_func
 801              		.type	scale_output, %function
 802              	scale_output:
 803              	.LFB290:
 804              		.loc 1 90 0
 805              		.cfi_startproc
 806              		@ args = 0, pretend = 0, frame = 0
 807              		@ frame_needed = 0, uses_anonymous_args = 0
 808              		@ link register save eliminated.
 809              	.LVL65:
 810              		.loc 1 91 0
 811 0000 F0EE087A 		fconsts	s15, #8
 812 0004 80EE270A 		fdivs	s0, s0, s15
 813              	.LVL66:
 814 0008 DFED047A 		flds	s15, .L65
 815 000c 20EE270A 		fmuls	s0, s0, s15
 816              		.loc 1 92 0
 817 0010 FCEEC07A 		ftouizs	s15, s0
 818 0014 17EE900A 		fmrs	r0, s15	@ int
 819 0018 7047     		bx	lr
 820              	.L66:
 821 001a 00BF     		.align	2
 822              	.L65:
 823 001c 00008045 		.word	1166016512
 824              		.cfi_endproc
 825              	.LFE290:
 826              		.size	scale_output, .-scale_output
 827              		.section	.text.startup.main,"ax",%progbits
 828              		.align	2
 829              		.p2align 4,,15
 830              		.global	main
 831              		.thumb
 832              		.thumb_func
 833              		.type	main, %function
 834              	main:
 835              	.LFB299:
 836              		.loc 1 264 0
 837              		.cfi_startproc
 838              		@ args = 0, pretend = 0, frame = 544
 839              		@ frame_needed = 0, uses_anonymous_args = 0
 840 0000 2DE9F043 		push	{r4, r5, r6, r7, r8, r9, lr}
 841              		.cfi_def_cfa_offset 28
 842              		.cfi_offset 4, -28
 843              		.cfi_offset 5, -24
 844              		.cfi_offset 6, -20
 845              		.cfi_offset 7, -16
 846              		.cfi_offset 8, -12
ARM GAS  /tmp/cc424F2O.s 			page 16


 847              		.cfi_offset 9, -8
 848              		.cfi_offset 14, -4
 849 0004 ADF50B7D 		sub	sp, sp, #556
 850              		.cfi_def_cfa_offset 584
 851              		.loc 1 281 0
 852 0008 FFF7FEFF 		bl	halInit
 853              	.LVL67:
 854              		.loc 1 282 0
 855 000c FFF7FEFF 		bl	driversInit
 856              	.LVL68:
 857              		.loc 1 283 0
 858 0010 FFF7FEFF 		bl	chSysInit
 859              	.LVL69:
 860              		.loc 1 287 0
 861 0014 9FED706A 		flds	s12, .L88
 862 0018 29A9     		add	r1, sp, #164
 863 001a 09AA     		add	r2, sp, #36
 864              		.loc 1 285 0
 865 001c 0023     		movs	r3, #0
 866              		.loc 1 286 0
 867 001e F0EE046A 		fconsts	s13, #4
 868              	.LVL70:
 869              	.L68:
 870              		.loc 1 286 0 is_stmt 0 discriminator 3
 871 0022 07EE903A 		fmsr	s15, r3	@ int
 872 0026 F8EEE77A 		fsitos	s15, s15
 873              		.loc 1 285 0 is_stmt 1 discriminator 3
 874 002a 0133     		adds	r3, r3, #1
 875              	.LVL71:
 876              		.loc 1 286 0 discriminator 3
 877 002c 37EEA67A 		fadds	s14, s15, s13
 878              		.loc 1 287 0 discriminator 3
 879 0030 77EE867A 		fadds	s15, s15, s12
 880              		.loc 1 286 0 discriminator 3
 881 0034 BDEEC77A 		ftosizs	s14, s14
 882              		.loc 1 287 0 discriminator 3
 883 0038 FDEEE77A 		ftosizs	s15, s15
 884              		.loc 1 286 0 discriminator 3
 885 003c 17EE100A 		fmrs	r0, s14	@ int
 886 0040 42F8040F 		str	r0, [r2, #4]!
 887              		.loc 1 287 0 discriminator 3
 888 0044 17EE900A 		fmrs	r0, s15	@ int
 889              		.loc 1 285 0 discriminator 3
 890 0048 202B     		cmp	r3, #32
 891              		.loc 1 287 0 discriminator 3
 892 004a 41F8040F 		str	r0, [r1, #4]!
 893              		.loc 1 285 0 discriminator 3
 894 004e E8D1     		bne	.L68
 895              		.loc 1 291 0
 896 0050 9FED616A 		flds	s12, .L88
 897 0054 49A9     		add	r1, sp, #292
 898 0056 69AA     		add	r2, sp, #420
 899              		.loc 1 285 0
 900 0058 0023     		movs	r3, #0
 901              	.LVL72:
 902              		.loc 1 290 0
 903 005a F0EE046A 		fconsts	s13, #4
ARM GAS  /tmp/cc424F2O.s 			page 17


 904              	.L69:
 905              	.LVL73:
 906              		.loc 1 290 0 is_stmt 0 discriminator 3
 907 005e 07EE903A 		fmsr	s15, r3	@ int
 908 0062 F8EEE77A 		fsitos	s15, s15
 909              		.loc 1 289 0 is_stmt 1 discriminator 3
 910 0066 0133     		adds	r3, r3, #1
 911              	.LVL74:
 912              		.loc 1 290 0 discriminator 3
 913 0068 37EEA67A 		fadds	s14, s15, s13
 914              		.loc 1 291 0 discriminator 3
 915 006c 77EE867A 		fadds	s15, s15, s12
 916              		.loc 1 290 0 discriminator 3
 917 0070 BDEEC77A 		ftosizs	s14, s14
 918              		.loc 1 291 0 discriminator 3
 919 0074 FDEEE77A 		ftosizs	s15, s15
 920              		.loc 1 290 0 discriminator 3
 921 0078 17EE100A 		fmrs	r0, s14	@ int
 922 007c 41F8040F 		str	r0, [r1, #4]!
 923              		.loc 1 291 0 discriminator 3
 924 0080 17EE900A 		fmrs	r0, s15	@ int
 925              		.loc 1 289 0 discriminator 3
 926 0084 202B     		cmp	r3, #32
 927              		.loc 1 291 0 discriminator 3
 928 0086 42F8040F 		str	r0, [r2, #4]!
 929              		.loc 1 289 0 discriminator 3
 930 008a E8D1     		bne	.L69
 931              		.loc 1 293 0
 932 008c 534A     		ldr	r2, .L88+4
 933 008e 4FF48061 		mov	r1, #1024
 934 0092 29AB     		add	r3, sp, #164
 935              	.LVL75:
 936 0094 1183     		strh	r1, [r2, #24]	@ movhi
 937              	.LVL76:
 938 0096 0AAD     		add	r5, sp, #40
 939              	.LVL77:
 940              	.L70:
 941              		.loc 1 297 0 discriminator 3
 942 0098 53F8042D 		ldr	r2, [r3, #-4]!
 943 009c 5A60     		str	r2, [r3, #4]
 944              		.loc 1 296 0 discriminator 3
 945 009e AB42     		cmp	r3, r5
 946 00a0 FAD1     		bne	.L70
 947              		.loc 1 299 0
 948 00a2 0324     		movs	r4, #3
 949              		.loc 1 302 0
 950 00a4 2AA9     		add	r1, sp, #168
 951 00a6 02AB     		add	r3, sp, #8
 952 00a8 2846     		mov	r0, r5
 953 00aa 2022     		movs	r2, #32
 954              		.loc 1 299 0
 955 00ac 2C60     		str	r4, [r5]
 956              		.loc 1 308 0
 957 00ae 4FF00008 		mov	r8, #0
 958              		.loc 1 302 0
 959 00b2 FFF7FEFF 		bl	arm_dot_prod_q31
 960              	.LVL78:
ARM GAS  /tmp/cc424F2O.s 			page 18


 961 00b6 2024     		movs	r4, #32
 962              		.loc 1 308 0
 963 00b8 4FF00009 		mov	r9, #0
 964              		.loc 1 307 0
 965 00bc 0126     		movs	r6, #1
 966 00be 0027     		movs	r7, #0
 967 00c0 03E0     		b	.L73
 968              	.LVL79:
 969              	.L85:
 970              		.loc 1 307 0 is_stmt 0 discriminator 1
 971 00c2 CDE90267 		strd	r6, [sp, #8]
 972              	.L72:
 973              	.LVL80:
 974              		.loc 1 305 0 is_stmt 1 discriminator 2
 975 00c6 013C     		subs	r4, r4, #1
 976              	.LVL81:
 977 00c8 13D0     		beq	.L84
 978              	.LVL82:
 979              	.L73:
 980              		.loc 1 306 0
 981 00ca 2AA9     		add	r1, sp, #168
 982 00cc 2022     		movs	r2, #32
 983 00ce 02AB     		add	r3, sp, #8
 984 00d0 2846     		mov	r0, r5
 985 00d2 FFF7FEFF 		bl	arm_dot_prod_q31
 986              	.LVL83:
 987              		.loc 1 307 0
 988 00d6 DDE90223 		ldrd	r2, [sp, #8]
 989 00da 022A     		cmp	r2, #2
 990 00dc 73F10001 		sbcs	r1, r3, #0
 991 00e0 EFDA     		bge	.L85
 992              		.loc 1 308 0
 993 00e2 002A     		cmp	r2, #0
 994 00e4 73F10003 		sbcs	r3, r3, #0
 995 00e8 EDDA     		bge	.L72
 996              		.loc 1 305 0 discriminator 1
 997 00ea 013C     		subs	r4, r4, #1
 998              	.LVL84:
 999              		.loc 1 308 0 discriminator 1
 1000 00ec CDE90289 		strd	r8, [sp, #8]
 1001              	.LVL85:
 1002              		.loc 1 305 0 discriminator 1
 1003 00f0 EBD1     		bne	.L73
 1004              	.L84:
 1005 00f2 0824     		movs	r4, #8
 1006              		.loc 1 316 0
 1007 00f4 4FF00008 		mov	r8, #0
 1008 00f8 4FF00009 		mov	r9, #0
 1009              		.loc 1 313 0
 1010 00fc 0126     		movs	r6, #1
 1011 00fe 0027     		movs	r7, #0
 1012 0100 03E0     		b	.L76
 1013              	.LVL86:
 1014              	.L87:
 1015 0102 CDE90267 		strd	r6, [sp, #8]
 1016              	.L75:
 1017              	.LVL87:
ARM GAS  /tmp/cc424F2O.s 			page 19


 1018              		.loc 1 310 0 discriminator 2
 1019 0106 013C     		subs	r4, r4, #1
 1020              	.LVL88:
 1021 0108 13D0     		beq	.L86
 1022              	.LVL89:
 1023              	.L76:
 1024              		.loc 1 311 0
 1025 010a 6AA9     		add	r1, sp, #424
 1026 010c 2022     		movs	r2, #32
 1027 010e 02AB     		add	r3, sp, #8
 1028 0110 4AA8     		add	r0, sp, #296
 1029 0112 FFF7FEFF 		bl	arm_dot_prod_q31
 1030              	.LVL90:
 1031              		.loc 1 312 0
 1032 0116 DDE90223 		ldrd	r2, [sp, #8]
 1033 011a 022A     		cmp	r2, #2
 1034 011c 73F10001 		sbcs	r1, r3, #0
 1035 0120 EFDA     		bge	.L87
 1036              		.loc 1 315 0
 1037 0122 002A     		cmp	r2, #0
 1038 0124 73F10003 		sbcs	r3, r3, #0
 1039 0128 EDDA     		bge	.L75
 1040              		.loc 1 310 0
 1041 012a 013C     		subs	r4, r4, #1
 1042              	.LVL91:
 1043              		.loc 1 316 0
 1044 012c CDE90289 		strd	r8, [sp, #8]
 1045              	.LVL92:
 1046              		.loc 1 310 0
 1047 0130 EBD1     		bne	.L76
 1048              	.L86:
 1049              		.loc 1 319 0
 1050 0132 2A4B     		ldr	r3, .L88+4
 1051              		.loc 1 321 0
 1052 0134 2A48     		ldr	r0, .L88+8
 1053 0136 2B49     		ldr	r1, .L88+12
 1054              		.loc 1 319 0
 1055 0138 4FF48062 		mov	r2, #1024
 1056 013c 5A83     		strh	r2, [r3, #26]	@ movhi
 1057              		.loc 1 321 0
 1058 013e FFF7FEFF 		bl	dacStart
 1059              	.LVL93:
 1060              		.loc 1 328 0
 1061 0142 2948     		ldr	r0, .L88+16
 1062 0144 2146     		mov	r1, r4
 1063 0146 FFF7FEFF 		bl	sdStart
 1064              	.LVL94:
 1065              		.loc 1 329 0
 1066 014a 2848     		ldr	r0, .L88+20
 1067 014c 1021     		movs	r1, #16
 1068 014e 40F28232 		movw	r2, #898
 1069 0152 FFF7FEFF 		bl	_pal_lld_setgroupmode
 1070              	.LVL95:
 1071              		.loc 1 330 0
 1072 0156 40F28232 		movw	r2, #898
 1073 015a 2448     		ldr	r0, .L88+20
 1074 015c 2021     		movs	r1, #32
ARM GAS  /tmp/cc424F2O.s 			page 20


 1075 015e FFF7FEFF 		bl	_pal_lld_setgroupmode
 1076              	.LVL96:
 1077              		.loc 1 332 0
 1078 0162 2348     		ldr	r0, .L88+24
 1079 0164 2349     		ldr	r1, .L88+28
 1080 0166 FFF7FEFF 		bl	gptStart
 1081              	.LVL97:
 1082              		.loc 1 334 0
 1083 016a 2148     		ldr	r0, .L88+24
 1084 016c BE21     		movs	r1, #190
 1085 016e FFF7FEFF 		bl	gptStartContinuous
 1086              	.LVL98:
 1087              		.loc 1 336 0
 1088 0172 4FF09040 		mov	r0, #1207959552
 1089 0176 0121     		movs	r1, #1
 1090 0178 0322     		movs	r2, #3
 1091 017a FFF7FEFF 		bl	_pal_lld_setgroupmode
 1092              	.LVL99:
 1093              		.loc 1 337 0
 1094 017e 0322     		movs	r2, #3
 1095 0180 4FF09040 		mov	r0, #1207959552
 1096 0184 0221     		movs	r1, #2
 1097 0186 FFF7FEFF 		bl	_pal_lld_setgroupmode
 1098              	.LVL100:
 1099              		.loc 1 338 0
 1100 018a 1B48     		ldr	r0, .L88+32
 1101 018c 1B49     		ldr	r1, .L88+36
 1102 018e FFF7FEFF 		bl	adcStart
 1103              	.LVL101:
 1104              		.loc 1 343 0
 1105 0192 FFF7FEFF 		bl	shellInit
 1106              	.LVL102:
 1107              	.LBB38:
 1108              	.LBB39:
 1109              	.LBB40:
 1110              		.file 3 "../ChibiOS/os/rt/include/chevents.h"
 1111              		.loc 3 193 0
 1112 0196 4FF0FF33 		mov	r3, #-1
 1113 019a 1948     		ldr	r0, .L88+40
 1114 019c 05A9     		add	r1, sp, #20
 1115              	.LVL103:
 1116 019e 0122     		movs	r2, #1
 1117 01a0 FFF7FEFF 		bl	chEvtRegisterMaskWithFlags
 1118              	.LVL104:
 1119              	.LBE40:
 1120              	.LBE39:
 1121              	.LBE38:
 1122              		.loc 1 350 0
 1123 01a4 4FF41561 		mov	r1, #2384
 1124 01a8 4022     		movs	r2, #64
 1125 01aa 1648     		ldr	r0, .L88+44
 1126 01ac FFF7FEFF 		bl	shellCreate
 1127              	.LVL105:
 1128 01b0 154B     		ldr	r3, .L88+48
 1129              		.loc 1 351 0
 1130 01b2 0094     		str	r4, [sp]
 1131 01b4 4FF4E871 		mov	r1, #464
ARM GAS  /tmp/cc424F2O.s 			page 21


 1132              		.loc 1 350 0
 1133 01b8 1860     		str	r0, [r3]
 1134              		.loc 1 351 0
 1135 01ba 4122     		movs	r2, #65
 1136 01bc 1348     		ldr	r0, .L88+52
 1137 01be 144B     		ldr	r3, .L88+56
 1138 01c0 FFF7FEFF 		bl	chThdCreateStatic
 1139              	.LVL106:
 1140              	.L77:
 1141              		.loc 1 354 0 discriminator 1
 1142 01c4 4FF0FF30 		mov	r0, #-1
 1143 01c8 FFF7FEFF 		bl	chEvtWaitOne
 1144              	.LVL107:
 1145 01cc 0146     		mov	r1, r0
 1146 01ce 1148     		ldr	r0, .L88+60
 1147 01d0 FFF7FEFF 		bl	chEvtDispatch
 1148              	.LVL108:
 1149              		.loc 1 355 0 discriminator 1
 1150 01d4 F6E7     		b	.L77
 1151              	.L89:
 1152 01d6 00BF     		.align	2
 1153              	.L88:
 1154 01d8 E9269940 		.word	1083778793
 1155 01dc 00100048 		.word	1207963648
 1156 01e0 00000000 		.word	DACD1
 1157 01e4 00000000 		.word	.LANCHOR6
 1158 01e8 00000000 		.word	SD1
 1159 01ec 00080048 		.word	1207961600
 1160 01f0 00000000 		.word	GPTD1
 1161 01f4 00000000 		.word	.LANCHOR7
 1162 01f8 00000000 		.word	ADCD1
 1163 01fc 00000000 		.word	.LANCHOR8
 1164 0200 00000000 		.word	shell_terminated
 1165 0204 00000000 		.word	.LANCHOR1
 1166 0208 00000000 		.word	.LANCHOR0
 1167 020c 00000000 		.word	.LANCHOR9
 1168 0210 00000000 		.word	counterThread
 1169 0214 00000000 		.word	.LANCHOR10
 1170              		.cfi_endproc
 1171              	.LFE299:
 1172              		.size	main, .-main
 1173              		.global	collection_buf
 1174              		.global	start_collection
 1175 0218 AFF30080 		.section	.data.fhandlers,"aw",%progbits
 1175      AFF30080 
 1176              		.align	2
 1177              		.set	.LANCHOR10,. + 0
 1178              		.type	fhandlers, %object
 1179              		.size	fhandlers, 4
 1180              	fhandlers:
 1181 0000 00000000 		.word	termination_handler
 1182              		.section	.rodata.daccfg1,"a",%progbits
 1183              		.align	2
 1184              		.set	.LANCHOR6,. + 0
 1185              		.type	daccfg1, %object
 1186              		.size	daccfg1, 8
 1187              	daccfg1:
ARM GAS  /tmp/cc424F2O.s 			page 22


 1188 0000 00000000 		.space	8
 1188      00000000 
 1189              		.section	.bss.waCounterThread,"aw",%nobits
 1190              		.align	3
 1191              		.set	.LANCHOR9,. + 0
 1192              		.type	waCounterThread, %object
 1193              		.size	waCounterThread, 464
 1194              	waCounterThread:
 1195 0000 00000000 		.space	464
 1195      00000000 
 1195      00000000 
 1195      00000000 
 1195      00000000 
 1196              		.section	.data.gpt_adc_config,"aw",%progbits
 1197              		.align	2
 1198              		.set	.LANCHOR7,. + 0
 1199              		.type	gpt_adc_config, %object
 1200              		.size	gpt_adc_config, 16
 1201              	gpt_adc_config:
 1202 0000 40420F00 		.word	1000000
 1203 0004 00000000 		.word	gpt_adc_trigger
 1204 0008 00000000 		.word	0
 1205 000c 00000000 		.word	0
 1206              		.section	.bss.start_collection,"aw",%nobits
 1207              		.align	2
 1208              		.set	.LANCHOR2,. + 0
 1209              		.type	start_collection, %object
 1210              		.size	start_collection, 4
 1211              	start_collection:
 1212 0000 00000000 		.space	4
 1213              		.section	.rodata.commands,"a",%progbits
 1214              		.align	2
 1215              		.type	commands, %object
 1216              		.size	commands, 48
 1217              	commands:
 1218 0000 14010000 		.word	.LC12
 1219 0004 00000000 		.word	cmd_myecho
 1220 0008 1C010000 		.word	.LC13
 1221 000c 00000000 		.word	cmd_dac
 1222 0010 20010000 		.word	.LC14
 1223 0014 00000000 		.word	cmd_sample
 1224 0018 28010000 		.word	.LC15
 1225 001c 00000000 		.word	cmd_testweights
 1226 0020 2C010000 		.word	.LC16
 1227 0024 00000000 		.word	cmd_collect
 1228 0028 00000000 		.word	0
 1229 002c 00000000 		.word	0
 1230              		.section	.bss.adccfg,"aw",%nobits
 1231              		.align	2
 1232              		.set	.LANCHOR8,. + 0
 1233              		.type	adccfg, %object
 1234              		.size	adccfg, 4
 1235              	adccfg:
 1236 0000 00000000 		.space	4
 1237              		.section	.rodata.str1.4,"aMS",%progbits,1
 1238              		.align	2
 1239              	.LC0:
ARM GAS  /tmp/cc424F2O.s 			page 23


 1240 0000 5368656C 		.ascii	"Shell Died\012\015\000"
 1240      6C204469 
 1240      65640A0D 
 1240      00
 1241 000d 000000   		.space	3
 1242              	.LC1:
 1243 0010 52657374 		.ascii	"Restarting from termination handler\012\015\000"
 1243      61727469 
 1243      6E672066 
 1243      726F6D20 
 1243      7465726D 
 1244 0036 0000     		.space	2
 1245              	.LC2:
 1246 0038 25730A0D 		.ascii	"%s\012\015\000"
 1246      00
 1247 003d 000000   		.space	3
 1248              	.LC3:
 1249 0040 30782530 		.ascii	"0x%0x \000"
 1249      782000
 1250 0047 00       		.space	1
 1251              	.LC4:
 1252 0048 25730A0D 		.ascii	"%s\012\015 \000"
 1252      2000
 1253 004e 0000     		.space	2
 1254              	.LC5:
 1255 0050 30782530 		.ascii	"0x%04x \000"
 1255      34782000 
 1256              	.LC6:
 1257 0058 25642C00 		.ascii	"%d,\000"
 1258              	.LC7:
 1259 005c 25732000 		.ascii	"%s \000"
 1260              	.LC8:
 1261 0060 4572726F 		.ascii	"Error: wrong number of arguments. %d provided\012\015"
 1261      723A2077 
 1261      726F6E67 
 1261      206E756D 
 1261      62657220 
 1262 008f 4578616D 		.ascii	"Example: dac 3FF\012\015\000"
 1262      706C653A 
 1262      20646163 
 1262      20334646 
 1262      0A0D00
 1263 00a2 0000     		.space	2
 1264              	.LC9:
 1265 00a4 56616C75 		.ascii	"Value Error: 0 >= value <= 0xFFF: Value provided 0x"
 1265      65204572 
 1265      726F723A 
 1265      2030203E 
 1265      3D207661 
 1266 00d7 25780A0D 		.ascii	"%x\012\015\000"
 1266      00
 1267              	.LC10:
 1268 00dc 57726F74 		.ascii	"Wrote 0x%x to dac 1\012\015\000"
 1268      65203078 
 1268      25782074 
 1268      6F206461 
 1268      6320310A 
ARM GAS  /tmp/cc424F2O.s 			page 24


 1269 00f2 0000     		.space	2
 1270              	.LC11:
 1271 00f4 61746F68 		.ascii	"atoh error: cannot convert %s\012\015\000"
 1271      20657272 
 1271      6F723A20 
 1271      63616E6E 
 1271      6F742063 
 1272              	.LC12:
 1273 0114 6D796563 		.ascii	"myecho\000"
 1273      686F00
 1274 011b 00       		.space	1
 1275              	.LC13:
 1276 011c 64616300 		.ascii	"dac\000"
 1277              	.LC14:
 1278 0120 73616D70 		.ascii	"sample\000"
 1278      6C6500
 1279 0127 00       		.space	1
 1280              	.LC15:
 1281 0128 747700   		.ascii	"tw\000"
 1282 012b 00       		.space	1
 1283              	.LC16:
 1284 012c 636F6C6C 		.ascii	"collect\000"
 1284      65637400 
 1285              		.section	.rodata.adcgrpcfg,"a",%progbits
 1286              		.align	2
 1287              		.set	.LANCHOR5,. + 0
 1288              		.type	adcgrpcfg, %object
 1289              		.size	adcgrpcfg, 48
 1290              	adcgrpcfg:
 1291 0000 00       		.byte	0
 1292 0001 00       		.space	1
 1293 0002 0200     		.short	2
 1294 0004 00000000 		.word	0
 1295 0008 00000000 		.word	0
 1296 000c 00000000 		.word	0
 1297 0010 00000000 		.word	0
 1298 0014 00000000 		.word	0
 1299 0018 D8000000 		.word	216
 1300 001c 00000000 		.word	0
 1301 0020 41200000 		.word	8257
 1302 0024 00000000 		.word	0
 1303 0028 00000000 		.word	0
 1304 002c 00000000 		.word	0
 1305              		.section	.rodata.shell_cfg1,"a",%progbits
 1306              		.align	2
 1307              		.set	.LANCHOR1,. + 0
 1308              		.type	shell_cfg1, %object
 1309              		.size	shell_cfg1, 8
 1310              	shell_cfg1:
 1311 0000 00000000 		.word	SD1
 1312 0004 00000000 		.word	commands
 1313              		.section	.bss.collection_buf,"aw",%nobits
 1314              		.align	2
 1315              		.set	.LANCHOR3,. + 0
 1316              		.type	collection_buf, %object
 1317              		.size	collection_buf, 128
 1318              	collection_buf:
ARM GAS  /tmp/cc424F2O.s 			page 25


 1319 0000 00000000 		.space	128
 1319      00000000 
 1319      00000000 
 1319      00000000 
 1319      00000000 
 1320              		.section	.bss.samples_buf,"aw",%nobits
 1321              		.align	2
 1322              		.set	.LANCHOR4,. + 0
 1323              		.type	samples_buf, %object
 1324              		.size	samples_buf, 4
 1325              	samples_buf:
 1326 0000 00000000 		.space	4
 1327              		.section	.bss.shelltp1,"aw",%nobits
 1328              		.align	2
 1329              		.set	.LANCHOR0,. + 0
 1330              		.type	shelltp1, %object
 1331              		.size	shelltp1, 4
 1332              	shelltp1:
 1333 0000 00000000 		.space	4
 1334              		.text
 1335              	.Letext0:
 1336              		.file 4 "/l/arm2/gcc-arm-none-eabi-4_9-2014q4/lib/gcc/arm-none-eabi/4.9.3/include/stddef.h"
 1337              		.file 5 "/l/arm2/gcc-arm-none-eabi-4_9-2014q4/arm-none-eabi/include/machine/_default_types.h"
 1338              		.file 6 "/l/arm2/gcc-arm-none-eabi-4_9-2014q4/arm-none-eabi/include/stdint.h"
 1339              		.file 7 "../ChibiOS/os/rt/ports/ARMCMx/compilers/GCC/chtypes.h"
 1340              		.file 8 "../ChibiOS/os/rt/include/chsystypes.h"
 1341              		.file 9 "../ChibiOS/os/rt/include/chschd.h"
 1342              		.file 10 "../ChibiOS/os/ext/CMSIS/ST/stm32f303xc.h"
 1343              		.file 11 "../ChibiOS/os/rt/ports/ARMCMx/chcore.h"
 1344              		.file 12 "../ChibiOS/os/rt/ports/ARMCMx/chcore_v7m.h"
 1345              		.file 13 "../ChibiOS/os/hal/ports/STM32/LLD/TIMv1/stm32_tim.h"
 1346              		.file 14 "../ChibiOS/os/rt/include/chtm.h"
 1347              		.file 15 "../ChibiOS/os/rt/include/chmtx.h"
 1348              		.file 16 "../ChibiOS/os/rt/include/chthreads.h"
 1349              		.file 17 "../ChibiOS/os/rt/include/chqueues.h"
 1350              		.file 18 "../ChibiOS/os/rt/include/chstreams.h"
 1351              		.file 19 "../ChibiOS/os/hal/ports/STM32/STM32F3xx/stm32_dma.h"
 1352              		.file 20 "../ChibiOS/os/hal/ports/STM32/LLD/GPIOv2/pal_lld.h"
 1353              		.file 21 "../ChibiOS/os/hal/include/adc.h"
 1354              		.file 22 "../ChibiOS/os/hal/ports/STM32/STM32F3xx/adc_lld.h"
 1355              		.file 23 "../ChibiOS/os/hal/include/gpt.h"
 1356              		.file 24 "../ChibiOS/os/hal/ports/STM32/LLD/TIMv1/gpt_lld.h"
 1357              		.file 25 "../ChibiOS/os/hal/include/serial.h"
 1358              		.file 26 "../ChibiOS/os/hal/ports/STM32/LLD/USARTv2/serial_lld.h"
 1359              		.file 27 "../ChibiOS/os/various/shell.h"
 1360              		.file 28 "/l/arm2/gcc-arm-none-eabi-4_9-2014q4/lib/gcc/arm-none-eabi/4.9.3/include/stdarg.h"
 1361              		.file 29 "<built-in>"
 1362              		.file 30 "../ChibiOS/os/ext/CMSIS/include/arm_math.h"
 1363              		.file 31 "../ChibiOS/../ChibiOS-Drivers/inc/dac_driver.h"
 1364              		.file 32 "../ChibiOS/../ChibiOS-Drivers/stm32/dac_driver_lld.h"
 1365              		.file 33 "../ChibiOS/os/ext/CMSIS/include/core_cm4.h"
 1366              		.file 34 "../NNet/NNet.h"
 1367              		.file 35 "../weights/arb.h"
 1368              		.file 36 "../dtoa/dtoa.h"
 1369              		.file 37 "../atoh/atoh.h"
 1370              		.file 38 "../ChibiOS/os/hal/include/hal.h"
 1371              		.file 39 "../ChibiOS/../ChibiOS-Drivers/inc/drivers.h"
ARM GAS  /tmp/cc424F2O.s 			page 26


 1372              		.file 40 "../ChibiOS/os/rt/include/chsys.h"