ARM GAS  /tmp/ccoFoQLH.s 			page 1


   1              		.syntax unified
   2              		.cpu cortex-m4
   3              		.eabi_attribute 27, 3
   4              		.eabi_attribute 28, 1
   5              		.fpu fpv4-sp-d16
   6              		.eabi_attribute 20, 1
   7              		.eabi_attribute 21, 1
   8              		.eabi_attribute 23, 3
   9              		.eabi_attribute 24, 1
  10              		.eabi_attribute 25, 1
  11              		.eabi_attribute 26, 1
  12              		.eabi_attribute 30, 2
  13              		.eabi_attribute 34, 1
  14              		.eabi_attribute 18, 4
  15              		.thumb
  16              		.file	"NNet.c"
  17              		.text
  18              	.Ltext0:
  19              		.cfi_sections	.debug_frame
  20              		.section	.text.EvaluateNet,"ax",%progbits
  21              		.align	2
  22              		.p2align 4,,15
  23              		.global	EvaluateNet
  24              		.thumb
  25              		.thumb_func
  26              		.type	EvaluateNet, %function
  27              	EvaluateNet:
  28              	.LFB0:
  29              		.file 1 "../NNet/NNet.c"
  30              		.loc 1 44 0
  31              		.cfi_startproc
  32              		@ args = 0, pretend = 0, frame = 0
  33              		@ frame_needed = 0, uses_anonymous_args = 0
  34              	.LVL0:
  35 0000 384B     		ldr	r3, .L23
  36 0002 F0B5     		push	{r4, r5, r6, r7, lr}
  37              		.cfi_def_cfa_offset 20
  38              		.cfi_offset 4, -20
  39              		.cfi_offset 5, -16
  40              		.cfi_offset 6, -12
  41              		.cfi_offset 7, -8
  42              		.cfi_offset 14, -4
  43 0004 A3F17C05 		sub	r5, r3, #124
  44 0008 2846     		mov	r0, r5
  45 000a 1A1D     		adds	r2, r3, #4
  46              	.LVL1:
  47              	.L2:
  48              		.loc 1 50 0 discriminator 3
  49 000c 53F8041D 		ldr	r1, [r3, #-4]!	@ float
  50 0010 42F8041D 		str	r1, [r2, #-4]!	@ float
  51              		.loc 1 49 0 discriminator 3
  52 0014 8342     		cmp	r3, r0
  53 0016 F9D1     		bne	.L2
  54              		.loc 1 55 0
  55 0018 9FED337A 		flds	s14, .L23+4
  56 001c 334E     		ldr	r6, .L23+8
  57 001e 344C     		ldr	r4, .L23+12
ARM GAS  /tmp/ccoFoQLH.s 			page 2


  58              		.loc 1 58 0
  59 0020 DFF8DCE0 		ldr	lr, .L23+28
  60 0024 3348     		ldr	r0, .L23+16
  61              		.loc 1 52 0
  62 0026 85ED000A 		fsts	s0, [r5]
  63              	.LVL2:
  64              		.loc 1 55 0
  65 002a 3146     		mov	r1, r6
  66 002c 17EE103A 		fmrs	r3, s14
  67 0030 41F80C3F 		str	r3, [r1, #12]!	@ float
  68              		.loc 1 58 0
  69 0034 F0EE477A 		fcpys	s15, s14
  70              		.loc 1 55 0
  71 0038 86ED007A 		fsts	s14, [r6]
  72              	.LVL3:
  73 003c 86ED017A 		fsts	s14, [r6, #4]
  74              	.LVL4:
  75 0040 86ED027A 		fsts	s14, [r6, #8]
  76              	.LVL5:
  77              		.loc 1 67 0
  78 0044 B0EE476A 		fcpys	s12, s14
  79 0048 04F17C07 		add	r7, r4, #124
  80              		.loc 1 64 0
  81 004c F7EE006A 		fconsts	s13, #112
  82              	.LVL6:
  83              	.L3:
  84 0050 264D     		ldr	r5, .L23+8
  85              		.loc 1 44 0
  86 0052 0246     		mov	r2, r0
  87 0054 2B46     		mov	r3, r5
  88              	.LVL7:
  89              	.L10:
  90              		.loc 1 63 0
  91 0056 B2EC017A 		fldmias	r2!, {s14}
  92 005a E7EE007A 		vfma.f32	s15, s14, s0
  93              		.loc 1 64 0
  94 005e F4EEE67A 		fcmpes	s15, s13
  95 0062 F1EE10FA 		fmstat
  96 0066 07DD     		ble	.L18
  97              		.loc 1 62 0
  98 0068 8B42     		cmp	r3, r1
  99              		.loc 1 65 0
 100 006a C3ED006A 		fsts	s13, [r3]
 101              		.loc 1 62 0
 102 006e 0ED0     		beq	.L21
 103              	.L8:
 104 0070 0433     		adds	r3, r3, #4
 105 0072 D3ED007A 		flds	s15, [r3]
 106 0076 EEE7     		b	.L10
 107              	.L18:
 108              		.loc 1 67 0
 109 0078 F5EEC07A 		fcmpezs	s15
 110 007c F1EE10FA 		fmstat
 111              		.loc 1 63 0
 112 0080 54BF     		ite	pl
 113 0082 C3ED007A 		fstspl	s15, [r3]
 114              		.loc 1 68 0
ARM GAS  /tmp/ccoFoQLH.s 			page 3


 115 0086 83ED006A 		fstsmi	s12, [r3]
 116              		.loc 1 62 0
 117 008a 8B42     		cmp	r3, r1
 118 008c F0D1     		bne	.L8
 119              	.L21:
 120              		.loc 1 61 0 discriminator 2
 121 008e BC42     		cmp	r4, r7
 122 0090 00F11000 		add	r0, r0, #16
 123 0094 04D0     		beq	.L9
 124 0096 B4EC010A 		fldmias	r4!, {s0}
 125 009a D6ED007A 		flds	s15, [r6]
 126 009e D7E7     		b	.L3
 127              	.L9:
 128              		.loc 1 61 0 is_stmt 0
 129 00a0 DFED117A 		flds	s15, .L23+4
 130 00a4 144B     		ldr	r3, .L23+20
 131 00a6 154A     		ldr	r2, .L23+24
 132              		.loc 1 80 0 is_stmt 1
 133 00a8 F0EE675A 		fcpys	s11, s15
 134              		.loc 1 76 0
 135 00ac B7EE006A 		fconsts	s12, #112
 136              	.L12:
 137              	.LVL8:
 138              		.loc 1 75 0
 139 00b0 F5EC016A 		fldmias	r5!, {s13}
 140 00b4 B3EC017A 		fldmias	r3!, {s14}
 141 00b8 E6EE877A 		vfma.f32	s15, s13, s14
 142              		.loc 1 76 0
 143 00bc F4EEC67A 		fcmpes	s15, s12
 144 00c0 F1EE10FA 		fmstat
 145 00c4 06DD     		ble	.L22
 146              		.loc 1 77 0
 147 00c6 F7EE007A 		fconsts	s15, #112
 148              	.L11:
 149              	.LVL9:
 150              		.loc 1 73 0
 151 00ca 9542     		cmp	r5, r2
 152 00cc F0D1     		bne	.L12
 153 00ce CEED007A 		fsts	s15, [lr]
 154 00d2 F0BD     		pop	{r4, r5, r6, r7, pc}
 155              	.LVL10:
 156              	.L22:
 157              		.loc 1 80 0
 158 00d4 F5EE407A 		fcmpzs	s15
 159 00d8 F1EE10FA 		fmstat
 160 00dc 48BF     		it	mi
 161 00de F0EE657A 		fcpysmi	s15, s11
 162 00e2 F2E7     		b	.L11
 163              	.L24:
 164              		.align	2
 165              	.L23:
 166 00e4 7C000000 		.word	.LANCHOR0+124
 167 00e8 00000000 		.word	0
 168 00ec 00000000 		.word	.LANCHOR1
 169 00f0 04000000 		.word	.LANCHOR0+4
 170 00f4 00000000 		.word	weights_ih
 171 00f8 00000000 		.word	weights_ho
ARM GAS  /tmp/ccoFoQLH.s 			page 4


 172 00fc 10000000 		.word	.LANCHOR1+16
 173 0100 00000000 		.word	.LANCHOR2
 174              		.cfi_endproc
 175              	.LFE0:
 176              		.size	EvaluateNet, .-EvaluateNet
 177              		.global	outputs
 178              		.global	hiddens
 179              		.global	inputs
 180 0104 AFF30080 		.section	.bss.hiddens,"aw",%nobits
 180      AFF30080 
 180      AFF30080 
 181              		.align	2
 182              		.set	.LANCHOR1,. + 0
 183              		.type	hiddens, %object
 184              		.size	hiddens, 16
 185              	hiddens:
 186 0000 00000000 		.space	16
 186      00000000 
 186      00000000 
 186      00000000 
 187              		.section	.bss.inputs,"aw",%nobits
 188              		.align	2
 189              		.set	.LANCHOR0,. + 0
 190              		.type	inputs, %object
 191              		.size	inputs, 128
 192              	inputs:
 193 0000 00000000 		.space	128
 193      00000000 
 193      00000000 
 193      00000000 
 193      00000000 
 194              		.section	.bss.outputs,"aw",%nobits
 195              		.align	2
 196              		.set	.LANCHOR2,. + 0
 197              		.type	outputs, %object
 198              		.size	outputs, 4
 199              	outputs:
 200 0000 00000000 		.space	4
 201              		.text
 202              	.Letext0:
 203              		.file 2 "../weights/weights.h"