ARM GAS  /tmp/ccQolPVj.s 			page 1


   1              		.syntax unified
   2              		.cpu cortex-m4
   3              		.eabi_attribute 27, 3
   4              		.eabi_attribute 28, 1
   5              		.fpu fpv4-sp-d16
   6              		.eabi_attribute 20, 1
   7              		.eabi_attribute 21, 1
   8              		.eabi_attribute 23, 3
   9              		.eabi_attribute 24, 1
  10              		.eabi_attribute 25, 1
  11              		.eabi_attribute 26, 1
  12              		.eabi_attribute 30, 2
  13              		.eabi_attribute 34, 1
  14              		.eabi_attribute 18, 4
  15              		.thumb
  16              		.file	"nvic.c"
  17              		.text
  18              	.Ltext0:
  19              		.cfi_sections	.debug_frame
  20              		.section	.text.nvicEnableVector,"ax",%progbits
  21              		.align	2
  22              		.p2align 4,,15
  23              		.global	nvicEnableVector
  24              		.thumb
  25              		.thumb_func
  26              		.type	nvicEnableVector, %function
  27              	nvicEnableVector:
  28              	.LFB255:
  29              		.file 1 "../ChibiOS/os/hal/ports/common/ARMCMx/nvic.c"
  30              		.loc 1 57 0
  31              		.cfi_startproc
  32              		@ args = 0, pretend = 0, frame = 0
  33              		@ frame_needed = 0, uses_anonymous_args = 0
  34              		@ link register save eliminated.
  35              	.LVL0:
  36              		.loc 1 60 0
  37 0000 4309     		lsrs	r3, r0, #5
  38 0002 9B00     		lsls	r3, r3, #2
  39              		.loc 1 57 0
  40 0004 10B4     		push	{r4}
  41              		.cfi_def_cfa_offset 4
  42              		.cfi_offset 4, -4
  43 0006 03F16043 		add	r3, r3, #-536870912
  44              		.loc 1 59 0
  45 000a 00F16044 		add	r4, r0, #-536870912
  46 000e 04F56144 		add	r4, r4, #57600
  47 0012 03F56143 		add	r3, r3, #57600
  48 0016 0901     		lsls	r1, r1, #4
  49              	.LVL1:
  50              		.loc 1 60 0
  51 0018 00F01F00 		and	r0, r0, #31
  52              	.LVL2:
  53 001c 0122     		movs	r2, #1
  54 001e 8240     		lsls	r2, r2, r0
  55              		.loc 1 59 0
  56 0020 C9B2     		uxtb	r1, r1
  57 0022 84F80013 		strb	r1, [r4, #768]
ARM GAS  /tmp/ccQolPVj.s 			page 2


  58              		.loc 1 60 0
  59 0026 C3F88021 		str	r2, [r3, #384]
  60              		.loc 1 61 0
  61 002a 1A60     		str	r2, [r3]
  62              		.loc 1 62 0
  63 002c 5DF8044B 		ldr	r4, [sp], #4
  64              		.cfi_restore 4
  65              		.cfi_def_cfa_offset 0
  66              	.LVL3:
  67 0030 7047     		bx	lr
  68              		.cfi_endproc
  69              	.LFE255:
  70              		.size	nvicEnableVector, .-nvicEnableVector
  71 0032 00BFAFF3 		.section	.text.nvicDisableVector,"ax",%progbits
  71      0080AFF3 
  71      0080AFF3 
  71      0080
  72              		.align	2
  73              		.p2align 4,,15
  74              		.global	nvicDisableVector
  75              		.thumb
  76              		.thumb_func
  77              		.type	nvicDisableVector, %function
  78              	nvicDisableVector:
  79              	.LFB256:
  80              		.loc 1 69 0
  81              		.cfi_startproc
  82              		@ args = 0, pretend = 0, frame = 0
  83              		@ frame_needed = 0, uses_anonymous_args = 0
  84              		@ link register save eliminated.
  85              	.LVL4:
  86              		.loc 1 71 0
  87 0000 0849     		ldr	r1, .L5
  88 0002 4309     		lsrs	r3, r0, #5
  89              		.loc 1 69 0
  90 0004 10B4     		push	{r4}
  91              		.cfi_def_cfa_offset 4
  92              		.cfi_offset 4, -4
  93              		.loc 1 71 0
  94 0006 2033     		adds	r3, r3, #32
  95 0008 00F01F04 		and	r4, r0, #31
  96 000c 0122     		movs	r2, #1
  97              		.loc 1 72 0
  98 000e 0844     		add	r0, r0, r1
  99              	.LVL5:
 100              		.loc 1 71 0
 101 0010 A240     		lsls	r2, r2, r4
 102              		.loc 1 72 0
 103 0012 0024     		movs	r4, #0
 104              		.loc 1 71 0
 105 0014 41F82320 		str	r2, [r1, r3, lsl #2]
 106              		.loc 1 72 0
 107 0018 80F80043 		strb	r4, [r0, #768]
 108              		.loc 1 73 0
 109 001c 5DF8044B 		ldr	r4, [sp], #4
 110              		.cfi_restore 4
 111              		.cfi_def_cfa_offset 0
ARM GAS  /tmp/ccQolPVj.s 			page 3


 112 0020 7047     		bx	lr
 113              	.L6:
 114 0022 00BF     		.align	2
 115              	.L5:
 116 0024 00E100E0 		.word	-536813312
 117              		.cfi_endproc
 118              	.LFE256:
 119              		.size	nvicDisableVector, .-nvicDisableVector
 120 0028 AFF30080 		.section	.text.nvicSetSystemHandlerPriority,"ax",%progbits
 120      AFF30080 
 121              		.align	2
 122              		.p2align 4,,15
 123              		.global	nvicSetSystemHandlerPriority
 124              		.thumb
 125              		.thumb_func
 126              		.type	nvicSetSystemHandlerPriority, %function
 127              	nvicSetSystemHandlerPriority:
 128              	.LFB257:
 129              		.loc 1 81 0
 130              		.cfi_startproc
 131              		@ args = 0, pretend = 0, frame = 0
 132              		@ frame_needed = 0, uses_anonymous_args = 0
 133              		@ link register save eliminated.
 134              	.LVL6:
 135              		.loc 1 85 0
 136 0000 00F16040 		add	r0, r0, #-536870912
 137              	.LVL7:
 138 0004 00F56D40 		add	r0, r0, #60672
 139              	.LVL8:
 140 0008 0901     		lsls	r1, r1, #4
 141              	.LVL9:
 142 000a C9B2     		uxtb	r1, r1
 143 000c 0176     		strb	r1, [r0, #24]
 144 000e 7047     		bx	lr
 145              		.cfi_endproc
 146              	.LFE257:
 147              		.size	nvicSetSystemHandlerPriority, .-nvicSetSystemHandlerPriority
 148              		.text
 149              	.Letext0:
 150              		.file 2 "/l/arm2/gcc-arm-none-eabi-4_9-2014q4/arm-none-eabi/include/machine/_default_types.h"
 151              		.file 3 "/l/arm2/gcc-arm-none-eabi-4_9-2014q4/arm-none-eabi/include/stdint.h"
 152              		.file 4 "../ChibiOS/os/rt/ports/ARMCMx/compilers/GCC/chtypes.h"
 153              		.file 5 "../ChibiOS/os/rt/include/chsystypes.h"
 154              		.file 6 "../ChibiOS/os/rt/include/chschd.h"
 155              		.file 7 "../ChibiOS/os/ext/CMSIS/include/core_cm4.h"
 156              		.file 8 "../ChibiOS/os/rt/ports/ARMCMx/chcore.h"
 157              		.file 9 "../ChibiOS/os/rt/ports/ARMCMx/chcore_v7m.h"
 158              		.file 10 "../ChibiOS/os/rt/include/chtm.h"
 159              		.file 11 "../ChibiOS/os/rt/include/chmtx.h"
 160              		.section	.debug_info,"",%progbits
 161              	.Ldebug_info0:
 162 0000 020A0000 		.4byte	0xa02
 163 0004 0400     		.2byte	0x4
 164 0006 00000000 		.4byte	.Ldebug_abbrev0
 165 000a 04       		.byte	0x4
 166 000b 01       		.uleb128 0x1
 167 000c B3030000 		.4byte	.LASF128
ARM GAS  /tmp/ccQolPVj.s 			page 4


 168 0010 01       		.byte	0x1
 169 0011 A8010000 		.4byte	.LASF129
 170 0015 37050000 		.4byte	.LASF130
 171 0019 00000000 		.4byte	.Ldebug_ranges0+0
 172 001d 00000000 		.4byte	0
 173 0021 00000000 		.4byte	.Ldebug_line0
 174 0025 02       		.uleb128 0x2
 175 0026 04       		.byte	0x4
 176 0027 05       		.byte	0x5
 177 0028 696E7400 		.ascii	"int\000"
 178 002c 03       		.uleb128 0x3
 179 002d 04       		.byte	0x4
 180 002e 07       		.byte	0x7
 181 002f 68010000 		.4byte	.LASF0
 182 0033 03       		.uleb128 0x3
 183 0034 01       		.byte	0x1
 184 0035 06       		.byte	0x6
 185 0036 DE000000 		.4byte	.LASF1
 186 003a 04       		.uleb128 0x4
 187 003b 31000000 		.4byte	.LASF5
 188 003f 02       		.byte	0x2
 189 0040 1D       		.byte	0x1d
 190 0041 45000000 		.4byte	0x45
 191 0045 03       		.uleb128 0x3
 192 0046 01       		.byte	0x1
 193 0047 08       		.byte	0x8
 194 0048 35030000 		.4byte	.LASF2
 195 004c 03       		.uleb128 0x3
 196 004d 02       		.byte	0x2
 197 004e 05       		.byte	0x5
 198 004f 68030000 		.4byte	.LASF3
 199 0053 03       		.uleb128 0x3
 200 0054 02       		.byte	0x2
 201 0055 07       		.byte	0x7
 202 0056 DD040000 		.4byte	.LASF4
 203 005a 04       		.uleb128 0x4
 204 005b 29020000 		.4byte	.LASF6
 205 005f 02       		.byte	0x2
 206 0060 3F       		.byte	0x3f
 207 0061 65000000 		.4byte	0x65
 208 0065 03       		.uleb128 0x3
 209 0066 04       		.byte	0x4
 210 0067 05       		.byte	0x5
 211 0068 0B010000 		.4byte	.LASF7
 212 006c 04       		.uleb128 0x4
 213 006d A8050000 		.4byte	.LASF8
 214 0071 02       		.byte	0x2
 215 0072 41       		.byte	0x41
 216 0073 77000000 		.4byte	0x77
 217 0077 03       		.uleb128 0x3
 218 0078 04       		.byte	0x4
 219 0079 07       		.byte	0x7
 220 007a 59050000 		.4byte	.LASF9
 221 007e 03       		.uleb128 0x3
 222 007f 08       		.byte	0x8
 223 0080 05       		.byte	0x5
 224 0081 D0000000 		.4byte	.LASF10
ARM GAS  /tmp/ccQolPVj.s 			page 5


 225 0085 04       		.uleb128 0x4
 226 0086 C7020000 		.4byte	.LASF11
 227 008a 02       		.byte	0x2
 228 008b 5B       		.byte	0x5b
 229 008c 90000000 		.4byte	0x90
 230 0090 03       		.uleb128 0x3
 231 0091 08       		.byte	0x8
 232 0092 07       		.byte	0x7
 233 0093 56000000 		.4byte	.LASF12
 234 0097 04       		.uleb128 0x4
 235 0098 FD050000 		.4byte	.LASF13
 236 009c 03       		.byte	0x3
 237 009d 15       		.byte	0x15
 238 009e 3A000000 		.4byte	0x3a
 239 00a2 04       		.uleb128 0x4
 240 00a3 2D030000 		.4byte	.LASF14
 241 00a7 03       		.byte	0x3
 242 00a8 2C       		.byte	0x2c
 243 00a9 5A000000 		.4byte	0x5a
 244 00ad 04       		.uleb128 0x4
 245 00ae 16050000 		.4byte	.LASF15
 246 00b2 03       		.byte	0x3
 247 00b3 2D       		.byte	0x2d
 248 00b4 6C000000 		.4byte	0x6c
 249 00b8 04       		.uleb128 0x4
 250 00b9 28000000 		.4byte	.LASF16
 251 00bd 03       		.byte	0x3
 252 00be 39       		.byte	0x39
 253 00bf 85000000 		.4byte	0x85
 254 00c3 05       		.uleb128 0x5
 255 00c4 A2000000 		.4byte	0xa2
 256 00c8 05       		.uleb128 0x5
 257 00c9 AD000000 		.4byte	0xad
 258 00cd 04       		.uleb128 0x4
 259 00ce CC050000 		.4byte	.LASF17
 260 00d2 04       		.byte	0x4
 261 00d3 45       		.byte	0x45
 262 00d4 AD000000 		.4byte	0xad
 263 00d8 04       		.uleb128 0x4
 264 00d9 07020000 		.4byte	.LASF18
 265 00dd 04       		.byte	0x4
 266 00de 48       		.byte	0x48
 267 00df 97000000 		.4byte	0x97
 268 00e3 04       		.uleb128 0x4
 269 00e4 14010000 		.4byte	.LASF19
 270 00e8 04       		.byte	0x4
 271 00e9 49       		.byte	0x49
 272 00ea 97000000 		.4byte	0x97
 273 00ee 04       		.uleb128 0x4
 274 00ef D2020000 		.4byte	.LASF20
 275 00f3 04       		.byte	0x4
 276 00f4 4A       		.byte	0x4a
 277 00f5 97000000 		.4byte	0x97
 278 00f9 04       		.uleb128 0x4
 279 00fa 09030000 		.4byte	.LASF21
 280 00fe 04       		.byte	0x4
 281 00ff 4C       		.byte	0x4c
ARM GAS  /tmp/ccQolPVj.s 			page 6


 282 0100 AD000000 		.4byte	0xad
 283 0104 04       		.uleb128 0x4
 284 0105 E4010000 		.4byte	.LASF22
 285 0109 04       		.byte	0x4
 286 010a 4D       		.byte	0x4d
 287 010b A2000000 		.4byte	0xa2
 288 010f 04       		.uleb128 0x4
 289 0110 1D020000 		.4byte	.LASF23
 290 0114 04       		.byte	0x4
 291 0115 4F       		.byte	0x4f
 292 0116 AD000000 		.4byte	0xad
 293 011a 04       		.uleb128 0x4
 294 011b 8A050000 		.4byte	.LASF24
 295 011f 05       		.byte	0x5
 296 0120 33       		.byte	0x33
 297 0121 AD000000 		.4byte	0xad
 298 0125 04       		.uleb128 0x4
 299 0126 7A050000 		.4byte	.LASF25
 300 012a 05       		.byte	0x5
 301 012b 3F       		.byte	0x3f
 302 012c 30010000 		.4byte	0x130
 303 0130 06       		.uleb128 0x6
 304 0131 D5010000 		.4byte	.LASF44
 305 0135 44       		.byte	0x44
 306 0136 06       		.byte	0x6
 307 0137 BE       		.byte	0xbe
 308 0138 1D020000 		.4byte	0x21d
 309 013c 07       		.uleb128 0x7
 310 013d AC030000 		.4byte	.LASF26
 311 0141 06       		.byte	0x6
 312 0142 BF       		.byte	0xbf
 313 0143 8D080000 		.4byte	0x88d
 314 0147 00       		.byte	0
 315 0148 07       		.uleb128 0x7
 316 0149 02030000 		.4byte	.LASF27
 317 014d 06       		.byte	0x6
 318 014e C1       		.byte	0xc1
 319 014f 8D080000 		.4byte	0x88d
 320 0153 04       		.byte	0x4
 321 0154 07       		.uleb128 0x7
 322 0155 B3000000 		.4byte	.LASF28
 323 0159 06       		.byte	0x6
 324 015a C3       		.byte	0xc3
 325 015b F9000000 		.4byte	0xf9
 326 015f 08       		.byte	0x8
 327 0160 07       		.uleb128 0x7
 328 0161 3A060000 		.4byte	.LASF29
 329 0165 06       		.byte	0x6
 330 0166 C4       		.byte	0xc4
 331 0167 0D070000 		.4byte	0x70d
 332 016b 0C       		.byte	0xc
 333 016c 07       		.uleb128 0x7
 334 016d 1D010000 		.4byte	.LASF30
 335 0171 06       		.byte	0x6
 336 0172 C6       		.byte	0xc6
 337 0173 8D080000 		.4byte	0x88d
 338 0177 10       		.byte	0x10
ARM GAS  /tmp/ccQolPVj.s 			page 7


 339 0178 07       		.uleb128 0x7
 340 0179 96020000 		.4byte	.LASF31
 341 017d 06       		.byte	0x6
 342 017e C7       		.byte	0xc7
 343 017f 8D080000 		.4byte	0x88d
 344 0183 14       		.byte	0x14
 345 0184 07       		.uleb128 0x7
 346 0185 1A060000 		.4byte	.LASF32
 347 0189 06       		.byte	0x6
 348 018a CE       		.byte	0xce
 349 018b CB080000 		.4byte	0x8cb
 350 018f 18       		.byte	0x18
 351 0190 07       		.uleb128 0x7
 352 0191 56030000 		.4byte	.LASF33
 353 0195 06       		.byte	0x6
 354 0196 D9       		.byte	0xd9
 355 0197 E3000000 		.4byte	0xe3
 356 019b 1C       		.byte	0x1c
 357 019c 07       		.uleb128 0x7
 358 019d CC040000 		.4byte	.LASF34
 359 01a1 06       		.byte	0x6
 360 01a2 DD       		.byte	0xdd
 361 01a3 D8000000 		.4byte	0xd8
 362 01a7 1D       		.byte	0x1d
 363 01a8 07       		.uleb128 0x7
 364 01a9 EB050000 		.4byte	.LASF35
 365 01ad 06       		.byte	0x6
 366 01ae E2       		.byte	0xe2
 367 01af EE000000 		.4byte	0xee
 368 01b3 1E       		.byte	0x1e
 369 01b4 08       		.uleb128 0x8
 370 01b5 705F7500 		.ascii	"p_u\000"
 371 01b9 06       		.byte	0x6
 372 01ba 1401     		.2byte	0x114
 373 01bc 93080000 		.4byte	0x893
 374 01c0 20       		.byte	0x20
 375 01c1 09       		.uleb128 0x9
 376 01c2 56020000 		.4byte	.LASF36
 377 01c6 06       		.byte	0x6
 378 01c7 1901     		.2byte	0x119
 379 01c9 1D020000 		.4byte	0x21d
 380 01cd 24       		.byte	0x24
 381 01ce 09       		.uleb128 0x9
 382 01cf 98010000 		.4byte	.LASF37
 383 01d3 06       		.byte	0x6
 384 01d4 1F01     		.2byte	0x11f
 385 01d6 41020000 		.4byte	0x241
 386 01da 28       		.byte	0x28
 387 01db 09       		.uleb128 0x9
 388 01dc 21060000 		.4byte	.LASF38
 389 01e0 06       		.byte	0x6
 390 01e1 2301     		.2byte	0x123
 391 01e3 04010000 		.4byte	0x104
 392 01e7 30       		.byte	0x30
 393 01e8 09       		.uleb128 0x9
 394 01e9 01050000 		.4byte	.LASF39
 395 01ed 06       		.byte	0x6
ARM GAS  /tmp/ccQolPVj.s 			page 8


 396 01ee 2901     		.2byte	0x129
 397 01f0 0F010000 		.4byte	0x10f
 398 01f4 34       		.byte	0x34
 399 01f5 09       		.uleb128 0x9
 400 01f6 5E030000 		.4byte	.LASF40
 401 01fa 06       		.byte	0x6
 402 01fb 3001     		.2byte	0x130
 403 01fd 0E090000 		.4byte	0x90e
 404 0201 38       		.byte	0x38
 405 0202 09       		.uleb128 0x9
 406 0203 94050000 		.4byte	.LASF41
 407 0207 06       		.byte	0x6
 408 0208 3401     		.2byte	0x134
 409 020a F9000000 		.4byte	0xf9
 410 020e 3C       		.byte	0x3c
 411 020f 09       		.uleb128 0x9
 412 0210 EA000000 		.4byte	.LASF42
 413 0214 06       		.byte	0x6
 414 0215 3A01     		.2byte	0x13a
 415 0217 F4020000 		.4byte	0x2f4
 416 021b 40       		.byte	0x40
 417 021c 00       		.byte	0
 418 021d 04       		.uleb128 0x4
 419 021e 00000000 		.4byte	.LASF43
 420 0222 05       		.byte	0x5
 421 0223 44       		.byte	0x44
 422 0224 28020000 		.4byte	0x228
 423 0228 06       		.uleb128 0x6
 424 0229 27050000 		.4byte	.LASF45
 425 022d 04       		.byte	0x4
 426 022e 06       		.byte	0x6
 427 022f AC       		.byte	0xac
 428 0230 41020000 		.4byte	0x241
 429 0234 07       		.uleb128 0x7
 430 0235 AC030000 		.4byte	.LASF26
 431 0239 06       		.byte	0x6
 432 023a AD       		.byte	0xad
 433 023b 8D080000 		.4byte	0x88d
 434 023f 00       		.byte	0
 435 0240 00       		.byte	0
 436 0241 04       		.uleb128 0x4
 437 0242 DB050000 		.4byte	.LASF46
 438 0246 05       		.byte	0x5
 439 0247 4B       		.byte	0x4b
 440 0248 4C020000 		.4byte	0x24c
 441 024c 06       		.uleb128 0x6
 442 024d 9D000000 		.4byte	.LASF47
 443 0251 08       		.byte	0x8
 444 0252 06       		.byte	0x6
 445 0253 B3       		.byte	0xb3
 446 0254 71020000 		.4byte	0x271
 447 0258 07       		.uleb128 0x7
 448 0259 AC030000 		.4byte	.LASF26
 449 025d 06       		.byte	0x6
 450 025e B4       		.byte	0xb4
 451 025f 8D080000 		.4byte	0x88d
 452 0263 00       		.byte	0
ARM GAS  /tmp/ccQolPVj.s 			page 9


 453 0264 07       		.uleb128 0x7
 454 0265 02030000 		.4byte	.LASF27
 455 0269 06       		.byte	0x6
 456 026a B5       		.byte	0xb5
 457 026b 8D080000 		.4byte	0x88d
 458 026f 04       		.byte	0x4
 459 0270 00       		.byte	0
 460 0271 04       		.uleb128 0x4
 461 0272 14000000 		.4byte	.LASF48
 462 0276 05       		.byte	0x5
 463 0277 52       		.byte	0x52
 464 0278 7C020000 		.4byte	0x27c
 465 027c 0A       		.uleb128 0xa
 466 027d 0F020000 		.4byte	.LASF49
 467 0281 1C       		.byte	0x1c
 468 0282 06       		.byte	0x6
 469 0283 7201     		.2byte	0x172
 470 0285 D8020000 		.4byte	0x2d8
 471 0289 09       		.uleb128 0x9
 472 028a 1F050000 		.4byte	.LASF50
 473 028e 06       		.byte	0x6
 474 028f 7301     		.2byte	0x173
 475 0291 41020000 		.4byte	0x241
 476 0295 00       		.byte	0
 477 0296 09       		.uleb128 0x9
 478 0297 9E030000 		.4byte	.LASF51
 479 029b 06       		.byte	0x6
 480 029c 7401     		.2byte	0x174
 481 029e F9000000 		.4byte	0xf9
 482 02a2 08       		.byte	0x8
 483 02a3 09       		.uleb128 0x9
 484 02a4 9E020000 		.4byte	.LASF52
 485 02a8 06       		.byte	0x6
 486 02a9 7601     		.2byte	0x176
 487 02ab 0D070000 		.4byte	0x70d
 488 02af 0C       		.byte	0xc
 489 02b0 09       		.uleb128 0x9
 490 02b1 2F010000 		.4byte	.LASF53
 491 02b5 06       		.byte	0x6
 492 02b6 7901     		.2byte	0x179
 493 02b8 8D080000 		.4byte	0x88d
 494 02bc 10       		.byte	0x10
 495 02bd 09       		.uleb128 0x9
 496 02be BF020000 		.4byte	.LASF54
 497 02c2 06       		.byte	0x6
 498 02c3 7A01     		.2byte	0x17a
 499 02c5 8D080000 		.4byte	0x88d
 500 02c9 14       		.byte	0x14
 501 02ca 09       		.uleb128 0x9
 502 02cb 6B050000 		.4byte	.LASF55
 503 02cf 06       		.byte	0x6
 504 02d0 7D01     		.2byte	0x17d
 505 02d2 8D080000 		.4byte	0x88d
 506 02d6 18       		.byte	0x18
 507 02d7 00       		.byte	0
 508 02d8 04       		.uleb128 0x4
 509 02d9 9F050000 		.4byte	.LASF56
ARM GAS  /tmp/ccQolPVj.s 			page 10


 510 02dd 05       		.byte	0x5
 511 02de 57       		.byte	0x57
 512 02df E3020000 		.4byte	0x2e3
 513 02e3 0B       		.uleb128 0xb
 514 02e4 04       		.byte	0x4
 515 02e5 E9020000 		.4byte	0x2e9
 516 02e9 0C       		.uleb128 0xc
 517 02ea F4020000 		.4byte	0x2f4
 518 02ee 0D       		.uleb128 0xd
 519 02ef F4020000 		.4byte	0x2f4
 520 02f3 00       		.byte	0
 521 02f4 0E       		.uleb128 0xe
 522 02f5 04       		.byte	0x4
 523 02f6 04       		.uleb128 0x4
 524 02f7 46020000 		.4byte	.LASF57
 525 02fb 05       		.byte	0x5
 526 02fc 5C       		.byte	0x5c
 527 02fd 01030000 		.4byte	0x301
 528 0301 0A       		.uleb128 0xa
 529 0302 F0040000 		.4byte	.LASF58
 530 0306 14       		.byte	0x14
 531 0307 06       		.byte	0x6
 532 0308 4D01     		.2byte	0x14d
 533 030a 50030000 		.4byte	0x350
 534 030e 09       		.uleb128 0x9
 535 030f 75010000 		.4byte	.LASF59
 536 0313 06       		.byte	0x6
 537 0314 4E01     		.2byte	0x14e
 538 0316 14090000 		.4byte	0x914
 539 031a 00       		.byte	0
 540 031b 09       		.uleb128 0x9
 541 031c 40010000 		.4byte	.LASF60
 542 0320 06       		.byte	0x6
 543 0321 4F01     		.2byte	0x14f
 544 0323 14090000 		.4byte	0x914
 545 0327 04       		.byte	0x4
 546 0328 09       		.uleb128 0x9
 547 0329 8F010000 		.4byte	.LASF61
 548 032d 06       		.byte	0x6
 549 032e 5001     		.2byte	0x150
 550 0330 1A010000 		.4byte	0x11a
 551 0334 08       		.byte	0x8
 552 0335 09       		.uleb128 0x9
 553 0336 40060000 		.4byte	.LASF62
 554 033a 06       		.byte	0x6
 555 033b 5101     		.2byte	0x151
 556 033d D8020000 		.4byte	0x2d8
 557 0341 0C       		.byte	0xc
 558 0342 09       		.uleb128 0x9
 559 0343 D4050000 		.4byte	.LASF63
 560 0347 06       		.byte	0x6
 561 0348 5301     		.2byte	0x153
 562 034a F4020000 		.4byte	0x2f4
 563 034e 10       		.byte	0x10
 564 034f 00       		.byte	0
 565 0350 04       		.uleb128 0x4
 566 0351 81000000 		.4byte	.LASF64
ARM GAS  /tmp/ccQolPVj.s 			page 11


 567 0355 05       		.byte	0x5
 568 0356 61       		.byte	0x61
 569 0357 5B030000 		.4byte	0x35b
 570 035b 0A       		.uleb128 0xa
 571 035c 69020000 		.4byte	.LASF65
 572 0360 10       		.byte	0x10
 573 0361 06       		.byte	0x6
 574 0362 5D01     		.2byte	0x15d
 575 0364 9D030000 		.4byte	0x39d
 576 0368 09       		.uleb128 0x9
 577 0369 75010000 		.4byte	.LASF59
 578 036d 06       		.byte	0x6
 579 036e 5E01     		.2byte	0x15e
 580 0370 14090000 		.4byte	0x914
 581 0374 00       		.byte	0
 582 0375 09       		.uleb128 0x9
 583 0376 40010000 		.4byte	.LASF60
 584 037a 06       		.byte	0x6
 585 037b 6001     		.2byte	0x160
 586 037d 14090000 		.4byte	0x914
 587 0381 04       		.byte	0x4
 588 0382 09       		.uleb128 0x9
 589 0383 8F010000 		.4byte	.LASF61
 590 0387 06       		.byte	0x6
 591 0388 6201     		.2byte	0x162
 592 038a 1A010000 		.4byte	0x11a
 593 038e 08       		.byte	0x8
 594 038f 09       		.uleb128 0x9
 595 0390 8A020000 		.4byte	.LASF66
 596 0394 06       		.byte	0x6
 597 0395 6A01     		.2byte	0x16a
 598 0397 1A010000 		.4byte	0x11a
 599 039b 0C       		.byte	0xc
 600 039c 00       		.byte	0
 601 039d 04       		.uleb128 0x4
 602 039e 47000000 		.4byte	.LASF67
 603 03a2 05       		.byte	0x5
 604 03a3 66       		.byte	0x66
 605 03a4 A8030000 		.4byte	0x3a8
 606 03a8 0A       		.uleb128 0xa
 607 03a9 17030000 		.4byte	.LASF68
 608 03ad 04       		.byte	0x4
 609 03ae 06       		.byte	0x6
 610 03af 8401     		.2byte	0x184
 611 03b1 C3030000 		.4byte	0x3c3
 612 03b5 09       		.uleb128 0x9
 613 03b6 B3050000 		.4byte	.LASF69
 614 03ba 06       		.byte	0x6
 615 03bb 8C01     		.2byte	0x18c
 616 03bd 1A090000 		.4byte	0x91a
 617 03c1 00       		.byte	0
 618 03c2 00       		.byte	0
 619 03c3 04       		.uleb128 0x4
 620 03c4 FB010000 		.4byte	.LASF70
 621 03c8 05       		.byte	0x5
 622 03c9 6B       		.byte	0x6b
 623 03ca CE030000 		.4byte	0x3ce
ARM GAS  /tmp/ccQolPVj.s 			page 12


 624 03ce 0F       		.uleb128 0xf
 625 03cf 01010000 		.4byte	.LASF71
 626 03d3 D801     		.2byte	0x1d8
 627 03d5 06       		.byte	0x6
 628 03d6 A401     		.2byte	0x1a4
 629 03d8 2A040000 		.4byte	0x42a
 630 03dc 09       		.uleb128 0x9
 631 03dd F7050000 		.4byte	.LASF72
 632 03e1 06       		.byte	0x6
 633 03e2 A801     		.2byte	0x1a8
 634 03e4 71020000 		.4byte	0x271
 635 03e8 00       		.byte	0
 636 03e9 09       		.uleb128 0x9
 637 03ea FA000000 		.4byte	.LASF73
 638 03ee 06       		.byte	0x6
 639 03ef AC01     		.2byte	0x1ac
 640 03f1 50030000 		.4byte	0x350
 641 03f5 1C       		.byte	0x1c
 642 03f6 08       		.uleb128 0x8
 643 03f7 64626700 		.ascii	"dbg\000"
 644 03fb 06       		.byte	0x6
 645 03fc B001     		.2byte	0x1b0
 646 03fe 9D030000 		.4byte	0x39d
 647 0402 2C       		.byte	0x2c
 648 0403 09       		.uleb128 0x9
 649 0404 76000000 		.4byte	.LASF74
 650 0408 06       		.byte	0x6
 651 0409 B401     		.2byte	0x1b4
 652 040b 25010000 		.4byte	0x125
 653 040f 30       		.byte	0x30
 654 0410 08       		.uleb128 0x8
 655 0411 746D00   		.ascii	"tm\000"
 656 0414 06       		.byte	0x6
 657 0415 B901     		.2byte	0x1b9
 658 0417 82080000 		.4byte	0x882
 659 041b 74       		.byte	0x74
 660 041c 09       		.uleb128 0x9
 661 041d 59010000 		.4byte	.LASF75
 662 0421 06       		.byte	0x6
 663 0422 C501     		.2byte	0x1c5
 664 0424 1F090000 		.4byte	0x91f
 665 0428 78       		.byte	0x78
 666 0429 00       		.byte	0
 667 042a 10       		.uleb128 0x10
 668 042b 040E     		.2byte	0xe04
 669 042d 07       		.byte	0x7
 670 042e 5001     		.2byte	0x150
 671 0430 E6040000 		.4byte	0x4e6
 672 0434 09       		.uleb128 0x9
 673 0435 72030000 		.4byte	.LASF76
 674 0439 07       		.byte	0x7
 675 043a 5201     		.2byte	0x152
 676 043c FD040000 		.4byte	0x4fd
 677 0440 00       		.byte	0
 678 0441 09       		.uleb128 0x9
 679 0442 DA020000 		.4byte	.LASF77
 680 0446 07       		.byte	0x7
ARM GAS  /tmp/ccQolPVj.s 			page 13


 681 0447 5301     		.2byte	0x153
 682 0449 02050000 		.4byte	0x502
 683 044d 20       		.byte	0x20
 684 044e 09       		.uleb128 0x9
 685 044f B5020000 		.4byte	.LASF78
 686 0453 07       		.byte	0x7
 687 0454 5401     		.2byte	0x154
 688 0456 12050000 		.4byte	0x512
 689 045a 80       		.byte	0x80
 690 045b 09       		.uleb128 0x9
 691 045c 05060000 		.4byte	.LASF79
 692 0460 07       		.byte	0x7
 693 0461 5501     		.2byte	0x155
 694 0463 02050000 		.4byte	0x502
 695 0467 A0       		.byte	0xa0
 696 0468 11       		.uleb128 0x11
 697 0469 AE000000 		.4byte	.LASF80
 698 046d 07       		.byte	0x7
 699 046e 5601     		.2byte	0x156
 700 0470 17050000 		.4byte	0x517
 701 0474 0001     		.2byte	0x100
 702 0476 11       		.uleb128 0x11
 703 0477 E4020000 		.4byte	.LASF81
 704 047b 07       		.byte	0x7
 705 047c 5701     		.2byte	0x157
 706 047e 02050000 		.4byte	0x502
 707 0482 2001     		.2byte	0x120
 708 0484 11       		.uleb128 0x11
 709 0485 0F000000 		.4byte	.LASF82
 710 0489 07       		.byte	0x7
 711 048a 5801     		.2byte	0x158
 712 048c 1C050000 		.4byte	0x51c
 713 0490 8001     		.2byte	0x180
 714 0492 11       		.uleb128 0x11
 715 0493 EE020000 		.4byte	.LASF83
 716 0497 07       		.byte	0x7
 717 0498 5901     		.2byte	0x159
 718 049a 02050000 		.4byte	0x502
 719 049e A001     		.2byte	0x1a0
 720 04a0 11       		.uleb128 0x11
 721 04a1 85020000 		.4byte	.LASF84
 722 04a5 07       		.byte	0x7
 723 04a6 5A01     		.2byte	0x15a
 724 04a8 21050000 		.4byte	0x521
 725 04ac 0002     		.2byte	0x200
 726 04ae 11       		.uleb128 0x11
 727 04af F8020000 		.4byte	.LASF85
 728 04b3 07       		.byte	0x7
 729 04b4 5B01     		.2byte	0x15b
 730 04b6 26050000 		.4byte	0x526
 731 04ba 2002     		.2byte	0x220
 732 04bc 12       		.uleb128 0x12
 733 04bd 495000   		.ascii	"IP\000"
 734 04c0 07       		.byte	0x7
 735 04c1 5C01     		.2byte	0x15c
 736 04c3 46050000 		.4byte	0x546
 737 04c7 0003     		.2byte	0x300
ARM GAS  /tmp/ccQolPVj.s 			page 14


 738 04c9 11       		.uleb128 0x11
 739 04ca 0C050000 		.4byte	.LASF86
 740 04ce 07       		.byte	0x7
 741 04cf 5D01     		.2byte	0x15d
 742 04d1 4B050000 		.4byte	0x54b
 743 04d5 F003     		.2byte	0x3f0
 744 04d7 11       		.uleb128 0x11
 745 04d8 0E060000 		.4byte	.LASF87
 746 04dc 07       		.byte	0x7
 747 04dd 5E01     		.2byte	0x15e
 748 04df C8000000 		.4byte	0xc8
 749 04e3 000E     		.2byte	0xe00
 750 04e5 00       		.byte	0
 751 04e6 13       		.uleb128 0x13
 752 04e7 AD000000 		.4byte	0xad
 753 04eb F6040000 		.4byte	0x4f6
 754 04ef 14       		.uleb128 0x14
 755 04f0 F6040000 		.4byte	0x4f6
 756 04f4 07       		.byte	0x7
 757 04f5 00       		.byte	0
 758 04f6 03       		.uleb128 0x3
 759 04f7 04       		.byte	0x4
 760 04f8 07       		.byte	0x7
 761 04f9 60020000 		.4byte	.LASF88
 762 04fd 05       		.uleb128 0x5
 763 04fe E6040000 		.4byte	0x4e6
 764 0502 13       		.uleb128 0x13
 765 0503 AD000000 		.4byte	0xad
 766 0507 12050000 		.4byte	0x512
 767 050b 14       		.uleb128 0x14
 768 050c F6040000 		.4byte	0x4f6
 769 0510 17       		.byte	0x17
 770 0511 00       		.byte	0
 771 0512 05       		.uleb128 0x5
 772 0513 E6040000 		.4byte	0x4e6
 773 0517 05       		.uleb128 0x5
 774 0518 E6040000 		.4byte	0x4e6
 775 051c 05       		.uleb128 0x5
 776 051d E6040000 		.4byte	0x4e6
 777 0521 05       		.uleb128 0x5
 778 0522 E6040000 		.4byte	0x4e6
 779 0526 13       		.uleb128 0x13
 780 0527 AD000000 		.4byte	0xad
 781 052b 36050000 		.4byte	0x536
 782 052f 14       		.uleb128 0x14
 783 0530 F6040000 		.4byte	0x4f6
 784 0534 37       		.byte	0x37
 785 0535 00       		.byte	0
 786 0536 13       		.uleb128 0x13
 787 0537 97000000 		.4byte	0x97
 788 053b 46050000 		.4byte	0x546
 789 053f 14       		.uleb128 0x14
 790 0540 F6040000 		.4byte	0x4f6
 791 0544 EF       		.byte	0xef
 792 0545 00       		.byte	0
 793 0546 05       		.uleb128 0x5
 794 0547 36050000 		.4byte	0x536
ARM GAS  /tmp/ccQolPVj.s 			page 15


 795 054b 13       		.uleb128 0x13
 796 054c AD000000 		.4byte	0xad
 797 0550 5C050000 		.4byte	0x55c
 798 0554 15       		.uleb128 0x15
 799 0555 F6040000 		.4byte	0x4f6
 800 0559 8302     		.2byte	0x283
 801 055b 00       		.byte	0
 802 055c 16       		.uleb128 0x16
 803 055d 77030000 		.4byte	.LASF89
 804 0561 07       		.byte	0x7
 805 0562 5F01     		.2byte	0x15f
 806 0564 2A040000 		.4byte	0x42a
 807 0568 17       		.uleb128 0x17
 808 0569 8C       		.byte	0x8c
 809 056a 07       		.byte	0x7
 810 056b 7001     		.2byte	0x170
 811 056d 83060000 		.4byte	0x683
 812 0571 09       		.uleb128 0x9
 813 0572 97000000 		.4byte	.LASF90
 814 0576 07       		.byte	0x7
 815 0577 7201     		.2byte	0x172
 816 0579 83060000 		.4byte	0x683
 817 057d 00       		.byte	0
 818 057e 09       		.uleb128 0x9
 819 057f DF010000 		.4byte	.LASF91
 820 0583 07       		.byte	0x7
 821 0584 7301     		.2byte	0x173
 822 0586 C8000000 		.4byte	0xc8
 823 058a 04       		.byte	0x4
 824 058b 09       		.uleb128 0x9
 825 058c A3010000 		.4byte	.LASF92
 826 0590 07       		.byte	0x7
 827 0591 7401     		.2byte	0x174
 828 0593 C8000000 		.4byte	0xc8
 829 0597 08       		.byte	0x8
 830 0598 09       		.uleb128 0x9
 831 0599 EA010000 		.4byte	.LASF93
 832 059d 07       		.byte	0x7
 833 059e 7501     		.2byte	0x175
 834 05a0 C8000000 		.4byte	0xc8
 835 05a4 0C       		.byte	0xc
 836 05a5 08       		.uleb128 0x8
 837 05a6 53435200 		.ascii	"SCR\000"
 838 05aa 07       		.byte	0x7
 839 05ab 7601     		.2byte	0x176
 840 05ad C8000000 		.4byte	0xc8
 841 05b1 10       		.byte	0x10
 842 05b2 08       		.uleb128 0x8
 843 05b3 43435200 		.ascii	"CCR\000"
 844 05b7 07       		.byte	0x7
 845 05b8 7701     		.2byte	0x177
 846 05ba C8000000 		.4byte	0xc8
 847 05be 14       		.byte	0x14
 848 05bf 08       		.uleb128 0x8
 849 05c0 53485000 		.ascii	"SHP\000"
 850 05c4 07       		.byte	0x7
 851 05c5 7801     		.2byte	0x178
ARM GAS  /tmp/ccQolPVj.s 			page 16


 852 05c7 98060000 		.4byte	0x698
 853 05cb 18       		.byte	0x18
 854 05cc 09       		.uleb128 0x9
 855 05cd 43030000 		.4byte	.LASF94
 856 05d1 07       		.byte	0x7
 857 05d2 7901     		.2byte	0x179
 858 05d4 C8000000 		.4byte	0xc8
 859 05d8 24       		.byte	0x24
 860 05d9 09       		.uleb128 0x9
 861 05da 80020000 		.4byte	.LASF95
 862 05de 07       		.byte	0x7
 863 05df 7A01     		.2byte	0x17a
 864 05e1 C8000000 		.4byte	0xc8
 865 05e5 28       		.byte	0x28
 866 05e6 09       		.uleb128 0x9
 867 05e7 2D060000 		.4byte	.LASF96
 868 05eb 07       		.byte	0x7
 869 05ec 7B01     		.2byte	0x17b
 870 05ee C8000000 		.4byte	0xc8
 871 05f2 2C       		.byte	0x2c
 872 05f3 09       		.uleb128 0x9
 873 05f4 F0010000 		.4byte	.LASF97
 874 05f8 07       		.byte	0x7
 875 05f9 7C01     		.2byte	0x17c
 876 05fb C8000000 		.4byte	0xc8
 877 05ff 30       		.byte	0x30
 878 0600 09       		.uleb128 0x9
 879 0601 F5010000 		.4byte	.LASF98
 880 0605 07       		.byte	0x7
 881 0606 7D01     		.2byte	0x17d
 882 0608 C8000000 		.4byte	0xc8
 883 060c 34       		.byte	0x34
 884 060d 09       		.uleb128 0x9
 885 060e 25010000 		.4byte	.LASF99
 886 0612 07       		.byte	0x7
 887 0613 7E01     		.2byte	0x17e
 888 0615 C8000000 		.4byte	0xc8
 889 0619 38       		.byte	0x38
 890 061a 09       		.uleb128 0x9
 891 061b 2A010000 		.4byte	.LASF100
 892 061f 07       		.byte	0x7
 893 0620 7F01     		.2byte	0x17f
 894 0622 C8000000 		.4byte	0xc8
 895 0626 3C       		.byte	0x3c
 896 0627 08       		.uleb128 0x8
 897 0628 50465200 		.ascii	"PFR\000"
 898 062c 07       		.byte	0x7
 899 062d 8001     		.2byte	0x180
 900 062f AD060000 		.4byte	0x6ad
 901 0633 40       		.byte	0x40
 902 0634 08       		.uleb128 0x8
 903 0635 44465200 		.ascii	"DFR\000"
 904 0639 07       		.byte	0x7
 905 063a 8101     		.2byte	0x181
 906 063c 83060000 		.4byte	0x683
 907 0640 48       		.byte	0x48
 908 0641 08       		.uleb128 0x8
ARM GAS  /tmp/ccQolPVj.s 			page 17


 909 0642 41445200 		.ascii	"ADR\000"
 910 0646 07       		.byte	0x7
 911 0647 8201     		.2byte	0x182
 912 0649 83060000 		.4byte	0x683
 913 064d 4C       		.byte	0x4c
 914 064e 09       		.uleb128 0x9
 915 064f F2050000 		.4byte	.LASF101
 916 0653 07       		.byte	0x7
 917 0654 8301     		.2byte	0x183
 918 0656 C7060000 		.4byte	0x6c7
 919 065a 50       		.byte	0x50
 920 065b 09       		.uleb128 0x9
 921 065c CB000000 		.4byte	.LASF102
 922 0660 07       		.byte	0x7
 923 0661 8401     		.2byte	0x184
 924 0663 E1060000 		.4byte	0x6e1
 925 0667 60       		.byte	0x60
 926 0668 09       		.uleb128 0x9
 927 0669 DA020000 		.4byte	.LASF77
 928 066d 07       		.byte	0x7
 929 066e 8501     		.2byte	0x185
 930 0670 D1060000 		.4byte	0x6d1
 931 0674 74       		.byte	0x74
 932 0675 09       		.uleb128 0x9
 933 0676 27060000 		.4byte	.LASF103
 934 067a 07       		.byte	0x7
 935 067b 8601     		.2byte	0x186
 936 067d C8000000 		.4byte	0xc8
 937 0681 88       		.byte	0x88
 938 0682 00       		.byte	0
 939 0683 18       		.uleb128 0x18
 940 0684 C8000000 		.4byte	0xc8
 941 0688 13       		.uleb128 0x13
 942 0689 97000000 		.4byte	0x97
 943 068d 98060000 		.4byte	0x698
 944 0691 14       		.uleb128 0x14
 945 0692 F6040000 		.4byte	0x4f6
 946 0696 0B       		.byte	0xb
 947 0697 00       		.byte	0
 948 0698 05       		.uleb128 0x5
 949 0699 88060000 		.4byte	0x688
 950 069d 13       		.uleb128 0x13
 951 069e AD000000 		.4byte	0xad
 952 06a2 AD060000 		.4byte	0x6ad
 953 06a6 14       		.uleb128 0x14
 954 06a7 F6040000 		.4byte	0x4f6
 955 06ab 01       		.byte	0x1
 956 06ac 00       		.byte	0
 957 06ad 18       		.uleb128 0x18
 958 06ae B2060000 		.4byte	0x6b2
 959 06b2 05       		.uleb128 0x5
 960 06b3 9D060000 		.4byte	0x69d
 961 06b7 13       		.uleb128 0x13
 962 06b8 AD000000 		.4byte	0xad
 963 06bc C7060000 		.4byte	0x6c7
 964 06c0 14       		.uleb128 0x14
 965 06c1 F6040000 		.4byte	0x4f6
ARM GAS  /tmp/ccQolPVj.s 			page 18


 966 06c5 03       		.byte	0x3
 967 06c6 00       		.byte	0
 968 06c7 18       		.uleb128 0x18
 969 06c8 CC060000 		.4byte	0x6cc
 970 06cc 05       		.uleb128 0x5
 971 06cd B7060000 		.4byte	0x6b7
 972 06d1 13       		.uleb128 0x13
 973 06d2 AD000000 		.4byte	0xad
 974 06d6 E1060000 		.4byte	0x6e1
 975 06da 14       		.uleb128 0x14
 976 06db F6040000 		.4byte	0x4f6
 977 06df 04       		.byte	0x4
 978 06e0 00       		.byte	0
 979 06e1 18       		.uleb128 0x18
 980 06e2 E6060000 		.4byte	0x6e6
 981 06e6 05       		.uleb128 0x5
 982 06e7 D1060000 		.4byte	0x6d1
 983 06eb 16       		.uleb128 0x16
 984 06ec 48010000 		.4byte	.LASF104
 985 06f0 07       		.byte	0x7
 986 06f1 8701     		.2byte	0x187
 987 06f3 68050000 		.4byte	0x568
 988 06f7 04       		.uleb128 0x4
 989 06f8 37010000 		.4byte	.LASF105
 990 06fc 08       		.byte	0x8
 991 06fd 85       		.byte	0x85
 992 06fe F4020000 		.4byte	0x2f4
 993 0702 04       		.uleb128 0x4
 994 0703 33020000 		.4byte	.LASF106
 995 0707 08       		.byte	0x8
 996 0708 8D       		.byte	0x8d
 997 0709 B8000000 		.4byte	0xb8
 998 070d 06       		.uleb128 0x6
 999 070e C4050000 		.4byte	.LASF107
 1000 0712 04       		.byte	0x4
 1001 0713 08       		.byte	0x8
 1002 0714 A9       		.byte	0xa9
 1003 0715 26070000 		.4byte	0x726
 1004 0719 19       		.uleb128 0x19
 1005 071a 72313300 		.ascii	"r13\000"
 1006 071e 08       		.byte	0x8
 1007 071f AA       		.byte	0xaa
 1008 0720 67080000 		.4byte	0x867
 1009 0724 00       		.byte	0
 1010 0725 00       		.byte	0
 1011 0726 06       		.uleb128 0x6
 1012 0727 3B000000 		.4byte	.LASF108
 1013 072b 64       		.byte	0x64
 1014 072c 09       		.byte	0x9
 1015 072d F4       		.byte	0xf4
 1016 072e 67080000 		.4byte	0x867
 1017 0732 19       		.uleb128 0x19
 1018 0733 73313600 		.ascii	"s16\000"
 1019 0737 09       		.byte	0x9
 1020 0738 F6       		.byte	0xf6
 1021 0739 F7060000 		.4byte	0x6f7
 1022 073d 00       		.byte	0
ARM GAS  /tmp/ccQolPVj.s 			page 19


 1023 073e 19       		.uleb128 0x19
 1024 073f 73313700 		.ascii	"s17\000"
 1025 0743 09       		.byte	0x9
 1026 0744 F7       		.byte	0xf7
 1027 0745 F7060000 		.4byte	0x6f7
 1028 0749 04       		.byte	0x4
 1029 074a 19       		.uleb128 0x19
 1030 074b 73313800 		.ascii	"s18\000"
 1031 074f 09       		.byte	0x9
 1032 0750 F8       		.byte	0xf8
 1033 0751 F7060000 		.4byte	0x6f7
 1034 0755 08       		.byte	0x8
 1035 0756 19       		.uleb128 0x19
 1036 0757 73313900 		.ascii	"s19\000"
 1037 075b 09       		.byte	0x9
 1038 075c F9       		.byte	0xf9
 1039 075d F7060000 		.4byte	0x6f7
 1040 0761 0C       		.byte	0xc
 1041 0762 19       		.uleb128 0x19
 1042 0763 73323000 		.ascii	"s20\000"
 1043 0767 09       		.byte	0x9
 1044 0768 FA       		.byte	0xfa
 1045 0769 F7060000 		.4byte	0x6f7
 1046 076d 10       		.byte	0x10
 1047 076e 19       		.uleb128 0x19
 1048 076f 73323100 		.ascii	"s21\000"
 1049 0773 09       		.byte	0x9
 1050 0774 FB       		.byte	0xfb
 1051 0775 F7060000 		.4byte	0x6f7
 1052 0779 14       		.byte	0x14
 1053 077a 19       		.uleb128 0x19
 1054 077b 73323200 		.ascii	"s22\000"
 1055 077f 09       		.byte	0x9
 1056 0780 FC       		.byte	0xfc
 1057 0781 F7060000 		.4byte	0x6f7
 1058 0785 18       		.byte	0x18
 1059 0786 19       		.uleb128 0x19
 1060 0787 73323300 		.ascii	"s23\000"
 1061 078b 09       		.byte	0x9
 1062 078c FD       		.byte	0xfd
 1063 078d F7060000 		.4byte	0x6f7
 1064 0791 1C       		.byte	0x1c
 1065 0792 19       		.uleb128 0x19
 1066 0793 73323400 		.ascii	"s24\000"
 1067 0797 09       		.byte	0x9
 1068 0798 FE       		.byte	0xfe
 1069 0799 F7060000 		.4byte	0x6f7
 1070 079d 20       		.byte	0x20
 1071 079e 19       		.uleb128 0x19
 1072 079f 73323500 		.ascii	"s25\000"
 1073 07a3 09       		.byte	0x9
 1074 07a4 FF       		.byte	0xff
 1075 07a5 F7060000 		.4byte	0x6f7
 1076 07a9 24       		.byte	0x24
 1077 07aa 08       		.uleb128 0x8
 1078 07ab 73323600 		.ascii	"s26\000"
 1079 07af 09       		.byte	0x9
ARM GAS  /tmp/ccQolPVj.s 			page 20


 1080 07b0 0001     		.2byte	0x100
 1081 07b2 F7060000 		.4byte	0x6f7
 1082 07b6 28       		.byte	0x28
 1083 07b7 08       		.uleb128 0x8
 1084 07b8 73323700 		.ascii	"s27\000"
 1085 07bc 09       		.byte	0x9
 1086 07bd 0101     		.2byte	0x101
 1087 07bf F7060000 		.4byte	0x6f7
 1088 07c3 2C       		.byte	0x2c
 1089 07c4 08       		.uleb128 0x8
 1090 07c5 73323800 		.ascii	"s28\000"
 1091 07c9 09       		.byte	0x9
 1092 07ca 0201     		.2byte	0x102
 1093 07cc F7060000 		.4byte	0x6f7
 1094 07d0 30       		.byte	0x30
 1095 07d1 08       		.uleb128 0x8
 1096 07d2 73323900 		.ascii	"s29\000"
 1097 07d6 09       		.byte	0x9
 1098 07d7 0301     		.2byte	0x103
 1099 07d9 F7060000 		.4byte	0x6f7
 1100 07dd 34       		.byte	0x34
 1101 07de 08       		.uleb128 0x8
 1102 07df 73333000 		.ascii	"s30\000"
 1103 07e3 09       		.byte	0x9
 1104 07e4 0401     		.2byte	0x104
 1105 07e6 F7060000 		.4byte	0x6f7
 1106 07ea 38       		.byte	0x38
 1107 07eb 08       		.uleb128 0x8
 1108 07ec 73333100 		.ascii	"s31\000"
 1109 07f0 09       		.byte	0x9
 1110 07f1 0501     		.2byte	0x105
 1111 07f3 F7060000 		.4byte	0x6f7
 1112 07f7 3C       		.byte	0x3c
 1113 07f8 08       		.uleb128 0x8
 1114 07f9 723400   		.ascii	"r4\000"
 1115 07fc 09       		.byte	0x9
 1116 07fd 0701     		.2byte	0x107
 1117 07ff F7060000 		.4byte	0x6f7
 1118 0803 40       		.byte	0x40
 1119 0804 08       		.uleb128 0x8
 1120 0805 723500   		.ascii	"r5\000"
 1121 0808 09       		.byte	0x9
 1122 0809 0801     		.2byte	0x108
 1123 080b F7060000 		.4byte	0x6f7
 1124 080f 44       		.byte	0x44
 1125 0810 08       		.uleb128 0x8
 1126 0811 723600   		.ascii	"r6\000"
 1127 0814 09       		.byte	0x9
 1128 0815 0901     		.2byte	0x109
 1129 0817 F7060000 		.4byte	0x6f7
 1130 081b 48       		.byte	0x48
 1131 081c 08       		.uleb128 0x8
 1132 081d 723700   		.ascii	"r7\000"
 1133 0820 09       		.byte	0x9
 1134 0821 0A01     		.2byte	0x10a
 1135 0823 F7060000 		.4byte	0x6f7
 1136 0827 4C       		.byte	0x4c
ARM GAS  /tmp/ccQolPVj.s 			page 21


 1137 0828 08       		.uleb128 0x8
 1138 0829 723800   		.ascii	"r8\000"
 1139 082c 09       		.byte	0x9
 1140 082d 0B01     		.2byte	0x10b
 1141 082f F7060000 		.4byte	0x6f7
 1142 0833 50       		.byte	0x50
 1143 0834 08       		.uleb128 0x8
 1144 0835 723900   		.ascii	"r9\000"
 1145 0838 09       		.byte	0x9
 1146 0839 0C01     		.2byte	0x10c
 1147 083b F7060000 		.4byte	0x6f7
 1148 083f 54       		.byte	0x54
 1149 0840 08       		.uleb128 0x8
 1150 0841 72313000 		.ascii	"r10\000"
 1151 0845 09       		.byte	0x9
 1152 0846 0D01     		.2byte	0x10d
 1153 0848 F7060000 		.4byte	0x6f7
 1154 084c 58       		.byte	0x58
 1155 084d 08       		.uleb128 0x8
 1156 084e 72313100 		.ascii	"r11\000"
 1157 0852 09       		.byte	0x9
 1158 0853 0E01     		.2byte	0x10e
 1159 0855 F7060000 		.4byte	0x6f7
 1160 0859 5C       		.byte	0x5c
 1161 085a 08       		.uleb128 0x8
 1162 085b 6C7200   		.ascii	"lr\000"
 1163 085e 09       		.byte	0x9
 1164 085f 0F01     		.2byte	0x10f
 1165 0861 F7060000 		.4byte	0x6f7
 1166 0865 60       		.byte	0x60
 1167 0866 00       		.byte	0
 1168 0867 0B       		.uleb128 0xb
 1169 0868 04       		.byte	0x4
 1170 0869 26070000 		.4byte	0x726
 1171 086d 1A       		.uleb128 0x1a
 1172 086e 04       		.byte	0x4
 1173 086f 0A       		.byte	0xa
 1174 0870 38       		.byte	0x38
 1175 0871 82080000 		.4byte	0x882
 1176 0875 07       		.uleb128 0x7
 1177 0876 BD050000 		.4byte	.LASF109
 1178 087a 0A       		.byte	0xa
 1179 087b 3C       		.byte	0x3c
 1180 087c CD000000 		.4byte	0xcd
 1181 0880 00       		.byte	0
 1182 0881 00       		.byte	0
 1183 0882 04       		.uleb128 0x4
 1184 0883 A4020000 		.4byte	.LASF110
 1185 0887 0A       		.byte	0xa
 1186 0888 3D       		.byte	0x3d
 1187 0889 6D080000 		.4byte	0x86d
 1188 088d 0B       		.uleb128 0xb
 1189 088e 04       		.byte	0x4
 1190 088f 25010000 		.4byte	0x125
 1191 0893 1B       		.uleb128 0x1b
 1192 0894 04       		.byte	0x4
 1193 0895 06       		.byte	0x6
ARM GAS  /tmp/ccQolPVj.s 			page 22


 1194 0896 F6       		.byte	0xf6
 1195 0897 CB080000 		.4byte	0x8cb
 1196 089b 1C       		.uleb128 0x1c
 1197 089c 21000000 		.4byte	.LASF111
 1198 08a0 06       		.byte	0x6
 1199 08a1 FD       		.byte	0xfd
 1200 08a2 04010000 		.4byte	0x104
 1201 08a6 1D       		.uleb128 0x1d
 1202 08a7 6D000000 		.4byte	.LASF112
 1203 08ab 06       		.byte	0x6
 1204 08ac 0401     		.2byte	0x104
 1205 08ae 04010000 		.4byte	0x104
 1206 08b2 1D       		.uleb128 0x1d
 1207 08b3 13060000 		.4byte	.LASF113
 1208 08b7 06       		.byte	0x6
 1209 08b8 0B01     		.2byte	0x10b
 1210 08ba F4020000 		.4byte	0x2f4
 1211 08be 1D       		.uleb128 0x1d
 1212 08bf A5030000 		.4byte	.LASF114
 1213 08c3 06       		.byte	0x6
 1214 08c4 1201     		.2byte	0x112
 1215 08c6 0F010000 		.4byte	0x10f
 1216 08ca 00       		.byte	0
 1217 08cb 0B       		.uleb128 0xb
 1218 08cc 04       		.byte	0x4
 1219 08cd D1080000 		.4byte	0x8d1
 1220 08d1 18       		.uleb128 0x18
 1221 08d2 D6080000 		.4byte	0x8d6
 1222 08d6 03       		.uleb128 0x3
 1223 08d7 01       		.byte	0x1
 1224 08d8 08       		.byte	0x8
 1225 08d9 75050000 		.4byte	.LASF115
 1226 08dd 06       		.uleb128 0x6
 1227 08de 11030000 		.4byte	.LASF116
 1228 08e2 10       		.byte	0x10
 1229 08e3 0B       		.byte	0xb
 1230 08e4 39       		.byte	0x39
 1231 08e5 0E090000 		.4byte	0x90e
 1232 08e9 07       		.uleb128 0x7
 1233 08ea F2000000 		.4byte	.LASF117
 1234 08ee 0B       		.byte	0xb
 1235 08ef 3A       		.byte	0x3a
 1236 08f0 41020000 		.4byte	0x241
 1237 08f4 00       		.byte	0
 1238 08f5 07       		.uleb128 0x7
 1239 08f6 32060000 		.4byte	.LASF118
 1240 08fa 0B       		.byte	0xb
 1241 08fb 3C       		.byte	0x3c
 1242 08fc 8D080000 		.4byte	0x88d
 1243 0900 08       		.byte	0x8
 1244 0901 07       		.uleb128 0x7
 1245 0902 83050000 		.4byte	.LASF119
 1246 0906 0B       		.byte	0xb
 1247 0907 3E       		.byte	0x3e
 1248 0908 3A090000 		.4byte	0x93a
 1249 090c 0C       		.byte	0xc
 1250 090d 00       		.byte	0
ARM GAS  /tmp/ccQolPVj.s 			page 23


 1251 090e 0B       		.uleb128 0xb
 1252 090f 04       		.byte	0x4
 1253 0910 DD080000 		.4byte	0x8dd
 1254 0914 0B       		.uleb128 0xb
 1255 0915 04       		.byte	0x4
 1256 0916 F6020000 		.4byte	0x2f6
 1257 091a 05       		.uleb128 0x5
 1258 091b CB080000 		.4byte	0x8cb
 1259 091f 13       		.uleb128 0x13
 1260 0920 02070000 		.4byte	0x702
 1261 0924 2F090000 		.4byte	0x92f
 1262 0928 14       		.uleb128 0x14
 1263 0929 F6040000 		.4byte	0x4f6
 1264 092d 2B       		.byte	0x2b
 1265 092e 00       		.byte	0
 1266 092f 04       		.uleb128 0x4
 1267 0930 51010000 		.4byte	.LASF120
 1268 0934 0B       		.byte	0xb
 1269 0935 34       		.byte	0x34
 1270 0936 DD080000 		.4byte	0x8dd
 1271 093a 0B       		.uleb128 0xb
 1272 093b 04       		.byte	0x4
 1273 093c 2F090000 		.4byte	0x92f
 1274 0940 03       		.uleb128 0x3
 1275 0941 01       		.byte	0x1
 1276 0942 02       		.byte	0x2
 1277 0943 27030000 		.4byte	.LASF121
 1278 0947 1E       		.uleb128 0x1e
 1279 0948 BA000000 		.4byte	.LASF123
 1280 094c 01       		.byte	0x1
 1281 094d 39       		.byte	0x39
 1282 094e 00000000 		.4byte	.LFB255
 1283 0952 32000000 		.4byte	.LFE255-.LFB255
 1284 0956 01       		.uleb128 0x1
 1285 0957 9C       		.byte	0x9c
 1286 0958 79090000 		.4byte	0x979
 1287 095c 1F       		.uleb128 0x1f
 1288 095d 6E00     		.ascii	"n\000"
 1289 095f 01       		.byte	0x1
 1290 0960 39       		.byte	0x39
 1291 0961 AD000000 		.4byte	0xad
 1292 0965 00000000 		.4byte	.LLST0
 1293 0969 20       		.uleb128 0x20
 1294 096a BA020000 		.4byte	.LASF122
 1295 096e 01       		.byte	0x1
 1296 096f 39       		.byte	0x39
 1297 0970 AD000000 		.4byte	0xad
 1298 0974 32000000 		.4byte	.LLST1
 1299 0978 00       		.byte	0
 1300 0979 1E       		.uleb128 0x1e
 1301 097a 7D010000 		.4byte	.LASF124
 1302 097e 01       		.byte	0x1
 1303 097f 45       		.byte	0x45
 1304 0980 00000000 		.4byte	.LFB256
 1305 0984 28000000 		.4byte	.LFE256-.LFB256
 1306 0988 01       		.uleb128 0x1
 1307 0989 9C       		.byte	0x9c
ARM GAS  /tmp/ccQolPVj.s 			page 24


 1308 098a 9C090000 		.4byte	0x99c
 1309 098e 1F       		.uleb128 0x1f
 1310 098f 6E00     		.ascii	"n\000"
 1311 0991 01       		.byte	0x1
 1312 0992 45       		.byte	0x45
 1313 0993 AD000000 		.4byte	0xad
 1314 0997 53000000 		.4byte	.LLST2
 1315 099b 00       		.byte	0
 1316 099c 1E       		.uleb128 0x1e
 1317 099d 81030000 		.4byte	.LASF125
 1318 09a1 01       		.byte	0x1
 1319 09a2 51       		.byte	0x51
 1320 09a3 00000000 		.4byte	.LFB257
 1321 09a7 10000000 		.4byte	.LFE257-.LFB257
 1322 09ab 01       		.uleb128 0x1
 1323 09ac 9C       		.byte	0x9c
 1324 09ad D9090000 		.4byte	0x9d9
 1325 09b1 20       		.uleb128 0x20
 1326 09b2 3E020000 		.4byte	.LASF126
 1327 09b6 01       		.byte	0x1
 1328 09b7 51       		.byte	0x51
 1329 09b8 AD000000 		.4byte	0xad
 1330 09bc 77000000 		.4byte	.LLST3
 1331 09c0 20       		.uleb128 0x20
 1332 09c1 BA020000 		.4byte	.LASF122
 1333 09c5 01       		.byte	0x1
 1334 09c6 51       		.byte	0x51
 1335 09c7 AD000000 		.4byte	0xad
 1336 09cb AC000000 		.4byte	.LLST4
 1337 09cf 21       		.uleb128 0x21
 1338 09d0 D4040000 		.4byte	.LASF131
 1339 09d4 E9090000 		.4byte	0x9e9
 1340 09d8 00       		.byte	0
 1341 09d9 13       		.uleb128 0x13
 1342 09da D6080000 		.4byte	0x8d6
 1343 09de E9090000 		.4byte	0x9e9
 1344 09e2 14       		.uleb128 0x14
 1345 09e3 F6040000 		.4byte	0x4f6
 1346 09e7 1C       		.byte	0x1c
 1347 09e8 00       		.byte	0
 1348 09e9 18       		.uleb128 0x18
 1349 09ea D9090000 		.4byte	0x9d9
 1350 09ee 22       		.uleb128 0x22
 1351 09ef 49030000 		.4byte	.LASF127
 1352 09f3 07       		.byte	0x7
 1353 09f4 A706     		.2byte	0x6a7
 1354 09f6 C3000000 		.4byte	0xc3
 1355 09fa 23       		.uleb128 0x23
 1356 09fb 636800   		.ascii	"ch\000"
 1357 09fe 06       		.byte	0x6
 1358 09ff EB01     		.2byte	0x1eb
 1359 0a01 C3030000 		.4byte	0x3c3
 1360 0a05 00       		.byte	0
 1361              		.section	.debug_abbrev,"",%progbits
 1362              	.Ldebug_abbrev0:
 1363 0000 01       		.uleb128 0x1
 1364 0001 11       		.uleb128 0x11
ARM GAS  /tmp/ccQolPVj.s 			page 25


 1365 0002 01       		.byte	0x1
 1366 0003 25       		.uleb128 0x25
 1367 0004 0E       		.uleb128 0xe
 1368 0005 13       		.uleb128 0x13
 1369 0006 0B       		.uleb128 0xb
 1370 0007 03       		.uleb128 0x3
 1371 0008 0E       		.uleb128 0xe
 1372 0009 1B       		.uleb128 0x1b
 1373 000a 0E       		.uleb128 0xe
 1374 000b 55       		.uleb128 0x55
 1375 000c 17       		.uleb128 0x17
 1376 000d 11       		.uleb128 0x11
 1377 000e 01       		.uleb128 0x1
 1378 000f 10       		.uleb128 0x10
 1379 0010 17       		.uleb128 0x17
 1380 0011 00       		.byte	0
 1381 0012 00       		.byte	0
 1382 0013 02       		.uleb128 0x2
 1383 0014 24       		.uleb128 0x24
 1384 0015 00       		.byte	0
 1385 0016 0B       		.uleb128 0xb
 1386 0017 0B       		.uleb128 0xb
 1387 0018 3E       		.uleb128 0x3e
 1388 0019 0B       		.uleb128 0xb
 1389 001a 03       		.uleb128 0x3
 1390 001b 08       		.uleb128 0x8
 1391 001c 00       		.byte	0
 1392 001d 00       		.byte	0
 1393 001e 03       		.uleb128 0x3
 1394 001f 24       		.uleb128 0x24
 1395 0020 00       		.byte	0
 1396 0021 0B       		.uleb128 0xb
 1397 0022 0B       		.uleb128 0xb
 1398 0023 3E       		.uleb128 0x3e
 1399 0024 0B       		.uleb128 0xb
 1400 0025 03       		.uleb128 0x3
 1401 0026 0E       		.uleb128 0xe
 1402 0027 00       		.byte	0
 1403 0028 00       		.byte	0
 1404 0029 04       		.uleb128 0x4
 1405 002a 16       		.uleb128 0x16
 1406 002b 00       		.byte	0
 1407 002c 03       		.uleb128 0x3
 1408 002d 0E       		.uleb128 0xe
 1409 002e 3A       		.uleb128 0x3a
 1410 002f 0B       		.uleb128 0xb
 1411 0030 3B       		.uleb128 0x3b
 1412 0031 0B       		.uleb128 0xb
 1413 0032 49       		.uleb128 0x49
 1414 0033 13       		.uleb128 0x13
 1415 0034 00       		.byte	0
 1416 0035 00       		.byte	0
 1417 0036 05       		.uleb128 0x5
 1418 0037 35       		.uleb128 0x35
 1419 0038 00       		.byte	0
 1420 0039 49       		.uleb128 0x49
 1421 003a 13       		.uleb128 0x13
ARM GAS  /tmp/ccQolPVj.s 			page 26


 1422 003b 00       		.byte	0
 1423 003c 00       		.byte	0
 1424 003d 06       		.uleb128 0x6
 1425 003e 13       		.uleb128 0x13
 1426 003f 01       		.byte	0x1
 1427 0040 03       		.uleb128 0x3
 1428 0041 0E       		.uleb128 0xe
 1429 0042 0B       		.uleb128 0xb
 1430 0043 0B       		.uleb128 0xb
 1431 0044 3A       		.uleb128 0x3a
 1432 0045 0B       		.uleb128 0xb
 1433 0046 3B       		.uleb128 0x3b
 1434 0047 0B       		.uleb128 0xb
 1435 0048 01       		.uleb128 0x1
 1436 0049 13       		.uleb128 0x13
 1437 004a 00       		.byte	0
 1438 004b 00       		.byte	0
 1439 004c 07       		.uleb128 0x7
 1440 004d 0D       		.uleb128 0xd
 1441 004e 00       		.byte	0
 1442 004f 03       		.uleb128 0x3
 1443 0050 0E       		.uleb128 0xe
 1444 0051 3A       		.uleb128 0x3a
 1445 0052 0B       		.uleb128 0xb
 1446 0053 3B       		.uleb128 0x3b
 1447 0054 0B       		.uleb128 0xb
 1448 0055 49       		.uleb128 0x49
 1449 0056 13       		.uleb128 0x13
 1450 0057 38       		.uleb128 0x38
 1451 0058 0B       		.uleb128 0xb
 1452 0059 00       		.byte	0
 1453 005a 00       		.byte	0
 1454 005b 08       		.uleb128 0x8
 1455 005c 0D       		.uleb128 0xd
 1456 005d 00       		.byte	0
 1457 005e 03       		.uleb128 0x3
 1458 005f 08       		.uleb128 0x8
 1459 0060 3A       		.uleb128 0x3a
 1460 0061 0B       		.uleb128 0xb
 1461 0062 3B       		.uleb128 0x3b
 1462 0063 05       		.uleb128 0x5
 1463 0064 49       		.uleb128 0x49
 1464 0065 13       		.uleb128 0x13
 1465 0066 38       		.uleb128 0x38
 1466 0067 0B       		.uleb128 0xb
 1467 0068 00       		.byte	0
 1468 0069 00       		.byte	0
 1469 006a 09       		.uleb128 0x9
 1470 006b 0D       		.uleb128 0xd
 1471 006c 00       		.byte	0
 1472 006d 03       		.uleb128 0x3
 1473 006e 0E       		.uleb128 0xe
 1474 006f 3A       		.uleb128 0x3a
 1475 0070 0B       		.uleb128 0xb
 1476 0071 3B       		.uleb128 0x3b
 1477 0072 05       		.uleb128 0x5
 1478 0073 49       		.uleb128 0x49
ARM GAS  /tmp/ccQolPVj.s 			page 27


 1479 0074 13       		.uleb128 0x13
 1480 0075 38       		.uleb128 0x38
 1481 0076 0B       		.uleb128 0xb
 1482 0077 00       		.byte	0
 1483 0078 00       		.byte	0
 1484 0079 0A       		.uleb128 0xa
 1485 007a 13       		.uleb128 0x13
 1486 007b 01       		.byte	0x1
 1487 007c 03       		.uleb128 0x3
 1488 007d 0E       		.uleb128 0xe
 1489 007e 0B       		.uleb128 0xb
 1490 007f 0B       		.uleb128 0xb
 1491 0080 3A       		.uleb128 0x3a
 1492 0081 0B       		.uleb128 0xb
 1493 0082 3B       		.uleb128 0x3b
 1494 0083 05       		.uleb128 0x5
 1495 0084 01       		.uleb128 0x1
 1496 0085 13       		.uleb128 0x13
 1497 0086 00       		.byte	0
 1498 0087 00       		.byte	0
 1499 0088 0B       		.uleb128 0xb
 1500 0089 0F       		.uleb128 0xf
 1501 008a 00       		.byte	0
 1502 008b 0B       		.uleb128 0xb
 1503 008c 0B       		.uleb128 0xb
 1504 008d 49       		.uleb128 0x49
 1505 008e 13       		.uleb128 0x13
 1506 008f 00       		.byte	0
 1507 0090 00       		.byte	0
 1508 0091 0C       		.uleb128 0xc
 1509 0092 15       		.uleb128 0x15
 1510 0093 01       		.byte	0x1
 1511 0094 27       		.uleb128 0x27
 1512 0095 19       		.uleb128 0x19
 1513 0096 01       		.uleb128 0x1
 1514 0097 13       		.uleb128 0x13
 1515 0098 00       		.byte	0
 1516 0099 00       		.byte	0
 1517 009a 0D       		.uleb128 0xd
 1518 009b 05       		.uleb128 0x5
 1519 009c 00       		.byte	0
 1520 009d 49       		.uleb128 0x49
 1521 009e 13       		.uleb128 0x13
 1522 009f 00       		.byte	0
 1523 00a0 00       		.byte	0
 1524 00a1 0E       		.uleb128 0xe
 1525 00a2 0F       		.uleb128 0xf
 1526 00a3 00       		.byte	0
 1527 00a4 0B       		.uleb128 0xb
 1528 00a5 0B       		.uleb128 0xb
 1529 00a6 00       		.byte	0
 1530 00a7 00       		.byte	0
 1531 00a8 0F       		.uleb128 0xf
 1532 00a9 13       		.uleb128 0x13
 1533 00aa 01       		.byte	0x1
 1534 00ab 03       		.uleb128 0x3
 1535 00ac 0E       		.uleb128 0xe
ARM GAS  /tmp/ccQolPVj.s 			page 28


 1536 00ad 0B       		.uleb128 0xb
 1537 00ae 05       		.uleb128 0x5
 1538 00af 3A       		.uleb128 0x3a
 1539 00b0 0B       		.uleb128 0xb
 1540 00b1 3B       		.uleb128 0x3b
 1541 00b2 05       		.uleb128 0x5
 1542 00b3 01       		.uleb128 0x1
 1543 00b4 13       		.uleb128 0x13
 1544 00b5 00       		.byte	0
 1545 00b6 00       		.byte	0
 1546 00b7 10       		.uleb128 0x10
 1547 00b8 13       		.uleb128 0x13
 1548 00b9 01       		.byte	0x1
 1549 00ba 0B       		.uleb128 0xb
 1550 00bb 05       		.uleb128 0x5
 1551 00bc 3A       		.uleb128 0x3a
 1552 00bd 0B       		.uleb128 0xb
 1553 00be 3B       		.uleb128 0x3b
 1554 00bf 05       		.uleb128 0x5
 1555 00c0 01       		.uleb128 0x1
 1556 00c1 13       		.uleb128 0x13
 1557 00c2 00       		.byte	0
 1558 00c3 00       		.byte	0
 1559 00c4 11       		.uleb128 0x11
 1560 00c5 0D       		.uleb128 0xd
 1561 00c6 00       		.byte	0
 1562 00c7 03       		.uleb128 0x3
 1563 00c8 0E       		.uleb128 0xe
 1564 00c9 3A       		.uleb128 0x3a
 1565 00ca 0B       		.uleb128 0xb
 1566 00cb 3B       		.uleb128 0x3b
 1567 00cc 05       		.uleb128 0x5
 1568 00cd 49       		.uleb128 0x49
 1569 00ce 13       		.uleb128 0x13
 1570 00cf 38       		.uleb128 0x38
 1571 00d0 05       		.uleb128 0x5
 1572 00d1 00       		.byte	0
 1573 00d2 00       		.byte	0
 1574 00d3 12       		.uleb128 0x12
 1575 00d4 0D       		.uleb128 0xd
 1576 00d5 00       		.byte	0
 1577 00d6 03       		.uleb128 0x3
 1578 00d7 08       		.uleb128 0x8
 1579 00d8 3A       		.uleb128 0x3a
 1580 00d9 0B       		.uleb128 0xb
 1581 00da 3B       		.uleb128 0x3b
 1582 00db 05       		.uleb128 0x5
 1583 00dc 49       		.uleb128 0x49
 1584 00dd 13       		.uleb128 0x13
 1585 00de 38       		.uleb128 0x38
 1586 00df 05       		.uleb128 0x5
 1587 00e0 00       		.byte	0
 1588 00e1 00       		.byte	0
 1589 00e2 13       		.uleb128 0x13
 1590 00e3 01       		.uleb128 0x1
 1591 00e4 01       		.byte	0x1
 1592 00e5 49       		.uleb128 0x49
ARM GAS  /tmp/ccQolPVj.s 			page 29


 1593 00e6 13       		.uleb128 0x13
 1594 00e7 01       		.uleb128 0x1
 1595 00e8 13       		.uleb128 0x13
 1596 00e9 00       		.byte	0
 1597 00ea 00       		.byte	0
 1598 00eb 14       		.uleb128 0x14
 1599 00ec 21       		.uleb128 0x21
 1600 00ed 00       		.byte	0
 1601 00ee 49       		.uleb128 0x49
 1602 00ef 13       		.uleb128 0x13
 1603 00f0 2F       		.uleb128 0x2f
 1604 00f1 0B       		.uleb128 0xb
 1605 00f2 00       		.byte	0
 1606 00f3 00       		.byte	0
 1607 00f4 15       		.uleb128 0x15
 1608 00f5 21       		.uleb128 0x21
 1609 00f6 00       		.byte	0
 1610 00f7 49       		.uleb128 0x49
 1611 00f8 13       		.uleb128 0x13
 1612 00f9 2F       		.uleb128 0x2f
 1613 00fa 05       		.uleb128 0x5
 1614 00fb 00       		.byte	0
 1615 00fc 00       		.byte	0
 1616 00fd 16       		.uleb128 0x16
 1617 00fe 16       		.uleb128 0x16
 1618 00ff 00       		.byte	0
 1619 0100 03       		.uleb128 0x3
 1620 0101 0E       		.uleb128 0xe
 1621 0102 3A       		.uleb128 0x3a
 1622 0103 0B       		.uleb128 0xb
 1623 0104 3B       		.uleb128 0x3b
 1624 0105 05       		.uleb128 0x5
 1625 0106 49       		.uleb128 0x49
 1626 0107 13       		.uleb128 0x13
 1627 0108 00       		.byte	0
 1628 0109 00       		.byte	0
 1629 010a 17       		.uleb128 0x17
 1630 010b 13       		.uleb128 0x13
 1631 010c 01       		.byte	0x1
 1632 010d 0B       		.uleb128 0xb
 1633 010e 0B       		.uleb128 0xb
 1634 010f 3A       		.uleb128 0x3a
 1635 0110 0B       		.uleb128 0xb
 1636 0111 3B       		.uleb128 0x3b
 1637 0112 05       		.uleb128 0x5
 1638 0113 01       		.uleb128 0x1
 1639 0114 13       		.uleb128 0x13
 1640 0115 00       		.byte	0
 1641 0116 00       		.byte	0
 1642 0117 18       		.uleb128 0x18
 1643 0118 26       		.uleb128 0x26
 1644 0119 00       		.byte	0
 1645 011a 49       		.uleb128 0x49
 1646 011b 13       		.uleb128 0x13
 1647 011c 00       		.byte	0
 1648 011d 00       		.byte	0
 1649 011e 19       		.uleb128 0x19
ARM GAS  /tmp/ccQolPVj.s 			page 30


 1650 011f 0D       		.uleb128 0xd
 1651 0120 00       		.byte	0
 1652 0121 03       		.uleb128 0x3
 1653 0122 08       		.uleb128 0x8
 1654 0123 3A       		.uleb128 0x3a
 1655 0124 0B       		.uleb128 0xb
 1656 0125 3B       		.uleb128 0x3b
 1657 0126 0B       		.uleb128 0xb
 1658 0127 49       		.uleb128 0x49
 1659 0128 13       		.uleb128 0x13
 1660 0129 38       		.uleb128 0x38
 1661 012a 0B       		.uleb128 0xb
 1662 012b 00       		.byte	0
 1663 012c 00       		.byte	0
 1664 012d 1A       		.uleb128 0x1a
 1665 012e 13       		.uleb128 0x13
 1666 012f 01       		.byte	0x1
 1667 0130 0B       		.uleb128 0xb
 1668 0131 0B       		.uleb128 0xb
 1669 0132 3A       		.uleb128 0x3a
 1670 0133 0B       		.uleb128 0xb
 1671 0134 3B       		.uleb128 0x3b
 1672 0135 0B       		.uleb128 0xb
 1673 0136 01       		.uleb128 0x1
 1674 0137 13       		.uleb128 0x13
 1675 0138 00       		.byte	0
 1676 0139 00       		.byte	0
 1677 013a 1B       		.uleb128 0x1b
 1678 013b 17       		.uleb128 0x17
 1679 013c 01       		.byte	0x1
 1680 013d 0B       		.uleb128 0xb
 1681 013e 0B       		.uleb128 0xb
 1682 013f 3A       		.uleb128 0x3a
 1683 0140 0B       		.uleb128 0xb
 1684 0141 3B       		.uleb128 0x3b
 1685 0142 0B       		.uleb128 0xb
 1686 0143 01       		.uleb128 0x1
 1687 0144 13       		.uleb128 0x13
 1688 0145 00       		.byte	0
 1689 0146 00       		.byte	0
 1690 0147 1C       		.uleb128 0x1c
 1691 0148 0D       		.uleb128 0xd
 1692 0149 00       		.byte	0
 1693 014a 03       		.uleb128 0x3
 1694 014b 0E       		.uleb128 0xe
 1695 014c 3A       		.uleb128 0x3a
 1696 014d 0B       		.uleb128 0xb
 1697 014e 3B       		.uleb128 0x3b
 1698 014f 0B       		.uleb128 0xb
 1699 0150 49       		.uleb128 0x49
 1700 0151 13       		.uleb128 0x13
 1701 0152 00       		.byte	0
 1702 0153 00       		.byte	0
 1703 0154 1D       		.uleb128 0x1d
 1704 0155 0D       		.uleb128 0xd
 1705 0156 00       		.byte	0
 1706 0157 03       		.uleb128 0x3
ARM GAS  /tmp/ccQolPVj.s 			page 31


 1707 0158 0E       		.uleb128 0xe
 1708 0159 3A       		.uleb128 0x3a
 1709 015a 0B       		.uleb128 0xb
 1710 015b 3B       		.uleb128 0x3b
 1711 015c 05       		.uleb128 0x5
 1712 015d 49       		.uleb128 0x49
 1713 015e 13       		.uleb128 0x13
 1714 015f 00       		.byte	0
 1715 0160 00       		.byte	0
 1716 0161 1E       		.uleb128 0x1e
 1717 0162 2E       		.uleb128 0x2e
 1718 0163 01       		.byte	0x1
 1719 0164 3F       		.uleb128 0x3f
 1720 0165 19       		.uleb128 0x19
 1721 0166 03       		.uleb128 0x3
 1722 0167 0E       		.uleb128 0xe
 1723 0168 3A       		.uleb128 0x3a
 1724 0169 0B       		.uleb128 0xb
 1725 016a 3B       		.uleb128 0x3b
 1726 016b 0B       		.uleb128 0xb
 1727 016c 27       		.uleb128 0x27
 1728 016d 19       		.uleb128 0x19
 1729 016e 11       		.uleb128 0x11
 1730 016f 01       		.uleb128 0x1
 1731 0170 12       		.uleb128 0x12
 1732 0171 06       		.uleb128 0x6
 1733 0172 40       		.uleb128 0x40
 1734 0173 18       		.uleb128 0x18
 1735 0174 9742     		.uleb128 0x2117
 1736 0176 19       		.uleb128 0x19
 1737 0177 01       		.uleb128 0x1
 1738 0178 13       		.uleb128 0x13
 1739 0179 00       		.byte	0
 1740 017a 00       		.byte	0
 1741 017b 1F       		.uleb128 0x1f
 1742 017c 05       		.uleb128 0x5
 1743 017d 00       		.byte	0
 1744 017e 03       		.uleb128 0x3
 1745 017f 08       		.uleb128 0x8
 1746 0180 3A       		.uleb128 0x3a
 1747 0181 0B       		.uleb128 0xb
 1748 0182 3B       		.uleb128 0x3b
 1749 0183 0B       		.uleb128 0xb
 1750 0184 49       		.uleb128 0x49
 1751 0185 13       		.uleb128 0x13
 1752 0186 02       		.uleb128 0x2
 1753 0187 17       		.uleb128 0x17
 1754 0188 00       		.byte	0
 1755 0189 00       		.byte	0
 1756 018a 20       		.uleb128 0x20
 1757 018b 05       		.uleb128 0x5
 1758 018c 00       		.byte	0
 1759 018d 03       		.uleb128 0x3
 1760 018e 0E       		.uleb128 0xe
 1761 018f 3A       		.uleb128 0x3a
 1762 0190 0B       		.uleb128 0xb
 1763 0191 3B       		.uleb128 0x3b
ARM GAS  /tmp/ccQolPVj.s 			page 32


 1764 0192 0B       		.uleb128 0xb
 1765 0193 49       		.uleb128 0x49
 1766 0194 13       		.uleb128 0x13
 1767 0195 02       		.uleb128 0x2
 1768 0196 17       		.uleb128 0x17
 1769 0197 00       		.byte	0
 1770 0198 00       		.byte	0
 1771 0199 21       		.uleb128 0x21
 1772 019a 34       		.uleb128 0x34
 1773 019b 00       		.byte	0
 1774 019c 03       		.uleb128 0x3
 1775 019d 0E       		.uleb128 0xe
 1776 019e 49       		.uleb128 0x49
 1777 019f 13       		.uleb128 0x13
 1778 01a0 34       		.uleb128 0x34
 1779 01a1 19       		.uleb128 0x19
 1780 01a2 00       		.byte	0
 1781 01a3 00       		.byte	0
 1782 01a4 22       		.uleb128 0x22
 1783 01a5 34       		.uleb128 0x34
 1784 01a6 00       		.byte	0
 1785 01a7 03       		.uleb128 0x3
 1786 01a8 0E       		.uleb128 0xe
 1787 01a9 3A       		.uleb128 0x3a
 1788 01aa 0B       		.uleb128 0xb
 1789 01ab 3B       		.uleb128 0x3b
 1790 01ac 05       		.uleb128 0x5
 1791 01ad 49       		.uleb128 0x49
 1792 01ae 13       		.uleb128 0x13
 1793 01af 3F       		.uleb128 0x3f
 1794 01b0 19       		.uleb128 0x19
 1795 01b1 3C       		.uleb128 0x3c
 1796 01b2 19       		.uleb128 0x19
 1797 01b3 00       		.byte	0
 1798 01b4 00       		.byte	0
 1799 01b5 23       		.uleb128 0x23
 1800 01b6 34       		.uleb128 0x34
 1801 01b7 00       		.byte	0
 1802 01b8 03       		.uleb128 0x3
 1803 01b9 08       		.uleb128 0x8
 1804 01ba 3A       		.uleb128 0x3a
 1805 01bb 0B       		.uleb128 0xb
 1806 01bc 3B       		.uleb128 0x3b
 1807 01bd 05       		.uleb128 0x5
 1808 01be 49       		.uleb128 0x49
 1809 01bf 13       		.uleb128 0x13
 1810 01c0 3F       		.uleb128 0x3f
 1811 01c1 19       		.uleb128 0x19
 1812 01c2 3C       		.uleb128 0x3c
 1813 01c3 19       		.uleb128 0x19
 1814 01c4 00       		.byte	0
 1815 01c5 00       		.byte	0
 1816 01c6 00       		.byte	0
 1817              		.section	.debug_loc,"",%progbits
 1818              	.Ldebug_loc0:
 1819              	.LLST0:
 1820 0000 00000000 		.4byte	.LVL0
ARM GAS  /tmp/ccQolPVj.s 			page 33


 1821 0004 1C000000 		.4byte	.LVL2
 1822 0008 0100     		.2byte	0x1
 1823 000a 50       		.byte	0x50
 1824 000b 1C000000 		.4byte	.LVL2
 1825 000f 30000000 		.4byte	.LVL3
 1826 0013 0700     		.2byte	0x7
 1827 0015 74       		.byte	0x74
 1828 0016 80BEFCFF 		.sleb128 536813312
 1828      01
 1829 001b 9F       		.byte	0x9f
 1830 001c 30000000 		.4byte	.LVL3
 1831 0020 32000000 		.4byte	.LFE255
 1832 0024 0400     		.2byte	0x4
 1833 0026 F3       		.byte	0xf3
 1834 0027 01       		.uleb128 0x1
 1835 0028 50       		.byte	0x50
 1836 0029 9F       		.byte	0x9f
 1837 002a 00000000 		.4byte	0
 1838 002e 00000000 		.4byte	0
 1839              	.LLST1:
 1840 0032 00000000 		.4byte	.LVL0
 1841 0036 18000000 		.4byte	.LVL1
 1842 003a 0100     		.2byte	0x1
 1843 003c 51       		.byte	0x51
 1844 003d 18000000 		.4byte	.LVL1
 1845 0041 32000000 		.4byte	.LFE255
 1846 0045 0400     		.2byte	0x4
 1847 0047 F3       		.byte	0xf3
 1848 0048 01       		.uleb128 0x1
 1849 0049 51       		.byte	0x51
 1850 004a 9F       		.byte	0x9f
 1851 004b 00000000 		.4byte	0
 1852 004f 00000000 		.4byte	0
 1853              	.LLST2:
 1854 0053 00000000 		.4byte	.LVL4
 1855 0057 10000000 		.4byte	.LVL5
 1856 005b 0100     		.2byte	0x1
 1857 005d 50       		.byte	0x50
 1858 005e 10000000 		.4byte	.LVL5
 1859 0062 28000000 		.4byte	.LFE256
 1860 0066 0700     		.2byte	0x7
 1861 0068 70       		.byte	0x70
 1862 0069 80BEFCFF 		.sleb128 536813312
 1862      01
 1863 006e 9F       		.byte	0x9f
 1864 006f 00000000 		.4byte	0
 1865 0073 00000000 		.4byte	0
 1866              	.LLST3:
 1867 0077 00000000 		.4byte	.LVL6
 1868 007b 04000000 		.4byte	.LVL7
 1869 007f 0100     		.2byte	0x1
 1870 0081 50       		.byte	0x50
 1871 0082 04000000 		.4byte	.LVL7
 1872 0086 08000000 		.4byte	.LVL8
 1873 008a 0700     		.2byte	0x7
 1874 008c 70       		.byte	0x70
 1875 008d 80808080 		.sleb128 536870912
ARM GAS  /tmp/ccQolPVj.s 			page 34


 1875      02
 1876 0092 9F       		.byte	0x9f
 1877 0093 08000000 		.4byte	.LVL8
 1878 0097 10000000 		.4byte	.LFE257
 1879 009b 0700     		.2byte	0x7
 1880 009d 70       		.byte	0x70
 1881 009e 80A6FCFF 		.sleb128 536810240
 1881      01
 1882 00a3 9F       		.byte	0x9f
 1883 00a4 00000000 		.4byte	0
 1884 00a8 00000000 		.4byte	0
 1885              	.LLST4:
 1886 00ac 00000000 		.4byte	.LVL6
 1887 00b0 0A000000 		.4byte	.LVL9
 1888 00b4 0100     		.2byte	0x1
 1889 00b6 51       		.byte	0x51
 1890 00b7 0A000000 		.4byte	.LVL9
 1891 00bb 10000000 		.4byte	.LFE257
 1892 00bf 0400     		.2byte	0x4
 1893 00c1 F3       		.byte	0xf3
 1894 00c2 01       		.uleb128 0x1
 1895 00c3 51       		.byte	0x51
 1896 00c4 9F       		.byte	0x9f
 1897 00c5 00000000 		.4byte	0
 1898 00c9 00000000 		.4byte	0
 1899              		.section	.debug_aranges,"",%progbits
 1900 0000 2C000000 		.4byte	0x2c
 1901 0004 0200     		.2byte	0x2
 1902 0006 00000000 		.4byte	.Ldebug_info0
 1903 000a 04       		.byte	0x4
 1904 000b 00       		.byte	0
 1905 000c 0000     		.2byte	0
 1906 000e 0000     		.2byte	0
 1907 0010 00000000 		.4byte	.LFB255
 1908 0014 32000000 		.4byte	.LFE255-.LFB255
 1909 0018 00000000 		.4byte	.LFB256
 1910 001c 28000000 		.4byte	.LFE256-.LFB256
 1911 0020 00000000 		.4byte	.LFB257
 1912 0024 10000000 		.4byte	.LFE257-.LFB257
 1913 0028 00000000 		.4byte	0
 1914 002c 00000000 		.4byte	0
 1915              		.section	.debug_ranges,"",%progbits
 1916              	.Ldebug_ranges0:
 1917 0000 00000000 		.4byte	.LFB255
 1918 0004 32000000 		.4byte	.LFE255
 1919 0008 00000000 		.4byte	.LFB256
 1920 000c 28000000 		.4byte	.LFE256
 1921 0010 00000000 		.4byte	.LFB257
 1922 0014 10000000 		.4byte	.LFE257
 1923 0018 00000000 		.4byte	0
 1924 001c 00000000 		.4byte	0
 1925              		.section	.debug_line,"",%progbits
 1926              	.Ldebug_line0:
 1927 0000 13020000 		.section	.debug_str,"MS",%progbits,1
 1927      0200CC01 
 1927      00000201 
 1927      FB0E0D00 
ARM GAS  /tmp/ccQolPVj.s 			page 35


 1927      01010101 
 1928              	.LASF43:
 1929 0000 74687265 		.ascii	"threads_list_t\000"
 1929      6164735F 
 1929      6C697374 
 1929      5F7400
 1930              	.LASF82:
 1931 000f 49435052 		.ascii	"ICPR\000"
 1931      00
 1932              	.LASF48:
 1933 0014 72656164 		.ascii	"ready_list_t\000"
 1933      795F6C69 
 1933      73745F74 
 1933      00
 1934              	.LASF111:
 1935 0021 7264796D 		.ascii	"rdymsg\000"
 1935      736700
 1936              	.LASF16:
 1937 0028 75696E74 		.ascii	"uint64_t\000"
 1937      36345F74 
 1937      00
 1938              	.LASF5:
 1939 0031 5F5F7569 		.ascii	"__uint8_t\000"
 1939      6E74385F 
 1939      7400
 1940              	.LASF108:
 1941 003b 706F7274 		.ascii	"port_intctx\000"
 1941      5F696E74 
 1941      63747800 
 1942              	.LASF67:
 1943 0047 73797374 		.ascii	"system_debug_t\000"
 1943      656D5F64 
 1943      65627567 
 1943      5F7400
 1944              	.LASF12:
 1945 0056 6C6F6E67 		.ascii	"long long unsigned int\000"
 1945      206C6F6E 
 1945      6720756E 
 1945      7369676E 
 1945      65642069 
 1946              	.LASF112:
 1947 006d 65786974 		.ascii	"exitcode\000"
 1947      636F6465 
 1947      00
 1948              	.LASF74:
 1949 0076 6D61696E 		.ascii	"mainthread\000"
 1949      74687265 
 1949      616400
 1950              	.LASF64:
 1951 0081 76697274 		.ascii	"virtual_timers_list_t\000"
 1951      75616C5F 
 1951      74696D65 
 1951      72735F6C 
 1951      6973745F 
 1952              	.LASF90:
 1953 0097 43505549 		.ascii	"CPUID\000"
 1953      4400
ARM GAS  /tmp/ccQolPVj.s 			page 36


 1954              	.LASF47:
 1955 009d 63685F74 		.ascii	"ch_threads_queue\000"
 1955      68726561 
 1955      64735F71 
 1955      75657565 
 1955      00
 1956              	.LASF80:
 1957 00ae 49535052 		.ascii	"ISPR\000"
 1957      00
 1958              	.LASF28:
 1959 00b3 705F7072 		.ascii	"p_prio\000"
 1959      696F00
 1960              	.LASF123:
 1961 00ba 6E766963 		.ascii	"nvicEnableVector\000"
 1961      456E6162 
 1961      6C655665 
 1961      63746F72 
 1961      00
 1962              	.LASF102:
 1963 00cb 49534152 		.ascii	"ISAR\000"
 1963      00
 1964              	.LASF10:
 1965 00d0 6C6F6E67 		.ascii	"long long int\000"
 1965      206C6F6E 
 1965      6720696E 
 1965      7400
 1966              	.LASF1:
 1967 00de 7369676E 		.ascii	"signed char\000"
 1967      65642063 
 1967      68617200 
 1968              	.LASF42:
 1969 00ea 705F6D70 		.ascii	"p_mpool\000"
 1969      6F6F6C00 
 1970              	.LASF117:
 1971 00f2 6D5F7175 		.ascii	"m_queue\000"
 1971      65756500 
 1972              	.LASF73:
 1973 00fa 76746C69 		.ascii	"vtlist\000"
 1973      737400
 1974              	.LASF71:
 1975 0101 63685F73 		.ascii	"ch_system\000"
 1975      79737465 
 1975      6D00
 1976              	.LASF7:
 1977 010b 6C6F6E67 		.ascii	"long int\000"
 1977      20696E74 
 1977      00
 1978              	.LASF19:
 1979 0114 74737461 		.ascii	"tstate_t\000"
 1979      74655F74 
 1979      00
 1980              	.LASF30:
 1981 011d 705F6E65 		.ascii	"p_newer\000"
 1981      77657200 
 1982              	.LASF99:
 1983 0125 42464152 		.ascii	"BFAR\000"
 1983      00
ARM GAS  /tmp/ccQolPVj.s 			page 37


 1984              	.LASF100:
 1985 012a 41465352 		.ascii	"AFSR\000"
 1985      00
 1986              	.LASF53:
 1987 012f 725F6E65 		.ascii	"r_newer\000"
 1987      77657200 
 1988              	.LASF105:
 1989 0137 72656761 		.ascii	"regarm_t\000"
 1989      726D5F74 
 1989      00
 1990              	.LASF60:
 1991 0140 76745F70 		.ascii	"vt_prev\000"
 1991      72657600 
 1992              	.LASF104:
 1993 0148 5343425F 		.ascii	"SCB_Type\000"
 1993      54797065 
 1993      00
 1994              	.LASF120:
 1995 0151 6D757465 		.ascii	"mutex_t\000"
 1995      785F7400 
 1996              	.LASF75:
 1997 0159 69646C65 		.ascii	"idle_thread_wa\000"
 1997      5F746872 
 1997      6561645F 
 1997      776100
 1998              	.LASF0:
 1999 0168 756E7369 		.ascii	"unsigned int\000"
 1999      676E6564 
 1999      20696E74 
 1999      00
 2000              	.LASF59:
 2001 0175 76745F6E 		.ascii	"vt_next\000"
 2001      65787400 
 2002              	.LASF124:
 2003 017d 6E766963 		.ascii	"nvicDisableVector\000"
 2003      44697361 
 2003      626C6556 
 2003      6563746F 
 2003      7200
 2004              	.LASF61:
 2005 018f 76745F64 		.ascii	"vt_delta\000"
 2005      656C7461 
 2005      00
 2006              	.LASF37:
 2007 0198 705F6D73 		.ascii	"p_msgqueue\000"
 2007      67717565 
 2007      756500
 2008              	.LASF92:
 2009 01a3 56544F52 		.ascii	"VTOR\000"
 2009      00
 2010              	.LASF129:
 2011 01a8 2E2E2F43 		.ascii	"../ChibiOS/os/hal/ports/common/ARMCMx/nvic.c\000"
 2011      68696269 
 2011      4F532F6F 
 2011      732F6861 
 2011      6C2F706F 
 2012              	.LASF44:
ARM GAS  /tmp/ccQolPVj.s 			page 38


 2013 01d5 63685F74 		.ascii	"ch_thread\000"
 2013      68726561 
 2013      6400
 2014              	.LASF91:
 2015 01df 49435352 		.ascii	"ICSR\000"
 2015      00
 2016              	.LASF22:
 2017 01e4 6D73675F 		.ascii	"msg_t\000"
 2017      7400
 2018              	.LASF93:
 2019 01ea 41495243 		.ascii	"AIRCR\000"
 2019      5200
 2020              	.LASF97:
 2021 01f0 44465352 		.ascii	"DFSR\000"
 2021      00
 2022              	.LASF98:
 2023 01f5 4D4D4641 		.ascii	"MMFAR\000"
 2023      5200
 2024              	.LASF70:
 2025 01fb 63685F73 		.ascii	"ch_system_t\000"
 2025      79737465 
 2025      6D5F7400 
 2026              	.LASF18:
 2027 0207 746D6F64 		.ascii	"tmode_t\000"
 2027      655F7400 
 2028              	.LASF49:
 2029 020f 63685F72 		.ascii	"ch_ready_list\000"
 2029      65616479 
 2029      5F6C6973 
 2029      7400
 2030              	.LASF23:
 2031 021d 6576656E 		.ascii	"eventmask_t\000"
 2031      746D6173 
 2031      6B5F7400 
 2032              	.LASF6:
 2033 0229 5F5F696E 		.ascii	"__int32_t\000"
 2033      7433325F 
 2033      7400
 2034              	.LASF106:
 2035 0233 73746B61 		.ascii	"stkalign_t\000"
 2035      6C69676E 
 2035      5F7400
 2036              	.LASF126:
 2037 023e 68616E64 		.ascii	"handler\000"
 2037      6C657200 
 2038              	.LASF57:
 2039 0246 76697274 		.ascii	"virtual_timer_t\000"
 2039      75616C5F 
 2039      74696D65 
 2039      725F7400 
 2040              	.LASF36:
 2041 0256 705F7761 		.ascii	"p_waiting\000"
 2041      6974696E 
 2041      6700
 2042              	.LASF88:
 2043 0260 73697A65 		.ascii	"sizetype\000"
 2043      74797065 
ARM GAS  /tmp/ccQolPVj.s 			page 39


 2043      00
 2044              	.LASF65:
 2045 0269 63685F76 		.ascii	"ch_virtual_timers_list\000"
 2045      69727475 
 2045      616C5F74 
 2045      696D6572 
 2045      735F6C69 
 2046              	.LASF95:
 2047 0280 43465352 		.ascii	"CFSR\000"
 2047      00
 2048              	.LASF84:
 2049 0285 49414252 		.ascii	"IABR\000"
 2049      00
 2050              	.LASF66:
 2051 028a 76745F6C 		.ascii	"vt_lasttime\000"
 2051      61737474 
 2051      696D6500 
 2052              	.LASF31:
 2053 0296 705F6F6C 		.ascii	"p_older\000"
 2053      64657200 
 2054              	.LASF52:
 2055 029e 725F6374 		.ascii	"r_ctx\000"
 2055      7800
 2056              	.LASF110:
 2057 02a4 746D5F63 		.ascii	"tm_calibration_t\000"
 2057      616C6962 
 2057      72617469 
 2057      6F6E5F74 
 2057      00
 2058              	.LASF78:
 2059 02b5 49434552 		.ascii	"ICER\000"
 2059      00
 2060              	.LASF122:
 2061 02ba 7072696F 		.ascii	"prio\000"
 2061      00
 2062              	.LASF54:
 2063 02bf 725F6F6C 		.ascii	"r_older\000"
 2063      64657200 
 2064              	.LASF11:
 2065 02c7 5F5F7569 		.ascii	"__uint64_t\000"
 2065      6E743634 
 2065      5F7400
 2066              	.LASF20:
 2067 02d2 74726566 		.ascii	"trefs_t\000"
 2067      735F7400 
 2068              	.LASF77:
 2069 02da 52455345 		.ascii	"RESERVED0\000"
 2069      52564544 
 2069      3000
 2070              	.LASF81:
 2071 02e4 52455345 		.ascii	"RESERVED2\000"
 2071      52564544 
 2071      3200
 2072              	.LASF83:
 2073 02ee 52455345 		.ascii	"RESERVED3\000"
 2073      52564544 
 2073      3300
ARM GAS  /tmp/ccQolPVj.s 			page 40


 2074              	.LASF85:
 2075 02f8 52455345 		.ascii	"RESERVED4\000"
 2075      52564544 
 2075      3400
 2076              	.LASF27:
 2077 0302 705F7072 		.ascii	"p_prev\000"
 2077      657600
 2078              	.LASF21:
 2079 0309 74707269 		.ascii	"tprio_t\000"
 2079      6F5F7400 
 2080              	.LASF116:
 2081 0311 6D757465 		.ascii	"mutex\000"
 2081      7800
 2082              	.LASF68:
 2083 0317 63685F73 		.ascii	"ch_system_debug\000"
 2083      79737465 
 2083      6D5F6465 
 2083      62756700 
 2084              	.LASF121:
 2085 0327 5F426F6F 		.ascii	"_Bool\000"
 2085      6C00
 2086              	.LASF14:
 2087 032d 696E7433 		.ascii	"int32_t\000"
 2087      325F7400 
 2088              	.LASF2:
 2089 0335 756E7369 		.ascii	"unsigned char\000"
 2089      676E6564 
 2089      20636861 
 2089      7200
 2090              	.LASF94:
 2091 0343 53484353 		.ascii	"SHCSR\000"
 2091      5200
 2092              	.LASF127:
 2093 0349 49544D5F 		.ascii	"ITM_RxBuffer\000"
 2093      52784275 
 2093      66666572 
 2093      00
 2094              	.LASF33:
 2095 0356 705F7374 		.ascii	"p_state\000"
 2095      61746500 
 2096              	.LASF40:
 2097 035e 705F6D74 		.ascii	"p_mtxlist\000"
 2097      786C6973 
 2097      7400
 2098              	.LASF3:
 2099 0368 73686F72 		.ascii	"short int\000"
 2099      7420696E 
 2099      7400
 2100              	.LASF76:
 2101 0372 49534552 		.ascii	"ISER\000"
 2101      00
 2102              	.LASF89:
 2103 0377 4E564943 		.ascii	"NVIC_Type\000"
 2103      5F547970 
 2103      6500
 2104              	.LASF125:
 2105 0381 6E766963 		.ascii	"nvicSetSystemHandlerPriority\000"
ARM GAS  /tmp/ccQolPVj.s 			page 41


 2105      53657453 
 2105      79737465 
 2105      6D48616E 
 2105      646C6572 
 2106              	.LASF51:
 2107 039e 725F7072 		.ascii	"r_prio\000"
 2107      696F00
 2108              	.LASF114:
 2109 03a5 65776D61 		.ascii	"ewmask\000"
 2109      736B00
 2110              	.LASF26:
 2111 03ac 705F6E65 		.ascii	"p_next\000"
 2111      787400
 2112              	.LASF128:
 2113 03b3 474E5520 		.ascii	"GNU C 4.9.3 20141119 (release) [ARM/embedded-4_9-br"
 2113      4320342E 
 2113      392E3320 
 2113      32303134 
 2113      31313139 
 2114 03e6 616E6368 		.ascii	"anch revision 218278] -mcpu=cortex-m4 -mfloat-abi=h"
 2114      20726576 
 2114      6973696F 
 2114      6E203231 
 2114      38323738 
 2115 0419 61726420 		.ascii	"ard -mfpu=fpv4-sp-d16 -mno-thumb-interwork -mthumb "
 2115      2D6D6670 
 2115      753D6670 
 2115      76342D73 
 2115      702D6431 
 2116 044c 2D676764 		.ascii	"-ggdb -O2 -fomit-frame-pointer -falign-functions=16"
 2116      62202D4F 
 2116      32202D66 
 2116      6F6D6974 
 2116      2D667261 
 2117 047f 202D6666 		.ascii	" -ffunction-sections -fdata-sections -fno-common -f"
 2117      756E6374 
 2117      696F6E2D 
 2117      73656374 
 2117      696F6E73 
 2118 04b2 73696E67 		.ascii	"single-precision-constant\000"
 2118      6C652D70 
 2118      72656369 
 2118      73696F6E 
 2118      2D636F6E 
 2119              	.LASF34:
 2120 04cc 705F666C 		.ascii	"p_flags\000"
 2120      61677300 
 2121              	.LASF131:
 2122 04d4 5F5F6675 		.ascii	"__func__\000"
 2122      6E635F5F 
 2122      00
 2123              	.LASF4:
 2124 04dd 73686F72 		.ascii	"short unsigned int\000"
 2124      7420756E 
 2124      7369676E 
 2124      65642069 
 2124      6E7400
ARM GAS  /tmp/ccQolPVj.s 			page 42


 2125              	.LASF58:
 2126 04f0 63685F76 		.ascii	"ch_virtual_timer\000"
 2126      69727475 
 2126      616C5F74 
 2126      696D6572 
 2126      00
 2127              	.LASF39:
 2128 0501 705F6570 		.ascii	"p_epending\000"
 2128      656E6469 
 2128      6E6700
 2129              	.LASF86:
 2130 050c 52455345 		.ascii	"RESERVED5\000"
 2130      52564544 
 2130      3500
 2131              	.LASF15:
 2132 0516 75696E74 		.ascii	"uint32_t\000"
 2132      33325F74 
 2132      00
 2133              	.LASF50:
 2134 051f 725F7175 		.ascii	"r_queue\000"
 2134      65756500 
 2135              	.LASF45:
 2136 0527 63685F74 		.ascii	"ch_threads_list\000"
 2136      68726561 
 2136      64735F6C 
 2136      69737400 
 2137              	.LASF130:
 2138 0537 2F686F6D 		.ascii	"/home/bhimebau/forge/annsynth/src\000"
 2138      652F6268 
 2138      696D6562 
 2138      61752F66 
 2138      6F726765 
 2139              	.LASF9:
 2140 0559 6C6F6E67 		.ascii	"long unsigned int\000"
 2140      20756E73 
 2140      69676E65 
 2140      6420696E 
 2140      7400
 2141              	.LASF55:
 2142 056b 725F6375 		.ascii	"r_current\000"
 2142      7272656E 
 2142      7400
 2143              	.LASF115:
 2144 0575 63686172 		.ascii	"char\000"
 2144      00
 2145              	.LASF25:
 2146 057a 74687265 		.ascii	"thread_t\000"
 2146      61645F74 
 2146      00
 2147              	.LASF119:
 2148 0583 6D5F6E65 		.ascii	"m_next\000"
 2148      787400
 2149              	.LASF24:
 2150 058a 73797374 		.ascii	"systime_t\000"
 2150      696D655F 
 2150      7400
 2151              	.LASF41:
ARM GAS  /tmp/ccQolPVj.s 			page 43


 2152 0594 705F7265 		.ascii	"p_realprio\000"
 2152      616C7072 
 2152      696F00
 2153              	.LASF56:
 2154 059f 76746675 		.ascii	"vtfunc_t\000"
 2154      6E635F74 
 2154      00
 2155              	.LASF8:
 2156 05a8 5F5F7569 		.ascii	"__uint32_t\000"
 2156      6E743332 
 2156      5F7400
 2157              	.LASF69:
 2158 05b3 70616E69 		.ascii	"panic_msg\000"
 2158      635F6D73 
 2158      6700
 2159              	.LASF109:
 2160 05bd 6F666673 		.ascii	"offset\000"
 2160      657400
 2161              	.LASF107:
 2162 05c4 636F6E74 		.ascii	"context\000"
 2162      65787400 
 2163              	.LASF17:
 2164 05cc 7274636E 		.ascii	"rtcnt_t\000"
 2164      745F7400 
 2165              	.LASF63:
 2166 05d4 76745F70 		.ascii	"vt_par\000"
 2166      617200
 2167              	.LASF46:
 2168 05db 74687265 		.ascii	"threads_queue_t\000"
 2168      6164735F 
 2168      71756575 
 2168      655F7400 
 2169              	.LASF35:
 2170 05eb 705F7265 		.ascii	"p_refs\000"
 2170      667300
 2171              	.LASF101:
 2172 05f2 4D4D4652 		.ascii	"MMFR\000"
 2172      00
 2173              	.LASF72:
 2174 05f7 726C6973 		.ascii	"rlist\000"
 2174      7400
 2175              	.LASF13:
 2176 05fd 75696E74 		.ascii	"uint8_t\000"
 2176      385F7400 
 2177              	.LASF79:
 2178 0605 52534552 		.ascii	"RSERVED1\000"
 2178      56454431 
 2178      00
 2179              	.LASF87:
 2180 060e 53544952 		.ascii	"STIR\000"
 2180      00
 2181              	.LASF113:
 2182 0613 77746F62 		.ascii	"wtobjp\000"
 2182      6A7000
 2183              	.LASF32:
 2184 061a 705F6E61 		.ascii	"p_name\000"
 2184      6D6500
ARM GAS  /tmp/ccQolPVj.s 			page 44


 2185              	.LASF38:
 2186 0621 705F6D73 		.ascii	"p_msg\000"
 2186      6700
 2187              	.LASF103:
 2188 0627 43504143 		.ascii	"CPACR\000"
 2188      5200
 2189              	.LASF96:
 2190 062d 48465352 		.ascii	"HFSR\000"
 2190      00
 2191              	.LASF118:
 2192 0632 6D5F6F77 		.ascii	"m_owner\000"
 2192      6E657200 
 2193              	.LASF29:
 2194 063a 705F6374 		.ascii	"p_ctx\000"
 2194      7800
 2195              	.LASF62:
 2196 0640 76745F66 		.ascii	"vt_func\000"
 2196      756E6300 
 2197              		.ident	"GCC: (GNU Tools for ARM Embedded Processors) 4.9.3 20141119 (release) [ARM/embedded-4_9-br
ARM GAS  /tmp/ccQolPVj.s 			page 45


DEFINED SYMBOLS
                            *ABS*:00000000 nvic.c
     /tmp/ccQolPVj.s:21     .text.nvicEnableVector:00000000 $t
     /tmp/ccQolPVj.s:27     .text.nvicEnableVector:00000000 nvicEnableVector
     /tmp/ccQolPVj.s:72     .text.nvicDisableVector:00000000 $t
     /tmp/ccQolPVj.s:78     .text.nvicDisableVector:00000000 nvicDisableVector
     /tmp/ccQolPVj.s:116    .text.nvicDisableVector:00000024 $d
     /tmp/ccQolPVj.s:121    .text.nvicSetSystemHandlerPriority:00000000 $t
     /tmp/ccQolPVj.s:127    .text.nvicSetSystemHandlerPriority:00000000 nvicSetSystemHandlerPriority
                     .debug_frame:00000010 $d
     /tmp/ccQolPVj.s:120    .text.nvicDisableVector:00000028 $t

NO UNDEFINED SYMBOLS
