ARM GAS  /tmp/ccUaYBoa.s 			page 1


   1              		.syntax unified
   2              		.cpu cortex-m4
   3              		.eabi_attribute 27, 3
   4              		.eabi_attribute 28, 1
   5              		.fpu fpv4-sp-d16
   6              		.eabi_attribute 20, 1
   7              		.eabi_attribute 21, 1
   8              		.eabi_attribute 23, 3
   9              		.eabi_attribute 24, 1
  10              		.eabi_attribute 25, 1
  11              		.eabi_attribute 26, 1
  12              		.eabi_attribute 30, 2
  13              		.eabi_attribute 34, 1
  14              		.eabi_attribute 18, 4
  15              		.thumb
  16              		.file	"pal_lld.c"
  17              		.text
  18              	.Ltext0:
  19              		.cfi_sections	.debug_frame
  20              		.section	.text._pal_lld_init,"ax",%progbits
  21              		.align	2
  22              		.p2align 4,,15
  23              		.global	_pal_lld_init
  24              		.thumb
  25              		.thumb_func
  26              		.type	_pal_lld_init, %function
  27              	_pal_lld_init:
  28              	.LFB256:
  29              		.file 1 "../ChibiOS/os/hal/ports/STM32/LLD/GPIOv2/pal_lld.c"
  30              		.loc 1 92 0
  31              		.cfi_startproc
  32              		@ args = 0, pretend = 0, frame = 0
  33              		@ frame_needed = 0, uses_anonymous_args = 0
  34              		@ link register save eliminated.
  35              	.LVL0:
  36 0000 F0B4     		push	{r4, r5, r6, r7}
  37              		.cfi_def_cfa_offset 16
  38              		.cfi_offset 4, -16
  39              		.cfi_offset 5, -12
  40              		.cfi_offset 6, -8
  41              		.cfi_offset 7, -4
  42              		.loc 1 103 0
  43 0002 364F     		ldr	r7, .L3
  44              	.LBB14:
  45              	.LBB15:
  46              		.loc 1 67 0
  47 0004 364D     		ldr	r5, .L3+4
  48              	.LBE15:
  49              	.LBE14:
  50              		.loc 1 103 0
  51 0006 7E69     		ldr	r6, [r7, #20]
  52              	.LBB17:
  53              	.LBB18:
  54              		.loc 1 67 0
  55 0008 364C     		ldr	r4, .L3+8
  56              	.LBE18:
  57              	.LBE17:
ARM GAS  /tmp/ccUaYBoa.s 			page 2


  58              	.LBB20:
  59              	.LBB21:
  60 000a 3749     		ldr	r1, .L3+12
  61              	.LBE21:
  62              	.LBE20:
  63              	.LBB23:
  64              	.LBB24:
  65 000c 374A     		ldr	r2, .L3+16
  66              	.LBE24:
  67              	.LBE23:
  68              	.LBB26:
  69              	.LBB27:
  70 000e 384B     		ldr	r3, .L3+20
  71              	.LBE27:
  72              	.LBE26:
  73              		.loc 1 103 0
  74 0010 46F4FC06 		orr	r6, r6, #8257536
  75 0014 7E61     		str	r6, [r7, #20]
  76              	.LVL1:
  77              	.LBB29:
  78              	.LBB30:
  79              		.loc 1 67 0
  80 0016 4FF09046 		mov	r6, #1207959552
  81 001a 4768     		ldr	r7, [r0, #4]
  82 001c 7760     		str	r7, [r6, #4]
  83              		.loc 1 68 0
  84 001e 8768     		ldr	r7, [r0, #8]
  85 0020 B760     		str	r7, [r6, #8]
  86              		.loc 1 69 0
  87 0022 C768     		ldr	r7, [r0, #12]
  88 0024 F760     		str	r7, [r6, #12]
  89              		.loc 1 70 0
  90 0026 0769     		ldr	r7, [r0, #16]
  91 0028 7761     		str	r7, [r6, #20]
  92              		.loc 1 71 0
  93 002a 4769     		ldr	r7, [r0, #20]
  94 002c 3762     		str	r7, [r6, #32]
  95              		.loc 1 72 0
  96 002e 8769     		ldr	r7, [r0, #24]
  97 0030 7762     		str	r7, [r6, #36]
  98              		.loc 1 73 0
  99 0032 0768     		ldr	r7, [r0]
 100 0034 3760     		str	r7, [r6]
 101              	.LVL2:
 102              	.LBE30:
 103              	.LBE29:
 104              	.LBB31:
 105              	.LBB16:
 106              		.loc 1 67 0
 107 0036 066A     		ldr	r6, [r0, #32]
 108 0038 6E60     		str	r6, [r5, #4]
 109              		.loc 1 68 0
 110 003a 466A     		ldr	r6, [r0, #36]
 111 003c AE60     		str	r6, [r5, #8]
 112              		.loc 1 69 0
 113 003e 866A     		ldr	r6, [r0, #40]
 114 0040 EE60     		str	r6, [r5, #12]
ARM GAS  /tmp/ccUaYBoa.s 			page 3


 115              		.loc 1 70 0
 116 0042 C66A     		ldr	r6, [r0, #44]
 117 0044 6E61     		str	r6, [r5, #20]
 118              		.loc 1 71 0
 119 0046 066B     		ldr	r6, [r0, #48]
 120 0048 2E62     		str	r6, [r5, #32]
 121              		.loc 1 72 0
 122 004a 466B     		ldr	r6, [r0, #52]
 123 004c 6E62     		str	r6, [r5, #36]
 124              		.loc 1 73 0
 125 004e C669     		ldr	r6, [r0, #28]
 126 0050 2E60     		str	r6, [r5]
 127              	.LVL3:
 128              	.LBE16:
 129              	.LBE31:
 130              	.LBB32:
 131              	.LBB19:
 132              		.loc 1 67 0
 133 0052 C56B     		ldr	r5, [r0, #60]
 134 0054 6560     		str	r5, [r4, #4]
 135              		.loc 1 68 0
 136 0056 056C     		ldr	r5, [r0, #64]
 137 0058 A560     		str	r5, [r4, #8]
 138              		.loc 1 69 0
 139 005a 456C     		ldr	r5, [r0, #68]
 140 005c E560     		str	r5, [r4, #12]
 141              		.loc 1 70 0
 142 005e 856C     		ldr	r5, [r0, #72]
 143 0060 6561     		str	r5, [r4, #20]
 144              		.loc 1 71 0
 145 0062 C56C     		ldr	r5, [r0, #76]
 146 0064 2562     		str	r5, [r4, #32]
 147              		.loc 1 72 0
 148 0066 056D     		ldr	r5, [r0, #80]
 149 0068 6562     		str	r5, [r4, #36]
 150              		.loc 1 73 0
 151 006a 856B     		ldr	r5, [r0, #56]
 152 006c 2560     		str	r5, [r4]
 153              	.LVL4:
 154              	.LBE19:
 155              	.LBE32:
 156              	.LBB33:
 157              	.LBB22:
 158              		.loc 1 67 0
 159 006e 846D     		ldr	r4, [r0, #88]
 160 0070 4C60     		str	r4, [r1, #4]
 161              		.loc 1 68 0
 162 0072 C46D     		ldr	r4, [r0, #92]
 163 0074 8C60     		str	r4, [r1, #8]
 164              		.loc 1 69 0
 165 0076 046E     		ldr	r4, [r0, #96]
 166 0078 CC60     		str	r4, [r1, #12]
 167              		.loc 1 70 0
 168 007a 446E     		ldr	r4, [r0, #100]
 169 007c 4C61     		str	r4, [r1, #20]
 170              		.loc 1 71 0
 171 007e 846E     		ldr	r4, [r0, #104]
ARM GAS  /tmp/ccUaYBoa.s 			page 4


 172 0080 0C62     		str	r4, [r1, #32]
 173              		.loc 1 72 0
 174 0082 C46E     		ldr	r4, [r0, #108]
 175 0084 4C62     		str	r4, [r1, #36]
 176              		.loc 1 73 0
 177 0086 446D     		ldr	r4, [r0, #84]
 178 0088 0C60     		str	r4, [r1]
 179              	.LVL5:
 180              	.LBE22:
 181              	.LBE33:
 182              	.LBB34:
 183              	.LBB25:
 184              		.loc 1 67 0
 185 008a 416F     		ldr	r1, [r0, #116]
 186 008c 5160     		str	r1, [r2, #4]
 187              		.loc 1 68 0
 188 008e 816F     		ldr	r1, [r0, #120]
 189 0090 9160     		str	r1, [r2, #8]
 190              		.loc 1 69 0
 191 0092 C16F     		ldr	r1, [r0, #124]
 192 0094 D160     		str	r1, [r2, #12]
 193              		.loc 1 70 0
 194 0096 D0F88010 		ldr	r1, [r0, #128]
 195 009a 5161     		str	r1, [r2, #20]
 196              		.loc 1 71 0
 197 009c D0F88410 		ldr	r1, [r0, #132]
 198 00a0 1162     		str	r1, [r2, #32]
 199              		.loc 1 72 0
 200 00a2 D0F88810 		ldr	r1, [r0, #136]
 201 00a6 5162     		str	r1, [r2, #36]
 202              		.loc 1 73 0
 203 00a8 016F     		ldr	r1, [r0, #112]
 204 00aa 1160     		str	r1, [r2]
 205              	.LVL6:
 206              	.LBE25:
 207              	.LBE34:
 208              	.LBB35:
 209              	.LBB28:
 210              		.loc 1 67 0
 211 00ac D0F89020 		ldr	r2, [r0, #144]
 212 00b0 5A60     		str	r2, [r3, #4]
 213              		.loc 1 68 0
 214 00b2 D0F89420 		ldr	r2, [r0, #148]
 215 00b6 9A60     		str	r2, [r3, #8]
 216              		.loc 1 69 0
 217 00b8 D0F89820 		ldr	r2, [r0, #152]
 218 00bc DA60     		str	r2, [r3, #12]
 219              		.loc 1 70 0
 220 00be D0F89C20 		ldr	r2, [r0, #156]
 221 00c2 5A61     		str	r2, [r3, #20]
 222              		.loc 1 71 0
 223 00c4 D0F8A020 		ldr	r2, [r0, #160]
 224 00c8 1A62     		str	r2, [r3, #32]
 225              		.loc 1 72 0
 226 00ca D0F8A420 		ldr	r2, [r0, #164]
 227 00ce 5A62     		str	r2, [r3, #36]
 228              		.loc 1 73 0
ARM GAS  /tmp/ccUaYBoa.s 			page 5


 229 00d0 D0F88C20 		ldr	r2, [r0, #140]
 230 00d4 1A60     		str	r2, [r3]
 231              	.LBE28:
 232              	.LBE35:
 233              		.loc 1 139 0
 234 00d6 F0BC     		pop	{r4, r5, r6, r7}
 235              		.cfi_restore 7
 236              		.cfi_restore 6
 237              		.cfi_restore 5
 238              		.cfi_restore 4
 239              		.cfi_def_cfa_offset 0
 240 00d8 7047     		bx	lr
 241              	.L4:
 242 00da 00BF     		.align	2
 243              	.L3:
 244 00dc 00100240 		.word	1073876992
 245 00e0 00040048 		.word	1207960576
 246 00e4 00080048 		.word	1207961600
 247 00e8 000C0048 		.word	1207962624
 248 00ec 00100048 		.word	1207963648
 249 00f0 00140048 		.word	1207964672
 250              		.cfi_endproc
 251              	.LFE256:
 252              		.size	_pal_lld_init, .-_pal_lld_init
 253 00f4 AFF30080 		.section	.text._pal_lld_setgroupmode,"ax",%progbits
 253      AFF30080 
 253      AFF30080 
 254              		.align	2
 255              		.p2align 4,,15
 256              		.global	_pal_lld_setgroupmode
 257              		.thumb
 258              		.thumb_func
 259              		.type	_pal_lld_setgroupmode, %function
 260              	_pal_lld_setgroupmode:
 261              	.LFB257:
 262              		.loc 1 157 0
 263              		.cfi_startproc
 264              		@ args = 0, pretend = 0, frame = 0
 265              		@ frame_needed = 0, uses_anonymous_args = 0
 266              	.LVL7:
 267 0000 2DE9F04F 		push	{r4, r5, r6, r7, r8, r9, r10, fp, lr}
 268              		.cfi_def_cfa_offset 36
 269              		.cfi_offset 4, -36
 270              		.cfi_offset 5, -32
 271              		.cfi_offset 6, -28
 272              		.cfi_offset 7, -24
 273              		.cfi_offset 8, -20
 274              		.cfi_offset 9, -16
 275              		.cfi_offset 10, -12
 276              		.cfi_offset 11, -8
 277              		.cfi_offset 14, -4
 278              	.LBB36:
 279              		.loc 1 170 0
 280 0004 4FF00F0C 		mov	ip, #15
 281              	.LBE36:
 282              		.loc 1 159 0
 283 0008 02F0030E 		and	lr, r2, #3
ARM GAS  /tmp/ccUaYBoa.s 			page 6


 284              	.LVL8:
 285              		.loc 1 160 0
 286 000c C2F38007 		ubfx	r7, r2, #2, #1
 287              	.LVL9:
 288              		.loc 1 161 0
 289 0010 C2F3C106 		ubfx	r6, r2, #3, #2
 290              	.LVL10:
 291              		.loc 1 162 0
 292 0014 C2F34115 		ubfx	r5, r2, #5, #2
 293              	.LVL11:
 294              		.loc 1 164 0
 295 0018 0024     		movs	r4, #0
 296              		.loc 1 163 0
 297 001a C2F3C312 		ubfx	r2, r2, #7, #4
 298              	.LVL12:
 299              	.LBB37:
 300              		.loc 1 175 0
 301 001e 4FF00109 		mov	r9, #1
 302              		.loc 1 177 0
 303 0022 4FF00308 		mov	r8, #3
 304 0026 2BE0     		b	.L10
 305              	.LVL13:
 306              	.L16:
 307              		.loc 1 172 0
 308 0028 D0F820B0 		ldr	fp, [r0, #32]
 309 002c 2BEA0303 		bic	r3, fp, r3
 310              	.LVL14:
 311 0030 43EA0A03 		orr	r3, r3, r10
 312 0034 0362     		str	r3, [r0, #32]
 313              	.L8:
 314              	.LVL15:
 315              		.loc 1 176 0
 316 0036 4368     		ldr	r3, [r0, #4]
 317              		.loc 1 175 0
 318 0038 09FA04FA 		lsl	r10, r9, r4
 319              	.LVL16:
 320              		.loc 1 176 0
 321 003c 23EA0A03 		bic	r3, r3, r10
 322 0040 3B43     		orrs	r3, r3, r7
 323 0042 4360     		str	r3, [r0, #4]
 324              	.LVL17:
 325 0044 4FEA440A 		lsl	r10, r4, #1
 326              		.loc 1 178 0
 327 0048 8368     		ldr	r3, [r0, #8]
 328              		.loc 1 177 0
 329 004a 08FA0AFA 		lsl	r10, r8, r10
 330              		.loc 1 178 0
 331 004e 6FEA0A0A 		mvn	r10, r10
 332 0052 0AEA0303 		and	r3, r10, r3
 333 0056 3343     		orrs	r3, r3, r6
 334 0058 8360     		str	r3, [r0, #8]
 335              		.loc 1 179 0
 336 005a C368     		ldr	r3, [r0, #12]
 337 005c 0AEA0303 		and	r3, r10, r3
 338 0060 2B43     		orrs	r3, r3, r5
 339 0062 C360     		str	r3, [r0, #12]
 340              		.loc 1 180 0
ARM GAS  /tmp/ccUaYBoa.s 			page 7


 341 0064 0368     		ldr	r3, [r0]
 342 0066 0AEA0303 		and	r3, r10, r3
 343 006a 43EA0E03 		orr	r3, r3, lr
 344 006e 0360     		str	r3, [r0]
 345              	.LVL18:
 346              	.L6:
 347              	.LBE37:
 348              		.loc 1 183 0
 349 0070 4908     		lsrs	r1, r1, #1
 350              	.LVL19:
 351 0072 19D0     		beq	.L5
 352              		.loc 1 185 0
 353 0074 7F00     		lsls	r7, r7, #1
 354              	.LVL20:
 355              		.loc 1 186 0
 356 0076 B600     		lsls	r6, r6, #2
 357              	.LVL21:
 358              		.loc 1 187 0
 359 0078 AD00     		lsls	r5, r5, #2
 360              	.LVL22:
 361              		.loc 1 188 0
 362 007a 4FEA8E0E 		lsl	lr, lr, #2
 363              	.LVL23:
 364              		.loc 1 189 0
 365 007e 0134     		adds	r4, r4, #1
 366              	.LVL24:
 367              	.L10:
 368              	.LBB38:
 369              		.loc 1 169 0
 370 0080 04F00703 		and	r3, r4, #7
 371 0084 9B00     		lsls	r3, r3, #2
 372              	.LBE38:
 373              		.loc 1 166 0
 374 0086 11F0010F 		tst	r1, #1
 375              	.LBB39:
 376              		.loc 1 169 0
 377 008a 02FA03FA 		lsl	r10, r2, r3
 378              	.LVL25:
 379              		.loc 1 170 0
 380 008e 0CFA03F3 		lsl	r3, ip, r3
 381              	.LVL26:
 382              	.LBE39:
 383              		.loc 1 166 0
 384 0092 EDD0     		beq	.L6
 385              	.LBB40:
 386              		.loc 1 171 0
 387 0094 072C     		cmp	r4, #7
 388 0096 C7D9     		bls	.L16
 389              		.loc 1 174 0
 390 0098 D0F824B0 		ldr	fp, [r0, #36]
 391 009c 2BEA0303 		bic	r3, fp, r3
 392              	.LVL27:
 393 00a0 43EA0A03 		orr	r3, r3, r10
 394 00a4 4362     		str	r3, [r0, #36]
 395 00a6 C6E7     		b	.L8
 396              	.LVL28:
 397              	.L5:
ARM GAS  /tmp/ccUaYBoa.s 			page 8


 398 00a8 BDE8F08F 		pop	{r4, r5, r6, r7, r8, r9, r10, fp, pc}
 399              	.LBE40:
 400              		.cfi_endproc
 401              	.LFE257:
 402              		.size	_pal_lld_setgroupmode, .-_pal_lld_setgroupmode
 403 00ac AFF30080 		.text
 404              	.Letext0:
 405              		.file 2 "/l/arm2/gcc-arm-none-eabi-4_9-2014q4/arm-none-eabi/include/machine/_default_types.h"
 406              		.file 3 "/l/arm2/gcc-arm-none-eabi-4_9-2014q4/arm-none-eabi/include/stdint.h"
 407              		.file 4 "../ChibiOS/os/rt/ports/ARMCMx/compilers/GCC/chtypes.h"
 408              		.file 5 "../ChibiOS/os/rt/include/chsystypes.h"
 409              		.file 6 "../ChibiOS/os/rt/include/chschd.h"
 410              		.file 7 "../ChibiOS/os/ext/CMSIS/ST/stm32f303xc.h"
 411              		.file 8 "../ChibiOS/os/rt/ports/ARMCMx/chcore.h"
 412              		.file 9 "../ChibiOS/os/rt/ports/ARMCMx/chcore_v7m.h"
 413              		.file 10 "../ChibiOS/os/rt/include/chtm.h"
 414              		.file 11 "../ChibiOS/os/rt/include/chmtx.h"
 415              		.file 12 "../ChibiOS/os/hal/ports/STM32/LLD/GPIOv2/pal_lld.h"
 416              		.file 13 "../ChibiOS/os/ext/CMSIS/include/core_cm4.h"