ARM GAS  /tmp/ccUaYBoa.s 			page 1


   1              		.syntax unified
   2              		.cpu cortex-m4
   3              		.eabi_attribute 27, 3
   4              		.eabi_attribute 28, 1
   5              		.fpu fpv4-sp-d16
   6              		.eabi_attribute 20, 1
   7              		.eabi_attribute 21, 1
   8              		.eabi_attribute 23, 3
   9              		.eabi_attribute 24, 1
  10              		.eabi_attribute 25, 1
  11              		.eabi_attribute 26, 1
  12              		.eabi_attribute 30, 2
  13              		.eabi_attribute 34, 1
  14              		.eabi_attribute 18, 4
  15              		.thumb
  16              		.file	"pal_lld.c"
  17              		.text
  18              	.Ltext0:
  19              		.cfi_sections	.debug_frame
  20              		.section	.text._pal_lld_init,"ax",%progbits
  21              		.align	2
  22              		.p2align 4,,15
  23              		.global	_pal_lld_init
  24              		.thumb
  25              		.thumb_func
  26              		.type	_pal_lld_init, %function
  27              	_pal_lld_init:
  28              	.LFB256:
  29              		.file 1 "../ChibiOS/os/hal/ports/STM32/LLD/GPIOv2/pal_lld.c"
  30              		.loc 1 92 0
  31              		.cfi_startproc
  32              		@ args = 0, pretend = 0, frame = 0
  33              		@ frame_needed = 0, uses_anonymous_args = 0
  34              		@ link register save eliminated.
  35              	.LVL0:
  36 0000 F0B4     		push	{r4, r5, r6, r7}
  37              		.cfi_def_cfa_offset 16
  38              		.cfi_offset 4, -16
  39              		.cfi_offset 5, -12
  40              		.cfi_offset 6, -8
  41              		.cfi_offset 7, -4
  42              		.loc 1 103 0
  43 0002 364F     		ldr	r7, .L3
  44              	.LBB14:
  45              	.LBB15:
  46              		.loc 1 67 0
  47 0004 364D     		ldr	r5, .L3+4
  48              	.LBE15:
  49              	.LBE14:
  50              		.loc 1 103 0
  51 0006 7E69     		ldr	r6, [r7, #20]
  52              	.LBB17:
  53              	.LBB18:
  54              		.loc 1 67 0
  55 0008 364C     		ldr	r4, .L3+8
  56              	.LBE18:
  57              	.LBE17:
ARM GAS  /tmp/ccUaYBoa.s 			page 2


  58              	.LBB20:
  59              	.LBB21:
  60 000a 3749     		ldr	r1, .L3+12
  61              	.LBE21:
  62              	.LBE20:
  63              	.LBB23:
  64              	.LBB24:
  65 000c 374A     		ldr	r2, .L3+16
  66              	.LBE24:
  67              	.LBE23:
  68              	.LBB26:
  69              	.LBB27:
  70 000e 384B     		ldr	r3, .L3+20
  71              	.LBE27:
  72              	.LBE26:
  73              		.loc 1 103 0
  74 0010 46F4FC06 		orr	r6, r6, #8257536
  75 0014 7E61     		str	r6, [r7, #20]
  76              	.LVL1:
  77              	.LBB29:
  78              	.LBB30:
  79              		.loc 1 67 0
  80 0016 4FF09046 		mov	r6, #1207959552
  81 001a 4768     		ldr	r7, [r0, #4]
  82 001c 7760     		str	r7, [r6, #4]
  83              		.loc 1 68 0
  84 001e 8768     		ldr	r7, [r0, #8]
  85 0020 B760     		str	r7, [r6, #8]
  86              		.loc 1 69 0
  87 0022 C768     		ldr	r7, [r0, #12]
  88 0024 F760     		str	r7, [r6, #12]
  89              		.loc 1 70 0
  90 0026 0769     		ldr	r7, [r0, #16]
  91 0028 7761     		str	r7, [r6, #20]
  92              		.loc 1 71 0
  93 002a 4769     		ldr	r7, [r0, #20]
  94 002c 3762     		str	r7, [r6, #32]
  95              		.loc 1 72 0
  96 002e 8769     		ldr	r7, [r0, #24]
  97 0030 7762     		str	r7, [r6, #36]
  98              		.loc 1 73 0
  99 0032 0768     		ldr	r7, [r0]
 100 0034 3760     		str	r7, [r6]
 101              	.LVL2:
 102              	.LBE30:
 103              	.LBE29:
 104              	.LBB31:
 105              	.LBB16:
 106              		.loc 1 67 0
 107 0036 066A     		ldr	r6, [r0, #32]
 108 0038 6E60     		str	r6, [r5, #4]
 109              		.loc 1 68 0
 110 003a 466A     		ldr	r6, [r0, #36]
 111 003c AE60     		str	r6, [r5, #8]
 112              		.loc 1 69 0
 113 003e 866A     		ldr	r6, [r0, #40]
 114 0040 EE60     		str	r6, [r5, #12]
ARM GAS  /tmp/ccUaYBoa.s 			page 3


 115              		.loc 1 70 0
 116 0042 C66A     		ldr	r6, [r0, #44]
 117 0044 6E61     		str	r6, [r5, #20]
 118              		.loc 1 71 0
 119 0046 066B     		ldr	r6, [r0, #48]
 120 0048 2E62     		str	r6, [r5, #32]
 121              		.loc 1 72 0
 122 004a 466B     		ldr	r6, [r0, #52]
 123 004c 6E62     		str	r6, [r5, #36]
 124              		.loc 1 73 0
 125 004e C669     		ldr	r6, [r0, #28]
 126 0050 2E60     		str	r6, [r5]
 127              	.LVL3:
 128              	.LBE16:
 129              	.LBE31:
 130              	.LBB32:
 131              	.LBB19:
 132              		.loc 1 67 0
 133 0052 C56B     		ldr	r5, [r0, #60]
 134 0054 6560     		str	r5, [r4, #4]
 135              		.loc 1 68 0
 136 0056 056C     		ldr	r5, [r0, #64]
 137 0058 A560     		str	r5, [r4, #8]
 138              		.loc 1 69 0
 139 005a 456C     		ldr	r5, [r0, #68]
 140 005c E560     		str	r5, [r4, #12]
 141              		.loc 1 70 0
 142 005e 856C     		ldr	r5, [r0, #72]
 143 0060 6561     		str	r5, [r4, #20]
 144              		.loc 1 71 0
 145 0062 C56C     		ldr	r5, [r0, #76]
 146 0064 2562     		str	r5, [r4, #32]
 147              		.loc 1 72 0
 148 0066 056D     		ldr	r5, [r0, #80]
 149 0068 6562     		str	r5, [r4, #36]
 150              		.loc 1 73 0
 151 006a 856B     		ldr	r5, [r0, #56]
 152 006c 2560     		str	r5, [r4]
 153              	.LVL4:
 154              	.LBE19:
 155              	.LBE32:
 156              	.LBB33:
 157              	.LBB22:
 158              		.loc 1 67 0
 159 006e 846D     		ldr	r4, [r0, #88]
 160 0070 4C60     		str	r4, [r1, #4]
 161              		.loc 1 68 0
 162 0072 C46D     		ldr	r4, [r0, #92]
 163 0074 8C60     		str	r4, [r1, #8]
 164              		.loc 1 69 0
 165 0076 046E     		ldr	r4, [r0, #96]
 166 0078 CC60     		str	r4, [r1, #12]
 167              		.loc 1 70 0
 168 007a 446E     		ldr	r4, [r0, #100]
 169 007c 4C61     		str	r4, [r1, #20]
 170              		.loc 1 71 0
 171 007e 846E     		ldr	r4, [r0, #104]
ARM GAS  /tmp/ccUaYBoa.s 			page 4


 172 0080 0C62     		str	r4, [r1, #32]
 173              		.loc 1 72 0
 174 0082 C46E     		ldr	r4, [r0, #108]
 175 0084 4C62     		str	r4, [r1, #36]
 176              		.loc 1 73 0
 177 0086 446D     		ldr	r4, [r0, #84]
 178 0088 0C60     		str	r4, [r1]
 179              	.LVL5:
 180              	.LBE22:
 181              	.LBE33:
 182              	.LBB34:
 183              	.LBB25:
 184              		.loc 1 67 0
 185 008a 416F     		ldr	r1, [r0, #116]
 186 008c 5160     		str	r1, [r2, #4]
 187              		.loc 1 68 0
 188 008e 816F     		ldr	r1, [r0, #120]
 189 0090 9160     		str	r1, [r2, #8]
 190              		.loc 1 69 0
 191 0092 C16F     		ldr	r1, [r0, #124]
 192 0094 D160     		str	r1, [r2, #12]
 193              		.loc 1 70 0
 194 0096 D0F88010 		ldr	r1, [r0, #128]
 195 009a 5161     		str	r1, [r2, #20]
 196              		.loc 1 71 0
 197 009c D0F88410 		ldr	r1, [r0, #132]
 198 00a0 1162     		str	r1, [r2, #32]
 199              		.loc 1 72 0
 200 00a2 D0F88810 		ldr	r1, [r0, #136]
 201 00a6 5162     		str	r1, [r2, #36]
 202              		.loc 1 73 0
 203 00a8 016F     		ldr	r1, [r0, #112]
 204 00aa 1160     		str	r1, [r2]
 205              	.LVL6:
 206              	.LBE25:
 207              	.LBE34:
 208              	.LBB35:
 209              	.LBB28:
 210              		.loc 1 67 0
 211 00ac D0F89020 		ldr	r2, [r0, #144]
 212 00b0 5A60     		str	r2, [r3, #4]
 213              		.loc 1 68 0
 214 00b2 D0F89420 		ldr	r2, [r0, #148]
 215 00b6 9A60     		str	r2, [r3, #8]
 216              		.loc 1 69 0
 217 00b8 D0F89820 		ldr	r2, [r0, #152]
 218 00bc DA60     		str	r2, [r3, #12]
 219              		.loc 1 70 0
 220 00be D0F89C20 		ldr	r2, [r0, #156]
 221 00c2 5A61     		str	r2, [r3, #20]
 222              		.loc 1 71 0
 223 00c4 D0F8A020 		ldr	r2, [r0, #160]
 224 00c8 1A62     		str	r2, [r3, #32]
 225              		.loc 1 72 0
 226 00ca D0F8A420 		ldr	r2, [r0, #164]
 227 00ce 5A62     		str	r2, [r3, #36]
 228              		.loc 1 73 0
ARM GAS  /tmp/ccUaYBoa.s 			page 5


 229 00d0 D0F88C20 		ldr	r2, [r0, #140]
 230 00d4 1A60     		str	r2, [r3]
 231              	.LBE28:
 232              	.LBE35:
 233              		.loc 1 139 0
 234 00d6 F0BC     		pop	{r4, r5, r6, r7}
 235              		.cfi_restore 7
 236              		.cfi_restore 6
 237              		.cfi_restore 5
 238              		.cfi_restore 4
 239              		.cfi_def_cfa_offset 0
 240 00d8 7047     		bx	lr
 241              	.L4:
 242 00da 00BF     		.align	2
 243              	.L3:
 244 00dc 00100240 		.word	1073876992
 245 00e0 00040048 		.word	1207960576
 246 00e4 00080048 		.word	1207961600
 247 00e8 000C0048 		.word	1207962624
 248 00ec 00100048 		.word	1207963648
 249 00f0 00140048 		.word	1207964672
 250              		.cfi_endproc
 251              	.LFE256:
 252              		.size	_pal_lld_init, .-_pal_lld_init
 253 00f4 AFF30080 		.section	.text._pal_lld_setgroupmode,"ax",%progbits
 253      AFF30080 
 253      AFF30080 
 254              		.align	2
 255              		.p2align 4,,15
 256              		.global	_pal_lld_setgroupmode
 257              		.thumb
 258              		.thumb_func
 259              		.type	_pal_lld_setgroupmode, %function
 260              	_pal_lld_setgroupmode:
 261              	.LFB257:
 262              		.loc 1 157 0
 263              		.cfi_startproc
 264              		@ args = 0, pretend = 0, frame = 0
 265              		@ frame_needed = 0, uses_anonymous_args = 0
 266              	.LVL7:
 267 0000 2DE9F04F 		push	{r4, r5, r6, r7, r8, r9, r10, fp, lr}
 268              		.cfi_def_cfa_offset 36
 269              		.cfi_offset 4, -36
 270              		.cfi_offset 5, -32
 271              		.cfi_offset 6, -28
 272              		.cfi_offset 7, -24
 273              		.cfi_offset 8, -20
 274              		.cfi_offset 9, -16
 275              		.cfi_offset 10, -12
 276              		.cfi_offset 11, -8
 277              		.cfi_offset 14, -4
 278              	.LBB36:
 279              		.loc 1 170 0
 280 0004 4FF00F0C 		mov	ip, #15
 281              	.LBE36:
 282              		.loc 1 159 0
 283 0008 02F0030E 		and	lr, r2, #3
ARM GAS  /tmp/ccUaYBoa.s 			page 6


 284              	.LVL8:
 285              		.loc 1 160 0
 286 000c C2F38007 		ubfx	r7, r2, #2, #1
 287              	.LVL9:
 288              		.loc 1 161 0
 289 0010 C2F3C106 		ubfx	r6, r2, #3, #2
 290              	.LVL10:
 291              		.loc 1 162 0
 292 0014 C2F34115 		ubfx	r5, r2, #5, #2
 293              	.LVL11:
 294              		.loc 1 164 0
 295 0018 0024     		movs	r4, #0
 296              		.loc 1 163 0
 297 001a C2F3C312 		ubfx	r2, r2, #7, #4
 298              	.LVL12:
 299              	.LBB37:
 300              		.loc 1 175 0
 301 001e 4FF00109 		mov	r9, #1
 302              		.loc 1 177 0
 303 0022 4FF00308 		mov	r8, #3
 304 0026 2BE0     		b	.L10
 305              	.LVL13:
 306              	.L16:
 307              		.loc 1 172 0
 308 0028 D0F820B0 		ldr	fp, [r0, #32]
 309 002c 2BEA0303 		bic	r3, fp, r3
 310              	.LVL14:
 311 0030 43EA0A03 		orr	r3, r3, r10
 312 0034 0362     		str	r3, [r0, #32]
 313              	.L8:
 314              	.LVL15:
 315              		.loc 1 176 0
 316 0036 4368     		ldr	r3, [r0, #4]
 317              		.loc 1 175 0
 318 0038 09FA04FA 		lsl	r10, r9, r4
 319              	.LVL16:
 320              		.loc 1 176 0
 321 003c 23EA0A03 		bic	r3, r3, r10
 322 0040 3B43     		orrs	r3, r3, r7
 323 0042 4360     		str	r3, [r0, #4]
 324              	.LVL17:
 325 0044 4FEA440A 		lsl	r10, r4, #1
 326              		.loc 1 178 0
 327 0048 8368     		ldr	r3, [r0, #8]
 328              		.loc 1 177 0
 329 004a 08FA0AFA 		lsl	r10, r8, r10
 330              		.loc 1 178 0
 331 004e 6FEA0A0A 		mvn	r10, r10
 332 0052 0AEA0303 		and	r3, r10, r3
 333 0056 3343     		orrs	r3, r3, r6
 334 0058 8360     		str	r3, [r0, #8]
 335              		.loc 1 179 0
 336 005a C368     		ldr	r3, [r0, #12]
 337 005c 0AEA0303 		and	r3, r10, r3
 338 0060 2B43     		orrs	r3, r3, r5
 339 0062 C360     		str	r3, [r0, #12]
 340              		.loc 1 180 0
ARM GAS  /tmp/ccUaYBoa.s 			page 7


 341 0064 0368     		ldr	r3, [r0]
 342 0066 0AEA0303 		and	r3, r10, r3
 343 006a 43EA0E03 		orr	r3, r3, lr
 344 006e 0360     		str	r3, [r0]
 345              	.LVL18:
 346              	.L6:
 347              	.LBE37:
 348              		.loc 1 183 0
 349 0070 4908     		lsrs	r1, r1, #1
 350              	.LVL19:
 351 0072 19D0     		beq	.L5
 352              		.loc 1 185 0
 353 0074 7F00     		lsls	r7, r7, #1
 354              	.LVL20:
 355              		.loc 1 186 0
 356 0076 B600     		lsls	r6, r6, #2
 357              	.LVL21:
 358              		.loc 1 187 0
 359 0078 AD00     		lsls	r5, r5, #2
 360              	.LVL22:
 361              		.loc 1 188 0
 362 007a 4FEA8E0E 		lsl	lr, lr, #2
 363              	.LVL23:
 364              		.loc 1 189 0
 365 007e 0134     		adds	r4, r4, #1
 366              	.LVL24:
 367              	.L10:
 368              	.LBB38:
 369              		.loc 1 169 0
 370 0080 04F00703 		and	r3, r4, #7
 371 0084 9B00     		lsls	r3, r3, #2
 372              	.LBE38:
 373              		.loc 1 166 0
 374 0086 11F0010F 		tst	r1, #1
 375              	.LBB39:
 376              		.loc 1 169 0
 377 008a 02FA03FA 		lsl	r10, r2, r3
 378              	.LVL25:
 379              		.loc 1 170 0
 380 008e 0CFA03F3 		lsl	r3, ip, r3
 381              	.LVL26:
 382              	.LBE39:
 383              		.loc 1 166 0
 384 0092 EDD0     		beq	.L6
 385              	.LBB40:
 386              		.loc 1 171 0
 387 0094 072C     		cmp	r4, #7
 388 0096 C7D9     		bls	.L16
 389              		.loc 1 174 0
 390 0098 D0F824B0 		ldr	fp, [r0, #36]
 391 009c 2BEA0303 		bic	r3, fp, r3
 392              	.LVL27:
 393 00a0 43EA0A03 		orr	r3, r3, r10
 394 00a4 4362     		str	r3, [r0, #36]
 395 00a6 C6E7     		b	.L8
 396              	.LVL28:
 397              	.L5:
ARM GAS  /tmp/ccUaYBoa.s 			page 8


 398 00a8 BDE8F08F 		pop	{r4, r5, r6, r7, r8, r9, r10, fp, pc}
 399              	.LBE40:
 400              		.cfi_endproc
 401              	.LFE257:
 402              		.size	_pal_lld_setgroupmode, .-_pal_lld_setgroupmode
 403 00ac AFF30080 		.text
 404              	.Letext0:
 405              		.file 2 "/l/arm2/gcc-arm-none-eabi-4_9-2014q4/arm-none-eabi/include/machine/_default_types.h"
 406              		.file 3 "/l/arm2/gcc-arm-none-eabi-4_9-2014q4/arm-none-eabi/include/stdint.h"
 407              		.file 4 "../ChibiOS/os/rt/ports/ARMCMx/compilers/GCC/chtypes.h"
 408              		.file 5 "../ChibiOS/os/rt/include/chsystypes.h"
 409              		.file 6 "../ChibiOS/os/rt/include/chschd.h"
 410              		.file 7 "../ChibiOS/os/ext/CMSIS/ST/stm32f303xc.h"
 411              		.file 8 "../ChibiOS/os/rt/ports/ARMCMx/chcore.h"
 412              		.file 9 "../ChibiOS/os/rt/ports/ARMCMx/chcore_v7m.h"
 413              		.file 10 "../ChibiOS/os/rt/include/chtm.h"
 414              		.file 11 "../ChibiOS/os/rt/include/chmtx.h"
 415              		.file 12 "../ChibiOS/os/hal/ports/STM32/LLD/GPIOv2/pal_lld.h"
 416              		.file 13 "../ChibiOS/os/ext/CMSIS/include/core_cm4.h"
 417              		.section	.debug_info,"",%progbits
 418              	.Ldebug_info0:
 419 0000 3D0B0000 		.4byte	0xb3d
 420 0004 0400     		.2byte	0x4
 421 0006 00000000 		.4byte	.Ldebug_abbrev0
 422 000a 04       		.byte	0x4
 423 000b 01       		.uleb128 0x1
 424 000c FA030000 		.4byte	.LASF144
 425 0010 01       		.byte	0x1
 426 0011 2C010000 		.4byte	.LASF145
 427 0015 C3000000 		.4byte	.LASF146
 428 0019 A8000000 		.4byte	.Ldebug_ranges0+0xa8
 429 001d 00000000 		.4byte	0
 430 0021 00000000 		.4byte	.Ldebug_line0
 431 0025 02       		.uleb128 0x2
 432 0026 04       		.byte	0x4
 433 0027 05       		.byte	0x5
 434 0028 696E7400 		.ascii	"int\000"
 435 002c 03       		.uleb128 0x3
 436 002d 04       		.byte	0x4
 437 002e 07       		.byte	0x7
 438 002f 0B020000 		.4byte	.LASF0
 439 0033 03       		.uleb128 0x3
 440 0034 01       		.byte	0x1
 441 0035 06       		.byte	0x6
 442 0036 0B010000 		.4byte	.LASF1
 443 003a 04       		.uleb128 0x4
 444 003b 30000000 		.4byte	.LASF4
 445 003f 02       		.byte	0x2
 446 0040 1D       		.byte	0x1d
 447 0041 45000000 		.4byte	0x45
 448 0045 03       		.uleb128 0x3
 449 0046 01       		.byte	0x1
 450 0047 08       		.byte	0x8
 451 0048 B6030000 		.4byte	.LASF2
 452 004c 03       		.uleb128 0x3
 453 004d 02       		.byte	0x2
 454 004e 05       		.byte	0x5
ARM GAS  /tmp/ccUaYBoa.s 			page 9


 455 004f D3030000 		.4byte	.LASF3
 456 0053 04       		.uleb128 0x4
 457 0054 8E050000 		.4byte	.LASF5
 458 0058 02       		.byte	0x2
 459 0059 2B       		.byte	0x2b
 460 005a 5E000000 		.4byte	0x5e
 461 005e 03       		.uleb128 0x3
 462 005f 02       		.byte	0x2
 463 0060 07       		.byte	0x7
 464 0061 51020000 		.4byte	.LASF6
 465 0065 04       		.uleb128 0x4
 466 0066 A9020000 		.4byte	.LASF7
 467 006a 02       		.byte	0x2
 468 006b 3F       		.byte	0x3f
 469 006c 70000000 		.4byte	0x70
 470 0070 03       		.uleb128 0x3
 471 0071 04       		.byte	0x4
 472 0072 05       		.byte	0x5
 473 0073 7B010000 		.4byte	.LASF8
 474 0077 04       		.uleb128 0x4
 475 0078 C7050000 		.4byte	.LASF9
 476 007c 02       		.byte	0x2
 477 007d 41       		.byte	0x41
 478 007e 82000000 		.4byte	0x82
 479 0082 03       		.uleb128 0x3
 480 0083 04       		.byte	0x4
 481 0084 07       		.byte	0x7
 482 0085 66050000 		.4byte	.LASF10
 483 0089 03       		.uleb128 0x3
 484 008a 08       		.byte	0x8
 485 008b 05       		.byte	0x5
 486 008c FD000000 		.4byte	.LASF11
 487 0090 04       		.uleb128 0x4
 488 0091 56030000 		.4byte	.LASF12
 489 0095 02       		.byte	0x2
 490 0096 5B       		.byte	0x5b
 491 0097 9B000000 		.4byte	0x9b
 492 009b 03       		.uleb128 0x3
 493 009c 08       		.byte	0x8
 494 009d 07       		.byte	0x7
 495 009e 6F000000 		.4byte	.LASF13
 496 00a2 04       		.uleb128 0x4
 497 00a3 70060000 		.4byte	.LASF14
 498 00a7 03       		.byte	0x3
 499 00a8 15       		.byte	0x15
 500 00a9 3A000000 		.4byte	0x3a
 501 00ad 04       		.uleb128 0x4
 502 00ae 20020000 		.4byte	.LASF15
 503 00b2 03       		.byte	0x3
 504 00b3 21       		.byte	0x21
 505 00b4 53000000 		.4byte	0x53
 506 00b8 04       		.uleb128 0x4
 507 00b9 AE030000 		.4byte	.LASF16
 508 00bd 03       		.byte	0x3
 509 00be 2C       		.byte	0x2c
 510 00bf 65000000 		.4byte	0x65
 511 00c3 04       		.uleb128 0x4
ARM GAS  /tmp/ccUaYBoa.s 			page 10


 512 00c4 45050000 		.4byte	.LASF17
 513 00c8 03       		.byte	0x3
 514 00c9 2D       		.byte	0x2d
 515 00ca 77000000 		.4byte	0x77
 516 00ce 04       		.uleb128 0x4
 517 00cf 27000000 		.4byte	.LASF18
 518 00d3 03       		.byte	0x3
 519 00d4 39       		.byte	0x39
 520 00d5 90000000 		.4byte	0x90
 521 00d9 05       		.uleb128 0x5
 522 00da B8000000 		.4byte	0xb8
 523 00de 05       		.uleb128 0x5
 524 00df C3000000 		.4byte	0xc3
 525 00e3 04       		.uleb128 0x4
 526 00e4 25060000 		.4byte	.LASF19
 527 00e8 04       		.byte	0x4
 528 00e9 45       		.byte	0x45
 529 00ea C3000000 		.4byte	0xc3
 530 00ee 04       		.uleb128 0x4
 531 00ef 87020000 		.4byte	.LASF20
 532 00f3 04       		.byte	0x4
 533 00f4 48       		.byte	0x48
 534 00f5 A2000000 		.4byte	0xa2
 535 00f9 04       		.uleb128 0x4
 536 00fa 94010000 		.4byte	.LASF21
 537 00fe 04       		.byte	0x4
 538 00ff 49       		.byte	0x49
 539 0100 A2000000 		.4byte	0xa2
 540 0104 04       		.uleb128 0x4
 541 0105 6B030000 		.4byte	.LASF22
 542 0109 04       		.byte	0x4
 543 010a 4A       		.byte	0x4a
 544 010b A2000000 		.4byte	0xa2
 545 010f 04       		.uleb128 0x4
 546 0110 8A030000 		.4byte	.LASF23
 547 0114 04       		.byte	0x4
 548 0115 4C       		.byte	0x4c
 549 0116 C3000000 		.4byte	0xc3
 550 011a 04       		.uleb128 0x4
 551 011b 75020000 		.4byte	.LASF24
 552 011f 04       		.byte	0x4
 553 0120 4D       		.byte	0x4d
 554 0121 B8000000 		.4byte	0xb8
 555 0125 04       		.uleb128 0x4
 556 0126 9D020000 		.4byte	.LASF25
 557 012a 04       		.byte	0x4
 558 012b 4F       		.byte	0x4f
 559 012c C3000000 		.4byte	0xc3
 560 0130 04       		.uleb128 0x4
 561 0131 A9050000 		.4byte	.LASF26
 562 0135 05       		.byte	0x5
 563 0136 33       		.byte	0x33
 564 0137 C3000000 		.4byte	0xc3
 565 013b 04       		.uleb128 0x4
 566 013c 99050000 		.4byte	.LASF27
 567 0140 05       		.byte	0x5
 568 0141 3F       		.byte	0x3f
ARM GAS  /tmp/ccUaYBoa.s 			page 11


 569 0142 46010000 		.4byte	0x146
 570 0146 06       		.uleb128 0x6
 571 0147 6B020000 		.4byte	.LASF46
 572 014b 44       		.byte	0x44
 573 014c 06       		.byte	0x6
 574 014d BE       		.byte	0xbe
 575 014e 33020000 		.4byte	0x233
 576 0152 07       		.uleb128 0x7
 577 0153 FD020000 		.4byte	.LASF28
 578 0157 06       		.byte	0x6
 579 0158 BF       		.byte	0xbf
 580 0159 9B060000 		.4byte	0x69b
 581 015d 00       		.byte	0
 582 015e 07       		.uleb128 0x7
 583 015f 83030000 		.4byte	.LASF29
 584 0163 06       		.byte	0x6
 585 0164 C1       		.byte	0xc1
 586 0165 9B060000 		.4byte	0x69b
 587 0169 04       		.byte	0x4
 588 016a 07       		.uleb128 0x7
 589 016b F6000000 		.4byte	.LASF30
 590 016f 06       		.byte	0x6
 591 0170 C3       		.byte	0xc3
 592 0171 0F010000 		.4byte	0x10f
 593 0175 08       		.byte	0x8
 594 0176 07       		.uleb128 0x7
 595 0177 B9060000 		.4byte	.LASF31
 596 017b 06       		.byte	0x6
 597 017c C4       		.byte	0xc4
 598 017d 1B050000 		.4byte	0x51b
 599 0181 0C       		.byte	0xc
 600 0182 07       		.uleb128 0x7
 601 0183 A6010000 		.4byte	.LASF32
 602 0187 06       		.byte	0x6
 603 0188 C6       		.byte	0xc6
 604 0189 9B060000 		.4byte	0x69b
 605 018d 10       		.byte	0x10
 606 018e 07       		.uleb128 0x7
 607 018f 10030000 		.4byte	.LASF33
 608 0193 06       		.byte	0x6
 609 0194 C7       		.byte	0xc7
 610 0195 9B060000 		.4byte	0x69b
 611 0199 14       		.byte	0x14
 612 019a 07       		.uleb128 0x7
 613 019b 85060000 		.4byte	.LASF34
 614 019f 06       		.byte	0x6
 615 01a0 CE       		.byte	0xce
 616 01a1 D9060000 		.4byte	0x6d9
 617 01a5 18       		.byte	0x18
 618 01a6 07       		.uleb128 0x7
 619 01a7 DD030000 		.4byte	.LASF35
 620 01ab 06       		.byte	0x6
 621 01ac D9       		.byte	0xd9
 622 01ad F9000000 		.4byte	0xf9
 623 01b1 1C       		.byte	0x1c
 624 01b2 07       		.uleb128 0x7
 625 01b3 13050000 		.4byte	.LASF36
ARM GAS  /tmp/ccUaYBoa.s 			page 12


 626 01b7 06       		.byte	0x6
 627 01b8 DD       		.byte	0xdd
 628 01b9 EE000000 		.4byte	0xee
 629 01bd 1D       		.byte	0x1d
 630 01be 07       		.uleb128 0x7
 631 01bf 44060000 		.4byte	.LASF37
 632 01c3 06       		.byte	0x6
 633 01c4 E2       		.byte	0xe2
 634 01c5 04010000 		.4byte	0x104
 635 01c9 1E       		.byte	0x1e
 636 01ca 08       		.uleb128 0x8
 637 01cb 705F7500 		.ascii	"p_u\000"
 638 01cf 06       		.byte	0x6
 639 01d0 1401     		.2byte	0x114
 640 01d2 A1060000 		.4byte	0x6a1
 641 01d6 20       		.byte	0x20
 642 01d7 09       		.uleb128 0x9
 643 01d8 CD020000 		.4byte	.LASF38
 644 01dc 06       		.byte	0x6
 645 01dd 1901     		.2byte	0x119
 646 01df 33020000 		.4byte	0x233
 647 01e3 24       		.byte	0x24
 648 01e4 09       		.uleb128 0x9
 649 01e5 32020000 		.4byte	.LASF39
 650 01e9 06       		.byte	0x6
 651 01ea 1F01     		.2byte	0x11f
 652 01ec 57020000 		.4byte	0x257
 653 01f0 28       		.byte	0x28
 654 01f1 09       		.uleb128 0x9
 655 01f2 98060000 		.4byte	.LASF40
 656 01f6 06       		.byte	0x6
 657 01f7 2301     		.2byte	0x123
 658 01f9 1A010000 		.4byte	0x11a
 659 01fd 30       		.byte	0x30
 660 01fe 09       		.uleb128 0x9
 661 01ff 3A050000 		.4byte	.LASF41
 662 0203 06       		.byte	0x6
 663 0204 2901     		.2byte	0x129
 664 0206 25010000 		.4byte	0x125
 665 020a 34       		.byte	0x34
 666 020b 09       		.uleb128 0x9
 667 020c C9030000 		.4byte	.LASF42
 668 0210 06       		.byte	0x6
 669 0211 3001     		.2byte	0x130
 670 0213 1C070000 		.4byte	0x71c
 671 0217 38       		.byte	0x38
 672 0218 09       		.uleb128 0x9
 673 0219 B3050000 		.4byte	.LASF43
 674 021d 06       		.byte	0x6
 675 021e 3401     		.2byte	0x134
 676 0220 0F010000 		.4byte	0x10f
 677 0224 3C       		.byte	0x3c
 678 0225 09       		.uleb128 0x9
 679 0226 1C010000 		.4byte	.LASF44
 680 022a 06       		.byte	0x6
 681 022b 3A01     		.2byte	0x13a
 682 022d 0A030000 		.4byte	0x30a
ARM GAS  /tmp/ccUaYBoa.s 			page 13


 683 0231 40       		.byte	0x40
 684 0232 00       		.byte	0
 685 0233 04       		.uleb128 0x4
 686 0234 BE020000 		.4byte	.LASF45
 687 0238 05       		.byte	0x5
 688 0239 44       		.byte	0x44
 689 023a 3E020000 		.4byte	0x23e
 690 023e 06       		.uleb128 0x6
 691 023f 56050000 		.4byte	.LASF47
 692 0243 04       		.byte	0x4
 693 0244 06       		.byte	0x6
 694 0245 AC       		.byte	0xac
 695 0246 57020000 		.4byte	0x257
 696 024a 07       		.uleb128 0x7
 697 024b FD020000 		.4byte	.LASF28
 698 024f 06       		.byte	0x6
 699 0250 AD       		.byte	0xad
 700 0251 9B060000 		.4byte	0x69b
 701 0255 00       		.byte	0
 702 0256 00       		.byte	0
 703 0257 04       		.uleb128 0x4
 704 0258 34060000 		.4byte	.LASF48
 705 025c 05       		.byte	0x5
 706 025d 4B       		.byte	0x4b
 707 025e 62020000 		.4byte	0x262
 708 0262 06       		.uleb128 0x6
 709 0263 E5000000 		.4byte	.LASF49
 710 0267 08       		.byte	0x8
 711 0268 06       		.byte	0x6
 712 0269 B3       		.byte	0xb3
 713 026a 87020000 		.4byte	0x287
 714 026e 07       		.uleb128 0x7
 715 026f FD020000 		.4byte	.LASF28
 716 0273 06       		.byte	0x6
 717 0274 B4       		.byte	0xb4
 718 0275 9B060000 		.4byte	0x69b
 719 0279 00       		.byte	0
 720 027a 07       		.uleb128 0x7
 721 027b 83030000 		.4byte	.LASF29
 722 027f 06       		.byte	0x6
 723 0280 B5       		.byte	0xb5
 724 0281 9B060000 		.4byte	0x69b
 725 0285 04       		.byte	0x4
 726 0286 00       		.byte	0
 727 0287 04       		.uleb128 0x4
 728 0288 13000000 		.4byte	.LASF50
 729 028c 05       		.byte	0x5
 730 028d 52       		.byte	0x52
 731 028e 92020000 		.4byte	0x292
 732 0292 0A       		.uleb128 0xa
 733 0293 8F020000 		.4byte	.LASF51
 734 0297 1C       		.byte	0x1c
 735 0298 06       		.byte	0x6
 736 0299 7201     		.2byte	0x172
 737 029b EE020000 		.4byte	0x2ee
 738 029f 09       		.uleb128 0x9
 739 02a0 4E050000 		.4byte	.LASF52
ARM GAS  /tmp/ccUaYBoa.s 			page 14


 740 02a4 06       		.byte	0x6
 741 02a5 7301     		.2byte	0x173
 742 02a7 57020000 		.4byte	0x257
 743 02ab 00       		.byte	0
 744 02ac 09       		.uleb128 0x9
 745 02ad E5030000 		.4byte	.LASF53
 746 02b1 06       		.byte	0x6
 747 02b2 7401     		.2byte	0x174
 748 02b4 0F010000 		.4byte	0x10f
 749 02b8 08       		.byte	0x8
 750 02b9 09       		.uleb128 0x9
 751 02ba 18030000 		.4byte	.LASF54
 752 02be 06       		.byte	0x6
 753 02bf 7601     		.2byte	0x176
 754 02c1 1B050000 		.4byte	0x51b
 755 02c5 0C       		.byte	0xc
 756 02c6 09       		.uleb128 0x9
 757 02c7 B6010000 		.4byte	.LASF55
 758 02cb 06       		.byte	0x6
 759 02cc 7901     		.2byte	0x179
 760 02ce 9B060000 		.4byte	0x69b
 761 02d2 10       		.byte	0x10
 762 02d3 09       		.uleb128 0x9
 763 02d4 07060000 		.4byte	.LASF56
 764 02d8 06       		.byte	0x6
 765 02d9 7A01     		.2byte	0x17a
 766 02db 9B060000 		.4byte	0x69b
 767 02df 14       		.byte	0x14
 768 02e0 09       		.uleb128 0x9
 769 02e1 43030000 		.4byte	.LASF57
 770 02e5 06       		.byte	0x6
 771 02e6 7D01     		.2byte	0x17d
 772 02e8 9B060000 		.4byte	0x69b
 773 02ec 18       		.byte	0x18
 774 02ed 00       		.byte	0
 775 02ee 04       		.uleb128 0x4
 776 02ef BE050000 		.4byte	.LASF58
 777 02f3 05       		.byte	0x5
 778 02f4 57       		.byte	0x57
 779 02f5 F9020000 		.4byte	0x2f9
 780 02f9 0B       		.uleb128 0xb
 781 02fa 04       		.byte	0x4
 782 02fb FF020000 		.4byte	0x2ff
 783 02ff 0C       		.uleb128 0xc
 784 0300 0A030000 		.4byte	0x30a
 785 0304 0D       		.uleb128 0xd
 786 0305 0A030000 		.4byte	0x30a
 787 0309 00       		.byte	0
 788 030a 0E       		.uleb128 0xe
 789 030b 04       		.byte	0x4
 790 030c 04       		.uleb128 0x4
 791 030d 73030000 		.4byte	.LASF59
 792 0311 05       		.byte	0x5
 793 0312 5C       		.byte	0x5c
 794 0313 17030000 		.4byte	0x317
 795 0317 0A       		.uleb128 0xa
 796 0318 29050000 		.4byte	.LASF60
ARM GAS  /tmp/ccUaYBoa.s 			page 15


 797 031c 14       		.byte	0x14
 798 031d 06       		.byte	0x6
 799 031e 4D01     		.2byte	0x14d
 800 0320 66030000 		.4byte	0x366
 801 0324 09       		.uleb128 0x9
 802 0325 18020000 		.4byte	.LASF61
 803 0329 06       		.byte	0x6
 804 032a 4E01     		.2byte	0x14e
 805 032c 22070000 		.4byte	0x722
 806 0330 00       		.byte	0
 807 0331 09       		.uleb128 0x9
 808 0332 CC010000 		.4byte	.LASF62
 809 0336 06       		.byte	0x6
 810 0337 4F01     		.2byte	0x14f
 811 0339 22070000 		.4byte	0x722
 812 033d 04       		.byte	0x4
 813 033e 09       		.uleb128 0x9
 814 033f 29020000 		.4byte	.LASF63
 815 0343 06       		.byte	0x6
 816 0344 5001     		.2byte	0x150
 817 0346 30010000 		.4byte	0x130
 818 034a 08       		.byte	0x8
 819 034b 09       		.uleb128 0x9
 820 034c BF060000 		.4byte	.LASF64
 821 0350 06       		.byte	0x6
 822 0351 5101     		.2byte	0x151
 823 0353 EE020000 		.4byte	0x2ee
 824 0357 0C       		.byte	0xc
 825 0358 09       		.uleb128 0x9
 826 0359 2D060000 		.4byte	.LASF65
 827 035d 06       		.byte	0x6
 828 035e 5301     		.2byte	0x153
 829 0360 0A030000 		.4byte	0x30a
 830 0364 10       		.byte	0x10
 831 0365 00       		.byte	0
 832 0366 04       		.uleb128 0x4
 833 0367 A0000000 		.4byte	.LASF66
 834 036b 05       		.byte	0x5
 835 036c 61       		.byte	0x61
 836 036d 71030000 		.4byte	0x371
 837 0371 0A       		.uleb128 0xa
 838 0372 E0020000 		.4byte	.LASF67
 839 0376 10       		.byte	0x10
 840 0377 06       		.byte	0x6
 841 0378 5D01     		.2byte	0x15d
 842 037a B3030000 		.4byte	0x3b3
 843 037e 09       		.uleb128 0x9
 844 037f 18020000 		.4byte	.LASF61
 845 0383 06       		.byte	0x6
 846 0384 5E01     		.2byte	0x15e
 847 0386 22070000 		.4byte	0x722
 848 038a 00       		.byte	0
 849 038b 09       		.uleb128 0x9
 850 038c CC010000 		.4byte	.LASF62
 851 0390 06       		.byte	0x6
 852 0391 6001     		.2byte	0x160
 853 0393 22070000 		.4byte	0x722
ARM GAS  /tmp/ccUaYBoa.s 			page 16


 854 0397 04       		.byte	0x4
 855 0398 09       		.uleb128 0x9
 856 0399 29020000 		.4byte	.LASF63
 857 039d 06       		.byte	0x6
 858 039e 6201     		.2byte	0x162
 859 03a0 30010000 		.4byte	0x130
 860 03a4 08       		.byte	0x8
 861 03a5 09       		.uleb128 0x9
 862 03a6 04030000 		.4byte	.LASF68
 863 03aa 06       		.byte	0x6
 864 03ab 6A01     		.2byte	0x16a
 865 03ad 30010000 		.4byte	0x130
 866 03b1 0C       		.byte	0xc
 867 03b2 00       		.byte	0
 868 03b3 04       		.uleb128 0x4
 869 03b4 4D000000 		.4byte	.LASF69
 870 03b8 05       		.byte	0x5
 871 03b9 66       		.byte	0x66
 872 03ba BE030000 		.4byte	0x3be
 873 03be 0A       		.uleb128 0xa
 874 03bf 98030000 		.4byte	.LASF70
 875 03c3 04       		.byte	0x4
 876 03c4 06       		.byte	0x6
 877 03c5 8401     		.2byte	0x184
 878 03c7 D9030000 		.4byte	0x3d9
 879 03cb 09       		.uleb128 0x9
 880 03cc DB050000 		.4byte	.LASF71
 881 03d0 06       		.byte	0x6
 882 03d1 8C01     		.2byte	0x18c
 883 03d3 28070000 		.4byte	0x728
 884 03d7 00       		.byte	0
 885 03d8 00       		.byte	0
 886 03d9 04       		.uleb128 0x4
 887 03da 7B020000 		.4byte	.LASF72
 888 03de 05       		.byte	0x5
 889 03df 6B       		.byte	0x6b
 890 03e0 E4030000 		.4byte	0x3e4
 891 03e4 0F       		.uleb128 0xf
 892 03e5 71010000 		.4byte	.LASF73
 893 03e9 D801     		.2byte	0x1d8
 894 03eb 06       		.byte	0x6
 895 03ec A401     		.2byte	0x1a4
 896 03ee 40040000 		.4byte	0x440
 897 03f2 09       		.uleb128 0x9
 898 03f3 5E060000 		.4byte	.LASF74
 899 03f7 06       		.byte	0x6
 900 03f8 A801     		.2byte	0x1a8
 901 03fa 87020000 		.4byte	0x287
 902 03fe 00       		.byte	0
 903 03ff 09       		.uleb128 0x9
 904 0400 D4010000 		.4byte	.LASF75
 905 0404 06       		.byte	0x6
 906 0405 AC01     		.2byte	0x1ac
 907 0407 66030000 		.4byte	0x366
 908 040b 1C       		.byte	0x1c
 909 040c 08       		.uleb128 0x8
 910 040d 64626700 		.ascii	"dbg\000"
ARM GAS  /tmp/ccUaYBoa.s 			page 17


 911 0411 06       		.byte	0x6
 912 0412 B001     		.2byte	0x1b0
 913 0414 B3030000 		.4byte	0x3b3
 914 0418 2C       		.byte	0x2c
 915 0419 09       		.uleb128 0x9
 916 041a 95000000 		.4byte	.LASF76
 917 041e 06       		.byte	0x6
 918 041f B401     		.2byte	0x1b4
 919 0421 3B010000 		.4byte	0x13b
 920 0425 30       		.byte	0x30
 921 0426 08       		.uleb128 0x8
 922 0427 746D00   		.ascii	"tm\000"
 923 042a 06       		.byte	0x6
 924 042b B901     		.2byte	0x1b9
 925 042d 90060000 		.4byte	0x690
 926 0431 74       		.byte	0x74
 927 0432 09       		.uleb128 0x9
 928 0433 FC010000 		.4byte	.LASF77
 929 0437 06       		.byte	0x6
 930 0438 C501     		.2byte	0x1c5
 931 043a 2D070000 		.4byte	0x72d
 932 043e 78       		.byte	0x78
 933 043f 00       		.byte	0
 934 0440 03       		.uleb128 0x3
 935 0441 04       		.byte	0x4
 936 0442 07       		.byte	0x7
 937 0443 D7020000 		.4byte	.LASF78
 938 0447 10       		.uleb128 0x10
 939 0448 34       		.byte	0x34
 940 0449 07       		.byte	0x7
 941 044a FC01     		.2byte	0x1fc
 942 044c F9040000 		.4byte	0x4f9
 943 0450 08       		.uleb128 0x8
 944 0451 435200   		.ascii	"CR\000"
 945 0454 07       		.byte	0x7
 946 0455 FE01     		.2byte	0x1fe
 947 0457 DE000000 		.4byte	0xde
 948 045b 00       		.byte	0
 949 045c 09       		.uleb128 0x9
 950 045d 93060000 		.4byte	.LASF79
 951 0461 07       		.byte	0x7
 952 0462 FF01     		.2byte	0x1ff
 953 0464 DE000000 		.4byte	0xde
 954 0468 04       		.byte	0x4
 955 0469 08       		.uleb128 0x8
 956 046a 43495200 		.ascii	"CIR\000"
 957 046e 07       		.byte	0x7
 958 046f 0002     		.2byte	0x200
 959 0471 DE000000 		.4byte	0xde
 960 0475 08       		.byte	0x8
 961 0476 09       		.uleb128 0x9
 962 0477 8B010000 		.4byte	.LASF80
 963 047b 07       		.byte	0x7
 964 047c 0102     		.2byte	0x201
 965 047e DE000000 		.4byte	0xde
 966 0482 0C       		.byte	0xc
 967 0483 09       		.uleb128 0x9
ARM GAS  /tmp/ccUaYBoa.s 			page 18


 968 0484 4D030000 		.4byte	.LASF81
 969 0488 07       		.byte	0x7
 970 0489 0202     		.2byte	0x202
 971 048b DE000000 		.4byte	0xde
 972 048f 10       		.byte	0x10
 973 0490 09       		.uleb128 0x9
 974 0491 C7060000 		.4byte	.LASF82
 975 0495 07       		.byte	0x7
 976 0496 0302     		.2byte	0x203
 977 0498 DE000000 		.4byte	0xde
 978 049c 14       		.byte	0x14
 979 049d 09       		.uleb128 0x9
 980 049e 21050000 		.4byte	.LASF83
 981 04a2 07       		.byte	0x7
 982 04a3 0402     		.2byte	0x204
 983 04a5 DE000000 		.4byte	0xde
 984 04a9 18       		.byte	0x18
 985 04aa 09       		.uleb128 0x9
 986 04ab EC050000 		.4byte	.LASF84
 987 04af 07       		.byte	0x7
 988 04b0 0502     		.2byte	0x205
 989 04b2 DE000000 		.4byte	0xde
 990 04b6 1C       		.byte	0x1c
 991 04b7 09       		.uleb128 0x9
 992 04b8 59060000 		.4byte	.LASF85
 993 04bc 07       		.byte	0x7
 994 04bd 0602     		.2byte	0x206
 995 04bf DE000000 		.4byte	0xde
 996 04c3 20       		.byte	0x20
 997 04c4 08       		.uleb128 0x8
 998 04c5 43535200 		.ascii	"CSR\000"
 999 04c9 07       		.byte	0x7
 1000 04ca 0702     		.2byte	0x207
 1001 04cc DE000000 		.4byte	0xde
 1002 04d0 24       		.byte	0x24
 1003 04d1 09       		.uleb128 0x9
 1004 04d2 34030000 		.4byte	.LASF86
 1005 04d6 07       		.byte	0x7
 1006 04d7 0802     		.2byte	0x208
 1007 04d9 DE000000 		.4byte	0xde
 1008 04dd 28       		.byte	0x28
 1009 04de 09       		.uleb128 0x9
 1010 04df 64060000 		.4byte	.LASF87
 1011 04e3 07       		.byte	0x7
 1012 04e4 0902     		.2byte	0x209
 1013 04e6 DE000000 		.4byte	0xde
 1014 04ea 2C       		.byte	0x2c
 1015 04eb 09       		.uleb128 0x9
 1016 04ec 6A060000 		.4byte	.LASF88
 1017 04f0 07       		.byte	0x7
 1018 04f1 0A02     		.2byte	0x20a
 1019 04f3 DE000000 		.4byte	0xde
 1020 04f7 30       		.byte	0x30
 1021 04f8 00       		.byte	0
 1022 04f9 11       		.uleb128 0x11
 1023 04fa 65010000 		.4byte	.LASF89
 1024 04fe 07       		.byte	0x7
ARM GAS  /tmp/ccUaYBoa.s 			page 19


 1025 04ff 0B02     		.2byte	0x20b
 1026 0501 47040000 		.4byte	0x447
 1027 0505 04       		.uleb128 0x4
 1028 0506 C3010000 		.4byte	.LASF90
 1029 050a 08       		.byte	0x8
 1030 050b 85       		.byte	0x85
 1031 050c 0A030000 		.4byte	0x30a
 1032 0510 04       		.uleb128 0x4
 1033 0511 B3020000 		.4byte	.LASF91
 1034 0515 08       		.byte	0x8
 1035 0516 8D       		.byte	0x8d
 1036 0517 CE000000 		.4byte	0xce
 1037 051b 06       		.uleb128 0x6
 1038 051c FF050000 		.4byte	.LASF92
 1039 0520 04       		.byte	0x4
 1040 0521 08       		.byte	0x8
 1041 0522 A9       		.byte	0xa9
 1042 0523 34050000 		.4byte	0x534
 1043 0527 12       		.uleb128 0x12
 1044 0528 72313300 		.ascii	"r13\000"
 1045 052c 08       		.byte	0x8
 1046 052d AA       		.byte	0xaa
 1047 052e 75060000 		.4byte	0x675
 1048 0532 00       		.byte	0
 1049 0533 00       		.byte	0
 1050 0534 06       		.uleb128 0x6
 1051 0535 41000000 		.4byte	.LASF93
 1052 0539 64       		.byte	0x64
 1053 053a 09       		.byte	0x9
 1054 053b F4       		.byte	0xf4
 1055 053c 75060000 		.4byte	0x675
 1056 0540 12       		.uleb128 0x12
 1057 0541 73313600 		.ascii	"s16\000"
 1058 0545 09       		.byte	0x9
 1059 0546 F6       		.byte	0xf6
 1060 0547 05050000 		.4byte	0x505
 1061 054b 00       		.byte	0
 1062 054c 12       		.uleb128 0x12
 1063 054d 73313700 		.ascii	"s17\000"
 1064 0551 09       		.byte	0x9
 1065 0552 F7       		.byte	0xf7
 1066 0553 05050000 		.4byte	0x505
 1067 0557 04       		.byte	0x4
 1068 0558 12       		.uleb128 0x12
 1069 0559 73313800 		.ascii	"s18\000"
 1070 055d 09       		.byte	0x9
 1071 055e F8       		.byte	0xf8
 1072 055f 05050000 		.4byte	0x505
 1073 0563 08       		.byte	0x8
 1074 0564 12       		.uleb128 0x12
 1075 0565 73313900 		.ascii	"s19\000"
 1076 0569 09       		.byte	0x9
 1077 056a F9       		.byte	0xf9
 1078 056b 05050000 		.4byte	0x505
 1079 056f 0C       		.byte	0xc
 1080 0570 12       		.uleb128 0x12
 1081 0571 73323000 		.ascii	"s20\000"
ARM GAS  /tmp/ccUaYBoa.s 			page 20


 1082 0575 09       		.byte	0x9
 1083 0576 FA       		.byte	0xfa
 1084 0577 05050000 		.4byte	0x505
 1085 057b 10       		.byte	0x10
 1086 057c 12       		.uleb128 0x12
 1087 057d 73323100 		.ascii	"s21\000"
 1088 0581 09       		.byte	0x9
 1089 0582 FB       		.byte	0xfb
 1090 0583 05050000 		.4byte	0x505
 1091 0587 14       		.byte	0x14
 1092 0588 12       		.uleb128 0x12
 1093 0589 73323200 		.ascii	"s22\000"
 1094 058d 09       		.byte	0x9
 1095 058e FC       		.byte	0xfc
 1096 058f 05050000 		.4byte	0x505
 1097 0593 18       		.byte	0x18
 1098 0594 12       		.uleb128 0x12
 1099 0595 73323300 		.ascii	"s23\000"
 1100 0599 09       		.byte	0x9
 1101 059a FD       		.byte	0xfd
 1102 059b 05050000 		.4byte	0x505
 1103 059f 1C       		.byte	0x1c
 1104 05a0 12       		.uleb128 0x12
 1105 05a1 73323400 		.ascii	"s24\000"
 1106 05a5 09       		.byte	0x9
 1107 05a6 FE       		.byte	0xfe
 1108 05a7 05050000 		.4byte	0x505
 1109 05ab 20       		.byte	0x20
 1110 05ac 12       		.uleb128 0x12
 1111 05ad 73323500 		.ascii	"s25\000"
 1112 05b1 09       		.byte	0x9
 1113 05b2 FF       		.byte	0xff
 1114 05b3 05050000 		.4byte	0x505
 1115 05b7 24       		.byte	0x24
 1116 05b8 08       		.uleb128 0x8
 1117 05b9 73323600 		.ascii	"s26\000"
 1118 05bd 09       		.byte	0x9
 1119 05be 0001     		.2byte	0x100
 1120 05c0 05050000 		.4byte	0x505
 1121 05c4 28       		.byte	0x28
 1122 05c5 08       		.uleb128 0x8
 1123 05c6 73323700 		.ascii	"s27\000"
 1124 05ca 09       		.byte	0x9
 1125 05cb 0101     		.2byte	0x101
 1126 05cd 05050000 		.4byte	0x505
 1127 05d1 2C       		.byte	0x2c
 1128 05d2 08       		.uleb128 0x8
 1129 05d3 73323800 		.ascii	"s28\000"
 1130 05d7 09       		.byte	0x9
 1131 05d8 0201     		.2byte	0x102
 1132 05da 05050000 		.4byte	0x505
 1133 05de 30       		.byte	0x30
 1134 05df 08       		.uleb128 0x8
 1135 05e0 73323900 		.ascii	"s29\000"
 1136 05e4 09       		.byte	0x9
 1137 05e5 0301     		.2byte	0x103
 1138 05e7 05050000 		.4byte	0x505
ARM GAS  /tmp/ccUaYBoa.s 			page 21


 1139 05eb 34       		.byte	0x34
 1140 05ec 08       		.uleb128 0x8
 1141 05ed 73333000 		.ascii	"s30\000"
 1142 05f1 09       		.byte	0x9
 1143 05f2 0401     		.2byte	0x104
 1144 05f4 05050000 		.4byte	0x505
 1145 05f8 38       		.byte	0x38
 1146 05f9 08       		.uleb128 0x8
 1147 05fa 73333100 		.ascii	"s31\000"
 1148 05fe 09       		.byte	0x9
 1149 05ff 0501     		.2byte	0x105
 1150 0601 05050000 		.4byte	0x505
 1151 0605 3C       		.byte	0x3c
 1152 0606 08       		.uleb128 0x8
 1153 0607 723400   		.ascii	"r4\000"
 1154 060a 09       		.byte	0x9
 1155 060b 0701     		.2byte	0x107
 1156 060d 05050000 		.4byte	0x505
 1157 0611 40       		.byte	0x40
 1158 0612 08       		.uleb128 0x8
 1159 0613 723500   		.ascii	"r5\000"
 1160 0616 09       		.byte	0x9
 1161 0617 0801     		.2byte	0x108
 1162 0619 05050000 		.4byte	0x505
 1163 061d 44       		.byte	0x44
 1164 061e 08       		.uleb128 0x8
 1165 061f 723600   		.ascii	"r6\000"
 1166 0622 09       		.byte	0x9
 1167 0623 0901     		.2byte	0x109
 1168 0625 05050000 		.4byte	0x505
 1169 0629 48       		.byte	0x48
 1170 062a 08       		.uleb128 0x8
 1171 062b 723700   		.ascii	"r7\000"
 1172 062e 09       		.byte	0x9
 1173 062f 0A01     		.2byte	0x10a
 1174 0631 05050000 		.4byte	0x505
 1175 0635 4C       		.byte	0x4c
 1176 0636 08       		.uleb128 0x8
 1177 0637 723800   		.ascii	"r8\000"
 1178 063a 09       		.byte	0x9
 1179 063b 0B01     		.2byte	0x10b
 1180 063d 05050000 		.4byte	0x505
 1181 0641 50       		.byte	0x50
 1182 0642 08       		.uleb128 0x8
 1183 0643 723900   		.ascii	"r9\000"
 1184 0646 09       		.byte	0x9
 1185 0647 0C01     		.2byte	0x10c
 1186 0649 05050000 		.4byte	0x505
 1187 064d 54       		.byte	0x54
 1188 064e 08       		.uleb128 0x8
 1189 064f 72313000 		.ascii	"r10\000"
 1190 0653 09       		.byte	0x9
 1191 0654 0D01     		.2byte	0x10d
 1192 0656 05050000 		.4byte	0x505
 1193 065a 58       		.byte	0x58
 1194 065b 08       		.uleb128 0x8
 1195 065c 72313100 		.ascii	"r11\000"
ARM GAS  /tmp/ccUaYBoa.s 			page 22


 1196 0660 09       		.byte	0x9
 1197 0661 0E01     		.2byte	0x10e
 1198 0663 05050000 		.4byte	0x505
 1199 0667 5C       		.byte	0x5c
 1200 0668 08       		.uleb128 0x8
 1201 0669 6C7200   		.ascii	"lr\000"
 1202 066c 09       		.byte	0x9
 1203 066d 0F01     		.2byte	0x10f
 1204 066f 05050000 		.4byte	0x505
 1205 0673 60       		.byte	0x60
 1206 0674 00       		.byte	0
 1207 0675 0B       		.uleb128 0xb
 1208 0676 04       		.byte	0x4
 1209 0677 34050000 		.4byte	0x534
 1210 067b 13       		.uleb128 0x13
 1211 067c 04       		.byte	0x4
 1212 067d 0A       		.byte	0xa
 1213 067e 38       		.byte	0x38
 1214 067f 90060000 		.4byte	0x690
 1215 0683 07       		.uleb128 0x7
 1216 0684 E5050000 		.4byte	.LASF94
 1217 0688 0A       		.byte	0xa
 1218 0689 3C       		.byte	0x3c
 1219 068a E3000000 		.4byte	0xe3
 1220 068e 00       		.byte	0
 1221 068f 00       		.byte	0
 1222 0690 04       		.uleb128 0x4
 1223 0691 1E030000 		.4byte	.LASF95
 1224 0695 0A       		.byte	0xa
 1225 0696 3D       		.byte	0x3d
 1226 0697 7B060000 		.4byte	0x67b
 1227 069b 0B       		.uleb128 0xb
 1228 069c 04       		.byte	0x4
 1229 069d 3B010000 		.4byte	0x13b
 1230 06a1 14       		.uleb128 0x14
 1231 06a2 04       		.byte	0x4
 1232 06a3 06       		.byte	0x6
 1233 06a4 F6       		.byte	0xf6
 1234 06a5 D9060000 		.4byte	0x6d9
 1235 06a9 15       		.uleb128 0x15
 1236 06aa 20000000 		.4byte	.LASF96
 1237 06ae 06       		.byte	0x6
 1238 06af FD       		.byte	0xfd
 1239 06b0 1A010000 		.4byte	0x11a
 1240 06b4 16       		.uleb128 0x16
 1241 06b5 8C000000 		.4byte	.LASF97
 1242 06b9 06       		.byte	0x6
 1243 06ba 0401     		.2byte	0x104
 1244 06bc 1A010000 		.4byte	0x11a
 1245 06c0 16       		.uleb128 0x16
 1246 06c1 7E060000 		.4byte	.LASF98
 1247 06c5 06       		.byte	0x6
 1248 06c6 0B01     		.2byte	0x10b
 1249 06c8 0A030000 		.4byte	0x30a
 1250 06cc 16       		.uleb128 0x16
 1251 06cd F3030000 		.4byte	.LASF99
 1252 06d1 06       		.byte	0x6
ARM GAS  /tmp/ccUaYBoa.s 			page 23


 1253 06d2 1201     		.2byte	0x112
 1254 06d4 25010000 		.4byte	0x125
 1255 06d8 00       		.byte	0
 1256 06d9 0B       		.uleb128 0xb
 1257 06da 04       		.byte	0x4
 1258 06db DF060000 		.4byte	0x6df
 1259 06df 17       		.uleb128 0x17
 1260 06e0 E4060000 		.4byte	0x6e4
 1261 06e4 03       		.uleb128 0x3
 1262 06e5 01       		.byte	0x1
 1263 06e6 08       		.byte	0x8
 1264 06e7 7D050000 		.4byte	.LASF100
 1265 06eb 06       		.uleb128 0x6
 1266 06ec 92030000 		.4byte	.LASF101
 1267 06f0 10       		.byte	0x10
 1268 06f1 0B       		.byte	0xb
 1269 06f2 39       		.byte	0x39
 1270 06f3 1C070000 		.4byte	0x71c
 1271 06f7 07       		.uleb128 0x7
 1272 06f8 24010000 		.4byte	.LASF102
 1273 06fc 0B       		.byte	0xb
 1274 06fd 3A       		.byte	0x3a
 1275 06fe 57020000 		.4byte	0x257
 1276 0702 00       		.byte	0
 1277 0703 07       		.uleb128 0x7
 1278 0704 B1060000 		.4byte	.LASF103
 1279 0708 0B       		.byte	0xb
 1280 0709 3C       		.byte	0x3c
 1281 070a 9B060000 		.4byte	0x69b
 1282 070e 08       		.byte	0x8
 1283 070f 07       		.uleb128 0x7
 1284 0710 A2050000 		.4byte	.LASF104
 1285 0714 0B       		.byte	0xb
 1286 0715 3E       		.byte	0x3e
 1287 0716 48070000 		.4byte	0x748
 1288 071a 0C       		.byte	0xc
 1289 071b 00       		.byte	0
 1290 071c 0B       		.uleb128 0xb
 1291 071d 04       		.byte	0x4
 1292 071e EB060000 		.4byte	0x6eb
 1293 0722 0B       		.uleb128 0xb
 1294 0723 04       		.byte	0x4
 1295 0724 0C030000 		.4byte	0x30c
 1296 0728 05       		.uleb128 0x5
 1297 0729 D9060000 		.4byte	0x6d9
 1298 072d 18       		.uleb128 0x18
 1299 072e 10050000 		.4byte	0x510
 1300 0732 3D070000 		.4byte	0x73d
 1301 0736 19       		.uleb128 0x19
 1302 0737 40040000 		.4byte	0x440
 1303 073b 2B       		.byte	0x2b
 1304 073c 00       		.byte	0
 1305 073d 04       		.uleb128 0x4
 1306 073e ED010000 		.4byte	.LASF105
 1307 0742 0B       		.byte	0xb
 1308 0743 34       		.byte	0x34
 1309 0744 EB060000 		.4byte	0x6eb
ARM GAS  /tmp/ccUaYBoa.s 			page 24


 1310 0748 0B       		.uleb128 0xb
 1311 0749 04       		.byte	0x4
 1312 074a 3D070000 		.4byte	0x73d
 1313 074e 03       		.uleb128 0x3
 1314 074f 01       		.byte	0x1
 1315 0750 02       		.byte	0x2
 1316 0751 A8030000 		.4byte	.LASF106
 1317 0755 13       		.uleb128 0x13
 1318 0756 04       		.byte	0x4
 1319 0757 0C       		.byte	0xc
 1320 0758 B3       		.byte	0xb3
 1321 0759 76070000 		.4byte	0x776
 1322 075d 12       		.uleb128 0x12
 1323 075e 73657400 		.ascii	"set\000"
 1324 0762 0C       		.byte	0xc
 1325 0763 B4       		.byte	0xb4
 1326 0764 AD000000 		.4byte	0xad
 1327 0768 00       		.byte	0
 1328 0769 07       		.uleb128 0x7
 1329 076a F7020000 		.4byte	.LASF107
 1330 076e 0C       		.byte	0xc
 1331 076f B5       		.byte	0xb5
 1332 0770 AD000000 		.4byte	0xad
 1333 0774 02       		.byte	0x2
 1334 0775 00       		.byte	0
 1335 0776 14       		.uleb128 0x14
 1336 0777 04       		.byte	0x4
 1337 0778 0C       		.byte	0xc
 1338 0779 B1       		.byte	0xb1
 1339 077a 91070000 		.4byte	0x791
 1340 077e 1A       		.uleb128 0x1a
 1341 077f 5700     		.ascii	"W\000"
 1342 0781 0C       		.byte	0xc
 1343 0782 B2       		.byte	0xb2
 1344 0783 C3000000 		.4byte	0xc3
 1345 0787 1A       		.uleb128 0x1a
 1346 0788 4800     		.ascii	"H\000"
 1347 078a 0C       		.byte	0xc
 1348 078b B6       		.byte	0xb6
 1349 078c 55070000 		.4byte	0x755
 1350 0790 00       		.byte	0
 1351 0791 13       		.uleb128 0x13
 1352 0792 2C       		.byte	0x2c
 1353 0793 0C       		.byte	0xc
 1354 0794 A9       		.byte	0xa9
 1355 0795 1E080000 		.4byte	0x81e
 1356 0799 07       		.uleb128 0x7
 1357 079a 69000000 		.4byte	.LASF108
 1358 079e 0C       		.byte	0xc
 1359 079f AB       		.byte	0xab
 1360 07a0 DE000000 		.4byte	0xde
 1361 07a4 00       		.byte	0
 1362 07a5 07       		.uleb128 0x7
 1363 07a6 3A000000 		.4byte	.LASF109
 1364 07aa 0C       		.byte	0xc
 1365 07ab AC       		.byte	0xac
 1366 07ac DE000000 		.4byte	0xde
ARM GAS  /tmp/ccUaYBoa.s 			page 25


 1367 07b0 04       		.byte	0x4
 1368 07b1 07       		.uleb128 0x7
 1369 07b2 AE010000 		.4byte	.LASF110
 1370 07b6 0C       		.byte	0xc
 1371 07b7 AD       		.byte	0xad
 1372 07b8 DE000000 		.4byte	0xde
 1373 07bc 08       		.byte	0x8
 1374 07bd 07       		.uleb128 0x7
 1375 07be 86000000 		.4byte	.LASF111
 1376 07c2 0C       		.byte	0xc
 1377 07c3 AE       		.byte	0xae
 1378 07c4 DE000000 		.4byte	0xde
 1379 07c8 0C       		.byte	0xc
 1380 07c9 12       		.uleb128 0x12
 1381 07ca 49445200 		.ascii	"IDR\000"
 1382 07ce 0C       		.byte	0xc
 1383 07cf AF       		.byte	0xaf
 1384 07d0 DE000000 		.4byte	0xde
 1385 07d4 10       		.byte	0x10
 1386 07d5 12       		.uleb128 0x12
 1387 07d6 4F445200 		.ascii	"ODR\000"
 1388 07da 0C       		.byte	0xc
 1389 07db B0       		.byte	0xb0
 1390 07dc DE000000 		.4byte	0xde
 1391 07e0 14       		.byte	0x14
 1392 07e1 07       		.uleb128 0x7
 1393 07e2 17010000 		.4byte	.LASF112
 1394 07e6 0C       		.byte	0xc
 1395 07e7 B7       		.byte	0xb7
 1396 07e8 1E080000 		.4byte	0x81e
 1397 07ec 18       		.byte	0x18
 1398 07ed 07       		.uleb128 0x7
 1399 07ee 45020000 		.4byte	.LASF113
 1400 07f2 0C       		.byte	0xc
 1401 07f3 B8       		.byte	0xb8
 1402 07f4 DE000000 		.4byte	0xde
 1403 07f8 1C       		.byte	0x1c
 1404 07f9 07       		.uleb128 0x7
 1405 07fa 66030000 		.4byte	.LASF114
 1406 07fe 0C       		.byte	0xc
 1407 07ff B9       		.byte	0xb9
 1408 0800 DE000000 		.4byte	0xde
 1409 0804 20       		.byte	0x20
 1410 0805 07       		.uleb128 0x7
 1411 0806 61030000 		.4byte	.LASF115
 1412 080a 0C       		.byte	0xc
 1413 080b BA       		.byte	0xba
 1414 080c DE000000 		.4byte	0xde
 1415 0810 24       		.byte	0x24
 1416 0811 12       		.uleb128 0x12
 1417 0812 42525200 		.ascii	"BRR\000"
 1418 0816 0C       		.byte	0xc
 1419 0817 BB       		.byte	0xbb
 1420 0818 DE000000 		.4byte	0xde
 1421 081c 28       		.byte	0x28
 1422 081d 00       		.byte	0
 1423 081e 05       		.uleb128 0x5
ARM GAS  /tmp/ccUaYBoa.s 			page 26


 1424 081f 76070000 		.4byte	0x776
 1425 0823 04       		.uleb128 0x4
 1426 0824 DB010000 		.4byte	.LASF116
 1427 0828 0C       		.byte	0xc
 1428 0829 BC       		.byte	0xbc
 1429 082a 91070000 		.4byte	0x791
 1430 082e 13       		.uleb128 0x13
 1431 082f 1C       		.byte	0x1c
 1432 0830 0C       		.byte	0xc
 1433 0831 C1       		.byte	0xc1
 1434 0832 8B080000 		.4byte	0x88b
 1435 0836 07       		.uleb128 0x7
 1436 0837 5F010000 		.4byte	.LASF117
 1437 083b 0C       		.byte	0xc
 1438 083c C3       		.byte	0xc3
 1439 083d C3000000 		.4byte	0xc3
 1440 0841 00       		.byte	0
 1441 0842 07       		.uleb128 0x7
 1442 0843 4A020000 		.4byte	.LASF118
 1443 0847 0C       		.byte	0xc
 1444 0848 C5       		.byte	0xc5
 1445 0849 C3000000 		.4byte	0xc3
 1446 084d 04       		.byte	0x4
 1447 084e 07       		.uleb128 0x7
 1448 084f 3D020000 		.4byte	.LASF119
 1449 0853 0C       		.byte	0xc
 1450 0854 C7       		.byte	0xc7
 1451 0855 C3000000 		.4byte	0xc3
 1452 0859 08       		.byte	0x8
 1453 085a 07       		.uleb128 0x7
 1454 085b 78060000 		.4byte	.LASF120
 1455 085f 0C       		.byte	0xc
 1456 0860 C9       		.byte	0xc9
 1457 0861 C3000000 		.4byte	0xc3
 1458 0865 0C       		.byte	0xc
 1459 0866 12       		.uleb128 0x12
 1460 0867 6F647200 		.ascii	"odr\000"
 1461 086b 0C       		.byte	0xc
 1462 086c CB       		.byte	0xcb
 1463 086d C3000000 		.4byte	0xc3
 1464 0871 10       		.byte	0x10
 1465 0872 07       		.uleb128 0x7
 1466 0873 C4030000 		.4byte	.LASF121
 1467 0877 0C       		.byte	0xc
 1468 0878 CD       		.byte	0xcd
 1469 0879 C3000000 		.4byte	0xc3
 1470 087d 14       		.byte	0x14
 1471 087e 07       		.uleb128 0x7
 1472 087f 2F030000 		.4byte	.LASF122
 1473 0883 0C       		.byte	0xc
 1474 0884 CF       		.byte	0xcf
 1475 0885 C3000000 		.4byte	0xc3
 1476 0889 18       		.byte	0x18
 1477 088a 00       		.byte	0
 1478 088b 04       		.uleb128 0x4
 1479 088c 00000000 		.4byte	.LASF123
 1480 0890 0C       		.byte	0xc
ARM GAS  /tmp/ccUaYBoa.s 			page 27


 1481 0891 D0       		.byte	0xd0
 1482 0892 2E080000 		.4byte	0x82e
 1483 0896 13       		.uleb128 0x13
 1484 0897 A8       		.byte	0xa8
 1485 0898 0C       		.byte	0xc
 1486 0899 D9       		.byte	0xd9
 1487 089a E7080000 		.4byte	0x8e7
 1488 089e 07       		.uleb128 0x7
 1489 089f EC030000 		.4byte	.LASF124
 1490 08a3 0C       		.byte	0xc
 1491 08a4 DC       		.byte	0xdc
 1492 08a5 8B080000 		.4byte	0x88b
 1493 08a9 00       		.byte	0
 1494 08aa 07       		.uleb128 0x7
 1495 08ab F5010000 		.4byte	.LASF125
 1496 08af 0C       		.byte	0xc
 1497 08b0 E0       		.byte	0xe0
 1498 08b1 8B080000 		.4byte	0x88b
 1499 08b5 1C       		.byte	0x1c
 1500 08b6 07       		.uleb128 0x7
 1501 08b7 8C060000 		.4byte	.LASF126
 1502 08bb 0C       		.byte	0xc
 1503 08bc E4       		.byte	0xe4
 1504 08bd 8B080000 		.4byte	0x88b
 1505 08c1 38       		.byte	0x38
 1506 08c2 07       		.uleb128 0x7
 1507 08c3 3C030000 		.4byte	.LASF127
 1508 08c7 0C       		.byte	0xc
 1509 08c8 E8       		.byte	0xe8
 1510 08c9 8B080000 		.4byte	0x88b
 1511 08cd 54       		.byte	0x54
 1512 08ce 07       		.uleb128 0x7
 1513 08cf 84010000 		.4byte	.LASF128
 1514 08d3 0C       		.byte	0xc
 1515 08d4 EC       		.byte	0xec
 1516 08d5 8B080000 		.4byte	0x88b
 1517 08d9 70       		.byte	0x70
 1518 08da 07       		.uleb128 0x7
 1519 08db 64020000 		.4byte	.LASF129
 1520 08df 0C       		.byte	0xc
 1521 08e0 F0       		.byte	0xf0
 1522 08e1 8B080000 		.4byte	0x88b
 1523 08e5 8C       		.byte	0x8c
 1524 08e6 00       		.byte	0
 1525 08e7 04       		.uleb128 0x4
 1526 08e8 A7060000 		.4byte	.LASF130
 1527 08ec 0C       		.byte	0xc
 1528 08ed FE       		.byte	0xfe
 1529 08ee 96080000 		.4byte	0x896
 1530 08f2 11       		.uleb128 0x11
 1531 08f3 5C000000 		.4byte	.LASF131
 1532 08f7 0C       		.byte	0xc
 1533 08f8 0E01     		.2byte	0x10e
 1534 08fa C3000000 		.4byte	0xc3
 1535 08fe 11       		.uleb128 0x11
 1536 08ff 9E060000 		.4byte	.LASF132
 1537 0903 0C       		.byte	0xc
ARM GAS  /tmp/ccUaYBoa.s 			page 28


 1538 0904 1301     		.2byte	0x113
 1539 0906 C3000000 		.4byte	0xc3
 1540 090a 11       		.uleb128 0x11
 1541 090b F4050000 		.4byte	.LASF133
 1542 090f 0C       		.byte	0xc
 1543 0910 1B01     		.2byte	0x11b
 1544 0912 16090000 		.4byte	0x916
 1545 0916 0B       		.uleb128 0xb
 1546 0917 04       		.byte	0x4
 1547 0918 23080000 		.4byte	0x823
 1548 091c 1B       		.uleb128 0x1b
 1549 091d D2050000 		.4byte	.LASF147
 1550 0921 01       		.byte	0x1
 1551 0922 41       		.byte	0x41
 1552 0923 01       		.byte	0x1
 1553 0924 3F090000 		.4byte	0x93f
 1554 0928 1C       		.uleb128 0x1c
 1555 0929 1B050000 		.4byte	.LASF134
 1556 092d 01       		.byte	0x1
 1557 092e 41       		.byte	0x41
 1558 092f 16090000 		.4byte	0x916
 1559 0933 1C       		.uleb128 0x1c
 1560 0934 87050000 		.4byte	.LASF135
 1561 0938 01       		.byte	0x1
 1562 0939 41       		.byte	0x41
 1563 093a 3F090000 		.4byte	0x93f
 1564 093e 00       		.byte	0
 1565 093f 0B       		.uleb128 0xb
 1566 0940 04       		.byte	0x4
 1567 0941 45090000 		.4byte	0x945
 1568 0945 17       		.uleb128 0x17
 1569 0946 8B080000 		.4byte	0x88b
 1570 094a 1D       		.uleb128 0x1d
 1571 094b 4B060000 		.4byte	.LASF136
 1572 094f 01       		.byte	0x1
 1573 0950 5C       		.byte	0x5c
 1574 0951 00000000 		.4byte	.LFB256
 1575 0955 F4000000 		.4byte	.LFE256-.LFB256
 1576 0959 01       		.uleb128 0x1
 1577 095a 9C       		.byte	0x9c
 1578 095b 4E0A0000 		.4byte	0xa4e
 1579 095f 1E       		.uleb128 0x1e
 1580 0960 87050000 		.4byte	.LASF135
 1581 0964 01       		.byte	0x1
 1582 0965 5C       		.byte	0x5c
 1583 0966 4E0A0000 		.4byte	0xa4e
 1584 096a 01       		.uleb128 0x1
 1585 096b 50       		.byte	0x50
 1586 096c 1F       		.uleb128 0x1f
 1587 096d 1C090000 		.4byte	0x91c
 1588 0971 04000000 		.4byte	.LBB14
 1589 0975 00000000 		.4byte	.Ldebug_ranges0+0
 1590 0979 01       		.byte	0x1
 1591 097a 74       		.byte	0x74
 1592 097b 92090000 		.4byte	0x992
 1593 097f 20       		.uleb128 0x20
 1594 0980 33090000 		.4byte	0x933
ARM GAS  /tmp/ccUaYBoa.s 			page 29


 1595 0984 03       		.uleb128 0x3
 1596 0985 70       		.byte	0x70
 1597 0986 1C       		.sleb128 28
 1598 0987 9F       		.byte	0x9f
 1599 0988 21       		.uleb128 0x21
 1600 0989 28090000 		.4byte	0x928
 1601 098d 00040048 		.4byte	0x48000400
 1602 0991 00       		.byte	0
 1603 0992 1F       		.uleb128 0x1f
 1604 0993 1C090000 		.4byte	0x91c
 1605 0997 08000000 		.4byte	.LBB17
 1606 099b 18000000 		.4byte	.Ldebug_ranges0+0x18
 1607 099f 01       		.byte	0x1
 1608 09a0 77       		.byte	0x77
 1609 09a1 B8090000 		.4byte	0x9b8
 1610 09a5 20       		.uleb128 0x20
 1611 09a6 33090000 		.4byte	0x933
 1612 09aa 03       		.uleb128 0x3
 1613 09ab 70       		.byte	0x70
 1614 09ac 38       		.sleb128 56
 1615 09ad 9F       		.byte	0x9f
 1616 09ae 21       		.uleb128 0x21
 1617 09af 28090000 		.4byte	0x928
 1618 09b3 00080048 		.4byte	0x48000800
 1619 09b7 00       		.byte	0
 1620 09b8 1F       		.uleb128 0x1f
 1621 09b9 1C090000 		.4byte	0x91c
 1622 09bd 0A000000 		.4byte	.LBB20
 1623 09c1 30000000 		.4byte	.Ldebug_ranges0+0x30
 1624 09c5 01       		.byte	0x1
 1625 09c6 7A       		.byte	0x7a
 1626 09c7 DF090000 		.4byte	0x9df
 1627 09cb 20       		.uleb128 0x20
 1628 09cc 33090000 		.4byte	0x933
 1629 09d0 04       		.uleb128 0x4
 1630 09d1 70       		.byte	0x70
 1631 09d2 D400     		.sleb128 84
 1632 09d4 9F       		.byte	0x9f
 1633 09d5 21       		.uleb128 0x21
 1634 09d6 28090000 		.4byte	0x928
 1635 09da 000C0048 		.4byte	0x48000c00
 1636 09de 00       		.byte	0
 1637 09df 1F       		.uleb128 0x1f
 1638 09e0 1C090000 		.4byte	0x91c
 1639 09e4 0C000000 		.4byte	.LBB23
 1640 09e8 48000000 		.4byte	.Ldebug_ranges0+0x48
 1641 09ec 01       		.byte	0x1
 1642 09ed 7D       		.byte	0x7d
 1643 09ee 060A0000 		.4byte	0xa06
 1644 09f2 20       		.uleb128 0x20
 1645 09f3 33090000 		.4byte	0x933
 1646 09f7 04       		.uleb128 0x4
 1647 09f8 70       		.byte	0x70
 1648 09f9 F000     		.sleb128 112
 1649 09fb 9F       		.byte	0x9f
 1650 09fc 21       		.uleb128 0x21
 1651 09fd 28090000 		.4byte	0x928
ARM GAS  /tmp/ccUaYBoa.s 			page 30


 1652 0a01 00100048 		.4byte	0x48001000
 1653 0a05 00       		.byte	0
 1654 0a06 1F       		.uleb128 0x1f
 1655 0a07 1C090000 		.4byte	0x91c
 1656 0a0b 0E000000 		.4byte	.LBB26
 1657 0a0f 60000000 		.4byte	.Ldebug_ranges0+0x60
 1658 0a13 01       		.byte	0x1
 1659 0a14 80       		.byte	0x80
 1660 0a15 2D0A0000 		.4byte	0xa2d
 1661 0a19 20       		.uleb128 0x20
 1662 0a1a 33090000 		.4byte	0x933
 1663 0a1e 04       		.uleb128 0x4
 1664 0a1f 70       		.byte	0x70
 1665 0a20 8C01     		.sleb128 140
 1666 0a22 9F       		.byte	0x9f
 1667 0a23 21       		.uleb128 0x21
 1668 0a24 28090000 		.4byte	0x928
 1669 0a28 00140048 		.4byte	0x48001400
 1670 0a2c 00       		.byte	0
 1671 0a2d 22       		.uleb128 0x22
 1672 0a2e 1C090000 		.4byte	0x91c
 1673 0a32 16000000 		.4byte	.LBB29
 1674 0a36 20000000 		.4byte	.LBE29-.LBB29
 1675 0a3a 01       		.byte	0x1
 1676 0a3b 71       		.byte	0x71
 1677 0a3c 20       		.uleb128 0x20
 1678 0a3d 33090000 		.4byte	0x933
 1679 0a41 01       		.uleb128 0x1
 1680 0a42 50       		.byte	0x50
 1681 0a43 21       		.uleb128 0x21
 1682 0a44 28090000 		.4byte	0x928
 1683 0a48 00000048 		.4byte	0x48000000
 1684 0a4c 00       		.byte	0
 1685 0a4d 00       		.byte	0
 1686 0a4e 0B       		.uleb128 0xb
 1687 0a4f 04       		.byte	0x4
 1688 0a50 540A0000 		.4byte	0xa54
 1689 0a54 17       		.uleb128 0x17
 1690 0a55 E7080000 		.4byte	0x8e7
 1691 0a59 1D       		.uleb128 0x1d
 1692 0a5a 0F060000 		.4byte	.LASF137
 1693 0a5e 01       		.byte	0x1
 1694 0a5f 9B       		.byte	0x9b
 1695 0a60 00000000 		.4byte	.LFB257
 1696 0a64 AC000000 		.4byte	.LFE257-.LFB257
 1697 0a68 01       		.uleb128 0x1
 1698 0a69 9C       		.byte	0x9c
 1699 0a6a 290B0000 		.4byte	0xb29
 1700 0a6e 1E       		.uleb128 0x1e
 1701 0a6f E8010000 		.4byte	.LASF138
 1702 0a73 01       		.byte	0x1
 1703 0a74 9B       		.byte	0x9b
 1704 0a75 0A090000 		.4byte	0x90a
 1705 0a79 01       		.uleb128 0x1
 1706 0a7a 50       		.byte	0x50
 1707 0a7b 23       		.uleb128 0x23
 1708 0a7c BE010000 		.4byte	.LASF139
ARM GAS  /tmp/ccUaYBoa.s 			page 31


 1709 0a80 01       		.byte	0x1
 1710 0a81 9C       		.byte	0x9c
 1711 0a82 F2080000 		.4byte	0x8f2
 1712 0a86 00000000 		.4byte	.LLST0
 1713 0a8a 23       		.uleb128 0x23
 1714 0a8b 82050000 		.4byte	.LASF140
 1715 0a8f 01       		.byte	0x1
 1716 0a90 9D       		.byte	0x9d
 1717 0a91 FE080000 		.4byte	0x8fe
 1718 0a95 2D000000 		.4byte	.LLST1
 1719 0a99 24       		.uleb128 0x24
 1720 0a9a 5F010000 		.4byte	.LASF117
 1721 0a9e 01       		.byte	0x1
 1722 0a9f 9F       		.byte	0x9f
 1723 0aa0 C3000000 		.4byte	0xc3
 1724 0aa4 01       		.uleb128 0x1
 1725 0aa5 5E       		.byte	0x5e
 1726 0aa6 24       		.uleb128 0x24
 1727 0aa7 4A020000 		.4byte	.LASF118
 1728 0aab 01       		.byte	0x1
 1729 0aac A0       		.byte	0xa0
 1730 0aad C3000000 		.4byte	0xc3
 1731 0ab1 01       		.uleb128 0x1
 1732 0ab2 57       		.byte	0x57
 1733 0ab3 24       		.uleb128 0x24
 1734 0ab4 3D020000 		.4byte	.LASF119
 1735 0ab8 01       		.byte	0x1
 1736 0ab9 A1       		.byte	0xa1
 1737 0aba C3000000 		.4byte	0xc3
 1738 0abe 01       		.uleb128 0x1
 1739 0abf 56       		.byte	0x56
 1740 0ac0 24       		.uleb128 0x24
 1741 0ac1 78060000 		.4byte	.LASF120
 1742 0ac5 01       		.byte	0x1
 1743 0ac6 A2       		.byte	0xa2
 1744 0ac7 C3000000 		.4byte	0xc3
 1745 0acb 01       		.uleb128 0x1
 1746 0acc 55       		.byte	0x55
 1747 0acd 24       		.uleb128 0x24
 1748 0ace 78050000 		.4byte	.LASF141
 1749 0ad2 01       		.byte	0x1
 1750 0ad3 A3       		.byte	0xa3
 1751 0ad4 C3000000 		.4byte	0xc3
 1752 0ad8 01       		.uleb128 0x1
 1753 0ad9 52       		.byte	0x52
 1754 0ada 25       		.uleb128 0x25
 1755 0adb 62697400 		.ascii	"bit\000"
 1756 0adf 01       		.byte	0x1
 1757 0ae0 A4       		.byte	0xa4
 1758 0ae1 C3000000 		.4byte	0xc3
 1759 0ae5 4E000000 		.4byte	.LLST2
 1760 0ae9 26       		.uleb128 0x26
 1761 0aea 78000000 		.4byte	.Ldebug_ranges0+0x78
 1762 0aee 27       		.uleb128 0x27
 1763 0aef 9D010000 		.4byte	.LASF142
 1764 0af3 01       		.byte	0x1
 1765 0af4 A7       		.byte	0xa7
ARM GAS  /tmp/ccUaYBoa.s 			page 32


 1766 0af5 C3000000 		.4byte	0xc3
 1767 0af9 6D000000 		.4byte	.LLST3
 1768 0afd 25       		.uleb128 0x25
 1769 0afe 6D3100   		.ascii	"m1\000"
 1770 0b01 01       		.byte	0x1
 1771 0b02 A7       		.byte	0xa7
 1772 0b03 C3000000 		.4byte	0xc3
 1773 0b07 B3000000 		.4byte	.LLST4
 1774 0b0b 25       		.uleb128 0x25
 1775 0b0c 6D3200   		.ascii	"m2\000"
 1776 0b0f 01       		.byte	0x1
 1777 0b10 A7       		.byte	0xa7
 1778 0b11 C3000000 		.4byte	0xc3
 1779 0b15 CA000000 		.4byte	.LLST5
 1780 0b19 25       		.uleb128 0x25
 1781 0b1a 6D3400   		.ascii	"m4\000"
 1782 0b1d 01       		.byte	0x1
 1783 0b1e A7       		.byte	0xa7
 1784 0b1f C3000000 		.4byte	0xc3
 1785 0b23 E3000000 		.4byte	.LLST6
 1786 0b27 00       		.byte	0
 1787 0b28 00       		.byte	0
 1788 0b29 28       		.uleb128 0x28
 1789 0b2a B6000000 		.4byte	.LASF143
 1790 0b2e 0D       		.byte	0xd
 1791 0b2f A706     		.2byte	0x6a7
 1792 0b31 D9000000 		.4byte	0xd9
 1793 0b35 29       		.uleb128 0x29
 1794 0b36 636800   		.ascii	"ch\000"
 1795 0b39 06       		.byte	0x6
 1796 0b3a EB01     		.2byte	0x1eb
 1797 0b3c D9030000 		.4byte	0x3d9
 1798 0b40 00       		.byte	0
 1799              		.section	.debug_abbrev,"",%progbits
 1800              	.Ldebug_abbrev0:
 1801 0000 01       		.uleb128 0x1
 1802 0001 11       		.uleb128 0x11
 1803 0002 01       		.byte	0x1
 1804 0003 25       		.uleb128 0x25
 1805 0004 0E       		.uleb128 0xe
 1806 0005 13       		.uleb128 0x13
 1807 0006 0B       		.uleb128 0xb
 1808 0007 03       		.uleb128 0x3
 1809 0008 0E       		.uleb128 0xe
 1810 0009 1B       		.uleb128 0x1b
 1811 000a 0E       		.uleb128 0xe
 1812 000b 55       		.uleb128 0x55
 1813 000c 17       		.uleb128 0x17
 1814 000d 11       		.uleb128 0x11
 1815 000e 01       		.uleb128 0x1
 1816 000f 10       		.uleb128 0x10
 1817 0010 17       		.uleb128 0x17
 1818 0011 00       		.byte	0
 1819 0012 00       		.byte	0
 1820 0013 02       		.uleb128 0x2
 1821 0014 24       		.uleb128 0x24
 1822 0015 00       		.byte	0
ARM GAS  /tmp/ccUaYBoa.s 			page 33


 1823 0016 0B       		.uleb128 0xb
 1824 0017 0B       		.uleb128 0xb
 1825 0018 3E       		.uleb128 0x3e
 1826 0019 0B       		.uleb128 0xb
 1827 001a 03       		.uleb128 0x3
 1828 001b 08       		.uleb128 0x8
 1829 001c 00       		.byte	0
 1830 001d 00       		.byte	0
 1831 001e 03       		.uleb128 0x3
 1832 001f 24       		.uleb128 0x24
 1833 0020 00       		.byte	0
 1834 0021 0B       		.uleb128 0xb
 1835 0022 0B       		.uleb128 0xb
 1836 0023 3E       		.uleb128 0x3e
 1837 0024 0B       		.uleb128 0xb
 1838 0025 03       		.uleb128 0x3
 1839 0026 0E       		.uleb128 0xe
 1840 0027 00       		.byte	0
 1841 0028 00       		.byte	0
 1842 0029 04       		.uleb128 0x4
 1843 002a 16       		.uleb128 0x16
 1844 002b 00       		.byte	0
 1845 002c 03       		.uleb128 0x3
 1846 002d 0E       		.uleb128 0xe
 1847 002e 3A       		.uleb128 0x3a
 1848 002f 0B       		.uleb128 0xb
 1849 0030 3B       		.uleb128 0x3b
 1850 0031 0B       		.uleb128 0xb
 1851 0032 49       		.uleb128 0x49
 1852 0033 13       		.uleb128 0x13
 1853 0034 00       		.byte	0
 1854 0035 00       		.byte	0
 1855 0036 05       		.uleb128 0x5
 1856 0037 35       		.uleb128 0x35
 1857 0038 00       		.byte	0
 1858 0039 49       		.uleb128 0x49
 1859 003a 13       		.uleb128 0x13
 1860 003b 00       		.byte	0
 1861 003c 00       		.byte	0
 1862 003d 06       		.uleb128 0x6
 1863 003e 13       		.uleb128 0x13
 1864 003f 01       		.byte	0x1
 1865 0040 03       		.uleb128 0x3
 1866 0041 0E       		.uleb128 0xe
 1867 0042 0B       		.uleb128 0xb
 1868 0043 0B       		.uleb128 0xb
 1869 0044 3A       		.uleb128 0x3a
 1870 0045 0B       		.uleb128 0xb
 1871 0046 3B       		.uleb128 0x3b
 1872 0047 0B       		.uleb128 0xb
 1873 0048 01       		.uleb128 0x1
 1874 0049 13       		.uleb128 0x13
 1875 004a 00       		.byte	0
 1876 004b 00       		.byte	0
 1877 004c 07       		.uleb128 0x7
 1878 004d 0D       		.uleb128 0xd
 1879 004e 00       		.byte	0
ARM GAS  /tmp/ccUaYBoa.s 			page 34


 1880 004f 03       		.uleb128 0x3
 1881 0050 0E       		.uleb128 0xe
 1882 0051 3A       		.uleb128 0x3a
 1883 0052 0B       		.uleb128 0xb
 1884 0053 3B       		.uleb128 0x3b
 1885 0054 0B       		.uleb128 0xb
 1886 0055 49       		.uleb128 0x49
 1887 0056 13       		.uleb128 0x13
 1888 0057 38       		.uleb128 0x38
 1889 0058 0B       		.uleb128 0xb
 1890 0059 00       		.byte	0
 1891 005a 00       		.byte	0
 1892 005b 08       		.uleb128 0x8
 1893 005c 0D       		.uleb128 0xd
 1894 005d 00       		.byte	0
 1895 005e 03       		.uleb128 0x3
 1896 005f 08       		.uleb128 0x8
 1897 0060 3A       		.uleb128 0x3a
 1898 0061 0B       		.uleb128 0xb
 1899 0062 3B       		.uleb128 0x3b
 1900 0063 05       		.uleb128 0x5
 1901 0064 49       		.uleb128 0x49
 1902 0065 13       		.uleb128 0x13
 1903 0066 38       		.uleb128 0x38
 1904 0067 0B       		.uleb128 0xb
 1905 0068 00       		.byte	0
 1906 0069 00       		.byte	0
 1907 006a 09       		.uleb128 0x9
 1908 006b 0D       		.uleb128 0xd
 1909 006c 00       		.byte	0
 1910 006d 03       		.uleb128 0x3
 1911 006e 0E       		.uleb128 0xe
 1912 006f 3A       		.uleb128 0x3a
 1913 0070 0B       		.uleb128 0xb
 1914 0071 3B       		.uleb128 0x3b
 1915 0072 05       		.uleb128 0x5
 1916 0073 49       		.uleb128 0x49
 1917 0074 13       		.uleb128 0x13
 1918 0075 38       		.uleb128 0x38
 1919 0076 0B       		.uleb128 0xb
 1920 0077 00       		.byte	0
 1921 0078 00       		.byte	0
 1922 0079 0A       		.uleb128 0xa
 1923 007a 13       		.uleb128 0x13
 1924 007b 01       		.byte	0x1
 1925 007c 03       		.uleb128 0x3
 1926 007d 0E       		.uleb128 0xe
 1927 007e 0B       		.uleb128 0xb
 1928 007f 0B       		.uleb128 0xb
 1929 0080 3A       		.uleb128 0x3a
 1930 0081 0B       		.uleb128 0xb
 1931 0082 3B       		.uleb128 0x3b
 1932 0083 05       		.uleb128 0x5
 1933 0084 01       		.uleb128 0x1
 1934 0085 13       		.uleb128 0x13
 1935 0086 00       		.byte	0
 1936 0087 00       		.byte	0
ARM GAS  /tmp/ccUaYBoa.s 			page 35


 1937 0088 0B       		.uleb128 0xb
 1938 0089 0F       		.uleb128 0xf
 1939 008a 00       		.byte	0
 1940 008b 0B       		.uleb128 0xb
 1941 008c 0B       		.uleb128 0xb
 1942 008d 49       		.uleb128 0x49
 1943 008e 13       		.uleb128 0x13
 1944 008f 00       		.byte	0
 1945 0090 00       		.byte	0
 1946 0091 0C       		.uleb128 0xc
 1947 0092 15       		.uleb128 0x15
 1948 0093 01       		.byte	0x1
 1949 0094 27       		.uleb128 0x27
 1950 0095 19       		.uleb128 0x19
 1951 0096 01       		.uleb128 0x1
 1952 0097 13       		.uleb128 0x13
 1953 0098 00       		.byte	0
 1954 0099 00       		.byte	0
 1955 009a 0D       		.uleb128 0xd
 1956 009b 05       		.uleb128 0x5
 1957 009c 00       		.byte	0
 1958 009d 49       		.uleb128 0x49
 1959 009e 13       		.uleb128 0x13
 1960 009f 00       		.byte	0
 1961 00a0 00       		.byte	0
 1962 00a1 0E       		.uleb128 0xe
 1963 00a2 0F       		.uleb128 0xf
 1964 00a3 00       		.byte	0
 1965 00a4 0B       		.uleb128 0xb
 1966 00a5 0B       		.uleb128 0xb
 1967 00a6 00       		.byte	0
 1968 00a7 00       		.byte	0
 1969 00a8 0F       		.uleb128 0xf
 1970 00a9 13       		.uleb128 0x13
 1971 00aa 01       		.byte	0x1
 1972 00ab 03       		.uleb128 0x3
 1973 00ac 0E       		.uleb128 0xe
 1974 00ad 0B       		.uleb128 0xb
 1975 00ae 05       		.uleb128 0x5
 1976 00af 3A       		.uleb128 0x3a
 1977 00b0 0B       		.uleb128 0xb
 1978 00b1 3B       		.uleb128 0x3b
 1979 00b2 05       		.uleb128 0x5
 1980 00b3 01       		.uleb128 0x1
 1981 00b4 13       		.uleb128 0x13
 1982 00b5 00       		.byte	0
 1983 00b6 00       		.byte	0
 1984 00b7 10       		.uleb128 0x10
 1985 00b8 13       		.uleb128 0x13
 1986 00b9 01       		.byte	0x1
 1987 00ba 0B       		.uleb128 0xb
 1988 00bb 0B       		.uleb128 0xb
 1989 00bc 3A       		.uleb128 0x3a
 1990 00bd 0B       		.uleb128 0xb
 1991 00be 3B       		.uleb128 0x3b
 1992 00bf 05       		.uleb128 0x5
 1993 00c0 01       		.uleb128 0x1
ARM GAS  /tmp/ccUaYBoa.s 			page 36


 1994 00c1 13       		.uleb128 0x13
 1995 00c2 00       		.byte	0
 1996 00c3 00       		.byte	0
 1997 00c4 11       		.uleb128 0x11
 1998 00c5 16       		.uleb128 0x16
 1999 00c6 00       		.byte	0
 2000 00c7 03       		.uleb128 0x3
 2001 00c8 0E       		.uleb128 0xe
 2002 00c9 3A       		.uleb128 0x3a
 2003 00ca 0B       		.uleb128 0xb
 2004 00cb 3B       		.uleb128 0x3b
 2005 00cc 05       		.uleb128 0x5
 2006 00cd 49       		.uleb128 0x49
 2007 00ce 13       		.uleb128 0x13
 2008 00cf 00       		.byte	0
 2009 00d0 00       		.byte	0
 2010 00d1 12       		.uleb128 0x12
 2011 00d2 0D       		.uleb128 0xd
 2012 00d3 00       		.byte	0
 2013 00d4 03       		.uleb128 0x3
 2014 00d5 08       		.uleb128 0x8
 2015 00d6 3A       		.uleb128 0x3a
 2016 00d7 0B       		.uleb128 0xb
 2017 00d8 3B       		.uleb128 0x3b
 2018 00d9 0B       		.uleb128 0xb
 2019 00da 49       		.uleb128 0x49
 2020 00db 13       		.uleb128 0x13
 2021 00dc 38       		.uleb128 0x38
 2022 00dd 0B       		.uleb128 0xb
 2023 00de 00       		.byte	0
 2024 00df 00       		.byte	0
 2025 00e0 13       		.uleb128 0x13
 2026 00e1 13       		.uleb128 0x13
 2027 00e2 01       		.byte	0x1
 2028 00e3 0B       		.uleb128 0xb
 2029 00e4 0B       		.uleb128 0xb
 2030 00e5 3A       		.uleb128 0x3a
 2031 00e6 0B       		.uleb128 0xb
 2032 00e7 3B       		.uleb128 0x3b
 2033 00e8 0B       		.uleb128 0xb
 2034 00e9 01       		.uleb128 0x1
 2035 00ea 13       		.uleb128 0x13
 2036 00eb 00       		.byte	0
 2037 00ec 00       		.byte	0
 2038 00ed 14       		.uleb128 0x14
 2039 00ee 17       		.uleb128 0x17
 2040 00ef 01       		.byte	0x1
 2041 00f0 0B       		.uleb128 0xb
 2042 00f1 0B       		.uleb128 0xb
 2043 00f2 3A       		.uleb128 0x3a
 2044 00f3 0B       		.uleb128 0xb
 2045 00f4 3B       		.uleb128 0x3b
 2046 00f5 0B       		.uleb128 0xb
 2047 00f6 01       		.uleb128 0x1
 2048 00f7 13       		.uleb128 0x13
 2049 00f8 00       		.byte	0
 2050 00f9 00       		.byte	0
ARM GAS  /tmp/ccUaYBoa.s 			page 37


 2051 00fa 15       		.uleb128 0x15
 2052 00fb 0D       		.uleb128 0xd
 2053 00fc 00       		.byte	0
 2054 00fd 03       		.uleb128 0x3
 2055 00fe 0E       		.uleb128 0xe
 2056 00ff 3A       		.uleb128 0x3a
 2057 0100 0B       		.uleb128 0xb
 2058 0101 3B       		.uleb128 0x3b
 2059 0102 0B       		.uleb128 0xb
 2060 0103 49       		.uleb128 0x49
 2061 0104 13       		.uleb128 0x13
 2062 0105 00       		.byte	0
 2063 0106 00       		.byte	0
 2064 0107 16       		.uleb128 0x16
 2065 0108 0D       		.uleb128 0xd
 2066 0109 00       		.byte	0
 2067 010a 03       		.uleb128 0x3
 2068 010b 0E       		.uleb128 0xe
 2069 010c 3A       		.uleb128 0x3a
 2070 010d 0B       		.uleb128 0xb
 2071 010e 3B       		.uleb128 0x3b
 2072 010f 05       		.uleb128 0x5
 2073 0110 49       		.uleb128 0x49
 2074 0111 13       		.uleb128 0x13
 2075 0112 00       		.byte	0
 2076 0113 00       		.byte	0
 2077 0114 17       		.uleb128 0x17
 2078 0115 26       		.uleb128 0x26
 2079 0116 00       		.byte	0
 2080 0117 49       		.uleb128 0x49
 2081 0118 13       		.uleb128 0x13
 2082 0119 00       		.byte	0
 2083 011a 00       		.byte	0
 2084 011b 18       		.uleb128 0x18
 2085 011c 01       		.uleb128 0x1
 2086 011d 01       		.byte	0x1
 2087 011e 49       		.uleb128 0x49
 2088 011f 13       		.uleb128 0x13
 2089 0120 01       		.uleb128 0x1
 2090 0121 13       		.uleb128 0x13
 2091 0122 00       		.byte	0
 2092 0123 00       		.byte	0
 2093 0124 19       		.uleb128 0x19
 2094 0125 21       		.uleb128 0x21
 2095 0126 00       		.byte	0
 2096 0127 49       		.uleb128 0x49
 2097 0128 13       		.uleb128 0x13
 2098 0129 2F       		.uleb128 0x2f
 2099 012a 0B       		.uleb128 0xb
 2100 012b 00       		.byte	0
 2101 012c 00       		.byte	0
 2102 012d 1A       		.uleb128 0x1a
 2103 012e 0D       		.uleb128 0xd
 2104 012f 00       		.byte	0
 2105 0130 03       		.uleb128 0x3
 2106 0131 08       		.uleb128 0x8
 2107 0132 3A       		.uleb128 0x3a
ARM GAS  /tmp/ccUaYBoa.s 			page 38


 2108 0133 0B       		.uleb128 0xb
 2109 0134 3B       		.uleb128 0x3b
 2110 0135 0B       		.uleb128 0xb
 2111 0136 49       		.uleb128 0x49
 2112 0137 13       		.uleb128 0x13
 2113 0138 00       		.byte	0
 2114 0139 00       		.byte	0
 2115 013a 1B       		.uleb128 0x1b
 2116 013b 2E       		.uleb128 0x2e
 2117 013c 01       		.byte	0x1
 2118 013d 03       		.uleb128 0x3
 2119 013e 0E       		.uleb128 0xe
 2120 013f 3A       		.uleb128 0x3a
 2121 0140 0B       		.uleb128 0xb
 2122 0141 3B       		.uleb128 0x3b
 2123 0142 0B       		.uleb128 0xb
 2124 0143 27       		.uleb128 0x27
 2125 0144 19       		.uleb128 0x19
 2126 0145 20       		.uleb128 0x20
 2127 0146 0B       		.uleb128 0xb
 2128 0147 01       		.uleb128 0x1
 2129 0148 13       		.uleb128 0x13
 2130 0149 00       		.byte	0
 2131 014a 00       		.byte	0
 2132 014b 1C       		.uleb128 0x1c
 2133 014c 05       		.uleb128 0x5
 2134 014d 00       		.byte	0
 2135 014e 03       		.uleb128 0x3
 2136 014f 0E       		.uleb128 0xe
 2137 0150 3A       		.uleb128 0x3a
 2138 0151 0B       		.uleb128 0xb
 2139 0152 3B       		.uleb128 0x3b
 2140 0153 0B       		.uleb128 0xb
 2141 0154 49       		.uleb128 0x49
 2142 0155 13       		.uleb128 0x13
 2143 0156 00       		.byte	0
 2144 0157 00       		.byte	0
 2145 0158 1D       		.uleb128 0x1d
 2146 0159 2E       		.uleb128 0x2e
 2147 015a 01       		.byte	0x1
 2148 015b 3F       		.uleb128 0x3f
 2149 015c 19       		.uleb128 0x19
 2150 015d 03       		.uleb128 0x3
 2151 015e 0E       		.uleb128 0xe
 2152 015f 3A       		.uleb128 0x3a
 2153 0160 0B       		.uleb128 0xb
 2154 0161 3B       		.uleb128 0x3b
 2155 0162 0B       		.uleb128 0xb
 2156 0163 27       		.uleb128 0x27
 2157 0164 19       		.uleb128 0x19
 2158 0165 11       		.uleb128 0x11
 2159 0166 01       		.uleb128 0x1
 2160 0167 12       		.uleb128 0x12
 2161 0168 06       		.uleb128 0x6
 2162 0169 40       		.uleb128 0x40
 2163 016a 18       		.uleb128 0x18
 2164 016b 9742     		.uleb128 0x2117
ARM GAS  /tmp/ccUaYBoa.s 			page 39


 2165 016d 19       		.uleb128 0x19
 2166 016e 01       		.uleb128 0x1
 2167 016f 13       		.uleb128 0x13
 2168 0170 00       		.byte	0
 2169 0171 00       		.byte	0
 2170 0172 1E       		.uleb128 0x1e
 2171 0173 05       		.uleb128 0x5
 2172 0174 00       		.byte	0
 2173 0175 03       		.uleb128 0x3
 2174 0176 0E       		.uleb128 0xe
 2175 0177 3A       		.uleb128 0x3a
 2176 0178 0B       		.uleb128 0xb
 2177 0179 3B       		.uleb128 0x3b
 2178 017a 0B       		.uleb128 0xb
 2179 017b 49       		.uleb128 0x49
 2180 017c 13       		.uleb128 0x13
 2181 017d 02       		.uleb128 0x2
 2182 017e 18       		.uleb128 0x18
 2183 017f 00       		.byte	0
 2184 0180 00       		.byte	0
 2185 0181 1F       		.uleb128 0x1f
 2186 0182 1D       		.uleb128 0x1d
 2187 0183 01       		.byte	0x1
 2188 0184 31       		.uleb128 0x31
 2189 0185 13       		.uleb128 0x13
 2190 0186 52       		.uleb128 0x52
 2191 0187 01       		.uleb128 0x1
 2192 0188 55       		.uleb128 0x55
 2193 0189 17       		.uleb128 0x17
 2194 018a 58       		.uleb128 0x58
 2195 018b 0B       		.uleb128 0xb
 2196 018c 59       		.uleb128 0x59
 2197 018d 0B       		.uleb128 0xb
 2198 018e 01       		.uleb128 0x1
 2199 018f 13       		.uleb128 0x13
 2200 0190 00       		.byte	0
 2201 0191 00       		.byte	0
 2202 0192 20       		.uleb128 0x20
 2203 0193 05       		.uleb128 0x5
 2204 0194 00       		.byte	0
 2205 0195 31       		.uleb128 0x31
 2206 0196 13       		.uleb128 0x13
 2207 0197 02       		.uleb128 0x2
 2208 0198 18       		.uleb128 0x18
 2209 0199 00       		.byte	0
 2210 019a 00       		.byte	0
 2211 019b 21       		.uleb128 0x21
 2212 019c 05       		.uleb128 0x5
 2213 019d 00       		.byte	0
 2214 019e 31       		.uleb128 0x31
 2215 019f 13       		.uleb128 0x13
 2216 01a0 1C       		.uleb128 0x1c
 2217 01a1 06       		.uleb128 0x6
 2218 01a2 00       		.byte	0
 2219 01a3 00       		.byte	0
 2220 01a4 22       		.uleb128 0x22
 2221 01a5 1D       		.uleb128 0x1d
ARM GAS  /tmp/ccUaYBoa.s 			page 40


 2222 01a6 01       		.byte	0x1
 2223 01a7 31       		.uleb128 0x31
 2224 01a8 13       		.uleb128 0x13
 2225 01a9 11       		.uleb128 0x11
 2226 01aa 01       		.uleb128 0x1
 2227 01ab 12       		.uleb128 0x12
 2228 01ac 06       		.uleb128 0x6
 2229 01ad 58       		.uleb128 0x58
 2230 01ae 0B       		.uleb128 0xb
 2231 01af 59       		.uleb128 0x59
 2232 01b0 0B       		.uleb128 0xb
 2233 01b1 00       		.byte	0
 2234 01b2 00       		.byte	0
 2235 01b3 23       		.uleb128 0x23
 2236 01b4 05       		.uleb128 0x5
 2237 01b5 00       		.byte	0
 2238 01b6 03       		.uleb128 0x3
 2239 01b7 0E       		.uleb128 0xe
 2240 01b8 3A       		.uleb128 0x3a
 2241 01b9 0B       		.uleb128 0xb
 2242 01ba 3B       		.uleb128 0x3b
 2243 01bb 0B       		.uleb128 0xb
 2244 01bc 49       		.uleb128 0x49
 2245 01bd 13       		.uleb128 0x13
 2246 01be 02       		.uleb128 0x2
 2247 01bf 17       		.uleb128 0x17
 2248 01c0 00       		.byte	0
 2249 01c1 00       		.byte	0
 2250 01c2 24       		.uleb128 0x24
 2251 01c3 34       		.uleb128 0x34
 2252 01c4 00       		.byte	0
 2253 01c5 03       		.uleb128 0x3
 2254 01c6 0E       		.uleb128 0xe
 2255 01c7 3A       		.uleb128 0x3a
 2256 01c8 0B       		.uleb128 0xb
 2257 01c9 3B       		.uleb128 0x3b
 2258 01ca 0B       		.uleb128 0xb
 2259 01cb 49       		.uleb128 0x49
 2260 01cc 13       		.uleb128 0x13
 2261 01cd 02       		.uleb128 0x2
 2262 01ce 18       		.uleb128 0x18
 2263 01cf 00       		.byte	0
 2264 01d0 00       		.byte	0
 2265 01d1 25       		.uleb128 0x25
 2266 01d2 34       		.uleb128 0x34
 2267 01d3 00       		.byte	0
 2268 01d4 03       		.uleb128 0x3
 2269 01d5 08       		.uleb128 0x8
 2270 01d6 3A       		.uleb128 0x3a
 2271 01d7 0B       		.uleb128 0xb
 2272 01d8 3B       		.uleb128 0x3b
 2273 01d9 0B       		.uleb128 0xb
 2274 01da 49       		.uleb128 0x49
 2275 01db 13       		.uleb128 0x13
 2276 01dc 02       		.uleb128 0x2
 2277 01dd 17       		.uleb128 0x17
 2278 01de 00       		.byte	0
ARM GAS  /tmp/ccUaYBoa.s 			page 41


 2279 01df 00       		.byte	0
 2280 01e0 26       		.uleb128 0x26
 2281 01e1 0B       		.uleb128 0xb
 2282 01e2 01       		.byte	0x1
 2283 01e3 55       		.uleb128 0x55
 2284 01e4 17       		.uleb128 0x17
 2285 01e5 00       		.byte	0
 2286 01e6 00       		.byte	0
 2287 01e7 27       		.uleb128 0x27
 2288 01e8 34       		.uleb128 0x34
 2289 01e9 00       		.byte	0
 2290 01ea 03       		.uleb128 0x3
 2291 01eb 0E       		.uleb128 0xe
 2292 01ec 3A       		.uleb128 0x3a
 2293 01ed 0B       		.uleb128 0xb
 2294 01ee 3B       		.uleb128 0x3b
 2295 01ef 0B       		.uleb128 0xb
 2296 01f0 49       		.uleb128 0x49
 2297 01f1 13       		.uleb128 0x13
 2298 01f2 02       		.uleb128 0x2
 2299 01f3 17       		.uleb128 0x17
 2300 01f4 00       		.byte	0
 2301 01f5 00       		.byte	0
 2302 01f6 28       		.uleb128 0x28
 2303 01f7 34       		.uleb128 0x34
 2304 01f8 00       		.byte	0
 2305 01f9 03       		.uleb128 0x3
 2306 01fa 0E       		.uleb128 0xe
 2307 01fb 3A       		.uleb128 0x3a
 2308 01fc 0B       		.uleb128 0xb
 2309 01fd 3B       		.uleb128 0x3b
 2310 01fe 05       		.uleb128 0x5
 2311 01ff 49       		.uleb128 0x49
 2312 0200 13       		.uleb128 0x13
 2313 0201 3F       		.uleb128 0x3f
 2314 0202 19       		.uleb128 0x19
 2315 0203 3C       		.uleb128 0x3c
 2316 0204 19       		.uleb128 0x19
 2317 0205 00       		.byte	0
 2318 0206 00       		.byte	0
 2319 0207 29       		.uleb128 0x29
 2320 0208 34       		.uleb128 0x34
 2321 0209 00       		.byte	0
 2322 020a 03       		.uleb128 0x3
 2323 020b 08       		.uleb128 0x8
 2324 020c 3A       		.uleb128 0x3a
 2325 020d 0B       		.uleb128 0xb
 2326 020e 3B       		.uleb128 0x3b
 2327 020f 05       		.uleb128 0x5
 2328 0210 49       		.uleb128 0x49
 2329 0211 13       		.uleb128 0x13
 2330 0212 3F       		.uleb128 0x3f
 2331 0213 19       		.uleb128 0x19
 2332 0214 3C       		.uleb128 0x3c
 2333 0215 19       		.uleb128 0x19
 2334 0216 00       		.byte	0
 2335 0217 00       		.byte	0
ARM GAS  /tmp/ccUaYBoa.s 			page 42


 2336 0218 00       		.byte	0
 2337              		.section	.debug_loc,"",%progbits
 2338              	.Ldebug_loc0:
 2339              	.LLST0:
 2340 0000 00000000 		.4byte	.LVL7
 2341 0004 70000000 		.4byte	.LVL18
 2342 0008 0100     		.2byte	0x1
 2343 000a 51       		.byte	0x51
 2344 000b 70000000 		.4byte	.LVL18
 2345 000f 72000000 		.4byte	.LVL19
 2346 0013 0500     		.2byte	0x5
 2347 0015 71       		.byte	0x71
 2348 0016 00       		.sleb128 0
 2349 0017 31       		.byte	0x31
 2350 0018 25       		.byte	0x25
 2351 0019 9F       		.byte	0x9f
 2352 001a 72000000 		.4byte	.LVL19
 2353 001e AC000000 		.4byte	.LFE257
 2354 0022 0100     		.2byte	0x1
 2355 0024 51       		.byte	0x51
 2356 0025 00000000 		.4byte	0
 2357 0029 00000000 		.4byte	0
 2358              	.LLST1:
 2359 002d 00000000 		.4byte	.LVL7
 2360 0031 1E000000 		.4byte	.LVL12
 2361 0035 0100     		.2byte	0x1
 2362 0037 52       		.byte	0x52
 2363 0038 1E000000 		.4byte	.LVL12
 2364 003c AC000000 		.4byte	.LFE257
 2365 0040 0400     		.2byte	0x4
 2366 0042 F3       		.byte	0xf3
 2367 0043 01       		.uleb128 0x1
 2368 0044 52       		.byte	0x52
 2369 0045 9F       		.byte	0x9f
 2370 0046 00000000 		.4byte	0
 2371 004a 00000000 		.4byte	0
 2372              	.LLST2:
 2373 004e 1E000000 		.4byte	.LVL12
 2374 0052 28000000 		.4byte	.LVL13
 2375 0056 0200     		.2byte	0x2
 2376 0058 30       		.byte	0x30
 2377 0059 9F       		.byte	0x9f
 2378 005a 28000000 		.4byte	.LVL13
 2379 005e AC000000 		.4byte	.LFE257
 2380 0062 0100     		.2byte	0x1
 2381 0064 54       		.byte	0x54
 2382 0065 00000000 		.4byte	0
 2383 0069 00000000 		.4byte	0
 2384              	.LLST3:
 2385 006d 28000000 		.4byte	.LVL13
 2386 0071 3C000000 		.4byte	.LVL16
 2387 0075 0100     		.2byte	0x1
 2388 0077 5A       		.byte	0x5a
 2389 0078 3C000000 		.4byte	.LVL16
 2390 007c 80000000 		.4byte	.LVL24
 2391 0080 0A00     		.2byte	0xa
 2392 0082 72       		.byte	0x72
ARM GAS  /tmp/ccUaYBoa.s 			page 43


 2393 0083 00       		.sleb128 0
 2394 0084 74       		.byte	0x74
 2395 0085 00       		.sleb128 0
 2396 0086 37       		.byte	0x37
 2397 0087 1A       		.byte	0x1a
 2398 0088 32       		.byte	0x32
 2399 0089 24       		.byte	0x24
 2400 008a 24       		.byte	0x24
 2401 008b 9F       		.byte	0x9f
 2402 008c 8E000000 		.4byte	.LVL25
 2403 0090 A8000000 		.4byte	.LVL28
 2404 0094 0100     		.2byte	0x1
 2405 0096 5A       		.byte	0x5a
 2406 0097 A8000000 		.4byte	.LVL28
 2407 009b AC000000 		.4byte	.LFE257
 2408 009f 0A00     		.2byte	0xa
 2409 00a1 72       		.byte	0x72
 2410 00a2 00       		.sleb128 0
 2411 00a3 74       		.byte	0x74
 2412 00a4 00       		.sleb128 0
 2413 00a5 37       		.byte	0x37
 2414 00a6 1A       		.byte	0x1a
 2415 00a7 32       		.byte	0x32
 2416 00a8 24       		.byte	0x24
 2417 00a9 24       		.byte	0x24
 2418 00aa 9F       		.byte	0x9f
 2419 00ab 00000000 		.4byte	0
 2420 00af 00000000 		.4byte	0
 2421              	.LLST4:
 2422 00b3 36000000 		.4byte	.LVL15
 2423 00b7 70000000 		.4byte	.LVL18
 2424 00bb 0500     		.2byte	0x5
 2425 00bd 31       		.byte	0x31
 2426 00be 74       		.byte	0x74
 2427 00bf 00       		.sleb128 0
 2428 00c0 24       		.byte	0x24
 2429 00c1 9F       		.byte	0x9f
 2430 00c2 00000000 		.4byte	0
 2431 00c6 00000000 		.4byte	0
 2432              	.LLST5:
 2433 00ca 44000000 		.4byte	.LVL17
 2434 00ce 70000000 		.4byte	.LVL18
 2435 00d2 0700     		.2byte	0x7
 2436 00d4 33       		.byte	0x33
 2437 00d5 74       		.byte	0x74
 2438 00d6 00       		.sleb128 0
 2439 00d7 31       		.byte	0x31
 2440 00d8 24       		.byte	0x24
 2441 00d9 24       		.byte	0x24
 2442 00da 9F       		.byte	0x9f
 2443 00db 00000000 		.4byte	0
 2444 00df 00000000 		.4byte	0
 2445              	.LLST6:
 2446 00e3 28000000 		.4byte	.LVL13
 2447 00e7 30000000 		.4byte	.LVL14
 2448 00eb 0100     		.2byte	0x1
 2449 00ed 53       		.byte	0x53
ARM GAS  /tmp/ccUaYBoa.s 			page 44


 2450 00ee 30000000 		.4byte	.LVL14
 2451 00f2 80000000 		.4byte	.LVL24
 2452 00f6 0A00     		.2byte	0xa
 2453 00f8 7C       		.byte	0x7c
 2454 00f9 00       		.sleb128 0
 2455 00fa 74       		.byte	0x74
 2456 00fb 00       		.sleb128 0
 2457 00fc 37       		.byte	0x37
 2458 00fd 1A       		.byte	0x1a
 2459 00fe 32       		.byte	0x32
 2460 00ff 24       		.byte	0x24
 2461 0100 24       		.byte	0x24
 2462 0101 9F       		.byte	0x9f
 2463 0102 92000000 		.4byte	.LVL26
 2464 0106 A0000000 		.4byte	.LVL27
 2465 010a 0100     		.2byte	0x1
 2466 010c 53       		.byte	0x53
 2467 010d A0000000 		.4byte	.LVL27
 2468 0111 AC000000 		.4byte	.LFE257
 2469 0115 0A00     		.2byte	0xa
 2470 0117 7C       		.byte	0x7c
 2471 0118 00       		.sleb128 0
 2472 0119 74       		.byte	0x74
 2473 011a 00       		.sleb128 0
 2474 011b 37       		.byte	0x37
 2475 011c 1A       		.byte	0x1a
 2476 011d 32       		.byte	0x32
 2477 011e 24       		.byte	0x24
 2478 011f 24       		.byte	0x24
 2479 0120 9F       		.byte	0x9f
 2480 0121 00000000 		.4byte	0
 2481 0125 00000000 		.4byte	0
 2482              		.section	.debug_aranges,"",%progbits
 2483 0000 24000000 		.4byte	0x24
 2484 0004 0200     		.2byte	0x2
 2485 0006 00000000 		.4byte	.Ldebug_info0
 2486 000a 04       		.byte	0x4
 2487 000b 00       		.byte	0
 2488 000c 0000     		.2byte	0
 2489 000e 0000     		.2byte	0
 2490 0010 00000000 		.4byte	.LFB256
 2491 0014 F4000000 		.4byte	.LFE256-.LFB256
 2492 0018 00000000 		.4byte	.LFB257
 2493 001c AC000000 		.4byte	.LFE257-.LFB257
 2494 0020 00000000 		.4byte	0
 2495 0024 00000000 		.4byte	0
 2496              		.section	.debug_ranges,"",%progbits
 2497              	.Ldebug_ranges0:
 2498 0000 04000000 		.4byte	.LBB14
 2499 0004 06000000 		.4byte	.LBE14
 2500 0008 36000000 		.4byte	.LBB31
 2501 000c 52000000 		.4byte	.LBE31
 2502 0010 00000000 		.4byte	0
 2503 0014 00000000 		.4byte	0
 2504 0018 08000000 		.4byte	.LBB17
 2505 001c 0A000000 		.4byte	.LBE17
 2506 0020 52000000 		.4byte	.LBB32
ARM GAS  /tmp/ccUaYBoa.s 			page 45


 2507 0024 6E000000 		.4byte	.LBE32
 2508 0028 00000000 		.4byte	0
 2509 002c 00000000 		.4byte	0
 2510 0030 0A000000 		.4byte	.LBB20
 2511 0034 0C000000 		.4byte	.LBE20
 2512 0038 6E000000 		.4byte	.LBB33
 2513 003c 8A000000 		.4byte	.LBE33
 2514 0040 00000000 		.4byte	0
 2515 0044 00000000 		.4byte	0
 2516 0048 0C000000 		.4byte	.LBB23
 2517 004c 0E000000 		.4byte	.LBE23
 2518 0050 8A000000 		.4byte	.LBB34
 2519 0054 AC000000 		.4byte	.LBE34
 2520 0058 00000000 		.4byte	0
 2521 005c 00000000 		.4byte	0
 2522 0060 0E000000 		.4byte	.LBB26
 2523 0064 10000000 		.4byte	.LBE26
 2524 0068 AC000000 		.4byte	.LBB35
 2525 006c D6000000 		.4byte	.LBE35
 2526 0070 00000000 		.4byte	0
 2527 0074 00000000 		.4byte	0
 2528 0078 04000000 		.4byte	.LBB36
 2529 007c 08000000 		.4byte	.LBE36
 2530 0080 1E000000 		.4byte	.LBB37
 2531 0084 70000000 		.4byte	.LBE37
 2532 0088 80000000 		.4byte	.LBB38
 2533 008c 86000000 		.4byte	.LBE38
 2534 0090 8A000000 		.4byte	.LBB39
 2535 0094 92000000 		.4byte	.LBE39
 2536 0098 94000000 		.4byte	.LBB40
 2537 009c AC000000 		.4byte	.LBE40
 2538 00a0 00000000 		.4byte	0
 2539 00a4 00000000 		.4byte	0
 2540 00a8 00000000 		.4byte	.LFB256
 2541 00ac F4000000 		.4byte	.LFE256
 2542 00b0 00000000 		.4byte	.LFB257
 2543 00b4 AC000000 		.4byte	.LFE257
 2544 00b8 00000000 		.4byte	0
 2545 00bc 00000000 		.4byte	0
 2546              		.section	.debug_line,"",%progbits
 2547              	.Ldebug_line0:
 2548 0000 A1020000 		.section	.debug_str,"MS",%progbits,1
 2548      02000B02 
 2548      00000201 
 2548      FB0E0D00 
 2548      01010101 
 2549              	.LASF123:
 2550 0000 73746D33 		.ascii	"stm32_gpio_setup_t\000"
 2550      325F6770 
 2550      696F5F73 
 2550      65747570 
 2550      5F7400
 2551              	.LASF50:
 2552 0013 72656164 		.ascii	"ready_list_t\000"
 2552      795F6C69 
 2552      73745F74 
 2552      00
ARM GAS  /tmp/ccUaYBoa.s 			page 46


 2553              	.LASF96:
 2554 0020 7264796D 		.ascii	"rdymsg\000"
 2554      736700
 2555              	.LASF18:
 2556 0027 75696E74 		.ascii	"uint64_t\000"
 2556      36345F74 
 2556      00
 2557              	.LASF4:
 2558 0030 5F5F7569 		.ascii	"__uint8_t\000"
 2558      6E74385F 
 2558      7400
 2559              	.LASF109:
 2560 003a 4F545950 		.ascii	"OTYPER\000"
 2560      455200
 2561              	.LASF93:
 2562 0041 706F7274 		.ascii	"port_intctx\000"
 2562      5F696E74 
 2562      63747800 
 2563              	.LASF69:
 2564 004d 73797374 		.ascii	"system_debug_t\000"
 2564      656D5F64 
 2564      65627567 
 2564      5F7400
 2565              	.LASF131:
 2566 005c 696F706F 		.ascii	"ioportmask_t\000"
 2566      72746D61 
 2566      736B5F74 
 2566      00
 2567              	.LASF108:
 2568 0069 4D4F4445 		.ascii	"MODER\000"
 2568      5200
 2569              	.LASF13:
 2570 006f 6C6F6E67 		.ascii	"long long unsigned int\000"
 2570      206C6F6E 
 2570      6720756E 
 2570      7369676E 
 2570      65642069 
 2571              	.LASF111:
 2572 0086 50555044 		.ascii	"PUPDR\000"
 2572      5200
 2573              	.LASF97:
 2574 008c 65786974 		.ascii	"exitcode\000"
 2574      636F6465 
 2574      00
 2575              	.LASF76:
 2576 0095 6D61696E 		.ascii	"mainthread\000"
 2576      74687265 
 2576      616400
 2577              	.LASF66:
 2578 00a0 76697274 		.ascii	"virtual_timers_list_t\000"
 2578      75616C5F 
 2578      74696D65 
 2578      72735F6C 
 2578      6973745F 
 2579              	.LASF143:
 2580 00b6 49544D5F 		.ascii	"ITM_RxBuffer\000"
 2580      52784275 
ARM GAS  /tmp/ccUaYBoa.s 			page 47


 2580      66666572 
 2580      00
 2581              	.LASF146:
 2582 00c3 2F686F6D 		.ascii	"/home/bhimebau/forge/annsynth/src\000"
 2582      652F6268 
 2582      696D6562 
 2582      61752F66 
 2582      6F726765 
 2583              	.LASF49:
 2584 00e5 63685F74 		.ascii	"ch_threads_queue\000"
 2584      68726561 
 2584      64735F71 
 2584      75657565 
 2584      00
 2585              	.LASF30:
 2586 00f6 705F7072 		.ascii	"p_prio\000"
 2586      696F00
 2587              	.LASF11:
 2588 00fd 6C6F6E67 		.ascii	"long long int\000"
 2588      206C6F6E 
 2588      6720696E 
 2588      7400
 2589              	.LASF1:
 2590 010b 7369676E 		.ascii	"signed char\000"
 2590      65642063 
 2590      68617200 
 2591              	.LASF112:
 2592 0117 42535252 		.ascii	"BSRR\000"
 2592      00
 2593              	.LASF44:
 2594 011c 705F6D70 		.ascii	"p_mpool\000"
 2594      6F6F6C00 
 2595              	.LASF102:
 2596 0124 6D5F7175 		.ascii	"m_queue\000"
 2596      65756500 
 2597              	.LASF145:
 2598 012c 2E2E2F43 		.ascii	"../ChibiOS/os/hal/ports/STM32/LLD/GPIOv2/pal_lld.c\000"
 2598      68696269 
 2598      4F532F6F 
 2598      732F6861 
 2598      6C2F706F 
 2599              	.LASF117:
 2600 015f 6D6F6465 		.ascii	"moder\000"
 2600      7200
 2601              	.LASF89:
 2602 0165 5243435F 		.ascii	"RCC_TypeDef\000"
 2602      54797065 
 2602      44656600 
 2603              	.LASF73:
 2604 0171 63685F73 		.ascii	"ch_system\000"
 2604      79737465 
 2604      6D00
 2605              	.LASF8:
 2606 017b 6C6F6E67 		.ascii	"long int\000"
 2606      20696E74 
 2606      00
 2607              	.LASF128:
ARM GAS  /tmp/ccUaYBoa.s 			page 48


 2608 0184 50454461 		.ascii	"PEData\000"
 2608      746100
 2609              	.LASF80:
 2610 018b 41504232 		.ascii	"APB2RSTR\000"
 2610      52535452 
 2610      00
 2611              	.LASF21:
 2612 0194 74737461 		.ascii	"tstate_t\000"
 2612      74655F74 
 2612      00
 2613              	.LASF142:
 2614 019d 616C7472 		.ascii	"altrmask\000"
 2614      6D61736B 
 2614      00
 2615              	.LASF32:
 2616 01a6 705F6E65 		.ascii	"p_newer\000"
 2616      77657200 
 2617              	.LASF110:
 2618 01ae 4F535045 		.ascii	"OSPEEDR\000"
 2618      45445200 
 2619              	.LASF55:
 2620 01b6 725F6E65 		.ascii	"r_newer\000"
 2620      77657200 
 2621              	.LASF139:
 2622 01be 6D61736B 		.ascii	"mask\000"
 2622      00
 2623              	.LASF90:
 2624 01c3 72656761 		.ascii	"regarm_t\000"
 2624      726D5F74 
 2624      00
 2625              	.LASF62:
 2626 01cc 76745F70 		.ascii	"vt_prev\000"
 2626      72657600 
 2627              	.LASF75:
 2628 01d4 76746C69 		.ascii	"vtlist\000"
 2628      737400
 2629              	.LASF116:
 2630 01db 73746D33 		.ascii	"stm32_gpio_t\000"
 2630      325F6770 
 2630      696F5F74 
 2630      00
 2631              	.LASF138:
 2632 01e8 706F7274 		.ascii	"port\000"
 2632      00
 2633              	.LASF105:
 2634 01ed 6D757465 		.ascii	"mutex_t\000"
 2634      785F7400 
 2635              	.LASF125:
 2636 01f5 50424461 		.ascii	"PBData\000"
 2636      746100
 2637              	.LASF77:
 2638 01fc 69646C65 		.ascii	"idle_thread_wa\000"
 2638      5F746872 
 2638      6561645F 
 2638      776100
 2639              	.LASF0:
 2640 020b 756E7369 		.ascii	"unsigned int\000"
ARM GAS  /tmp/ccUaYBoa.s 			page 49


 2640      676E6564 
 2640      20696E74 
 2640      00
 2641              	.LASF61:
 2642 0218 76745F6E 		.ascii	"vt_next\000"
 2642      65787400 
 2643              	.LASF15:
 2644 0220 75696E74 		.ascii	"uint16_t\000"
 2644      31365F74 
 2644      00
 2645              	.LASF63:
 2646 0229 76745F64 		.ascii	"vt_delta\000"
 2646      656C7461 
 2646      00
 2647              	.LASF39:
 2648 0232 705F6D73 		.ascii	"p_msgqueue\000"
 2648      67717565 
 2648      756500
 2649              	.LASF119:
 2650 023d 6F737065 		.ascii	"ospeedr\000"
 2650      65647200 
 2651              	.LASF113:
 2652 0245 4C434B52 		.ascii	"LCKR\000"
 2652      00
 2653              	.LASF118:
 2654 024a 6F747970 		.ascii	"otyper\000"
 2654      657200
 2655              	.LASF6:
 2656 0251 73686F72 		.ascii	"short unsigned int\000"
 2656      7420756E 
 2656      7369676E 
 2656      65642069 
 2656      6E7400
 2657              	.LASF129:
 2658 0264 50464461 		.ascii	"PFData\000"
 2658      746100
 2659              	.LASF46:
 2660 026b 63685F74 		.ascii	"ch_thread\000"
 2660      68726561 
 2660      6400
 2661              	.LASF24:
 2662 0275 6D73675F 		.ascii	"msg_t\000"
 2662      7400
 2663              	.LASF72:
 2664 027b 63685F73 		.ascii	"ch_system_t\000"
 2664      79737465 
 2664      6D5F7400 
 2665              	.LASF20:
 2666 0287 746D6F64 		.ascii	"tmode_t\000"
 2666      655F7400 
 2667              	.LASF51:
 2668 028f 63685F72 		.ascii	"ch_ready_list\000"
 2668      65616479 
 2668      5F6C6973 
 2668      7400
 2669              	.LASF25:
 2670 029d 6576656E 		.ascii	"eventmask_t\000"
ARM GAS  /tmp/ccUaYBoa.s 			page 50


 2670      746D6173 
 2670      6B5F7400 
 2671              	.LASF7:
 2672 02a9 5F5F696E 		.ascii	"__int32_t\000"
 2672      7433325F 
 2672      7400
 2673              	.LASF91:
 2674 02b3 73746B61 		.ascii	"stkalign_t\000"
 2674      6C69676E 
 2674      5F7400
 2675              	.LASF45:
 2676 02be 74687265 		.ascii	"threads_list_t\000"
 2676      6164735F 
 2676      6C697374 
 2676      5F7400
 2677              	.LASF38:
 2678 02cd 705F7761 		.ascii	"p_waiting\000"
 2678      6974696E 
 2678      6700
 2679              	.LASF78:
 2680 02d7 73697A65 		.ascii	"sizetype\000"
 2680      74797065 
 2680      00
 2681              	.LASF67:
 2682 02e0 63685F76 		.ascii	"ch_virtual_timers_list\000"
 2682      69727475 
 2682      616C5F74 
 2682      696D6572 
 2682      735F6C69 
 2683              	.LASF107:
 2684 02f7 636C6561 		.ascii	"clear\000"
 2684      7200
 2685              	.LASF28:
 2686 02fd 705F6E65 		.ascii	"p_next\000"
 2686      787400
 2687              	.LASF68:
 2688 0304 76745F6C 		.ascii	"vt_lasttime\000"
 2688      61737474 
 2688      696D6500 
 2689              	.LASF33:
 2690 0310 705F6F6C 		.ascii	"p_older\000"
 2690      64657200 
 2691              	.LASF54:
 2692 0318 725F6374 		.ascii	"r_ctx\000"
 2692      7800
 2693              	.LASF95:
 2694 031e 746D5F63 		.ascii	"tm_calibration_t\000"
 2694      616C6962 
 2694      72617469 
 2694      6F6E5F74 
 2694      00
 2695              	.LASF122:
 2696 032f 61667268 		.ascii	"afrh\000"
 2696      00
 2697              	.LASF86:
 2698 0334 41484252 		.ascii	"AHBRSTR\000"
 2698      53545200 
ARM GAS  /tmp/ccUaYBoa.s 			page 51


 2699              	.LASF127:
 2700 033c 50444461 		.ascii	"PDData\000"
 2700      746100
 2701              	.LASF57:
 2702 0343 725F6375 		.ascii	"r_current\000"
 2702      7272656E 
 2702      7400
 2703              	.LASF81:
 2704 034d 41504231 		.ascii	"APB1RSTR\000"
 2704      52535452 
 2704      00
 2705              	.LASF12:
 2706 0356 5F5F7569 		.ascii	"__uint64_t\000"
 2706      6E743634 
 2706      5F7400
 2707              	.LASF115:
 2708 0361 41465248 		.ascii	"AFRH\000"
 2708      00
 2709              	.LASF114:
 2710 0366 4146524C 		.ascii	"AFRL\000"
 2710      00
 2711              	.LASF22:
 2712 036b 74726566 		.ascii	"trefs_t\000"
 2712      735F7400 
 2713              	.LASF59:
 2714 0373 76697274 		.ascii	"virtual_timer_t\000"
 2714      75616C5F 
 2714      74696D65 
 2714      725F7400 
 2715              	.LASF29:
 2716 0383 705F7072 		.ascii	"p_prev\000"
 2716      657600
 2717              	.LASF23:
 2718 038a 74707269 		.ascii	"tprio_t\000"
 2718      6F5F7400 
 2719              	.LASF101:
 2720 0392 6D757465 		.ascii	"mutex\000"
 2720      7800
 2721              	.LASF70:
 2722 0398 63685F73 		.ascii	"ch_system_debug\000"
 2722      79737465 
 2722      6D5F6465 
 2722      62756700 
 2723              	.LASF106:
 2724 03a8 5F426F6F 		.ascii	"_Bool\000"
 2724      6C00
 2725              	.LASF16:
 2726 03ae 696E7433 		.ascii	"int32_t\000"
 2726      325F7400 
 2727              	.LASF2:
 2728 03b6 756E7369 		.ascii	"unsigned char\000"
 2728      676E6564 
 2728      20636861 
 2728      7200
 2729              	.LASF121:
 2730 03c4 6166726C 		.ascii	"afrl\000"
 2730      00
ARM GAS  /tmp/ccUaYBoa.s 			page 52


 2731              	.LASF42:
 2732 03c9 705F6D74 		.ascii	"p_mtxlist\000"
 2732      786C6973 
 2732      7400
 2733              	.LASF3:
 2734 03d3 73686F72 		.ascii	"short int\000"
 2734      7420696E 
 2734      7400
 2735              	.LASF35:
 2736 03dd 705F7374 		.ascii	"p_state\000"
 2736      61746500 
 2737              	.LASF53:
 2738 03e5 725F7072 		.ascii	"r_prio\000"
 2738      696F00
 2739              	.LASF124:
 2740 03ec 50414461 		.ascii	"PAData\000"
 2740      746100
 2741              	.LASF99:
 2742 03f3 65776D61 		.ascii	"ewmask\000"
 2742      736B00
 2743              	.LASF144:
 2744 03fa 474E5520 		.ascii	"GNU C 4.9.3 20141119 (release) [ARM/embedded-4_9-br"
 2744      4320342E 
 2744      392E3320 
 2744      32303134 
 2744      31313139 
 2745 042d 616E6368 		.ascii	"anch revision 218278] -mcpu=cortex-m4 -mfloat-abi=h"
 2745      20726576 
 2745      6973696F 
 2745      6E203231 
 2745      38323738 
 2746 0460 61726420 		.ascii	"ard -mfpu=fpv4-sp-d16 -mno-thumb-interwork -mthumb "
 2746      2D6D6670 
 2746      753D6670 
 2746      76342D73 
 2746      702D6431 
 2747 0493 2D676764 		.ascii	"-ggdb -O2 -fomit-frame-pointer -falign-functions=16"
 2747      62202D4F 
 2747      32202D66 
 2747      6F6D6974 
 2747      2D667261 
 2748 04c6 202D6666 		.ascii	" -ffunction-sections -fdata-sections -fno-common -f"
 2748      756E6374 
 2748      696F6E2D 
 2748      73656374 
 2748      696F6E73 
 2749 04f9 73696E67 		.ascii	"single-precision-constant\000"
 2749      6C652D70 
 2749      72656369 
 2749      73696F6E 
 2749      2D636F6E 
 2750              	.LASF36:
 2751 0513 705F666C 		.ascii	"p_flags\000"
 2751      61677300 
 2752              	.LASF134:
 2753 051b 6770696F 		.ascii	"gpiop\000"
 2753      7000
ARM GAS  /tmp/ccUaYBoa.s 			page 53


 2754              	.LASF83:
 2755 0521 41504232 		.ascii	"APB2ENR\000"
 2755      454E5200 
 2756              	.LASF60:
 2757 0529 63685F76 		.ascii	"ch_virtual_timer\000"
 2757      69727475 
 2757      616C5F74 
 2757      696D6572 
 2757      00
 2758              	.LASF41:
 2759 053a 705F6570 		.ascii	"p_epending\000"
 2759      656E6469 
 2759      6E6700
 2760              	.LASF17:
 2761 0545 75696E74 		.ascii	"uint32_t\000"
 2761      33325F74 
 2761      00
 2762              	.LASF52:
 2763 054e 725F7175 		.ascii	"r_queue\000"
 2763      65756500 
 2764              	.LASF47:
 2765 0556 63685F74 		.ascii	"ch_threads_list\000"
 2765      68726561 
 2765      64735F6C 
 2765      69737400 
 2766              	.LASF10:
 2767 0566 6C6F6E67 		.ascii	"long unsigned int\000"
 2767      20756E73 
 2767      69676E65 
 2767      6420696E 
 2767      7400
 2768              	.LASF141:
 2769 0578 616C7472 		.ascii	"altr\000"
 2769      00
 2770              	.LASF100:
 2771 057d 63686172 		.ascii	"char\000"
 2771      00
 2772              	.LASF140:
 2773 0582 6D6F6465 		.ascii	"mode\000"
 2773      00
 2774              	.LASF135:
 2775 0587 636F6E66 		.ascii	"config\000"
 2775      696700
 2776              	.LASF5:
 2777 058e 5F5F7569 		.ascii	"__uint16_t\000"
 2777      6E743136 
 2777      5F7400
 2778              	.LASF27:
 2779 0599 74687265 		.ascii	"thread_t\000"
 2779      61645F74 
 2779      00
 2780              	.LASF104:
 2781 05a2 6D5F6E65 		.ascii	"m_next\000"
 2781      787400
 2782              	.LASF26:
 2783 05a9 73797374 		.ascii	"systime_t\000"
 2783      696D655F 
ARM GAS  /tmp/ccUaYBoa.s 			page 54


 2783      7400
 2784              	.LASF43:
 2785 05b3 705F7265 		.ascii	"p_realprio\000"
 2785      616C7072 
 2785      696F00
 2786              	.LASF58:
 2787 05be 76746675 		.ascii	"vtfunc_t\000"
 2787      6E635F74 
 2787      00
 2788              	.LASF9:
 2789 05c7 5F5F7569 		.ascii	"__uint32_t\000"
 2789      6E743332 
 2789      5F7400
 2790              	.LASF147:
 2791 05d2 696E6974 		.ascii	"initgpio\000"
 2791      6770696F 
 2791      00
 2792              	.LASF71:
 2793 05db 70616E69 		.ascii	"panic_msg\000"
 2793      635F6D73 
 2793      6700
 2794              	.LASF94:
 2795 05e5 6F666673 		.ascii	"offset\000"
 2795      657400
 2796              	.LASF84:
 2797 05ec 41504231 		.ascii	"APB1ENR\000"
 2797      454E5200 
 2798              	.LASF133:
 2799 05f4 696F706F 		.ascii	"ioportid_t\000"
 2799      72746964 
 2799      5F7400
 2800              	.LASF92:
 2801 05ff 636F6E74 		.ascii	"context\000"
 2801      65787400 
 2802              	.LASF56:
 2803 0607 725F6F6C 		.ascii	"r_older\000"
 2803      64657200 
 2804              	.LASF137:
 2805 060f 5F70616C 		.ascii	"_pal_lld_setgroupmode\000"
 2805      5F6C6C64 
 2805      5F736574 
 2805      67726F75 
 2805      706D6F64 
 2806              	.LASF19:
 2807 0625 7274636E 		.ascii	"rtcnt_t\000"
 2807      745F7400 
 2808              	.LASF65:
 2809 062d 76745F70 		.ascii	"vt_par\000"
 2809      617200
 2810              	.LASF48:
 2811 0634 74687265 		.ascii	"threads_queue_t\000"
 2811      6164735F 
 2811      71756575 
 2811      655F7400 
 2812              	.LASF37:
 2813 0644 705F7265 		.ascii	"p_refs\000"
 2813      667300
ARM GAS  /tmp/ccUaYBoa.s 			page 55


 2814              	.LASF136:
 2815 064b 5F70616C 		.ascii	"_pal_lld_init\000"
 2815      5F6C6C64 
 2815      5F696E69 
 2815      7400
 2816              	.LASF85:
 2817 0659 42444352 		.ascii	"BDCR\000"
 2817      00
 2818              	.LASF74:
 2819 065e 726C6973 		.ascii	"rlist\000"
 2819      7400
 2820              	.LASF87:
 2821 0664 43464752 		.ascii	"CFGR2\000"
 2821      3200
 2822              	.LASF88:
 2823 066a 43464752 		.ascii	"CFGR3\000"
 2823      3300
 2824              	.LASF14:
 2825 0670 75696E74 		.ascii	"uint8_t\000"
 2825      385F7400 
 2826              	.LASF120:
 2827 0678 70757064 		.ascii	"pupdr\000"
 2827      7200
 2828              	.LASF98:
 2829 067e 77746F62 		.ascii	"wtobjp\000"
 2829      6A7000
 2830              	.LASF34:
 2831 0685 705F6E61 		.ascii	"p_name\000"
 2831      6D6500
 2832              	.LASF126:
 2833 068c 50434461 		.ascii	"PCData\000"
 2833      746100
 2834              	.LASF79:
 2835 0693 43464752 		.ascii	"CFGR\000"
 2835      00
 2836              	.LASF40:
 2837 0698 705F6D73 		.ascii	"p_msg\000"
 2837      6700
 2838              	.LASF132:
 2839 069e 696F6D6F 		.ascii	"iomode_t\000"
 2839      64655F74 
 2839      00
 2840              	.LASF130:
 2841 06a7 50414C43 		.ascii	"PALConfig\000"
 2841      6F6E6669 
 2841      6700
 2842              	.LASF103:
 2843 06b1 6D5F6F77 		.ascii	"m_owner\000"
 2843      6E657200 
 2844              	.LASF31:
 2845 06b9 705F6374 		.ascii	"p_ctx\000"
 2845      7800
 2846              	.LASF64:
 2847 06bf 76745F66 		.ascii	"vt_func\000"
 2847      756E6300 
 2848              	.LASF82:
 2849 06c7 41484245 		.ascii	"AHBENR\000"
ARM GAS  /tmp/ccUaYBoa.s 			page 56


 2849      4E5200
 2850              		.ident	"GCC: (GNU Tools for ARM Embedded Processors) 4.9.3 20141119 (release) [ARM/embedded-4_9-br
ARM GAS  /tmp/ccUaYBoa.s 			page 57


DEFINED SYMBOLS
                            *ABS*:00000000 pal_lld.c
     /tmp/ccUaYBoa.s:21     .text._pal_lld_init:00000000 $t
     /tmp/ccUaYBoa.s:27     .text._pal_lld_init:00000000 _pal_lld_init
     /tmp/ccUaYBoa.s:244    .text._pal_lld_init:000000dc $d
     /tmp/ccUaYBoa.s:254    .text._pal_lld_setgroupmode:00000000 $t
     /tmp/ccUaYBoa.s:260    .text._pal_lld_setgroupmode:00000000 _pal_lld_setgroupmode
                     .debug_frame:00000010 $d
     /tmp/ccUaYBoa.s:253    .text._pal_lld_init:000000f4 $t

NO UNDEFINED SYMBOLS
