ARM GAS  /tmp/cc49awR3.s 			page 1


   1              		.syntax unified
   2              		.cpu cortex-m4
   3              		.eabi_attribute 27, 3
   4              		.eabi_attribute 28, 1
   5              		.fpu fpv4-sp-d16
   6              		.eabi_attribute 20, 1
   7              		.eabi_attribute 21, 1
   8              		.eabi_attribute 23, 3
   9              		.eabi_attribute 24, 1
  10              		.eabi_attribute 25, 1
  11              		.eabi_attribute 26, 1
  12              		.eabi_attribute 30, 2
  13              		.eabi_attribute 34, 1
  14              		.eabi_attribute 18, 4
  15              		.thumb
  16              		.file	"serial_lld.c"
  17              		.text
  18              	.Ltext0:
  19              		.cfi_sections	.debug_frame
  20              		.section	.text.notify1,"ax",%progbits
  21              		.align	2
  22              		.p2align 4,,15
  23              		.thumb
  24              		.thumb_func
  25              		.type	notify1, %function
  26              	notify1:
  27              	.LFB259:
  28              		.file 1 "../ChibiOS/os/hal/ports/STM32/LLD/USARTv2/serial_lld.c"
  29              		.loc 1 198 0
  30              		.cfi_startproc
  31              		@ args = 0, pretend = 0, frame = 0
  32              		@ frame_needed = 0, uses_anonymous_args = 0
  33              		@ link register save eliminated.
  34              	.LVL0:
  35              		.loc 1 201 0
  36 0000 024A     		ldr	r2, .L2
  37 0002 1368     		ldr	r3, [r2]
  38 0004 43F08003 		orr	r3, r3, #128
  39 0008 1360     		str	r3, [r2]
  40 000a 7047     		bx	lr
  41              	.L3:
  42              		.align	2
  43              	.L2:
  44 000c 00380140 		.word	1073821696
  45              		.cfi_endproc
  46              	.LFE259:
  47              		.size	notify1, .-notify1
  48              		.section	.text.VectorD4,"ax",%progbits
  49              		.align	2
  50              		.p2align 4,,15
  51              		.global	VectorD4
  52              		.thumb
  53              		.thumb_func
  54              		.type	VectorD4, %function
  55              	VectorD4:
  56              	.LFB260:
  57              		.loc 1 258 0
ARM GAS  /tmp/cc49awR3.s 			page 2


  58              		.cfi_startproc
  59              		@ args = 0, pretend = 0, frame = 0
  60              		@ frame_needed = 0, uses_anonymous_args = 0
  61              	.LVL1:
  62 0000 F8B5     		push	{r3, r4, r5, r6, r7, lr}
  63              		.cfi_def_cfa_offset 24
  64              		.cfi_offset 3, -24
  65              		.cfi_offset 4, -20
  66              		.cfi_offset 5, -16
  67              		.cfi_offset 6, -12
  68              		.cfi_offset 7, -8
  69              		.cfi_offset 14, -4
  70              	.LBB267:
  71              	.LBB268:
  72              		.loc 1 147 0
  73 0002 3B4F     		ldr	r7, .L54
  74 0004 7D6F     		ldr	r5, [r7, #116]
  75              	.LVL2:
  76              		.loc 1 148 0
  77 0006 2E68     		ldr	r6, [r5]
  78              	.LVL3:
  79              		.loc 1 152 0
  80 0008 EC69     		ldr	r4, [r5, #28]
  81              	.LVL4:
  82              		.loc 1 153 0
  83 000a 2C62     		str	r4, [r5, #32]
  84              		.loc 1 156 0
  85 000c 2207     		lsls	r2, r4, #28
  86 000e 33D1     		bne	.L48
  87              	.L5:
  88              		.loc 1 160 0
  89 0010 E305     		lsls	r3, r4, #23
  90 0012 25D4     		bmi	.L49
  91              	.L10:
  92              		.loc 1 167 0
  93 0014 A006     		lsls	r0, r4, #26
  94 0016 17D4     		bmi	.L50
  95              	.L11:
  96              		.loc 1 174 0
  97 0018 3106     		lsls	r1, r6, #24
  98 001a 01D5     		bpl	.L12
  99 001c 2206     		lsls	r2, r4, #24
 100 001e 46D4     		bmi	.L51
 101              	.L12:
 102              		.loc 1 188 0
 103 0020 6306     		lsls	r3, r4, #25
 104 0022 0DD5     		bpl	.L15
 105              	.LVL5:
 106              	.LBB269:
 107              	.LBB270:
 108              	.LBB271:
 109              	.LBB272:
 110              	.LBB273:
 111              	.LBB274:
 112              		.file 2 "../ChibiOS/os/ext/CMSIS/include/core_cmFunc.h"
 113              		.loc 2 546 0
 114 0024 2023     		movs	r3, #32
ARM GAS  /tmp/cc49awR3.s 			page 3


 115              	@ 546 "../ChibiOS/os/ext/CMSIS/include/core_cmFunc.h" 1
 116 0026 83F31188 		MSR basepri, r3
 117              	@ 0 "" 2
 118              	.LVL6:
 119              		.thumb
 120              	.LBE274:
 121              	.LBE273:
 122              	.LBE272:
 123              	.LBE271:
 124              	.LBE270:
 125              	.LBE269:
 126              	.LBB275:
 127              	.LBB276:
 128              		.file 3 "../ChibiOS/os/rt/include/chqueues.h"
 129              		.loc 3 387 0
 130 002a 7A6C     		ldr	r2, [r7, #68]
 131 002c BB6C     		ldr	r3, [r7, #72]
 132 002e 3048     		ldr	r0, .L54
 133 0030 9A42     		cmp	r2, r3
 134 0032 4AD0     		beq	.L52
 135              	.L16:
 136              	.LBE276:
 137              	.LBE275:
 138              		.loc 1 192 0
 139 0034 26F04006 		bic	r6, r6, #64
 140              	.LVL7:
 141 0038 2E60     		str	r6, [r5]
 142              	.LVL8:
 143              	.LBB278:
 144              	.LBB279:
 145              	.LBB280:
 146              	.LBB281:
 147              	.LBB282:
 148              	.LBB283:
 149              		.loc 2 546 0
 150 003a 0023     		movs	r3, #0
 151              	@ 546 "../ChibiOS/os/ext/CMSIS/include/core_cmFunc.h" 1
 152 003c 83F31188 		MSR basepri, r3
 153              	@ 0 "" 2
 154              	.LVL9:
 155              		.thumb
 156              	.L15:
 157              	.LBE283:
 158              	.LBE282:
 159              	.LBE281:
 160              	.LBE280:
 161              	.LBE279:
 162              	.LBE278:
 163              	.LBE268:
 164              	.LBE267:
 165              		.loc 1 265 0
 166 0040 BDE8F840 		pop	{r3, r4, r5, r6, r7, lr}
 167              		.cfi_remember_state
 168              		.cfi_restore 14
 169              		.cfi_restore 7
 170              		.cfi_restore 6
 171              		.cfi_restore 5
ARM GAS  /tmp/cc49awR3.s 			page 4


 172              		.cfi_restore 4
 173              		.cfi_restore 3
 174              		.cfi_def_cfa_offset 0
 175              	.LVL10:
 176              		.loc 1 264 0
 177 0044 FFF7FEBF 		b	_port_irq_epilogue
 178              	.LVL11:
 179              	.L50:
 180              		.cfi_restore_state
 181              	.LBB346:
 182              	.LBB345:
 183              	.LBB284:
 184              	.LBB285:
 185              	.LBB286:
 186              	.LBB287:
 187              	.LBB288:
 188              	.LBB289:
 189              		.loc 2 546 0
 190 0048 2023     		movs	r3, #32
 191              	@ 546 "../ChibiOS/os/ext/CMSIS/include/core_cmFunc.h" 1
 192 004a 83F31188 		MSR basepri, r3
 193              	@ 0 "" 2
 194              		.thumb
 195              	.LBE289:
 196              	.LBE288:
 197              	.LBE287:
 198              	.LBE286:
 199              	.LBE285:
 200              	.LBE284:
 201              		.loc 1 169 0
 202 004e A98C     		ldrh	r1, [r5, #36]
 203 0050 2748     		ldr	r0, .L54
 204 0052 C9B2     		uxtb	r1, r1
 205 0054 FFF7FEFF 		bl	sdIncomingDataI
 206              	.LVL12:
 207              	.LBB290:
 208              	.LBB291:
 209              	.LBB292:
 210              	.LBB293:
 211              	.LBB294:
 212              	.LBB295:
 213              		.loc 2 546 0
 214 0058 0023     		movs	r3, #0
 215              	@ 546 "../ChibiOS/os/ext/CMSIS/include/core_cmFunc.h" 1
 216 005a 83F31188 		MSR basepri, r3
 217              	@ 0 "" 2
 218              		.thumb
 219 005e DBE7     		b	.L11
 220              	.LVL13:
 221              	.L49:
 222              	.LBE295:
 223              	.LBE294:
 224              	.LBE293:
 225              	.LBE292:
 226              	.LBE291:
 227              	.LBE290:
 228              	.LBB296:
ARM GAS  /tmp/cc49awR3.s 			page 5


 229              	.LBB297:
 230              	.LBB298:
 231              	.LBB299:
 232              	.LBB300:
 233              	.LBB301:
 234 0060 2023     		movs	r3, #32
 235              	@ 546 "../ChibiOS/os/ext/CMSIS/include/core_cmFunc.h" 1
 236 0062 83F31188 		MSR basepri, r3
 237              	@ 0 "" 2
 238              	.LVL14:
 239              		.thumb
 240              	.LBE301:
 241              	.LBE300:
 242              	.LBE299:
 243              	.LBE298:
 244              	.LBE297:
 245              	.LBE296:
 246              	.LBB302:
 247              	.LBB303:
 248              		.file 4 "../ChibiOS/os/hal/osal/rt/osal.h"
 249              		.loc 4 776 0
 250 0066 2348     		ldr	r0, .L54+4
 251 0068 4FF40071 		mov	r1, #512
 252 006c FFF7FEFF 		bl	chEvtBroadcastFlagsI
 253              	.LVL15:
 254              	.LBE303:
 255              	.LBE302:
 256              	.LBB304:
 257              	.LBB305:
 258              	.LBB306:
 259              	.LBB307:
 260              	.LBB308:
 261              	.LBB309:
 262              		.loc 2 546 0
 263 0070 0023     		movs	r3, #0
 264              	@ 546 "../ChibiOS/os/ext/CMSIS/include/core_cmFunc.h" 1
 265 0072 83F31188 		MSR basepri, r3
 266              	@ 0 "" 2
 267              		.thumb
 268 0076 CDE7     		b	.L10
 269              	.LVL16:
 270              	.L48:
 271              	.LBE309:
 272              	.LBE308:
 273              	.LBE307:
 274              	.LBE306:
 275              	.LBE305:
 276              	.LBE304:
 277              	.LBB310:
 278              	.LBB311:
 279              		.loc 1 129 0
 280 0078 14F0080F 		tst	r4, #8
 281 007c 0CBF     		ite	eq
 282 007e 0021     		moveq	r1, #0
 283 0080 8021     		movne	r1, #128
 284              	.LVL17:
 285              		.loc 1 130 0
ARM GAS  /tmp/cc49awR3.s 			page 6


 286 0082 E307     		lsls	r3, r4, #31
 287              		.loc 1 131 0
 288 0084 48BF     		it	mi
 289 0086 41F02001 		orrmi	r1, r1, #32
 290              	.LVL18:
 291              		.loc 1 132 0
 292 008a A007     		lsls	r0, r4, #30
 293              		.loc 1 133 0
 294 008c 48BF     		it	mi
 295 008e 41F04001 		orrmi	r1, r1, #64
 296              	.LVL19:
 297              		.loc 1 134 0
 298 0092 6207     		lsls	r2, r4, #29
 299              		.loc 1 135 0
 300 0094 48BF     		it	mi
 301 0096 41F48071 		orrmi	r1, r1, #256
 302              	.LVL20:
 303              	.LBB312:
 304              	.LBB313:
 305              	.LBB314:
 306              	.LBB315:
 307              	.LBB316:
 308              	.LBB317:
 309              		.loc 2 546 0
 310 009a 2023     		movs	r3, #32
 311              	@ 546 "../ChibiOS/os/ext/CMSIS/include/core_cmFunc.h" 1
 312 009c 83F31188 		MSR basepri, r3
 313              	@ 0 "" 2
 314              	.LVL21:
 315              		.thumb
 316              	.LBE317:
 317              	.LBE316:
 318              	.LBE315:
 319              	.LBE314:
 320              	.LBE313:
 321              	.LBE312:
 322              	.LBB318:
 323              	.LBB319:
 324              		.loc 4 776 0
 325 00a0 1448     		ldr	r0, .L54+4
 326 00a2 FFF7FEFF 		bl	chEvtBroadcastFlagsI
 327              	.LVL22:
 328              	.LBE319:
 329              	.LBE318:
 330              	.LBB320:
 331              	.LBB321:
 332              	.LBB322:
 333              	.LBB323:
 334              	.LBB324:
 335              	.LBB325:
 336              		.loc 2 546 0
 337 00a6 0023     		movs	r3, #0
 338              	@ 546 "../ChibiOS/os/ext/CMSIS/include/core_cmFunc.h" 1
 339 00a8 83F31188 		MSR basepri, r3
 340              	@ 0 "" 2
 341              		.thumb
 342 00ac B0E7     		b	.L5
ARM GAS  /tmp/cc49awR3.s 			page 7


 343              	.LVL23:
 344              	.L51:
 345              	.LBE325:
 346              	.LBE324:
 347              	.LBE323:
 348              	.LBE322:
 349              	.LBE321:
 350              	.LBE320:
 351              	.LBE311:
 352              	.LBE310:
 353              	.LBB326:
 354              	.LBB327:
 355              	.LBB328:
 356              	.LBB329:
 357              	.LBB330:
 358              	.LBB331:
 359              	.LBB332:
 360 00ae 2023     		movs	r3, #32
 361              	@ 546 "../ChibiOS/os/ext/CMSIS/include/core_cmFunc.h" 1
 362 00b0 83F31188 		MSR basepri, r3
 363              	@ 0 "" 2
 364              		.thumb
 365              	.LBE332:
 366              	.LBE331:
 367              	.LBE330:
 368              	.LBE329:
 369              	.LBE328:
 370              	.LBE327:
 371              		.loc 1 177 0
 372 00b4 1048     		ldr	r0, .L54+8
 373 00b6 FFF7FEFF 		bl	chOQGetI
 374              	.LVL24:
 375              		.loc 1 178 0
 376 00ba 0028     		cmp	r0, #0
 377 00bc 0DDB     		blt	.L53
 378              		.loc 1 183 0
 379 00be 80B2     		uxth	r0, r0
 380              	.LVL25:
 381 00c0 2885     		strh	r0, [r5, #40]	@ movhi
 382              	.L14:
 383              	.LVL26:
 384              	.LBB333:
 385              	.LBB334:
 386              	.LBB335:
 387              	.LBB336:
 388              	.LBB337:
 389              	.LBB338:
 390              		.loc 2 546 0
 391 00c2 0023     		movs	r3, #0
 392              	@ 546 "../ChibiOS/os/ext/CMSIS/include/core_cmFunc.h" 1
 393 00c4 83F31188 		MSR basepri, r3
 394              	@ 0 "" 2
 395              		.thumb
 396 00c8 AAE7     		b	.L12
 397              	.LVL27:
 398              	.L52:
 399              	.LBE338:
ARM GAS  /tmp/cc49awR3.s 			page 8


 400              	.LBE337:
 401              	.LBE336:
 402              	.LBE335:
 403              	.LBE334:
 404              	.LBE333:
 405              	.LBE326:
 406              	.LBB341:
 407              	.LBB277:
 408              		.loc 3 387 0
 409 00ca 836B     		ldr	r3, [r0, #56]
 410 00cc 002B     		cmp	r3, #0
 411 00ce B1D0     		beq	.L16
 412              	.LVL28:
 413              	.LBE277:
 414              	.LBE341:
 415              	.LBB342:
 416              	.LBB343:
 417              		.loc 4 776 0
 418 00d0 0430     		adds	r0, r0, #4
 419 00d2 1021     		movs	r1, #16
 420 00d4 FFF7FEFF 		bl	chEvtBroadcastFlagsI
 421              	.LVL29:
 422 00d8 ACE7     		b	.L16
 423              	.LVL30:
 424              	.L53:
 425              	.LBE343:
 426              	.LBE342:
 427              	.LBB344:
 428              	.LBB339:
 429              	.LBB340:
 430 00da 0648     		ldr	r0, .L54+4
 431              	.LVL31:
 432 00dc 0821     		movs	r1, #8
 433 00de FFF7FEFF 		bl	chEvtBroadcastFlagsI
 434              	.LVL32:
 435              	.LBE340:
 436              	.LBE339:
 437              		.loc 1 180 0
 438 00e2 26F0C003 		bic	r3, r6, #192
 439 00e6 43F04003 		orr	r3, r3, #64
 440 00ea 2B60     		str	r3, [r5]
 441 00ec E9E7     		b	.L14
 442              	.L55:
 443 00ee 00BF     		.align	2
 444              	.L54:
 445 00f0 00000000 		.word	.LANCHOR0
 446 00f4 04000000 		.word	.LANCHOR0+4
 447 00f8 30000000 		.word	.LANCHOR0+48
 448              	.LBE344:
 449              	.LBE345:
 450              	.LBE346:
 451              		.cfi_endproc
 452              	.LFE260:
 453              		.size	VectorD4, .-VectorD4
 454 00fc AFF30080 		.section	.text.sd_lld_init,"ax",%progbits
 455              		.align	2
 456              		.p2align 4,,15
ARM GAS  /tmp/cc49awR3.s 			page 9


 457              		.global	sd_lld_init
 458              		.thumb
 459              		.thumb_func
 460              		.type	sd_lld_init, %function
 461              	sd_lld_init:
 462              	.LFB261:
 463              		.loc 1 372 0
 464              		.cfi_startproc
 465              		@ args = 0, pretend = 0, frame = 0
 466              		@ frame_needed = 0, uses_anonymous_args = 0
 467 0000 10B5     		push	{r4, lr}
 468              		.cfi_def_cfa_offset 8
 469              		.cfi_offset 4, -8
 470              		.cfi_offset 14, -4
 471              		.loc 1 375 0
 472 0002 054C     		ldr	r4, .L58
 473 0004 054A     		ldr	r2, .L58+4
 474 0006 2046     		mov	r0, r4
 475 0008 0021     		movs	r1, #0
 476 000a FFF7FEFF 		bl	sdObjectInit
 477              	.LVL33:
 478              		.loc 1 376 0
 479 000e 044A     		ldr	r2, .L58+8
 480              		.loc 1 377 0
 481 0010 044B     		ldr	r3, .L58+12
 482              		.loc 1 376 0
 483 0012 6267     		str	r2, [r4, #116]
 484              		.loc 1 377 0
 485 0014 A367     		str	r3, [r4, #120]
 486 0016 10BD     		pop	{r4, pc}
 487              	.L59:
 488              		.align	2
 489              	.L58:
 490 0018 00000000 		.word	.LANCHOR0
 491 001c 00000000 		.word	notify1
 492 0020 00380140 		.word	1073821696
 493 0024 00512502 		.word	36000000
 494              		.cfi_endproc
 495              	.LFE261:
 496              		.size	sd_lld_init, .-sd_lld_init
 497 0028 AFF30080 		.section	.text.sd_lld_start,"ax",%progbits
 497      AFF30080 
 498              		.align	2
 499              		.p2align 4,,15
 500              		.global	sd_lld_start
 501              		.thumb
 502              		.thumb_func
 503              		.type	sd_lld_start, %function
 504              	sd_lld_start:
 505              	.LFB262:
 506              		.loc 1 421 0
 507              		.cfi_startproc
 508              		@ args = 0, pretend = 0, frame = 0
 509              		@ frame_needed = 0, uses_anonymous_args = 0
 510              	.LVL34:
 511 0000 70B5     		push	{r4, r5, r6, lr}
 512              		.cfi_def_cfa_offset 16
ARM GAS  /tmp/cc49awR3.s 			page 10


 513              		.cfi_offset 4, -16
 514              		.cfi_offset 5, -12
 515              		.cfi_offset 6, -8
 516              		.cfi_offset 14, -4
 517              		.loc 1 426 0
 518 0002 037A     		ldrb	r3, [r0, #8]	@ zero_extendqisi2
 519              		.loc 1 424 0
 520 0004 164C     		ldr	r4, .L65
 521 0006 0029     		cmp	r1, #0
 522 0008 18BF     		it	ne
 523 000a 0C46     		movne	r4, r1
 524              	.LVL35:
 525              		.loc 1 426 0
 526 000c 012B     		cmp	r3, #1
 527              		.loc 1 421 0
 528 000e 0646     		mov	r6, r0
 529              		.loc 1 426 0
 530 0010 18D0     		beq	.L64
 531              	.LVL36:
 532              	.L62:
 533              	.LBB347:
 534              	.LBB348:
 535              		.loc 1 101 0
 536 0012 6268     		ldr	r2, [r4, #4]
 537              		.loc 1 98 0
 538 0014 A568     		ldr	r5, [r4, #8]
 539              		.loc 1 99 0
 540 0016 E068     		ldr	r0, [r4, #12]
 541 0018 736F     		ldr	r3, [r6, #116]
 542              	.LVL37:
 543              		.loc 1 95 0
 544 001a 2468     		ldr	r4, [r4]
 545              	.LVL38:
 546 001c B16F     		ldr	r1, [r6, #120]
 547 001e B1FBF4F1 		udiv	r1, r1, r4
 548              		.loc 1 101 0
 549 0022 42F49672 		orr	r2, r2, #300
 550              		.loc 1 98 0
 551 0026 45F04004 		orr	r4, r5, #64
 552              		.loc 1 95 0
 553 002a 89B2     		uxth	r1, r1
 554              		.loc 1 99 0
 555 002c 40F00100 		orr	r0, r0, #1
 556              		.loc 1 101 0
 557 0030 42F00102 		orr	r2, r2, #1
 558              		.loc 1 103 0
 559 0034 4FF0FF35 		mov	r5, #-1
 560              		.loc 1 95 0
 561 0038 D960     		str	r1, [r3, #12]
 562              		.loc 1 98 0
 563 003a 5C60     		str	r4, [r3, #4]
 564              		.loc 1 99 0
 565 003c 9860     		str	r0, [r3, #8]
 566              		.loc 1 100 0
 567 003e 1A60     		str	r2, [r3]
 568              		.loc 1 103 0
 569 0040 1D62     		str	r5, [r3, #32]
ARM GAS  /tmp/cc49awR3.s 			page 11


 570 0042 70BD     		pop	{r4, r5, r6, pc}
 571              	.LVL39:
 572              	.L64:
 573              	.LBE348:
 574              	.LBE347:
 575              		.loc 1 428 0
 576 0044 074B     		ldr	r3, .L65+4
 577 0046 9842     		cmp	r0, r3
 578 0048 E3D1     		bne	.L62
 579              		.loc 1 429 0
 580 004a 074A     		ldr	r2, .L65+8
 581 004c 9369     		ldr	r3, [r2, #24]
 582 004e 43F48043 		orr	r3, r3, #16384
 583 0052 9361     		str	r3, [r2, #24]
 584              		.loc 1 430 0
 585 0054 2520     		movs	r0, #37
 586              	.LVL40:
 587 0056 0C21     		movs	r1, #12
 588 0058 FFF7FEFF 		bl	nvicEnableVector
 589              	.LVL41:
 590 005c D9E7     		b	.L62
 591              	.L66:
 592 005e 00BF     		.align	2
 593              	.L65:
 594 0060 00000000 		.word	.LANCHOR1
 595 0064 00000000 		.word	.LANCHOR0
 596 0068 00100240 		.word	1073876992
 597              		.cfi_endproc
 598              	.LFE262:
 599              		.size	sd_lld_start, .-sd_lld_start
 600 006c AFF30080 		.section	.text.sd_lld_stop,"ax",%progbits
 601              		.align	2
 602              		.p2align 4,,15
 603              		.global	sd_lld_stop
 604              		.thumb
 605              		.thumb_func
 606              		.type	sd_lld_stop, %function
 607              	sd_lld_stop:
 608              	.LFB263:
 609              		.loc 1 476 0
 610              		.cfi_startproc
 611              		@ args = 0, pretend = 0, frame = 0
 612              		@ frame_needed = 0, uses_anonymous_args = 0
 613              		@ link register save eliminated.
 614              	.LVL42:
 615              		.loc 1 478 0
 616 0000 037A     		ldrb	r3, [r0, #8]	@ zero_extendqisi2
 617 0002 022B     		cmp	r3, #2
 618 0004 00D0     		beq	.L71
 619              	.L67:
 620 0006 7047     		bx	lr
 621              	.L71:
 622              		.loc 1 481 0
 623 0008 0949     		ldr	r1, .L72
 624              		.loc 1 479 0
 625 000a 436F     		ldr	r3, [r0, #116]
 626              	.LVL43:
ARM GAS  /tmp/cc49awR3.s 			page 12


 627              	.LBB349:
 628              	.LBB350:
 629              		.loc 1 114 0
 630 000c 0022     		movs	r2, #0
 631              	.LBE350:
 632              	.LBE349:
 633              		.loc 1 481 0
 634 000e 8842     		cmp	r0, r1
 635              	.LBB352:
 636              	.LBB351:
 637              		.loc 1 114 0
 638 0010 1A60     		str	r2, [r3]
 639              		.loc 1 115 0
 640 0012 5A60     		str	r2, [r3, #4]
 641              		.loc 1 116 0
 642 0014 9A60     		str	r2, [r3, #8]
 643              	.LBE351:
 644              	.LBE352:
 645              		.loc 1 481 0
 646 0016 F6D1     		bne	.L67
 647              		.loc 1 482 0
 648 0018 02F18042 		add	r2, r2, #1073741824
 649 001c 02F50432 		add	r2, r2, #135168
 650              		.loc 1 483 0
 651 0020 2520     		movs	r0, #37
 652              	.LVL44:
 653              		.loc 1 482 0
 654 0022 9369     		ldr	r3, [r2, #24]
 655              	.LVL45:
 656 0024 23F48043 		bic	r3, r3, #16384
 657 0028 9361     		str	r3, [r2, #24]
 658              		.loc 1 483 0
 659 002a FFF7FEBF 		b	nvicDisableVector
 660              	.LVL46:
 661              	.L73:
 662 002e 00BF     		.align	2
 663              	.L72:
 664 0030 00000000 		.word	.LANCHOR0
 665              		.cfi_endproc
 666              	.LFE263:
 667              		.size	sd_lld_stop, .-sd_lld_stop
 668              		.global	SD1
 669 0034 AFF30080 		.section	.rodata.default_config,"a",%progbits
 669      AFF30080 
 669      AFF30080 
 670              		.align	2
 671              		.set	.LANCHOR1,. + 0
 672              		.type	default_config, %object
 673              		.size	default_config, 16
 674              	default_config:
 675 0000 80250000 		.word	9600
 676 0004 00000000 		.word	0
 677 0008 00400000 		.word	16384
 678 000c 00000000 		.word	0
 679              		.section	.bss.SD1,"aw",%nobits
 680              		.align	2
 681              		.set	.LANCHOR0,. + 0
ARM GAS  /tmp/cc49awR3.s 			page 13


 682              		.type	SD1, %object
 683              		.size	SD1, 124
 684              	SD1:
 685 0000 00000000 		.space	124
 685      00000000 
 685      00000000 
 685      00000000 
 685      00000000 
 686              		.text
 687              	.Letext0:
 688              		.file 5 "/l/arm2/gcc-arm-none-eabi-4_9-2014q4/lib/gcc/arm-none-eabi/4.9.3/include/stddef.h"
 689              		.file 6 "/l/arm2/gcc-arm-none-eabi-4_9-2014q4/arm-none-eabi/include/machine/_default_types.h"
 690              		.file 7 "/l/arm2/gcc-arm-none-eabi-4_9-2014q4/arm-none-eabi/include/stdint.h"
 691              		.file 8 "../ChibiOS/os/rt/ports/ARMCMx/compilers/GCC/chtypes.h"
 692              		.file 9 "../ChibiOS/os/rt/include/chsystypes.h"
 693              		.file 10 "../ChibiOS/os/rt/include/chschd.h"
 694              		.file 11 "../ChibiOS/os/ext/CMSIS/ST/stm32f303xc.h"
 695              		.file 12 "../ChibiOS/os/rt/ports/ARMCMx/chcore.h"
 696              		.file 13 "../ChibiOS/os/rt/ports/ARMCMx/chcore_v7m.h"
 697              		.file 14 "../ChibiOS/os/rt/include/chtm.h"
 698              		.file 15 "../ChibiOS/os/rt/include/chmtx.h"
 699              		.file 16 "../ChibiOS/os/rt/include/chevents.h"
 700              		.file 17 "../ChibiOS/os/hal/include/serial.h"
 701              		.file 18 "../ChibiOS/os/hal/ports/STM32/LLD/USARTv2/serial_lld.h"
 702              		.file 19 "../ChibiOS/os/rt/include/chsys.h"
 703              		.file 20 "../ChibiOS/os/hal/ports/common/ARMCMx/nvic.h"
 704              		.file 21 "../ChibiOS/os/ext/CMSIS/include/core_cm4.h"
 705              		.section	.debug_info,"",%progbits
 706              	.Ldebug_info0:
 707 0000 EB140000 		.4byte	0x14eb
 708 0004 0400     		.2byte	0x4
 709 0006 00000000 		.4byte	.Ldebug_abbrev0
 710 000a 04       		.byte	0x4
 711 000b 01       		.uleb128 0x1
 712 000c B1030000 		.4byte	.LASF183
 713 0010 01       		.byte	0x1
 714 0011 67020000 		.4byte	.LASF184
 715 0015 0E070000 		.4byte	.LASF185
 716 0019 60000000 		.4byte	.Ldebug_ranges0+0x60
 717 001d 00000000 		.4byte	0
 718 0021 00000000 		.4byte	.Ldebug_line0
 719 0025 02       		.uleb128 0x2
 720 0026 04       		.byte	0x4
 721 0027 05       		.byte	0x5
 722 0028 696E7400 		.ascii	"int\000"
 723 002c 03       		.uleb128 0x3
 724 002d 0D000000 		.4byte	.LASF2
 725 0031 05       		.byte	0x5
 726 0032 D4       		.byte	0xd4
 727 0033 37000000 		.4byte	0x37
 728 0037 04       		.uleb128 0x4
 729 0038 04       		.byte	0x4
 730 0039 07       		.byte	0x7
 731 003a A4020000 		.4byte	.LASF0
 732 003e 04       		.uleb128 0x4
 733 003f 01       		.byte	0x1
 734 0040 06       		.byte	0x6
ARM GAS  /tmp/cc49awR3.s 			page 14


 735 0041 36010000 		.4byte	.LASF1
 736 0045 03       		.uleb128 0x3
 737 0046 24000000 		.4byte	.LASF3
 738 004a 06       		.byte	0x6
 739 004b 1D       		.byte	0x1d
 740 004c 50000000 		.4byte	0x50
 741 0050 04       		.uleb128 0x4
 742 0051 01       		.byte	0x1
 743 0052 08       		.byte	0x8
 744 0053 FD050000 		.4byte	.LASF4
 745 0057 04       		.uleb128 0x4
 746 0058 02       		.byte	0x2
 747 0059 05       		.byte	0x5
 748 005a 50060000 		.4byte	.LASF5
 749 005e 03       		.uleb128 0x3
 750 005f 63070000 		.4byte	.LASF6
 751 0063 06       		.byte	0x6
 752 0064 2B       		.byte	0x2b
 753 0065 69000000 		.4byte	0x69
 754 0069 04       		.uleb128 0x4
 755 006a 02       		.byte	0x2
 756 006b 07       		.byte	0x7
 757 006c E7010000 		.4byte	.LASF7
 758 0070 03       		.uleb128 0x3
 759 0071 B2000000 		.4byte	.LASF8
 760 0075 06       		.byte	0x6
 761 0076 3F       		.byte	0x3f
 762 0077 7B000000 		.4byte	0x7b
 763 007b 04       		.uleb128 0x4
 764 007c 04       		.byte	0x4
 765 007d 05       		.byte	0x5
 766 007e 8A010000 		.4byte	.LASF9
 767 0082 03       		.uleb128 0x3
 768 0083 B1070000 		.4byte	.LASF10
 769 0087 06       		.byte	0x6
 770 0088 41       		.byte	0x41
 771 0089 8D000000 		.4byte	0x8d
 772 008d 04       		.uleb128 0x4
 773 008e 04       		.byte	0x4
 774 008f 07       		.byte	0x7
 775 0090 30070000 		.4byte	.LASF11
 776 0094 04       		.uleb128 0x4
 777 0095 08       		.byte	0x8
 778 0096 05       		.byte	0x5
 779 0097 28010000 		.4byte	.LASF12
 780 009b 03       		.uleb128 0x3
 781 009c 83050000 		.4byte	.LASF13
 782 00a0 06       		.byte	0x6
 783 00a1 5B       		.byte	0x5b
 784 00a2 A6000000 		.4byte	0xa6
 785 00a6 04       		.uleb128 0x4
 786 00a7 08       		.byte	0x8
 787 00a8 07       		.byte	0x7
 788 00a9 6E000000 		.4byte	.LASF14
 789 00ad 03       		.uleb128 0x3
 790 00ae A7080000 		.4byte	.LASF15
 791 00b2 07       		.byte	0x7
ARM GAS  /tmp/cc49awR3.s 			page 15


 792 00b3 15       		.byte	0x15
 793 00b4 45000000 		.4byte	0x45
 794 00b8 03       		.uleb128 0x3
 795 00b9 B9020000 		.4byte	.LASF16
 796 00bd 07       		.byte	0x7
 797 00be 21       		.byte	0x21
 798 00bf 5E000000 		.4byte	0x5e
 799 00c3 03       		.uleb128 0x3
 800 00c4 F5050000 		.4byte	.LASF17
 801 00c8 07       		.byte	0x7
 802 00c9 2C       		.byte	0x2c
 803 00ca 70000000 		.4byte	0x70
 804 00ce 03       		.uleb128 0x3
 805 00cf CE060000 		.4byte	.LASF18
 806 00d3 07       		.byte	0x7
 807 00d4 2D       		.byte	0x2d
 808 00d5 82000000 		.4byte	0x82
 809 00d9 03       		.uleb128 0x3
 810 00da 1B000000 		.4byte	.LASF19
 811 00de 07       		.byte	0x7
 812 00df 39       		.byte	0x39
 813 00e0 9B000000 		.4byte	0x9b
 814 00e4 05       		.uleb128 0x5
 815 00e5 B8000000 		.4byte	0xb8
 816 00e9 05       		.uleb128 0x5
 817 00ea C3000000 		.4byte	0xc3
 818 00ee 05       		.uleb128 0x5
 819 00ef CE000000 		.4byte	0xce
 820 00f3 03       		.uleb128 0x3
 821 00f4 14080000 		.4byte	.LASF20
 822 00f8 08       		.byte	0x8
 823 00f9 45       		.byte	0x45
 824 00fa CE000000 		.4byte	0xce
 825 00fe 03       		.uleb128 0x3
 826 00ff 68060000 		.4byte	.LASF21
 827 0103 08       		.byte	0x8
 828 0104 48       		.byte	0x48
 829 0105 AD000000 		.4byte	0xad
 830 0109 03       		.uleb128 0x3
 831 010a 9C010000 		.4byte	.LASF22
 832 010e 08       		.byte	0x8
 833 010f 49       		.byte	0x49
 834 0110 AD000000 		.4byte	0xad
 835 0114 03       		.uleb128 0x3
 836 0115 96050000 		.4byte	.LASF23
 837 0119 08       		.byte	0x8
 838 011a 4A       		.byte	0x4a
 839 011b AD000000 		.4byte	0xad
 840 011f 03       		.uleb128 0x3
 841 0120 C9050000 		.4byte	.LASF24
 842 0124 08       		.byte	0x8
 843 0125 4C       		.byte	0x4c
 844 0126 CE000000 		.4byte	0xce
 845 012a 03       		.uleb128 0x3
 846 012b 20030000 		.4byte	.LASF25
 847 012f 08       		.byte	0x8
 848 0130 4D       		.byte	0x4d
ARM GAS  /tmp/cc49awR3.s 			page 16


 849 0131 C3000000 		.4byte	0xc3
 850 0135 03       		.uleb128 0x3
 851 0136 72030000 		.4byte	.LASF26
 852 013a 08       		.byte	0x8
 853 013b 4F       		.byte	0x4f
 854 013c CE000000 		.4byte	0xce
 855 0140 03       		.uleb128 0x3
 856 0141 4C080000 		.4byte	.LASF27
 857 0145 08       		.byte	0x8
 858 0146 50       		.byte	0x50
 859 0147 CE000000 		.4byte	0xce
 860 014b 03       		.uleb128 0x3
 861 014c 93070000 		.4byte	.LASF28
 862 0150 09       		.byte	0x9
 863 0151 33       		.byte	0x33
 864 0152 CE000000 		.4byte	0xce
 865 0156 03       		.uleb128 0x3
 866 0157 83070000 		.4byte	.LASF29
 867 015b 09       		.byte	0x9
 868 015c 3F       		.byte	0x3f
 869 015d 61010000 		.4byte	0x161
 870 0161 06       		.uleb128 0x6
 871 0162 05030000 		.4byte	.LASF48
 872 0166 44       		.byte	0x44
 873 0167 0A       		.byte	0xa
 874 0168 BE       		.byte	0xbe
 875 0169 4E020000 		.4byte	0x24e
 876 016d 07       		.uleb128 0x7
 877 016e 18050000 		.4byte	.LASF30
 878 0172 0A       		.byte	0xa
 879 0173 BF       		.byte	0xbf
 880 0174 75070000 		.4byte	0x775
 881 0178 00       		.byte	0
 882 0179 07       		.uleb128 0x7
 883 017a C2050000 		.4byte	.LASF31
 884 017e 0A       		.byte	0xa
 885 017f C1       		.byte	0xc1
 886 0180 75070000 		.4byte	0x775
 887 0184 04       		.byte	0x4
 888 0185 07       		.uleb128 0x7
 889 0186 B5080000 		.4byte	.LASF32
 890 018a 0A       		.byte	0xa
 891 018b C3       		.byte	0xc3
 892 018c 1F010000 		.4byte	0x11f
 893 0190 08       		.byte	0x8
 894 0191 07       		.uleb128 0x7
 895 0192 07090000 		.4byte	.LASF33
 896 0196 0A       		.byte	0xa
 897 0197 C4       		.byte	0xc4
 898 0198 F5050000 		.4byte	0x5f5
 899 019c 0C       		.byte	0xc
 900 019d 07       		.uleb128 0x7
 901 019e CC010000 		.4byte	.LASF34
 902 01a2 0A       		.byte	0xa
 903 01a3 C6       		.byte	0xc6
 904 01a4 75070000 		.4byte	0x775
 905 01a8 10       		.byte	0x10
ARM GAS  /tmp/cc49awR3.s 			page 17


 906 01a9 07       		.uleb128 0x7
 907 01aa 2B050000 		.4byte	.LASF35
 908 01ae 0A       		.byte	0xa
 909 01af C7       		.byte	0xc7
 910 01b0 75070000 		.4byte	0x775
 911 01b4 14       		.byte	0x14
 912 01b5 07       		.uleb128 0x7
 913 01b6 78080000 		.4byte	.LASF36
 914 01ba 0A       		.byte	0xa
 915 01bb CE       		.byte	0xce
 916 01bc B3070000 		.4byte	0x7b3
 917 01c0 18       		.byte	0x18
 918 01c1 07       		.uleb128 0x7
 919 01c2 47010000 		.4byte	.LASF37
 920 01c6 0A       		.byte	0xa
 921 01c7 D9       		.byte	0xd9
 922 01c8 09010000 		.4byte	0x109
 923 01cc 1C       		.byte	0x1c
 924 01cd 07       		.uleb128 0x7
 925 01ce 70060000 		.4byte	.LASF38
 926 01d2 0A       		.byte	0xa
 927 01d3 DD       		.byte	0xdd
 928 01d4 FE000000 		.4byte	0xfe
 929 01d8 1D       		.byte	0x1d
 930 01d9 07       		.uleb128 0x7
 931 01da 52050000 		.4byte	.LASF39
 932 01de 0A       		.byte	0xa
 933 01df E2       		.byte	0xe2
 934 01e0 14010000 		.4byte	0x114
 935 01e4 1E       		.byte	0x1e
 936 01e5 08       		.uleb128 0x8
 937 01e6 705F7500 		.ascii	"p_u\000"
 938 01ea 0A       		.byte	0xa
 939 01eb 1401     		.2byte	0x114
 940 01ed 7B070000 		.4byte	0x77b
 941 01f1 20       		.byte	0x20
 942 01f2 09       		.uleb128 0x9
 943 01f3 2B090000 		.4byte	.LASF40
 944 01f7 0A       		.byte	0xa
 945 01f8 1901     		.2byte	0x119
 946 01fa 4E020000 		.4byte	0x24e
 947 01fe 24       		.byte	0x24
 948 01ff 09       		.uleb128 0x9
 949 0200 DB020000 		.4byte	.LASF41
 950 0204 0A       		.byte	0xa
 951 0205 1F01     		.2byte	0x11f
 952 0207 72020000 		.4byte	0x272
 953 020b 28       		.byte	0x28
 954 020c 09       		.uleb128 0x9
 955 020d 0E080000 		.4byte	.LASF42
 956 0211 0A       		.byte	0xa
 957 0212 2301     		.2byte	0x123
 958 0214 2A010000 		.4byte	0x12a
 959 0218 30       		.byte	0x30
 960 0219 09       		.uleb128 0x9
 961 021a B9060000 		.4byte	.LASF43
 962 021e 0A       		.byte	0xa
ARM GAS  /tmp/cc49awR3.s 			page 18


 963 021f 2901     		.2byte	0x129
 964 0221 35010000 		.4byte	0x135
 965 0225 34       		.byte	0x34
 966 0226 09       		.uleb128 0x9
 967 0227 46060000 		.4byte	.LASF44
 968 022b 0A       		.byte	0xa
 969 022c 3001     		.2byte	0x130
 970 022e F6070000 		.4byte	0x7f6
 971 0232 38       		.byte	0x38
 972 0233 09       		.uleb128 0x9
 973 0234 9D070000 		.4byte	.LASF45
 974 0238 0A       		.byte	0xa
 975 0239 3401     		.2byte	0x134
 976 023b 1F010000 		.4byte	0x11f
 977 023f 3C       		.byte	0x3c
 978 0240 09       		.uleb128 0x9
 979 0241 4F010000 		.4byte	.LASF46
 980 0245 0A       		.byte	0xa
 981 0246 3A01     		.2byte	0x13a
 982 0248 25030000 		.4byte	0x325
 983 024c 40       		.byte	0x40
 984 024d 00       		.byte	0
 985 024e 03       		.uleb128 0x3
 986 024f A2030000 		.4byte	.LASF47
 987 0253 09       		.byte	0x9
 988 0254 44       		.byte	0x44
 989 0255 59020000 		.4byte	0x259
 990 0259 06       		.uleb128 0x6
 991 025a DF060000 		.4byte	.LASF49
 992 025e 04       		.byte	0x4
 993 025f 0A       		.byte	0xa
 994 0260 AC       		.byte	0xac
 995 0261 72020000 		.4byte	0x272
 996 0265 07       		.uleb128 0x7
 997 0266 18050000 		.4byte	.LASF30
 998 026a 0A       		.byte	0xa
 999 026b AD       		.byte	0xad
 1000 026c 75070000 		.4byte	0x775
 1001 0270 00       		.byte	0
 1002 0271 00       		.byte	0
 1003 0272 03       		.uleb128 0x3
 1004 0273 88060000 		.4byte	.LASF50
 1005 0277 09       		.byte	0x9
 1006 0278 4B       		.byte	0x4b
 1007 0279 7D020000 		.4byte	0x27d
 1008 027d 06       		.uleb128 0x6
 1009 027e F2000000 		.4byte	.LASF51
 1010 0282 08       		.byte	0x8
 1011 0283 0A       		.byte	0xa
 1012 0284 B3       		.byte	0xb3
 1013 0285 A2020000 		.4byte	0x2a2
 1014 0289 07       		.uleb128 0x7
 1015 028a 18050000 		.4byte	.LASF30
 1016 028e 0A       		.byte	0xa
 1017 028f B4       		.byte	0xb4
 1018 0290 75070000 		.4byte	0x775
 1019 0294 00       		.byte	0
ARM GAS  /tmp/cc49awR3.s 			page 19


 1020 0295 07       		.uleb128 0x7
 1021 0296 C2050000 		.4byte	.LASF31
 1022 029a 0A       		.byte	0xa
 1023 029b B5       		.byte	0xb5
 1024 029c 75070000 		.4byte	0x775
 1025 02a0 04       		.byte	0x4
 1026 02a1 00       		.byte	0
 1027 02a2 03       		.uleb128 0x3
 1028 02a3 00000000 		.4byte	.LASF52
 1029 02a7 09       		.byte	0x9
 1030 02a8 52       		.byte	0x52
 1031 02a9 AD020000 		.4byte	0x2ad
 1032 02ad 0A       		.uleb128 0xa
 1033 02ae 64030000 		.4byte	.LASF53
 1034 02b2 1C       		.byte	0x1c
 1035 02b3 0A       		.byte	0xa
 1036 02b4 7201     		.2byte	0x172
 1037 02b6 09030000 		.4byte	0x309
 1038 02ba 09       		.uleb128 0x9
 1039 02bb D7060000 		.4byte	.LASF54
 1040 02bf 0A       		.byte	0xa
 1041 02c0 7301     		.2byte	0x173
 1042 02c2 72020000 		.4byte	0x272
 1043 02c6 00       		.byte	0
 1044 02c7 09       		.uleb128 0x9
 1045 02c8 5A060000 		.4byte	.LASF55
 1046 02cc 0A       		.byte	0xa
 1047 02cd 7401     		.2byte	0x174
 1048 02cf 1F010000 		.4byte	0x11f
 1049 02d3 08       		.byte	0x8
 1050 02d4 09       		.uleb128 0x9
 1051 02d5 33050000 		.4byte	.LASF56
 1052 02d9 0A       		.byte	0xa
 1053 02da 7601     		.2byte	0x176
 1054 02dc F5050000 		.4byte	0x5f5
 1055 02e0 0C       		.byte	0xc
 1056 02e1 09       		.uleb128 0x9
 1057 02e2 FA010000 		.4byte	.LASF57
 1058 02e6 0A       		.byte	0xa
 1059 02e7 7901     		.2byte	0x179
 1060 02e9 75070000 		.4byte	0x775
 1061 02ed 10       		.byte	0x10
 1062 02ee 09       		.uleb128 0x9
 1063 02ef FA070000 		.4byte	.LASF58
 1064 02f3 0A       		.byte	0xa
 1065 02f4 7A01     		.2byte	0x17a
 1066 02f6 75070000 		.4byte	0x775
 1067 02fa 14       		.byte	0x14
 1068 02fb 09       		.uleb128 0x9
 1069 02fc 59050000 		.4byte	.LASF59
 1070 0300 0A       		.byte	0xa
 1071 0301 7D01     		.2byte	0x17d
 1072 0303 75070000 		.4byte	0x775
 1073 0307 18       		.byte	0x18
 1074 0308 00       		.byte	0
 1075 0309 03       		.uleb128 0x3
 1076 030a A8070000 		.4byte	.LASF60
ARM GAS  /tmp/cc49awR3.s 			page 20


 1077 030e 09       		.byte	0x9
 1078 030f 57       		.byte	0x57
 1079 0310 14030000 		.4byte	0x314
 1080 0314 0B       		.uleb128 0xb
 1081 0315 04       		.byte	0x4
 1082 0316 1A030000 		.4byte	0x31a
 1083 031a 0C       		.uleb128 0xc
 1084 031b 25030000 		.4byte	0x325
 1085 031f 0D       		.uleb128 0xd
 1086 0320 25030000 		.4byte	0x325
 1087 0324 00       		.byte	0
 1088 0325 0E       		.uleb128 0xe
 1089 0326 04       		.byte	0x4
 1090 0327 03       		.uleb128 0x3
 1091 0328 B2050000 		.4byte	.LASF61
 1092 032c 09       		.byte	0x9
 1093 032d 5C       		.byte	0x5c
 1094 032e 32030000 		.4byte	0x332
 1095 0332 0A       		.uleb128 0xa
 1096 0333 98060000 		.4byte	.LASF62
 1097 0337 14       		.byte	0x14
 1098 0338 0A       		.byte	0xa
 1099 0339 4D01     		.2byte	0x14d
 1100 033b 81030000 		.4byte	0x381
 1101 033f 09       		.uleb128 0x9
 1102 0340 B1020000 		.4byte	.LASF63
 1103 0344 0A       		.byte	0xa
 1104 0345 4E01     		.2byte	0x14e
 1105 0347 FC070000 		.4byte	0x7fc
 1106 034b 00       		.byte	0
 1107 034c 09       		.uleb128 0x9
 1108 034d 0B020000 		.4byte	.LASF64
 1109 0351 0A       		.byte	0xa
 1110 0352 4F01     		.2byte	0x14f
 1111 0354 FC070000 		.4byte	0x7fc
 1112 0358 04       		.byte	0x4
 1113 0359 09       		.uleb128 0x9
 1114 035a D2020000 		.4byte	.LASF65
 1115 035e 0A       		.byte	0xa
 1116 035f 5001     		.2byte	0x150
 1117 0361 4B010000 		.4byte	0x14b
 1118 0365 08       		.byte	0x8
 1119 0366 09       		.uleb128 0x9
 1120 0367 0D090000 		.4byte	.LASF66
 1121 036b 0A       		.byte	0xa
 1122 036c 5101     		.2byte	0x151
 1123 036e 09030000 		.4byte	0x309
 1124 0372 0C       		.byte	0xc
 1125 0373 09       		.uleb128 0x9
 1126 0374 45080000 		.4byte	.LASF67
 1127 0378 0A       		.byte	0xa
 1128 0379 5301     		.2byte	0x153
 1129 037b 25030000 		.4byte	0x325
 1130 037f 10       		.byte	0x10
 1131 0380 00       		.byte	0
 1132 0381 03       		.uleb128 0x3
 1133 0382 BC000000 		.4byte	.LASF68
ARM GAS  /tmp/cc49awR3.s 			page 21


 1134 0386 09       		.byte	0x9
 1135 0387 61       		.byte	0x61
 1136 0388 8C030000 		.4byte	0x38c
 1137 038c 0A       		.uleb128 0xa
 1138 038d F7040000 		.4byte	.LASF69
 1139 0391 10       		.byte	0x10
 1140 0392 0A       		.byte	0xa
 1141 0393 5D01     		.2byte	0x15d
 1142 0395 CE030000 		.4byte	0x3ce
 1143 0399 09       		.uleb128 0x9
 1144 039a B1020000 		.4byte	.LASF63
 1145 039e 0A       		.byte	0xa
 1146 039f 5E01     		.2byte	0x15e
 1147 03a1 FC070000 		.4byte	0x7fc
 1148 03a5 00       		.byte	0
 1149 03a6 09       		.uleb128 0x9
 1150 03a7 0B020000 		.4byte	.LASF64
 1151 03ab 0A       		.byte	0xa
 1152 03ac 6001     		.2byte	0x160
 1153 03ae FC070000 		.4byte	0x7fc
 1154 03b2 04       		.byte	0x4
 1155 03b3 09       		.uleb128 0x9
 1156 03b4 D2020000 		.4byte	.LASF65
 1157 03b8 0A       		.byte	0xa
 1158 03b9 6201     		.2byte	0x162
 1159 03bb 4B010000 		.4byte	0x14b
 1160 03bf 08       		.byte	0x8
 1161 03c0 09       		.uleb128 0x9
 1162 03c1 1F050000 		.4byte	.LASF70
 1163 03c5 0A       		.byte	0xa
 1164 03c6 6A01     		.2byte	0x16a
 1165 03c8 4B010000 		.4byte	0x14b
 1166 03cc 0C       		.byte	0xc
 1167 03cd 00       		.byte	0
 1168 03ce 03       		.uleb128 0x3
 1169 03cf 3A000000 		.4byte	.LASF71
 1170 03d3 09       		.byte	0x9
 1171 03d4 66       		.byte	0x66
 1172 03d5 D9030000 		.4byte	0x3d9
 1173 03d9 0A       		.uleb128 0xa
 1174 03da DF050000 		.4byte	.LASF72
 1175 03de 04       		.byte	0x4
 1176 03df 0A       		.byte	0xa
 1177 03e0 8401     		.2byte	0x184
 1178 03e2 F4030000 		.4byte	0x3f4
 1179 03e6 09       		.uleb128 0x9
 1180 03e7 CA070000 		.4byte	.LASF73
 1181 03eb 0A       		.byte	0xa
 1182 03ec 8C01     		.2byte	0x18c
 1183 03ee 02080000 		.4byte	0x802
 1184 03f2 00       		.byte	0
 1185 03f3 00       		.byte	0
 1186 03f4 03       		.uleb128 0x3
 1187 03f5 02080000 		.4byte	.LASF74
 1188 03f9 09       		.byte	0x9
 1189 03fa 6B       		.byte	0x6b
 1190 03fb FF030000 		.4byte	0x3ff
ARM GAS  /tmp/cc49awR3.s 			page 22


 1191 03ff 0F       		.uleb128 0xf
 1192 0400 80010000 		.4byte	.LASF75
 1193 0404 D801     		.2byte	0x1d8
 1194 0406 0A       		.byte	0xa
 1195 0407 A401     		.2byte	0x1a4
 1196 0409 5B040000 		.4byte	0x45b
 1197 040d 09       		.uleb128 0x9
 1198 040e 95080000 		.4byte	.LASF76
 1199 0412 0A       		.byte	0xa
 1200 0413 A801     		.2byte	0x1a8
 1201 0415 A2020000 		.4byte	0x2a2
 1202 0419 00       		.byte	0
 1203 041a 09       		.uleb128 0x9
 1204 041b 0F030000 		.4byte	.LASF77
 1205 041f 0A       		.byte	0xa
 1206 0420 AC01     		.2byte	0x1ac
 1207 0422 81030000 		.4byte	0x381
 1208 0426 1C       		.byte	0x1c
 1209 0427 08       		.uleb128 0x8
 1210 0428 64626700 		.ascii	"dbg\000"
 1211 042c 0A       		.byte	0xa
 1212 042d B001     		.2byte	0x1b0
 1213 042f CE030000 		.4byte	0x3ce
 1214 0433 2C       		.byte	0x2c
 1215 0434 09       		.uleb128 0x9
 1216 0435 A7000000 		.4byte	.LASF78
 1217 0439 0A       		.byte	0xa
 1218 043a B401     		.2byte	0x1b4
 1219 043c 56010000 		.4byte	0x156
 1220 0440 30       		.byte	0x30
 1221 0441 08       		.uleb128 0x8
 1222 0442 746D00   		.ascii	"tm\000"
 1223 0445 0A       		.byte	0xa
 1224 0446 B901     		.2byte	0x1b9
 1225 0448 6A070000 		.4byte	0x76a
 1226 044c 74       		.byte	0x74
 1227 044d 09       		.uleb128 0x9
 1228 044e 58020000 		.4byte	.LASF79
 1229 0452 0A       		.byte	0xa
 1230 0453 C501     		.2byte	0x1c5
 1231 0455 07080000 		.4byte	0x807
 1232 0459 78       		.byte	0x78
 1233 045a 00       		.byte	0
 1234 045b 04       		.uleb128 0x4
 1235 045c 04       		.byte	0x4
 1236 045d 07       		.byte	0x7
 1237 045e EE040000 		.4byte	.LASF80
 1238 0462 10       		.uleb128 0x10
 1239 0463 34       		.byte	0x34
 1240 0464 0B       		.byte	0xb
 1241 0465 FC01     		.2byte	0x1fc
 1242 0467 14050000 		.4byte	0x514
 1243 046b 08       		.uleb128 0x8
 1244 046c 435200   		.ascii	"CR\000"
 1245 046f 0B       		.byte	0xb
 1246 0470 FE01     		.2byte	0x1fe
 1247 0472 EE000000 		.4byte	0xee
ARM GAS  /tmp/cc49awR3.s 			page 23


 1248 0476 00       		.byte	0
 1249 0477 09       		.uleb128 0x9
 1250 0478 E1080000 		.4byte	.LASF81
 1251 047c 0B       		.byte	0xb
 1252 047d FF01     		.2byte	0x1ff
 1253 047f EE000000 		.4byte	0xee
 1254 0483 04       		.byte	0x4
 1255 0484 08       		.uleb128 0x8
 1256 0485 43495200 		.ascii	"CIR\000"
 1257 0489 0B       		.byte	0xb
 1258 048a 0002     		.2byte	0x200
 1259 048c EE000000 		.4byte	0xee
 1260 0490 08       		.byte	0x8
 1261 0491 09       		.uleb128 0x9
 1262 0492 93010000 		.4byte	.LASF82
 1263 0496 0B       		.byte	0xb
 1264 0497 0102     		.2byte	0x201
 1265 0499 EE000000 		.4byte	0xee
 1266 049d 0C       		.byte	0xc
 1267 049e 09       		.uleb128 0x9
 1268 049f 63050000 		.4byte	.LASF83
 1269 04a3 0B       		.byte	0xb
 1270 04a4 0202     		.2byte	0x202
 1271 04a6 EE000000 		.4byte	0xee
 1272 04aa 10       		.byte	0x10
 1273 04ab 09       		.uleb128 0x9
 1274 04ac 15090000 		.4byte	.LASF84
 1275 04b0 0B       		.byte	0xb
 1276 04b1 0302     		.2byte	0x203
 1277 04b3 EE000000 		.4byte	0xee
 1278 04b7 14       		.byte	0x14
 1279 04b8 09       		.uleb128 0x9
 1280 04b9 80060000 		.4byte	.LASF85
 1281 04bd 0B       		.byte	0xb
 1282 04be 0402     		.2byte	0x204
 1283 04c0 EE000000 		.4byte	0xee
 1284 04c4 18       		.byte	0x18
 1285 04c5 09       		.uleb128 0x9
 1286 04c6 D9070000 		.4byte	.LASF86
 1287 04ca 0B       		.byte	0xb
 1288 04cb 0502     		.2byte	0x205
 1289 04cd EE000000 		.4byte	0xee
 1290 04d1 1C       		.byte	0x1c
 1291 04d2 09       		.uleb128 0x9
 1292 04d3 87080000 		.4byte	.LASF87
 1293 04d7 0B       		.byte	0xb
 1294 04d8 0602     		.2byte	0x206
 1295 04da EE000000 		.4byte	0xee
 1296 04de 20       		.byte	0x20
 1297 04df 08       		.uleb128 0x8
 1298 04e0 43535200 		.ascii	"CSR\000"
 1299 04e4 0B       		.byte	0xb
 1300 04e5 0702     		.2byte	0x207
 1301 04e7 EE000000 		.4byte	0xee
 1302 04eb 24       		.byte	0x24
 1303 04ec 09       		.uleb128 0x9
 1304 04ed 4A050000 		.4byte	.LASF88
ARM GAS  /tmp/cc49awR3.s 			page 24


 1305 04f1 0B       		.byte	0xb
 1306 04f2 0802     		.2byte	0x208
 1307 04f4 EE000000 		.4byte	0xee
 1308 04f8 28       		.byte	0x28
 1309 04f9 09       		.uleb128 0x9
 1310 04fa 9B080000 		.4byte	.LASF89
 1311 04fe 0B       		.byte	0xb
 1312 04ff 0902     		.2byte	0x209
 1313 0501 EE000000 		.4byte	0xee
 1314 0505 2C       		.byte	0x2c
 1315 0506 09       		.uleb128 0x9
 1316 0507 A1080000 		.4byte	.LASF90
 1317 050b 0B       		.byte	0xb
 1318 050c 0A02     		.2byte	0x20a
 1319 050e EE000000 		.4byte	0xee
 1320 0512 30       		.byte	0x30
 1321 0513 00       		.byte	0
 1322 0514 11       		.uleb128 0x11
 1323 0515 3A060000 		.4byte	.LASF91
 1324 0519 0B       		.byte	0xb
 1325 051a 0B02     		.2byte	0x20b
 1326 051c 62040000 		.4byte	0x462
 1327 0520 10       		.uleb128 0x10
 1328 0521 2C       		.byte	0x2c
 1329 0522 0B       		.byte	0xb
 1330 0523 8302     		.2byte	0x283
 1331 0525 D3050000 		.4byte	0x5d3
 1332 0529 08       		.uleb128 0x8
 1333 052a 43523100 		.ascii	"CR1\000"
 1334 052e 0B       		.byte	0xb
 1335 052f 8502     		.2byte	0x285
 1336 0531 EE000000 		.4byte	0xee
 1337 0535 00       		.byte	0
 1338 0536 08       		.uleb128 0x8
 1339 0537 43523200 		.ascii	"CR2\000"
 1340 053b 0B       		.byte	0xb
 1341 053c 8602     		.2byte	0x286
 1342 053e EE000000 		.4byte	0xee
 1343 0542 04       		.byte	0x4
 1344 0543 08       		.uleb128 0x8
 1345 0544 43523300 		.ascii	"CR3\000"
 1346 0548 0B       		.byte	0xb
 1347 0549 8702     		.2byte	0x287
 1348 054b EE000000 		.4byte	0xee
 1349 054f 08       		.byte	0x8
 1350 0550 08       		.uleb128 0x8
 1351 0551 42525200 		.ascii	"BRR\000"
 1352 0555 0B       		.byte	0xb
 1353 0556 8802     		.2byte	0x288
 1354 0558 EE000000 		.4byte	0xee
 1355 055c 0C       		.byte	0xc
 1356 055d 09       		.uleb128 0x9
 1357 055e 42010000 		.4byte	.LASF92
 1358 0562 0B       		.byte	0xb
 1359 0563 8902     		.2byte	0x289
 1360 0565 EE000000 		.4byte	0xee
 1361 0569 10       		.byte	0x10
ARM GAS  /tmp/cc49awR3.s 			page 25


 1362 056a 09       		.uleb128 0x9
 1363 056b D4070000 		.4byte	.LASF93
 1364 056f 0B       		.byte	0xb
 1365 0570 8A02     		.2byte	0x28a
 1366 0572 EE000000 		.4byte	0xee
 1367 0576 14       		.byte	0x14
 1368 0577 08       		.uleb128 0x8
 1369 0578 52515200 		.ascii	"RQR\000"
 1370 057c 0B       		.byte	0xb
 1371 057d 8B02     		.2byte	0x28b
 1372 057f EE000000 		.4byte	0xee
 1373 0583 18       		.byte	0x18
 1374 0584 08       		.uleb128 0x8
 1375 0585 49535200 		.ascii	"ISR\000"
 1376 0589 0B       		.byte	0xb
 1377 058a 8C02     		.2byte	0x28c
 1378 058c EE000000 		.4byte	0xee
 1379 0590 1C       		.byte	0x1c
 1380 0591 08       		.uleb128 0x8
 1381 0592 49435200 		.ascii	"ICR\000"
 1382 0596 0B       		.byte	0xb
 1383 0597 8D02     		.2byte	0x28d
 1384 0599 EE000000 		.4byte	0xee
 1385 059d 20       		.byte	0x20
 1386 059e 08       		.uleb128 0x8
 1387 059f 52445200 		.ascii	"RDR\000"
 1388 05a3 0B       		.byte	0xb
 1389 05a4 8E02     		.2byte	0x28e
 1390 05a6 E4000000 		.4byte	0xe4
 1391 05aa 24       		.byte	0x24
 1392 05ab 09       		.uleb128 0x9
 1393 05ac 9E050000 		.4byte	.LASF94
 1394 05b0 0B       		.byte	0xb
 1395 05b1 8F02     		.2byte	0x28f
 1396 05b3 B8000000 		.4byte	0xb8
 1397 05b7 26       		.byte	0x26
 1398 05b8 08       		.uleb128 0x8
 1399 05b9 54445200 		.ascii	"TDR\000"
 1400 05bd 0B       		.byte	0xb
 1401 05be 9002     		.2byte	0x290
 1402 05c0 E4000000 		.4byte	0xe4
 1403 05c4 28       		.byte	0x28
 1404 05c5 09       		.uleb128 0x9
 1405 05c6 A8050000 		.4byte	.LASF95
 1406 05ca 0B       		.byte	0xb
 1407 05cb 9102     		.2byte	0x291
 1408 05cd B8000000 		.4byte	0xb8
 1409 05d1 2A       		.byte	0x2a
 1410 05d2 00       		.byte	0
 1411 05d3 11       		.uleb128 0x11
 1412 05d4 48030000 		.4byte	.LASF96
 1413 05d8 0B       		.byte	0xb
 1414 05d9 9202     		.2byte	0x292
 1415 05db 20050000 		.4byte	0x520
 1416 05df 03       		.uleb128 0x3
 1417 05e0 02020000 		.4byte	.LASF97
 1418 05e4 0C       		.byte	0xc
ARM GAS  /tmp/cc49awR3.s 			page 26


 1419 05e5 85       		.byte	0x85
 1420 05e6 25030000 		.4byte	0x325
 1421 05ea 03       		.uleb128 0x3
 1422 05eb 97030000 		.4byte	.LASF98
 1423 05ef 0C       		.byte	0xc
 1424 05f0 8D       		.byte	0x8d
 1425 05f1 D9000000 		.4byte	0xd9
 1426 05f5 06       		.uleb128 0x6
 1427 05f6 F2070000 		.4byte	.LASF99
 1428 05fa 04       		.byte	0x4
 1429 05fb 0C       		.byte	0xc
 1430 05fc A9       		.byte	0xa9
 1431 05fd 0E060000 		.4byte	0x60e
 1432 0601 12       		.uleb128 0x12
 1433 0602 72313300 		.ascii	"r13\000"
 1434 0606 0C       		.byte	0xc
 1435 0607 AA       		.byte	0xaa
 1436 0608 4F070000 		.4byte	0x74f
 1437 060c 00       		.byte	0
 1438 060d 00       		.byte	0
 1439 060e 06       		.uleb128 0x6
 1440 060f 2E000000 		.4byte	.LASF100
 1441 0613 64       		.byte	0x64
 1442 0614 0D       		.byte	0xd
 1443 0615 F4       		.byte	0xf4
 1444 0616 4F070000 		.4byte	0x74f
 1445 061a 12       		.uleb128 0x12
 1446 061b 73313600 		.ascii	"s16\000"
 1447 061f 0D       		.byte	0xd
 1448 0620 F6       		.byte	0xf6
 1449 0621 DF050000 		.4byte	0x5df
 1450 0625 00       		.byte	0
 1451 0626 12       		.uleb128 0x12
 1452 0627 73313700 		.ascii	"s17\000"
 1453 062b 0D       		.byte	0xd
 1454 062c F7       		.byte	0xf7
 1455 062d DF050000 		.4byte	0x5df
 1456 0631 04       		.byte	0x4
 1457 0632 12       		.uleb128 0x12
 1458 0633 73313800 		.ascii	"s18\000"
 1459 0637 0D       		.byte	0xd
 1460 0638 F8       		.byte	0xf8
 1461 0639 DF050000 		.4byte	0x5df
 1462 063d 08       		.byte	0x8
 1463 063e 12       		.uleb128 0x12
 1464 063f 73313900 		.ascii	"s19\000"
 1465 0643 0D       		.byte	0xd
 1466 0644 F9       		.byte	0xf9
 1467 0645 DF050000 		.4byte	0x5df
 1468 0649 0C       		.byte	0xc
 1469 064a 12       		.uleb128 0x12
 1470 064b 73323000 		.ascii	"s20\000"
 1471 064f 0D       		.byte	0xd
 1472 0650 FA       		.byte	0xfa
 1473 0651 DF050000 		.4byte	0x5df
 1474 0655 10       		.byte	0x10
 1475 0656 12       		.uleb128 0x12
ARM GAS  /tmp/cc49awR3.s 			page 27


 1476 0657 73323100 		.ascii	"s21\000"
 1477 065b 0D       		.byte	0xd
 1478 065c FB       		.byte	0xfb
 1479 065d DF050000 		.4byte	0x5df
 1480 0661 14       		.byte	0x14
 1481 0662 12       		.uleb128 0x12
 1482 0663 73323200 		.ascii	"s22\000"
 1483 0667 0D       		.byte	0xd
 1484 0668 FC       		.byte	0xfc
 1485 0669 DF050000 		.4byte	0x5df
 1486 066d 18       		.byte	0x18
 1487 066e 12       		.uleb128 0x12
 1488 066f 73323300 		.ascii	"s23\000"
 1489 0673 0D       		.byte	0xd
 1490 0674 FD       		.byte	0xfd
 1491 0675 DF050000 		.4byte	0x5df
 1492 0679 1C       		.byte	0x1c
 1493 067a 12       		.uleb128 0x12
 1494 067b 73323400 		.ascii	"s24\000"
 1495 067f 0D       		.byte	0xd
 1496 0680 FE       		.byte	0xfe
 1497 0681 DF050000 		.4byte	0x5df
 1498 0685 20       		.byte	0x20
 1499 0686 12       		.uleb128 0x12
 1500 0687 73323500 		.ascii	"s25\000"
 1501 068b 0D       		.byte	0xd
 1502 068c FF       		.byte	0xff
 1503 068d DF050000 		.4byte	0x5df
 1504 0691 24       		.byte	0x24
 1505 0692 08       		.uleb128 0x8
 1506 0693 73323600 		.ascii	"s26\000"
 1507 0697 0D       		.byte	0xd
 1508 0698 0001     		.2byte	0x100
 1509 069a DF050000 		.4byte	0x5df
 1510 069e 28       		.byte	0x28
 1511 069f 08       		.uleb128 0x8
 1512 06a0 73323700 		.ascii	"s27\000"
 1513 06a4 0D       		.byte	0xd
 1514 06a5 0101     		.2byte	0x101
 1515 06a7 DF050000 		.4byte	0x5df
 1516 06ab 2C       		.byte	0x2c
 1517 06ac 08       		.uleb128 0x8
 1518 06ad 73323800 		.ascii	"s28\000"
 1519 06b1 0D       		.byte	0xd
 1520 06b2 0201     		.2byte	0x102
 1521 06b4 DF050000 		.4byte	0x5df
 1522 06b8 30       		.byte	0x30
 1523 06b9 08       		.uleb128 0x8
 1524 06ba 73323900 		.ascii	"s29\000"
 1525 06be 0D       		.byte	0xd
 1526 06bf 0301     		.2byte	0x103
 1527 06c1 DF050000 		.4byte	0x5df
 1528 06c5 34       		.byte	0x34
 1529 06c6 08       		.uleb128 0x8
 1530 06c7 73333000 		.ascii	"s30\000"
 1531 06cb 0D       		.byte	0xd
 1532 06cc 0401     		.2byte	0x104
ARM GAS  /tmp/cc49awR3.s 			page 28


 1533 06ce DF050000 		.4byte	0x5df
 1534 06d2 38       		.byte	0x38
 1535 06d3 08       		.uleb128 0x8
 1536 06d4 73333100 		.ascii	"s31\000"
 1537 06d8 0D       		.byte	0xd
 1538 06d9 0501     		.2byte	0x105
 1539 06db DF050000 		.4byte	0x5df
 1540 06df 3C       		.byte	0x3c
 1541 06e0 08       		.uleb128 0x8
 1542 06e1 723400   		.ascii	"r4\000"
 1543 06e4 0D       		.byte	0xd
 1544 06e5 0701     		.2byte	0x107
 1545 06e7 DF050000 		.4byte	0x5df
 1546 06eb 40       		.byte	0x40
 1547 06ec 08       		.uleb128 0x8
 1548 06ed 723500   		.ascii	"r5\000"
 1549 06f0 0D       		.byte	0xd
 1550 06f1 0801     		.2byte	0x108
 1551 06f3 DF050000 		.4byte	0x5df
 1552 06f7 44       		.byte	0x44
 1553 06f8 08       		.uleb128 0x8
 1554 06f9 723600   		.ascii	"r6\000"
 1555 06fc 0D       		.byte	0xd
 1556 06fd 0901     		.2byte	0x109
 1557 06ff DF050000 		.4byte	0x5df
 1558 0703 48       		.byte	0x48
 1559 0704 08       		.uleb128 0x8
 1560 0705 723700   		.ascii	"r7\000"
 1561 0708 0D       		.byte	0xd
 1562 0709 0A01     		.2byte	0x10a
 1563 070b DF050000 		.4byte	0x5df
 1564 070f 4C       		.byte	0x4c
 1565 0710 08       		.uleb128 0x8
 1566 0711 723800   		.ascii	"r8\000"
 1567 0714 0D       		.byte	0xd
 1568 0715 0B01     		.2byte	0x10b
 1569 0717 DF050000 		.4byte	0x5df
 1570 071b 50       		.byte	0x50
 1571 071c 08       		.uleb128 0x8
 1572 071d 723900   		.ascii	"r9\000"
 1573 0720 0D       		.byte	0xd
 1574 0721 0C01     		.2byte	0x10c
 1575 0723 DF050000 		.4byte	0x5df
 1576 0727 54       		.byte	0x54
 1577 0728 08       		.uleb128 0x8
 1578 0729 72313000 		.ascii	"r10\000"
 1579 072d 0D       		.byte	0xd
 1580 072e 0D01     		.2byte	0x10d
 1581 0730 DF050000 		.4byte	0x5df
 1582 0734 58       		.byte	0x58
 1583 0735 08       		.uleb128 0x8
 1584 0736 72313100 		.ascii	"r11\000"
 1585 073a 0D       		.byte	0xd
 1586 073b 0E01     		.2byte	0x10e
 1587 073d DF050000 		.4byte	0x5df
 1588 0741 5C       		.byte	0x5c
 1589 0742 08       		.uleb128 0x8
ARM GAS  /tmp/cc49awR3.s 			page 29


 1590 0743 6C7200   		.ascii	"lr\000"
 1591 0746 0D       		.byte	0xd
 1592 0747 0F01     		.2byte	0x10f
 1593 0749 DF050000 		.4byte	0x5df
 1594 074d 60       		.byte	0x60
 1595 074e 00       		.byte	0
 1596 074f 0B       		.uleb128 0xb
 1597 0750 04       		.byte	0x4
 1598 0751 0E060000 		.4byte	0x60e
 1599 0755 13       		.uleb128 0x13
 1600 0756 04       		.byte	0x4
 1601 0757 0E       		.byte	0xe
 1602 0758 38       		.byte	0x38
 1603 0759 6A070000 		.4byte	0x76a
 1604 075d 07       		.uleb128 0x7
 1605 075e 13020000 		.4byte	.LASF101
 1606 0762 0E       		.byte	0xe
 1607 0763 3C       		.byte	0x3c
 1608 0764 F3000000 		.4byte	0xf3
 1609 0768 00       		.byte	0
 1610 0769 00       		.byte	0
 1611 076a 03       		.uleb128 0x3
 1612 076b 39050000 		.4byte	.LASF102
 1613 076f 0E       		.byte	0xe
 1614 0770 3D       		.byte	0x3d
 1615 0771 55070000 		.4byte	0x755
 1616 0775 0B       		.uleb128 0xb
 1617 0776 04       		.byte	0x4
 1618 0777 56010000 		.4byte	0x156
 1619 077b 14       		.uleb128 0x14
 1620 077c 04       		.byte	0x4
 1621 077d 0A       		.byte	0xa
 1622 077e F6       		.byte	0xf6
 1623 077f B3070000 		.4byte	0x7b3
 1624 0783 15       		.uleb128 0x15
 1625 0784 14000000 		.4byte	.LASF103
 1626 0788 0A       		.byte	0xa
 1627 0789 FD       		.byte	0xfd
 1628 078a 2A010000 		.4byte	0x12a
 1629 078e 16       		.uleb128 0x16
 1630 078f 9E000000 		.4byte	.LASF104
 1631 0793 0A       		.byte	0xa
 1632 0794 0401     		.2byte	0x104
 1633 0796 2A010000 		.4byte	0x12a
 1634 079a 16       		.uleb128 0x16
 1635 079b 5D030000 		.4byte	.LASF105
 1636 079f 0A       		.byte	0xa
 1637 07a0 0B01     		.2byte	0x10b
 1638 07a2 25030000 		.4byte	0x325
 1639 07a6 16       		.uleb128 0x16
 1640 07a7 61060000 		.4byte	.LASF106
 1641 07ab 0A       		.byte	0xa
 1642 07ac 1201     		.2byte	0x112
 1643 07ae 35010000 		.4byte	0x135
 1644 07b2 00       		.byte	0
 1645 07b3 0B       		.uleb128 0xb
 1646 07b4 04       		.byte	0x4
ARM GAS  /tmp/cc49awR3.s 			page 30


 1647 07b5 B9070000 		.4byte	0x7b9
 1648 07b9 17       		.uleb128 0x17
 1649 07ba BE070000 		.4byte	0x7be
 1650 07be 04       		.uleb128 0x4
 1651 07bf 01       		.byte	0x1
 1652 07c0 08       		.byte	0x8
 1653 07c1 47070000 		.4byte	.LASF107
 1654 07c5 06       		.uleb128 0x6
 1655 07c6 D9050000 		.4byte	.LASF108
 1656 07ca 10       		.byte	0x10
 1657 07cb 0F       		.byte	0xf
 1658 07cc 39       		.byte	0x39
 1659 07cd F6070000 		.4byte	0x7f6
 1660 07d1 07       		.uleb128 0x7
 1661 07d2 57010000 		.4byte	.LASF109
 1662 07d6 0F       		.byte	0xf
 1663 07d7 3A       		.byte	0x3a
 1664 07d8 72020000 		.4byte	0x272
 1665 07dc 00       		.byte	0
 1666 07dd 07       		.uleb128 0x7
 1667 07de FF080000 		.4byte	.LASF110
 1668 07e2 0F       		.byte	0xf
 1669 07e3 3C       		.byte	0x3c
 1670 07e4 75070000 		.4byte	0x775
 1671 07e8 08       		.byte	0x8
 1672 07e9 07       		.uleb128 0x7
 1673 07ea 8C070000 		.4byte	.LASF111
 1674 07ee 0F       		.byte	0xf
 1675 07ef 3E       		.byte	0x3e
 1676 07f0 37080000 		.4byte	0x837
 1677 07f4 0C       		.byte	0xc
 1678 07f5 00       		.byte	0
 1679 07f6 0B       		.uleb128 0xb
 1680 07f7 04       		.byte	0x4
 1681 07f8 C5070000 		.4byte	0x7c5
 1682 07fc 0B       		.uleb128 0xb
 1683 07fd 04       		.byte	0x4
 1684 07fe 27030000 		.4byte	0x327
 1685 0802 05       		.uleb128 0x5
 1686 0803 B3070000 		.4byte	0x7b3
 1687 0807 18       		.uleb128 0x18
 1688 0808 EA050000 		.4byte	0x5ea
 1689 080c 17080000 		.4byte	0x817
 1690 0810 19       		.uleb128 0x19
 1691 0811 5B040000 		.4byte	0x45b
 1692 0815 2B       		.byte	0x2b
 1693 0816 00       		.byte	0
 1694 0817 0B       		.uleb128 0xb
 1695 0818 04       		.byte	0x4
 1696 0819 1D080000 		.4byte	0x81d
 1697 081d 1A       		.uleb128 0x1a
 1698 081e 2A010000 		.4byte	0x12a
 1699 0822 2C080000 		.4byte	0x82c
 1700 0826 0D       		.uleb128 0xd
 1701 0827 25030000 		.4byte	0x325
 1702 082b 00       		.byte	0
 1703 082c 03       		.uleb128 0x3
ARM GAS  /tmp/cc49awR3.s 			page 31


 1704 082d 20010000 		.4byte	.LASF112
 1705 0831 0F       		.byte	0xf
 1706 0832 34       		.byte	0x34
 1707 0833 C5070000 		.4byte	0x7c5
 1708 0837 0B       		.uleb128 0xb
 1709 0838 04       		.byte	0x4
 1710 0839 2C080000 		.4byte	0x82c
 1711 083d 03       		.uleb128 0x3
 1712 083e E1070000 		.4byte	.LASF113
 1713 0842 10       		.byte	0x10
 1714 0843 34       		.byte	0x34
 1715 0844 48080000 		.4byte	0x848
 1716 0848 06       		.uleb128 0x6
 1717 0849 1C090000 		.4byte	.LASF114
 1718 084d 14       		.byte	0x14
 1719 084e 10       		.byte	0x10
 1720 084f 39       		.byte	0x39
 1721 0850 91080000 		.4byte	0x891
 1722 0854 07       		.uleb128 0x7
 1723 0855 2D030000 		.4byte	.LASF115
 1724 0859 10       		.byte	0x10
 1725 085a 3A       		.byte	0x3a
 1726 085b 91080000 		.4byte	0x891
 1727 085f 00       		.byte	0
 1728 0860 07       		.uleb128 0x7
 1729 0861 18060000 		.4byte	.LASF116
 1730 0865 10       		.byte	0x10
 1731 0866 3D       		.byte	0x3d
 1732 0867 75070000 		.4byte	0x775
 1733 086b 04       		.byte	0x4
 1734 086c 07       		.uleb128 0x7
 1735 086d 6C050000 		.4byte	.LASF117
 1736 0871 10       		.byte	0x10
 1737 0872 3F       		.byte	0x3f
 1738 0873 35010000 		.4byte	0x135
 1739 0877 08       		.byte	0x8
 1740 0878 07       		.uleb128 0x7
 1741 0879 31060000 		.4byte	.LASF118
 1742 087d 10       		.byte	0x10
 1743 087e 41       		.byte	0x41
 1744 087f 40010000 		.4byte	0x140
 1745 0883 0C       		.byte	0xc
 1746 0884 07       		.uleb128 0x7
 1747 0885 16030000 		.4byte	.LASF119
 1748 0889 10       		.byte	0x10
 1749 088a 43       		.byte	0x43
 1750 088b 40010000 		.4byte	0x140
 1751 088f 10       		.byte	0x10
 1752 0890 00       		.byte	0
 1753 0891 0B       		.uleb128 0xb
 1754 0892 04       		.byte	0x4
 1755 0893 3D080000 		.4byte	0x83d
 1756 0897 06       		.uleb128 0x6
 1757 0898 38080000 		.4byte	.LASF120
 1758 089c 04       		.byte	0x4
 1759 089d 10       		.byte	0x10
 1760 089e 4A       		.byte	0x4a
ARM GAS  /tmp/cc49awR3.s 			page 32


 1761 089f B0080000 		.4byte	0x8b0
 1762 08a3 07       		.uleb128 0x7
 1763 08a4 7F080000 		.4byte	.LASF121
 1764 08a8 10       		.byte	0x10
 1765 08a9 4B       		.byte	0x4b
 1766 08aa 91080000 		.4byte	0x891
 1767 08ae 00       		.byte	0
 1768 08af 00       		.byte	0
 1769 08b0 03       		.uleb128 0x3
 1770 08b1 49020000 		.4byte	.LASF122
 1771 08b5 10       		.byte	0x10
 1772 08b6 4E       		.byte	0x4e
 1773 08b7 97080000 		.4byte	0x897
 1774 08bb 03       		.uleb128 0x3
 1775 08bc E7000000 		.4byte	.LASF123
 1776 08c0 03       		.byte	0x3
 1777 08c1 3F       		.byte	0x3f
 1778 08c2 C6080000 		.4byte	0x8c6
 1779 08c6 06       		.uleb128 0x6
 1780 08c7 40020000 		.4byte	.LASF124
 1781 08cb 24       		.byte	0x24
 1782 08cc 03       		.byte	0x3
 1783 08cd 4D       		.byte	0x4d
 1784 08ce 33090000 		.4byte	0x933
 1785 08d2 07       		.uleb128 0x7
 1786 08d3 16010000 		.4byte	.LASF125
 1787 08d7 03       		.byte	0x3
 1788 08d8 4E       		.byte	0x4e
 1789 08d9 72020000 		.4byte	0x272
 1790 08dd 00       		.byte	0
 1791 08de 07       		.uleb128 0x7
 1792 08df 0E050000 		.4byte	.LASF126
 1793 08e3 03       		.byte	0x3
 1794 08e4 4F       		.byte	0x4f
 1795 08e5 2C000000 		.4byte	0x2c
 1796 08e9 08       		.byte	0x8
 1797 08ea 07       		.uleb128 0x7
 1798 08eb AE010000 		.4byte	.LASF127
 1799 08ef 03       		.byte	0x3
 1800 08f0 50       		.byte	0x50
 1801 08f1 55090000 		.4byte	0x955
 1802 08f5 0C       		.byte	0xc
 1803 08f6 07       		.uleb128 0x7
 1804 08f7 72080000 		.4byte	.LASF128
 1805 08fb 03       		.byte	0x3
 1806 08fc 51       		.byte	0x51
 1807 08fd 55090000 		.4byte	0x955
 1808 0901 10       		.byte	0x10
 1809 0902 07       		.uleb128 0x7
 1810 0903 FD020000 		.4byte	.LASF129
 1811 0907 03       		.byte	0x3
 1812 0908 53       		.byte	0x53
 1813 0909 55090000 		.4byte	0x955
 1814 090d 14       		.byte	0x14
 1815 090e 07       		.uleb128 0x7
 1816 090f D1050000 		.4byte	.LASF130
 1817 0913 03       		.byte	0x3
ARM GAS  /tmp/cc49awR3.s 			page 33


 1818 0914 54       		.byte	0x54
 1819 0915 55090000 		.4byte	0x955
 1820 0919 18       		.byte	0x18
 1821 091a 07       		.uleb128 0x7
 1822 091b 8C080000 		.4byte	.LASF131
 1823 091f 03       		.byte	0x3
 1824 0920 55       		.byte	0x55
 1825 0921 33090000 		.4byte	0x933
 1826 0925 1C       		.byte	0x1c
 1827 0926 07       		.uleb128 0x7
 1828 0927 F8080000 		.4byte	.LASF132
 1829 092b 03       		.byte	0x3
 1830 092c 56       		.byte	0x56
 1831 092d 25030000 		.4byte	0x325
 1832 0931 20       		.byte	0x20
 1833 0932 00       		.byte	0
 1834 0933 03       		.uleb128 0x3
 1835 0934 8D030000 		.4byte	.LASF133
 1836 0938 03       		.byte	0x3
 1837 0939 42       		.byte	0x42
 1838 093a 3E090000 		.4byte	0x93e
 1839 093e 0B       		.uleb128 0xb
 1840 093f 04       		.byte	0x4
 1841 0940 44090000 		.4byte	0x944
 1842 0944 0C       		.uleb128 0xc
 1843 0945 4F090000 		.4byte	0x94f
 1844 0949 0D       		.uleb128 0xd
 1845 094a 4F090000 		.4byte	0x94f
 1846 094e 00       		.byte	0
 1847 094f 0B       		.uleb128 0xb
 1848 0950 04       		.byte	0x4
 1849 0951 BB080000 		.4byte	0x8bb
 1850 0955 0B       		.uleb128 0xb
 1851 0956 04       		.byte	0x4
 1852 0957 AD000000 		.4byte	0xad
 1853 095b 03       		.uleb128 0x3
 1854 095c D0040000 		.4byte	.LASF134
 1855 0960 03       		.byte	0x3
 1856 0961 64       		.byte	0x64
 1857 0962 BB080000 		.4byte	0x8bb
 1858 0966 03       		.uleb128 0x3
 1859 0967 59080000 		.4byte	.LASF135
 1860 096b 03       		.byte	0x3
 1861 096c 71       		.byte	0x71
 1862 096d BB080000 		.4byte	0x8bb
 1863 0971 1A       		.uleb128 0x1a
 1864 0972 2C000000 		.4byte	0x2c
 1865 0976 8A090000 		.4byte	0x98a
 1866 097a 0D       		.uleb128 0xd
 1867 097b 25030000 		.4byte	0x325
 1868 097f 0D       		.uleb128 0xd
 1869 0980 8A090000 		.4byte	0x98a
 1870 0984 0D       		.uleb128 0xd
 1871 0985 2C000000 		.4byte	0x2c
 1872 0989 00       		.byte	0
 1873 098a 0B       		.uleb128 0xb
 1874 098b 04       		.byte	0x4
ARM GAS  /tmp/cc49awR3.s 			page 34


 1875 098c 90090000 		.4byte	0x990
 1876 0990 17       		.uleb128 0x17
 1877 0991 AD000000 		.4byte	0xad
 1878 0995 0B       		.uleb128 0xb
 1879 0996 04       		.byte	0x4
 1880 0997 71090000 		.4byte	0x971
 1881 099b 1A       		.uleb128 0x1a
 1882 099c 2C000000 		.4byte	0x2c
 1883 09a0 B4090000 		.4byte	0x9b4
 1884 09a4 0D       		.uleb128 0xd
 1885 09a5 25030000 		.4byte	0x325
 1886 09a9 0D       		.uleb128 0xd
 1887 09aa 55090000 		.4byte	0x955
 1888 09ae 0D       		.uleb128 0xd
 1889 09af 2C000000 		.4byte	0x2c
 1890 09b3 00       		.byte	0
 1891 09b4 0B       		.uleb128 0xb
 1892 09b5 04       		.byte	0x4
 1893 09b6 9B090000 		.4byte	0x99b
 1894 09ba 1A       		.uleb128 0x1a
 1895 09bb 2A010000 		.4byte	0x12a
 1896 09bf CE090000 		.4byte	0x9ce
 1897 09c3 0D       		.uleb128 0xd
 1898 09c4 25030000 		.4byte	0x325
 1899 09c8 0D       		.uleb128 0xd
 1900 09c9 AD000000 		.4byte	0xad
 1901 09cd 00       		.byte	0
 1902 09ce 0B       		.uleb128 0xb
 1903 09cf 04       		.byte	0x4
 1904 09d0 BA090000 		.4byte	0x9ba
 1905 09d4 1A       		.uleb128 0x1a
 1906 09d5 2A010000 		.4byte	0x12a
 1907 09d9 ED090000 		.4byte	0x9ed
 1908 09dd 0D       		.uleb128 0xd
 1909 09de 25030000 		.4byte	0x325
 1910 09e2 0D       		.uleb128 0xd
 1911 09e3 AD000000 		.4byte	0xad
 1912 09e7 0D       		.uleb128 0xd
 1913 09e8 4B010000 		.4byte	0x14b
 1914 09ec 00       		.byte	0
 1915 09ed 0B       		.uleb128 0xb
 1916 09ee 04       		.byte	0x4
 1917 09ef D4090000 		.4byte	0x9d4
 1918 09f3 1A       		.uleb128 0x1a
 1919 09f4 2A010000 		.4byte	0x12a
 1920 09f8 070A0000 		.4byte	0xa07
 1921 09fc 0D       		.uleb128 0xd
 1922 09fd 25030000 		.4byte	0x325
 1923 0a01 0D       		.uleb128 0xd
 1924 0a02 4B010000 		.4byte	0x14b
 1925 0a06 00       		.byte	0
 1926 0a07 0B       		.uleb128 0xb
 1927 0a08 04       		.byte	0x4
 1928 0a09 F3090000 		.4byte	0x9f3
 1929 0a0d 1A       		.uleb128 0x1a
 1930 0a0e 2C000000 		.4byte	0x2c
 1931 0a12 2B0A0000 		.4byte	0xa2b
ARM GAS  /tmp/cc49awR3.s 			page 35


 1932 0a16 0D       		.uleb128 0xd
 1933 0a17 25030000 		.4byte	0x325
 1934 0a1b 0D       		.uleb128 0xd
 1935 0a1c 8A090000 		.4byte	0x98a
 1936 0a20 0D       		.uleb128 0xd
 1937 0a21 2C000000 		.4byte	0x2c
 1938 0a25 0D       		.uleb128 0xd
 1939 0a26 4B010000 		.4byte	0x14b
 1940 0a2a 00       		.byte	0
 1941 0a2b 0B       		.uleb128 0xb
 1942 0a2c 04       		.byte	0x4
 1943 0a2d 0D0A0000 		.4byte	0xa0d
 1944 0a31 1A       		.uleb128 0x1a
 1945 0a32 2C000000 		.4byte	0x2c
 1946 0a36 4F0A0000 		.4byte	0xa4f
 1947 0a3a 0D       		.uleb128 0xd
 1948 0a3b 25030000 		.4byte	0x325
 1949 0a3f 0D       		.uleb128 0xd
 1950 0a40 55090000 		.4byte	0x955
 1951 0a44 0D       		.uleb128 0xd
 1952 0a45 2C000000 		.4byte	0x2c
 1953 0a49 0D       		.uleb128 0xd
 1954 0a4a 4B010000 		.4byte	0x14b
 1955 0a4e 00       		.byte	0
 1956 0a4f 0B       		.uleb128 0xb
 1957 0a50 04       		.byte	0x4
 1958 0a51 310A0000 		.4byte	0xa31
 1959 0a55 04       		.uleb128 0x4
 1960 0a56 01       		.byte	0x1
 1961 0a57 02       		.byte	0x2
 1962 0a58 EF050000 		.4byte	.LASF136
 1963 0a5c 1B       		.uleb128 0x1b
 1964 0a5d 01       		.byte	0x1
 1965 0a5e 11       		.byte	0x11
 1966 0a5f 58       		.byte	0x58
 1967 0a60 770A0000 		.4byte	0xa77
 1968 0a64 1C       		.uleb128 0x1c
 1969 0a65 C4060000 		.4byte	.LASF137
 1970 0a69 00       		.sleb128 0
 1971 0a6a 1C       		.uleb128 0x1c
 1972 0a6b 78060000 		.4byte	.LASF138
 1973 0a6f 01       		.sleb128 1
 1974 0a70 1C       		.uleb128 0x1c
 1975 0a71 2F080000 		.4byte	.LASF139
 1976 0a75 02       		.sleb128 2
 1977 0a76 00       		.byte	0
 1978 0a77 03       		.uleb128 0x3
 1979 0a78 68080000 		.4byte	.LASF140
 1980 0a7c 11       		.byte	0x11
 1981 0a7d 5C       		.byte	0x5c
 1982 0a7e 5C0A0000 		.4byte	0xa5c
 1983 0a82 03       		.uleb128 0x3
 1984 0a83 EF060000 		.4byte	.LASF141
 1985 0a87 11       		.byte	0x11
 1986 0a88 61       		.byte	0x61
 1987 0a89 8D0A0000 		.4byte	0xa8d
 1988 0a8d 06       		.uleb128 0x6
ARM GAS  /tmp/cc49awR3.s 			page 36


 1989 0a8e EF060000 		.4byte	.LASF141
 1990 0a92 7C       		.byte	0x7c
 1991 0a93 11       		.byte	0x11
 1992 0a94 7B       		.byte	0x7b
 1993 0a95 040B0000 		.4byte	0xb04
 1994 0a99 12       		.uleb128 0x12
 1995 0a9a 766D7400 		.ascii	"vmt\000"
 1996 0a9e 11       		.byte	0x11
 1997 0a9f 7D       		.byte	0x7d
 1998 0aa0 B50B0000 		.4byte	0xbb5
 1999 0aa4 00       		.byte	0
 2000 0aa5 07       		.uleb128 0x7
 2001 0aa6 F7020000 		.4byte	.LASF142
 2002 0aaa 11       		.byte	0x11
 2003 0aab 7E       		.byte	0x7e
 2004 0aac B0080000 		.4byte	0x8b0
 2005 0ab0 04       		.byte	0x4
 2006 0ab1 07       		.uleb128 0x7
 2007 0ab2 7A010000 		.4byte	.LASF143
 2008 0ab6 11       		.byte	0x11
 2009 0ab7 7E       		.byte	0x7e
 2010 0ab8 770A0000 		.4byte	0xa77
 2011 0abc 08       		.byte	0x8
 2012 0abd 07       		.uleb128 0x7
 2013 0abe CD080000 		.4byte	.LASF144
 2014 0ac2 11       		.byte	0x11
 2015 0ac3 7E       		.byte	0x7e
 2016 0ac4 5B090000 		.4byte	0x95b
 2017 0ac8 0C       		.byte	0xc
 2018 0ac9 07       		.uleb128 0x7
 2019 0aca 26030000 		.4byte	.LASF145
 2020 0ace 11       		.byte	0x11
 2021 0acf 7E       		.byte	0x7e
 2022 0ad0 66090000 		.4byte	0x966
 2023 0ad4 30       		.byte	0x30
 2024 0ad5 12       		.uleb128 0x12
 2025 0ad6 696200   		.ascii	"ib\000"
 2026 0ad9 11       		.byte	0x11
 2027 0ada 7E       		.byte	0x7e
 2028 0adb C00B0000 		.4byte	0xbc0
 2029 0adf 54       		.byte	0x54
 2030 0ae0 12       		.uleb128 0x12
 2031 0ae1 6F6200   		.ascii	"ob\000"
 2032 0ae4 11       		.byte	0x11
 2033 0ae5 7E       		.byte	0x7e
 2034 0ae6 C00B0000 		.4byte	0xbc0
 2035 0aea 64       		.byte	0x64
 2036 0aeb 07       		.uleb128 0x7
 2037 0aec 9E020000 		.4byte	.LASF146
 2038 0af0 11       		.byte	0x11
 2039 0af1 7E       		.byte	0x7e
 2040 0af2 D00B0000 		.4byte	0xbd0
 2041 0af6 74       		.byte	0x74
 2042 0af7 07       		.uleb128 0x7
 2043 0af8 E6080000 		.4byte	.LASF147
 2044 0afc 11       		.byte	0x11
 2045 0afd 7E       		.byte	0x7e
ARM GAS  /tmp/cc49awR3.s 			page 37


 2046 0afe CE000000 		.4byte	0xce
 2047 0b02 78       		.byte	0x78
 2048 0b03 00       		.byte	0
 2049 0b04 13       		.uleb128 0x13
 2050 0b05 10       		.byte	0x10
 2051 0b06 12       		.byte	0x12
 2052 0b07 D7       		.byte	0xd7
 2053 0b08 3D0B0000 		.4byte	0xb3d
 2054 0b0c 07       		.uleb128 0x7
 2055 0b0d 87030000 		.4byte	.LASF148
 2056 0b11 12       		.byte	0x12
 2057 0b12 DB       		.byte	0xdb
 2058 0b13 CE000000 		.4byte	0xce
 2059 0b17 00       		.byte	0
 2060 0b18 12       		.uleb128 0x12
 2061 0b19 63723100 		.ascii	"cr1\000"
 2062 0b1d 12       		.byte	0x12
 2063 0b1e E0       		.byte	0xe0
 2064 0b1f CE000000 		.4byte	0xce
 2065 0b23 04       		.byte	0x4
 2066 0b24 12       		.uleb128 0x12
 2067 0b25 63723200 		.ascii	"cr2\000"
 2068 0b29 12       		.byte	0x12
 2069 0b2a E4       		.byte	0xe4
 2070 0b2b CE000000 		.4byte	0xce
 2071 0b2f 08       		.byte	0x8
 2072 0b30 12       		.uleb128 0x12
 2073 0b31 63723300 		.ascii	"cr3\000"
 2074 0b35 12       		.byte	0x12
 2075 0b36 E8       		.byte	0xe8
 2076 0b37 CE000000 		.4byte	0xce
 2077 0b3b 0C       		.byte	0xc
 2078 0b3c 00       		.byte	0
 2079 0b3d 03       		.uleb128 0x3
 2080 0b3e 76050000 		.4byte	.LASF149
 2081 0b42 12       		.byte	0x12
 2082 0b43 E9       		.byte	0xe9
 2083 0b44 040B0000 		.4byte	0xb04
 2084 0b48 06       		.uleb128 0x6
 2085 0b49 C2020000 		.4byte	.LASF150
 2086 0b4d 20       		.byte	0x20
 2087 0b4e 11       		.byte	0x11
 2088 0b4f 70       		.byte	0x70
 2089 0b50 B50B0000 		.4byte	0xbb5
 2090 0b54 07       		.uleb128 0x7
 2091 0b55 CA040000 		.4byte	.LASF151
 2092 0b59 11       		.byte	0x11
 2093 0b5a 71       		.byte	0x71
 2094 0b5b 95090000 		.4byte	0x995
 2095 0b5f 00       		.byte	0
 2096 0b60 07       		.uleb128 0x7
 2097 0b61 42070000 		.4byte	.LASF152
 2098 0b65 11       		.byte	0x11
 2099 0b66 71       		.byte	0x71
 2100 0b67 B4090000 		.4byte	0x9b4
 2101 0b6b 04       		.byte	0x4
 2102 0b6c 12       		.uleb128 0x12
ARM GAS  /tmp/cc49awR3.s 			page 38


 2103 0b6d 70757400 		.ascii	"put\000"
 2104 0b71 11       		.byte	0x11
 2105 0b72 71       		.byte	0x71
 2106 0b73 CE090000 		.4byte	0x9ce
 2107 0b77 08       		.byte	0x8
 2108 0b78 12       		.uleb128 0x12
 2109 0b79 67657400 		.ascii	"get\000"
 2110 0b7d 11       		.byte	0x11
 2111 0b7e 71       		.byte	0x71
 2112 0b7f 17080000 		.4byte	0x817
 2113 0b83 0C       		.byte	0xc
 2114 0b84 07       		.uleb128 0x7
 2115 0b85 DE040000 		.4byte	.LASF153
 2116 0b89 11       		.byte	0x11
 2117 0b8a 71       		.byte	0x71
 2118 0b8b ED090000 		.4byte	0x9ed
 2119 0b8f 10       		.byte	0x10
 2120 0b90 07       		.uleb128 0x7
 2121 0b91 F2020000 		.4byte	.LASF154
 2122 0b95 11       		.byte	0x11
 2123 0b96 71       		.byte	0x71
 2124 0b97 070A0000 		.4byte	0xa07
 2125 0b9b 14       		.byte	0x14
 2126 0b9c 07       		.uleb128 0x7
 2127 0b9d 56030000 		.4byte	.LASF155
 2128 0ba1 11       		.byte	0x11
 2129 0ba2 71       		.byte	0x71
 2130 0ba3 2B0A0000 		.4byte	0xa2b
 2131 0ba7 18       		.byte	0x18
 2132 0ba8 07       		.uleb128 0x7
 2133 0ba9 10010000 		.4byte	.LASF156
 2134 0bad 11       		.byte	0x11
 2135 0bae 71       		.byte	0x71
 2136 0baf 4F0A0000 		.4byte	0xa4f
 2137 0bb3 1C       		.byte	0x1c
 2138 0bb4 00       		.byte	0
 2139 0bb5 0B       		.uleb128 0xb
 2140 0bb6 04       		.byte	0x4
 2141 0bb7 BB0B0000 		.4byte	0xbbb
 2142 0bbb 17       		.uleb128 0x17
 2143 0bbc 480B0000 		.4byte	0xb48
 2144 0bc0 18       		.uleb128 0x18
 2145 0bc1 AD000000 		.4byte	0xad
 2146 0bc5 D00B0000 		.4byte	0xbd0
 2147 0bc9 19       		.uleb128 0x19
 2148 0bca 5B040000 		.4byte	0x45b
 2149 0bce 0F       		.byte	0xf
 2150 0bcf 00       		.byte	0
 2151 0bd0 0B       		.uleb128 0xb
 2152 0bd1 04       		.byte	0x4
 2153 0bd2 D3050000 		.4byte	0x5d3
 2154 0bd6 0B       		.uleb128 0xb
 2155 0bd7 04       		.byte	0x4
 2156 0bd8 66090000 		.4byte	0x966
 2157 0bdc 1D       		.uleb128 0x1d
 2158 0bdd BC070000 		.4byte	.LASF163
 2159 0be1 02       		.byte	0x2
ARM GAS  /tmp/cc49awR3.s 			page 39


 2160 0be2 2002     		.2byte	0x220
 2161 0be4 03       		.byte	0x3
 2162 0be5 F60B0000 		.4byte	0xbf6
 2163 0be9 1E       		.uleb128 0x1e
 2164 0bea 3A020000 		.4byte	.LASF165
 2165 0bee 02       		.byte	0x2
 2166 0bef 2002     		.2byte	0x220
 2167 0bf1 CE000000 		.4byte	0xce
 2168 0bf5 00       		.byte	0
 2169 0bf6 1F       		.uleb128 0x1f
 2170 0bf7 64000000 		.4byte	.LASF157
 2171 0bfb 0D       		.byte	0xd
 2172 0bfc BB01     		.2byte	0x1bb
 2173 0bfe 03       		.byte	0x3
 2174 0bff 1F       		.uleb128 0x1f
 2175 0c00 5F010000 		.4byte	.LASF158
 2176 0c04 0D       		.byte	0xd
 2177 0c05 C901     		.2byte	0x1c9
 2178 0c07 03       		.byte	0x3
 2179 0c08 1F       		.uleb128 0x1f
 2180 0c09 1C080000 		.4byte	.LASF159
 2181 0c0d 0D       		.byte	0xd
 2182 0c0e D801     		.2byte	0x1d8
 2183 0c10 03       		.byte	0x3
 2184 0c11 1F       		.uleb128 0x1f
 2185 0c12 6E070000 		.4byte	.LASF160
 2186 0c16 0D       		.byte	0xd
 2187 0c17 E301     		.2byte	0x1e3
 2188 0c19 03       		.byte	0x3
 2189 0c1a 1F       		.uleb128 0x1f
 2190 0c1b BC080000 		.4byte	.LASF161
 2191 0c1f 13       		.byte	0x13
 2192 0c20 5001     		.2byte	0x150
 2193 0c22 03       		.byte	0x3
 2194 0c23 1F       		.uleb128 0x1f
 2195 0c24 D4010000 		.4byte	.LASF162
 2196 0c28 13       		.byte	0x13
 2197 0c29 6401     		.2byte	0x164
 2198 0c2b 03       		.byte	0x3
 2199 0c2c 20       		.uleb128 0x20
 2200 0c2d E3040000 		.4byte	.LASF164
 2201 0c31 01       		.byte	0x1
 2202 0c32 5B       		.byte	0x5b
 2203 0c33 01       		.byte	0x1
 2204 0c34 580C0000 		.4byte	0xc58
 2205 0c38 21       		.uleb128 0x21
 2206 0c39 73647000 		.ascii	"sdp\000"
 2207 0c3d 01       		.byte	0x1
 2208 0c3e 5B       		.byte	0x5b
 2209 0c3f 580C0000 		.4byte	0xc58
 2210 0c43 22       		.uleb128 0x22
 2211 0c44 5C070000 		.4byte	.LASF166
 2212 0c48 01       		.byte	0x1
 2213 0c49 5B       		.byte	0x5b
 2214 0c4a 5E0C0000 		.4byte	0xc5e
 2215 0c4e 23       		.uleb128 0x23
 2216 0c4f 7500     		.ascii	"u\000"
ARM GAS  /tmp/cc49awR3.s 			page 40


 2217 0c51 01       		.byte	0x1
 2218 0c52 5C       		.byte	0x5c
 2219 0c53 D00B0000 		.4byte	0xbd0
 2220 0c57 00       		.byte	0
 2221 0c58 0B       		.uleb128 0xb
 2222 0c59 04       		.byte	0x4
 2223 0c5a 820A0000 		.4byte	0xa82
 2224 0c5e 0B       		.uleb128 0xb
 2225 0c5f 04       		.byte	0x4
 2226 0c60 640C0000 		.4byte	0xc64
 2227 0c64 17       		.uleb128 0x17
 2228 0c65 3D0B0000 		.4byte	0xb3d
 2229 0c69 1F       		.uleb128 0x1f
 2230 0c6a 1A020000 		.4byte	.LASF167
 2231 0c6e 04       		.byte	0x4
 2232 0c6f BD01     		.2byte	0x1bd
 2233 0c71 03       		.byte	0x3
 2234 0c72 1D       		.uleb128 0x1d
 2235 0c73 85000000 		.4byte	.LASF168
 2236 0c77 04       		.byte	0x4
 2237 0c78 0503     		.2byte	0x305
 2238 0c7a 03       		.byte	0x3
 2239 0c7b 980C0000 		.4byte	0xc98
 2240 0c7f 24       		.uleb128 0x24
 2241 0c80 65737000 		.ascii	"esp\000"
 2242 0c84 04       		.byte	0x4
 2243 0c85 0503     		.2byte	0x305
 2244 0c87 980C0000 		.4byte	0xc98
 2245 0c8b 1E       		.uleb128 0x1e
 2246 0c8c AF080000 		.4byte	.LASF169
 2247 0c90 04       		.byte	0x4
 2248 0c91 0603     		.2byte	0x306
 2249 0c93 40010000 		.4byte	0x140
 2250 0c97 00       		.byte	0
 2251 0c98 0B       		.uleb128 0xb
 2252 0c99 04       		.byte	0x4
 2253 0c9a B0080000 		.4byte	0x8b0
 2254 0c9e 1F       		.uleb128 0x1f
 2255 0c9f D2000000 		.4byte	.LASF170
 2256 0ca3 04       		.byte	0x4
 2257 0ca4 C801     		.2byte	0x1c8
 2258 0ca6 03       		.byte	0x3
 2259 0ca7 25       		.uleb128 0x25
 2260 0ca8 D4080000 		.4byte	.LASF186
 2261 0cac 03       		.byte	0x3
 2262 0cad 7F01     		.2byte	0x17f
 2263 0caf 550A0000 		.4byte	0xa55
 2264 0cb3 03       		.byte	0x3
 2265 0cb4 C50C0000 		.4byte	0xcc5
 2266 0cb8 24       		.uleb128 0x24
 2267 0cb9 6F717000 		.ascii	"oqp\000"
 2268 0cbd 03       		.byte	0x3
 2269 0cbe 7F01     		.2byte	0x17f
 2270 0cc0 D60B0000 		.4byte	0xbd6
 2271 0cc4 00       		.byte	0
 2272 0cc5 20       		.uleb128 0x20
 2273 0cc6 2D020000 		.4byte	.LASF171
ARM GAS  /tmp/cc49awR3.s 			page 41


 2274 0cca 01       		.byte	0x1
 2275 0ccb 70       		.byte	0x70
 2276 0ccc 01       		.byte	0x1
 2277 0ccd DB0C0000 		.4byte	0xcdb
 2278 0cd1 21       		.uleb128 0x21
 2279 0cd2 7500     		.ascii	"u\000"
 2280 0cd4 01       		.byte	0x1
 2281 0cd5 70       		.byte	0x70
 2282 0cd6 D00B0000 		.4byte	0xbd0
 2283 0cda 00       		.byte	0
 2284 0cdb 20       		.uleb128 0x20
 2285 0cdc 49000000 		.4byte	.LASF172
 2286 0ce0 01       		.byte	0x1
 2287 0ce1 7D       		.byte	0x7d
 2288 0ce2 01       		.byte	0x1
 2289 0ce3 090D0000 		.4byte	0xd09
 2290 0ce7 21       		.uleb128 0x21
 2291 0ce8 73647000 		.ascii	"sdp\000"
 2292 0cec 01       		.byte	0x1
 2293 0ced 7D       		.byte	0x7d
 2294 0cee 580C0000 		.4byte	0xc58
 2295 0cf2 21       		.uleb128 0x21
 2296 0cf3 69737200 		.ascii	"isr\000"
 2297 0cf7 01       		.byte	0x1
 2298 0cf8 7D       		.byte	0x7d
 2299 0cf9 CE000000 		.4byte	0xce
 2300 0cfd 23       		.uleb128 0x23
 2301 0cfe 73747300 		.ascii	"sts\000"
 2302 0d02 01       		.byte	0x1
 2303 0d03 7E       		.byte	0x7e
 2304 0d04 40010000 		.4byte	0x140
 2305 0d08 00       		.byte	0
 2306 0d09 20       		.uleb128 0x20
 2307 0d0a A9060000 		.4byte	.LASF173
 2308 0d0e 01       		.byte	0x1
 2309 0d0f 92       		.byte	0x92
 2310 0d10 01       		.byte	0x1
 2311 0d11 4B0D0000 		.4byte	0xd4b
 2312 0d15 21       		.uleb128 0x21
 2313 0d16 73647000 		.ascii	"sdp\000"
 2314 0d1a 01       		.byte	0x1
 2315 0d1b 92       		.byte	0x92
 2316 0d1c 580C0000 		.4byte	0xc58
 2317 0d20 23       		.uleb128 0x23
 2318 0d21 7500     		.ascii	"u\000"
 2319 0d23 01       		.byte	0x1
 2320 0d24 93       		.byte	0x93
 2321 0d25 D00B0000 		.4byte	0xbd0
 2322 0d29 23       		.uleb128 0x23
 2323 0d2a 63723100 		.ascii	"cr1\000"
 2324 0d2e 01       		.byte	0x1
 2325 0d2f 94       		.byte	0x94
 2326 0d30 CE000000 		.4byte	0xce
 2327 0d34 23       		.uleb128 0x23
 2328 0d35 69737200 		.ascii	"isr\000"
 2329 0d39 01       		.byte	0x1
 2330 0d3a 95       		.byte	0x95
ARM GAS  /tmp/cc49awR3.s 			page 42


 2331 0d3b CE000000 		.4byte	0xce
 2332 0d3f 26       		.uleb128 0x26
 2333 0d40 23       		.uleb128 0x23
 2334 0d41 6200     		.ascii	"b\000"
 2335 0d43 01       		.byte	0x1
 2336 0d44 AF       		.byte	0xaf
 2337 0d45 2A010000 		.4byte	0x12a
 2338 0d49 00       		.byte	0
 2339 0d4a 00       		.byte	0
 2340 0d4b 27       		.uleb128 0x27
 2341 0d4c 8E050000 		.4byte	.LASF187
 2342 0d50 01       		.byte	0x1
 2343 0d51 C6       		.byte	0xc6
 2344 0d52 00000000 		.4byte	.LFB259
 2345 0d56 10000000 		.4byte	.LFE259-.LFB259
 2346 0d5a 01       		.uleb128 0x1
 2347 0d5b 9C       		.byte	0x9c
 2348 0d5c 6D0D0000 		.4byte	0xd6d
 2349 0d60 28       		.uleb128 0x28
 2350 0d61 717000   		.ascii	"qp\000"
 2351 0d64 01       		.byte	0x1
 2352 0d65 C6       		.byte	0xc6
 2353 0d66 4F090000 		.4byte	0x94f
 2354 0d6a 01       		.uleb128 0x1
 2355 0d6b 50       		.byte	0x50
 2356 0d6c 00       		.byte	0
 2357 0d6d 29       		.uleb128 0x29
 2358 0d6e 7E030000 		.4byte	.LASF174
 2359 0d72 01       		.byte	0x1
 2360 0d73 0201     		.2byte	0x102
 2361 0d75 00000000 		.4byte	.LFB260
 2362 0d79 FC000000 		.4byte	.LFE260-.LFB260
 2363 0d7d 01       		.uleb128 0x1
 2364 0d7e 9C       		.byte	0x9c
 2365 0d7f 13130000 		.4byte	0x1313
 2366 0d83 2A       		.uleb128 0x2a
 2367 0d84 090D0000 		.4byte	0xd09
 2368 0d88 02000000 		.4byte	.LBB267
 2369 0d8c 00000000 		.4byte	.Ldebug_ranges0+0
 2370 0d90 01       		.byte	0x1
 2371 0d91 0601     		.2byte	0x106
 2372 0d93 09130000 		.4byte	0x1309
 2373 0d97 2B       		.uleb128 0x2b
 2374 0d98 150D0000 		.4byte	0xd15
 2375 0d9c 06       		.uleb128 0x6
 2376 0d9d 03       		.byte	0x3
 2377 0d9e 00000000 		.4byte	SD1
 2378 0da2 9F       		.byte	0x9f
 2379 0da3 2C       		.uleb128 0x2c
 2380 0da4 00000000 		.4byte	.Ldebug_ranges0+0
 2381 0da8 2D       		.uleb128 0x2d
 2382 0da9 200D0000 		.4byte	0xd20
 2383 0dad 00000000 		.4byte	.LLST0
 2384 0db1 2D       		.uleb128 0x2d
 2385 0db2 290D0000 		.4byte	0xd29
 2386 0db6 1E000000 		.4byte	.LLST1
 2387 0dba 2D       		.uleb128 0x2d
ARM GAS  /tmp/cc49awR3.s 			page 43


 2388 0dbb 340D0000 		.4byte	0xd34
 2389 0dbf 3C000000 		.4byte	.LLST2
 2390 0dc3 2E       		.uleb128 0x2e
 2391 0dc4 690C0000 		.4byte	0xc69
 2392 0dc8 24000000 		.4byte	.LBB269
 2393 0dcc 06000000 		.4byte	.LBE269-.LBB269
 2394 0dd0 01       		.byte	0x1
 2395 0dd1 BD       		.byte	0xbd
 2396 0dd2 240E0000 		.4byte	0xe24
 2397 0dd6 2F       		.uleb128 0x2f
 2398 0dd7 1A0C0000 		.4byte	0xc1a
 2399 0ddb 24000000 		.4byte	.LBB270
 2400 0ddf 06000000 		.4byte	.LBE270-.LBB270
 2401 0de3 04       		.byte	0x4
 2402 0de4 BF01     		.2byte	0x1bf
 2403 0de6 2F       		.uleb128 0x2f
 2404 0de7 080C0000 		.4byte	0xc08
 2405 0deb 24000000 		.4byte	.LBB271
 2406 0def 06000000 		.4byte	.LBE271-.LBB271
 2407 0df3 13       		.byte	0x13
 2408 0df4 5201     		.2byte	0x152
 2409 0df6 2F       		.uleb128 0x2f
 2410 0df7 F60B0000 		.4byte	0xbf6
 2411 0dfb 24000000 		.4byte	.LBB272
 2412 0dff 06000000 		.4byte	.LBE272-.LBB272
 2413 0e03 0D       		.byte	0xd
 2414 0e04 DA01     		.2byte	0x1da
 2415 0e06 2F       		.uleb128 0x2f
 2416 0e07 DC0B0000 		.4byte	0xbdc
 2417 0e0b 24000000 		.4byte	.LBB273
 2418 0e0f 06000000 		.4byte	.LBE273-.LBB273
 2419 0e13 0D       		.byte	0xd
 2420 0e14 BE01     		.2byte	0x1be
 2421 0e16 30       		.uleb128 0x30
 2422 0e17 E90B0000 		.4byte	0xbe9
 2423 0e1b 5A000000 		.4byte	.LLST3
 2424 0e1f 00       		.byte	0
 2425 0e20 00       		.byte	0
 2426 0e21 00       		.byte	0
 2427 0e22 00       		.byte	0
 2428 0e23 00       		.byte	0
 2429 0e24 31       		.uleb128 0x31
 2430 0e25 A70C0000 		.4byte	0xca7
 2431 0e29 2A000000 		.4byte	.LBB275
 2432 0e2d 18000000 		.4byte	.Ldebug_ranges0+0x18
 2433 0e31 01       		.byte	0x1
 2434 0e32 BE       		.byte	0xbe
 2435 0e33 410E0000 		.4byte	0xe41
 2436 0e37 30       		.uleb128 0x30
 2437 0e38 B80C0000 		.4byte	0xcb8
 2438 0e3c 7C000000 		.4byte	.LLST4
 2439 0e40 00       		.byte	0
 2440 0e41 2E       		.uleb128 0x2e
 2441 0e42 9E0C0000 		.4byte	0xc9e
 2442 0e46 3A000000 		.4byte	.LBB278
 2443 0e4a 06000000 		.4byte	.LBE278-.LBB278
 2444 0e4e 01       		.byte	0x1
ARM GAS  /tmp/cc49awR3.s 			page 44


 2445 0e4f C1       		.byte	0xc1
 2446 0e50 A20E0000 		.4byte	0xea2
 2447 0e54 2F       		.uleb128 0x2f
 2448 0e55 230C0000 		.4byte	0xc23
 2449 0e59 3A000000 		.4byte	.LBB279
 2450 0e5d 06000000 		.4byte	.LBE279-.LBB279
 2451 0e61 04       		.byte	0x4
 2452 0e62 CA01     		.2byte	0x1ca
 2453 0e64 2F       		.uleb128 0x2f
 2454 0e65 110C0000 		.4byte	0xc11
 2455 0e69 3A000000 		.4byte	.LBB280
 2456 0e6d 06000000 		.4byte	.LBE280-.LBB280
 2457 0e71 13       		.byte	0x13
 2458 0e72 6801     		.2byte	0x168
 2459 0e74 2F       		.uleb128 0x2f
 2460 0e75 FF0B0000 		.4byte	0xbff
 2461 0e79 3A000000 		.4byte	.LBB281
 2462 0e7d 06000000 		.4byte	.LBE281-.LBB281
 2463 0e81 0D       		.byte	0xd
 2464 0e82 E501     		.2byte	0x1e5
 2465 0e84 2F       		.uleb128 0x2f
 2466 0e85 DC0B0000 		.4byte	0xbdc
 2467 0e89 3A000000 		.4byte	.LBB282
 2468 0e8d 06000000 		.4byte	.LBE282-.LBB282
 2469 0e91 0D       		.byte	0xd
 2470 0e92 CC01     		.2byte	0x1cc
 2471 0e94 30       		.uleb128 0x30
 2472 0e95 E90B0000 		.4byte	0xbe9
 2473 0e99 A4000000 		.4byte	.LLST5
 2474 0e9d 00       		.byte	0
 2475 0e9e 00       		.byte	0
 2476 0e9f 00       		.byte	0
 2477 0ea0 00       		.byte	0
 2478 0ea1 00       		.byte	0
 2479 0ea2 2E       		.uleb128 0x2e
 2480 0ea3 690C0000 		.4byte	0xc69
 2481 0ea7 48000000 		.4byte	.LBB284
 2482 0eab 06000000 		.4byte	.LBE284-.LBB284
 2483 0eaf 01       		.byte	0x1
 2484 0eb0 A8       		.byte	0xa8
 2485 0eb1 030F0000 		.4byte	0xf03
 2486 0eb5 2F       		.uleb128 0x2f
 2487 0eb6 1A0C0000 		.4byte	0xc1a
 2488 0eba 48000000 		.4byte	.LBB285
 2489 0ebe 06000000 		.4byte	.LBE285-.LBB285
 2490 0ec2 04       		.byte	0x4
 2491 0ec3 BF01     		.2byte	0x1bf
 2492 0ec5 2F       		.uleb128 0x2f
 2493 0ec6 080C0000 		.4byte	0xc08
 2494 0eca 48000000 		.4byte	.LBB286
 2495 0ece 06000000 		.4byte	.LBE286-.LBB286
 2496 0ed2 13       		.byte	0x13
 2497 0ed3 5201     		.2byte	0x152
 2498 0ed5 2F       		.uleb128 0x2f
 2499 0ed6 F60B0000 		.4byte	0xbf6
 2500 0eda 48000000 		.4byte	.LBB287
 2501 0ede 06000000 		.4byte	.LBE287-.LBB287
ARM GAS  /tmp/cc49awR3.s 			page 45


 2502 0ee2 0D       		.byte	0xd
 2503 0ee3 DA01     		.2byte	0x1da
 2504 0ee5 2F       		.uleb128 0x2f
 2505 0ee6 DC0B0000 		.4byte	0xbdc
 2506 0eea 48000000 		.4byte	.LBB288
 2507 0eee 06000000 		.4byte	.LBE288-.LBB288
 2508 0ef2 0D       		.byte	0xd
 2509 0ef3 BE01     		.2byte	0x1be
 2510 0ef5 30       		.uleb128 0x30
 2511 0ef6 E90B0000 		.4byte	0xbe9
 2512 0efa B8000000 		.4byte	.LLST6
 2513 0efe 00       		.byte	0
 2514 0eff 00       		.byte	0
 2515 0f00 00       		.byte	0
 2516 0f01 00       		.byte	0
 2517 0f02 00       		.byte	0
 2518 0f03 2E       		.uleb128 0x2e
 2519 0f04 9E0C0000 		.4byte	0xc9e
 2520 0f08 58000000 		.4byte	.LBB290
 2521 0f0c 08000000 		.4byte	.LBE290-.LBB290
 2522 0f10 01       		.byte	0x1
 2523 0f11 AA       		.byte	0xaa
 2524 0f12 640F0000 		.4byte	0xf64
 2525 0f16 2F       		.uleb128 0x2f
 2526 0f17 230C0000 		.4byte	0xc23
 2527 0f1b 58000000 		.4byte	.LBB291
 2528 0f1f 08000000 		.4byte	.LBE291-.LBB291
 2529 0f23 04       		.byte	0x4
 2530 0f24 CA01     		.2byte	0x1ca
 2531 0f26 2F       		.uleb128 0x2f
 2532 0f27 110C0000 		.4byte	0xc11
 2533 0f2b 58000000 		.4byte	.LBB292
 2534 0f2f 08000000 		.4byte	.LBE292-.LBB292
 2535 0f33 13       		.byte	0x13
 2536 0f34 6801     		.2byte	0x168
 2537 0f36 2F       		.uleb128 0x2f
 2538 0f37 FF0B0000 		.4byte	0xbff
 2539 0f3b 58000000 		.4byte	.LBB293
 2540 0f3f 08000000 		.4byte	.LBE293-.LBB293
 2541 0f43 0D       		.byte	0xd
 2542 0f44 E501     		.2byte	0x1e5
 2543 0f46 2F       		.uleb128 0x2f
 2544 0f47 DC0B0000 		.4byte	0xbdc
 2545 0f4b 58000000 		.4byte	.LBB294
 2546 0f4f 08000000 		.4byte	.LBE294-.LBB294
 2547 0f53 0D       		.byte	0xd
 2548 0f54 CC01     		.2byte	0x1cc
 2549 0f56 30       		.uleb128 0x30
 2550 0f57 E90B0000 		.4byte	0xbe9
 2551 0f5b CD000000 		.4byte	.LLST7
 2552 0f5f 00       		.byte	0
 2553 0f60 00       		.byte	0
 2554 0f61 00       		.byte	0
 2555 0f62 00       		.byte	0
 2556 0f63 00       		.byte	0
 2557 0f64 2E       		.uleb128 0x2e
 2558 0f65 690C0000 		.4byte	0xc69
ARM GAS  /tmp/cc49awR3.s 			page 46


 2559 0f69 60000000 		.4byte	.LBB296
 2560 0f6d 06000000 		.4byte	.LBE296-.LBB296
 2561 0f71 01       		.byte	0x1
 2562 0f72 A1       		.byte	0xa1
 2563 0f73 C50F0000 		.4byte	0xfc5
 2564 0f77 2F       		.uleb128 0x2f
 2565 0f78 1A0C0000 		.4byte	0xc1a
 2566 0f7c 60000000 		.4byte	.LBB297
 2567 0f80 06000000 		.4byte	.LBE297-.LBB297
 2568 0f84 04       		.byte	0x4
 2569 0f85 BF01     		.2byte	0x1bf
 2570 0f87 2F       		.uleb128 0x2f
 2571 0f88 080C0000 		.4byte	0xc08
 2572 0f8c 60000000 		.4byte	.LBB298
 2573 0f90 06000000 		.4byte	.LBE298-.LBB298
 2574 0f94 13       		.byte	0x13
 2575 0f95 5201     		.2byte	0x152
 2576 0f97 2F       		.uleb128 0x2f
 2577 0f98 F60B0000 		.4byte	0xbf6
 2578 0f9c 60000000 		.4byte	.LBB299
 2579 0fa0 06000000 		.4byte	.LBE299-.LBB299
 2580 0fa4 0D       		.byte	0xd
 2581 0fa5 DA01     		.2byte	0x1da
 2582 0fa7 2F       		.uleb128 0x2f
 2583 0fa8 DC0B0000 		.4byte	0xbdc
 2584 0fac 60000000 		.4byte	.LBB300
 2585 0fb0 06000000 		.4byte	.LBE300-.LBB300
 2586 0fb4 0D       		.byte	0xd
 2587 0fb5 BE01     		.2byte	0x1be
 2588 0fb7 30       		.uleb128 0x30
 2589 0fb8 E90B0000 		.4byte	0xbe9
 2590 0fbc E1000000 		.4byte	.LLST8
 2591 0fc0 00       		.byte	0
 2592 0fc1 00       		.byte	0
 2593 0fc2 00       		.byte	0
 2594 0fc3 00       		.byte	0
 2595 0fc4 00       		.byte	0
 2596 0fc5 2E       		.uleb128 0x2e
 2597 0fc6 720C0000 		.4byte	0xc72
 2598 0fca 66000000 		.4byte	.LBB302
 2599 0fce 0A000000 		.4byte	.LBE302-.LBB302
 2600 0fd2 01       		.byte	0x1
 2601 0fd3 A2       		.byte	0xa2
 2602 0fd4 05100000 		.4byte	0x1005
 2603 0fd8 30       		.uleb128 0x30
 2604 0fd9 8B0C0000 		.4byte	0xc8b
 2605 0fdd F6000000 		.4byte	.LLST9
 2606 0fe1 30       		.uleb128 0x30
 2607 0fe2 7F0C0000 		.4byte	0xc7f
 2608 0fe6 0C010000 		.4byte	.LLST10
 2609 0fea 32       		.uleb128 0x32
 2610 0feb 70000000 		.4byte	.LVL15
 2611 0fef 65140000 		.4byte	0x1465
 2612 0ff3 33       		.uleb128 0x33
 2613 0ff4 01       		.uleb128 0x1
 2614 0ff5 51       		.byte	0x51
 2615 0ff6 03       		.uleb128 0x3
ARM GAS  /tmp/cc49awR3.s 			page 47


 2616 0ff7 0A       		.byte	0xa
 2617 0ff8 0002     		.2byte	0x200
 2618 0ffa 33       		.uleb128 0x33
 2619 0ffb 01       		.uleb128 0x1
 2620 0ffc 50       		.byte	0x50
 2621 0ffd 05       		.uleb128 0x5
 2622 0ffe 03       		.byte	0x3
 2623 0fff 04000000 		.4byte	.LANCHOR0+4
 2624 1003 00       		.byte	0
 2625 1004 00       		.byte	0
 2626 1005 2E       		.uleb128 0x2e
 2627 1006 9E0C0000 		.4byte	0xc9e
 2628 100a 70000000 		.4byte	.LBB304
 2629 100e 08000000 		.4byte	.LBE304-.LBB304
 2630 1012 01       		.byte	0x1
 2631 1013 A3       		.byte	0xa3
 2632 1014 66100000 		.4byte	0x1066
 2633 1018 2F       		.uleb128 0x2f
 2634 1019 230C0000 		.4byte	0xc23
 2635 101d 70000000 		.4byte	.LBB305
 2636 1021 08000000 		.4byte	.LBE305-.LBB305
 2637 1025 04       		.byte	0x4
 2638 1026 CA01     		.2byte	0x1ca
 2639 1028 2F       		.uleb128 0x2f
 2640 1029 110C0000 		.4byte	0xc11
 2641 102d 70000000 		.4byte	.LBB306
 2642 1031 08000000 		.4byte	.LBE306-.LBB306
 2643 1035 13       		.byte	0x13
 2644 1036 6801     		.2byte	0x168
 2645 1038 2F       		.uleb128 0x2f
 2646 1039 FF0B0000 		.4byte	0xbff
 2647 103d 70000000 		.4byte	.LBB307
 2648 1041 08000000 		.4byte	.LBE307-.LBB307
 2649 1045 0D       		.byte	0xd
 2650 1046 E501     		.2byte	0x1e5
 2651 1048 2F       		.uleb128 0x2f
 2652 1049 DC0B0000 		.4byte	0xbdc
 2653 104d 70000000 		.4byte	.LBB308
 2654 1051 08000000 		.4byte	.LBE308-.LBB308
 2655 1055 0D       		.byte	0xd
 2656 1056 CC01     		.2byte	0x1cc
 2657 1058 30       		.uleb128 0x30
 2658 1059 E90B0000 		.4byte	0xbe9
 2659 105d 24010000 		.4byte	.LLST11
 2660 1061 00       		.byte	0
 2661 1062 00       		.byte	0
 2662 1063 00       		.byte	0
 2663 1064 00       		.byte	0
 2664 1065 00       		.byte	0
 2665 1066 2E       		.uleb128 0x2e
 2666 1067 DB0C0000 		.4byte	0xcdb
 2667 106b 78000000 		.4byte	.LBB310
 2668 106f 36000000 		.4byte	.LBE310-.LBB310
 2669 1073 01       		.byte	0x1
 2670 1074 9D       		.byte	0x9d
 2671 1075 96110000 		.4byte	0x1196
 2672 1079 30       		.uleb128 0x30
ARM GAS  /tmp/cc49awR3.s 			page 48


 2673 107a E70C0000 		.4byte	0xce7
 2674 107e 38010000 		.4byte	.LLST12
 2675 1082 30       		.uleb128 0x30
 2676 1083 F20C0000 		.4byte	0xcf2
 2677 1087 50010000 		.4byte	.LLST13
 2678 108b 34       		.uleb128 0x34
 2679 108c 78000000 		.4byte	.LBB311
 2680 1090 36000000 		.4byte	.LBE311-.LBB311
 2681 1094 2D       		.uleb128 0x2d
 2682 1095 FD0C0000 		.4byte	0xcfd
 2683 1099 63010000 		.4byte	.LLST14
 2684 109d 2E       		.uleb128 0x2e
 2685 109e 690C0000 		.4byte	0xc69
 2686 10a2 9A000000 		.4byte	.LBB312
 2687 10a6 06000000 		.4byte	.LBE312-.LBB312
 2688 10aa 01       		.byte	0x1
 2689 10ab 88       		.byte	0x88
 2690 10ac FE100000 		.4byte	0x10fe
 2691 10b0 2F       		.uleb128 0x2f
 2692 10b1 1A0C0000 		.4byte	0xc1a
 2693 10b5 9A000000 		.4byte	.LBB313
 2694 10b9 06000000 		.4byte	.LBE313-.LBB313
 2695 10bd 04       		.byte	0x4
 2696 10be BF01     		.2byte	0x1bf
 2697 10c0 2F       		.uleb128 0x2f
 2698 10c1 080C0000 		.4byte	0xc08
 2699 10c5 9A000000 		.4byte	.LBB314
 2700 10c9 06000000 		.4byte	.LBE314-.LBB314
 2701 10cd 13       		.byte	0x13
 2702 10ce 5201     		.2byte	0x152
 2703 10d0 2F       		.uleb128 0x2f
 2704 10d1 F60B0000 		.4byte	0xbf6
 2705 10d5 9A000000 		.4byte	.LBB315
 2706 10d9 06000000 		.4byte	.LBE315-.LBB315
 2707 10dd 0D       		.byte	0xd
 2708 10de DA01     		.2byte	0x1da
 2709 10e0 2F       		.uleb128 0x2f
 2710 10e1 DC0B0000 		.4byte	0xbdc
 2711 10e5 9A000000 		.4byte	.LBB316
 2712 10e9 06000000 		.4byte	.LBE316-.LBB316
 2713 10ed 0D       		.byte	0xd
 2714 10ee BE01     		.2byte	0x1be
 2715 10f0 30       		.uleb128 0x30
 2716 10f1 E90B0000 		.4byte	0xbe9
 2717 10f5 82010000 		.4byte	.LLST15
 2718 10f9 00       		.byte	0
 2719 10fa 00       		.byte	0
 2720 10fb 00       		.byte	0
 2721 10fc 00       		.byte	0
 2722 10fd 00       		.byte	0
 2723 10fe 2E       		.uleb128 0x2e
 2724 10ff 720C0000 		.4byte	0xc72
 2725 1103 A0000000 		.4byte	.LBB318
 2726 1107 06000000 		.4byte	.LBE318-.LBB318
 2727 110b 01       		.byte	0x1
 2728 110c 89       		.byte	0x89
 2729 110d 37110000 		.4byte	0x1137
ARM GAS  /tmp/cc49awR3.s 			page 49


 2730 1111 30       		.uleb128 0x30
 2731 1112 8B0C0000 		.4byte	0xc8b
 2732 1116 97010000 		.4byte	.LLST16
 2733 111a 30       		.uleb128 0x30
 2734 111b 7F0C0000 		.4byte	0xc7f
 2735 111f AA010000 		.4byte	.LLST17
 2736 1123 32       		.uleb128 0x32
 2737 1124 A6000000 		.4byte	.LVL22
 2738 1128 65140000 		.4byte	0x1465
 2739 112c 33       		.uleb128 0x33
 2740 112d 01       		.uleb128 0x1
 2741 112e 50       		.byte	0x50
 2742 112f 05       		.uleb128 0x5
 2743 1130 03       		.byte	0x3
 2744 1131 04000000 		.4byte	.LANCHOR0+4
 2745 1135 00       		.byte	0
 2746 1136 00       		.byte	0
 2747 1137 35       		.uleb128 0x35
 2748 1138 9E0C0000 		.4byte	0xc9e
 2749 113c A6000000 		.4byte	.LBB320
 2750 1140 08000000 		.4byte	.LBE320-.LBB320
 2751 1144 01       		.byte	0x1
 2752 1145 8A       		.byte	0x8a
 2753 1146 2F       		.uleb128 0x2f
 2754 1147 230C0000 		.4byte	0xc23
 2755 114b A6000000 		.4byte	.LBB321
 2756 114f 08000000 		.4byte	.LBE321-.LBB321
 2757 1153 04       		.byte	0x4
 2758 1154 CA01     		.2byte	0x1ca
 2759 1156 2F       		.uleb128 0x2f
 2760 1157 110C0000 		.4byte	0xc11
 2761 115b A6000000 		.4byte	.LBB322
 2762 115f 08000000 		.4byte	.LBE322-.LBB322
 2763 1163 13       		.byte	0x13
 2764 1164 6801     		.2byte	0x168
 2765 1166 2F       		.uleb128 0x2f
 2766 1167 FF0B0000 		.4byte	0xbff
 2767 116b A6000000 		.4byte	.LBB323
 2768 116f 08000000 		.4byte	.LBE323-.LBB323
 2769 1173 0D       		.byte	0xd
 2770 1174 E501     		.2byte	0x1e5
 2771 1176 2F       		.uleb128 0x2f
 2772 1177 DC0B0000 		.4byte	0xbdc
 2773 117b A6000000 		.4byte	.LBB324
 2774 117f 08000000 		.4byte	.LBE324-.LBB324
 2775 1183 0D       		.byte	0xd
 2776 1184 CC01     		.2byte	0x1cc
 2777 1186 30       		.uleb128 0x30
 2778 1187 E90B0000 		.4byte	0xbe9
 2779 118b C2010000 		.4byte	.LLST18
 2780 118f 00       		.byte	0
 2781 1190 00       		.byte	0
 2782 1191 00       		.byte	0
 2783 1192 00       		.byte	0
 2784 1193 00       		.byte	0
 2785 1194 00       		.byte	0
 2786 1195 00       		.byte	0
ARM GAS  /tmp/cc49awR3.s 			page 50


 2787 1196 36       		.uleb128 0x36
 2788 1197 30000000 		.4byte	.Ldebug_ranges0+0x30
 2789 119b BC120000 		.4byte	0x12bc
 2790 119f 2D       		.uleb128 0x2d
 2791 11a0 400D0000 		.4byte	0xd40
 2792 11a4 D6010000 		.4byte	.LLST19
 2793 11a8 2E       		.uleb128 0x2e
 2794 11a9 690C0000 		.4byte	0xc69
 2795 11ad AE000000 		.4byte	.LBB327
 2796 11b1 06000000 		.4byte	.LBE327-.LBB327
 2797 11b5 01       		.byte	0x1
 2798 11b6 B0       		.byte	0xb0
 2799 11b7 09120000 		.4byte	0x1209
 2800 11bb 2F       		.uleb128 0x2f
 2801 11bc 1A0C0000 		.4byte	0xc1a
 2802 11c0 AE000000 		.4byte	.LBB328
 2803 11c4 06000000 		.4byte	.LBE328-.LBB328
 2804 11c8 04       		.byte	0x4
 2805 11c9 BF01     		.2byte	0x1bf
 2806 11cb 2F       		.uleb128 0x2f
 2807 11cc 080C0000 		.4byte	0xc08
 2808 11d0 AE000000 		.4byte	.LBB329
 2809 11d4 06000000 		.4byte	.LBE329-.LBB329
 2810 11d8 13       		.byte	0x13
 2811 11d9 5201     		.2byte	0x152
 2812 11db 2F       		.uleb128 0x2f
 2813 11dc F60B0000 		.4byte	0xbf6
 2814 11e0 AE000000 		.4byte	.LBB330
 2815 11e4 06000000 		.4byte	.LBE330-.LBB330
 2816 11e8 0D       		.byte	0xd
 2817 11e9 DA01     		.2byte	0x1da
 2818 11eb 2F       		.uleb128 0x2f
 2819 11ec DC0B0000 		.4byte	0xbdc
 2820 11f0 AE000000 		.4byte	.LBB331
 2821 11f4 06000000 		.4byte	.LBE331-.LBB331
 2822 11f8 0D       		.byte	0xd
 2823 11f9 BE01     		.2byte	0x1be
 2824 11fb 30       		.uleb128 0x30
 2825 11fc E90B0000 		.4byte	0xbe9
 2826 1200 F4010000 		.4byte	.LLST20
 2827 1204 00       		.byte	0
 2828 1205 00       		.byte	0
 2829 1206 00       		.byte	0
 2830 1207 00       		.byte	0
 2831 1208 00       		.byte	0
 2832 1209 2E       		.uleb128 0x2e
 2833 120a 9E0C0000 		.4byte	0xc9e
 2834 120e C2000000 		.4byte	.LBB333
 2835 1212 08000000 		.4byte	.LBE333-.LBB333
 2836 1216 01       		.byte	0x1
 2837 1217 B8       		.byte	0xb8
 2838 1218 6A120000 		.4byte	0x126a
 2839 121c 2F       		.uleb128 0x2f
 2840 121d 230C0000 		.4byte	0xc23
 2841 1221 C2000000 		.4byte	.LBB334
 2842 1225 08000000 		.4byte	.LBE334-.LBB334
 2843 1229 04       		.byte	0x4
ARM GAS  /tmp/cc49awR3.s 			page 51


 2844 122a CA01     		.2byte	0x1ca
 2845 122c 2F       		.uleb128 0x2f
 2846 122d 110C0000 		.4byte	0xc11
 2847 1231 C2000000 		.4byte	.LBB335
 2848 1235 08000000 		.4byte	.LBE335-.LBB335
 2849 1239 13       		.byte	0x13
 2850 123a 6801     		.2byte	0x168
 2851 123c 2F       		.uleb128 0x2f
 2852 123d FF0B0000 		.4byte	0xbff
 2853 1241 C2000000 		.4byte	.LBB336
 2854 1245 08000000 		.4byte	.LBE336-.LBB336
 2855 1249 0D       		.byte	0xd
 2856 124a E501     		.2byte	0x1e5
 2857 124c 2F       		.uleb128 0x2f
 2858 124d DC0B0000 		.4byte	0xbdc
 2859 1251 C2000000 		.4byte	.LBB337
 2860 1255 08000000 		.4byte	.LBE337-.LBB337
 2861 1259 0D       		.byte	0xd
 2862 125a CC01     		.2byte	0x1cc
 2863 125c 30       		.uleb128 0x30
 2864 125d E90B0000 		.4byte	0xbe9
 2865 1261 16020000 		.4byte	.LLST21
 2866 1265 00       		.byte	0
 2867 1266 00       		.byte	0
 2868 1267 00       		.byte	0
 2869 1268 00       		.byte	0
 2870 1269 00       		.byte	0
 2871 126a 2E       		.uleb128 0x2e
 2872 126b 720C0000 		.4byte	0xc72
 2873 126f DA000000 		.4byte	.LBB339
 2874 1273 08000000 		.4byte	.LBE339-.LBB339
 2875 1277 01       		.byte	0x1
 2876 1278 B3       		.byte	0xb3
 2877 1279 A8120000 		.4byte	0x12a8
 2878 127d 37       		.uleb128 0x37
 2879 127e 8B0C0000 		.4byte	0xc8b
 2880 1282 08       		.byte	0x8
 2881 1283 2B       		.uleb128 0x2b
 2882 1284 7F0C0000 		.4byte	0xc7f
 2883 1288 06       		.uleb128 0x6
 2884 1289 03       		.byte	0x3
 2885 128a 04000000 		.4byte	SD1+4
 2886 128e 9F       		.byte	0x9f
 2887 128f 32       		.uleb128 0x32
 2888 1290 E2000000 		.4byte	.LVL32
 2889 1294 65140000 		.4byte	0x1465
 2890 1298 33       		.uleb128 0x33
 2891 1299 01       		.uleb128 0x1
 2892 129a 51       		.byte	0x51
 2893 129b 01       		.uleb128 0x1
 2894 129c 38       		.byte	0x38
 2895 129d 33       		.uleb128 0x33
 2896 129e 01       		.uleb128 0x1
 2897 129f 50       		.byte	0x50
 2898 12a0 05       		.uleb128 0x5
 2899 12a1 03       		.byte	0x3
 2900 12a2 04000000 		.4byte	.LANCHOR0+4
ARM GAS  /tmp/cc49awR3.s 			page 52


 2901 12a6 00       		.byte	0
 2902 12a7 00       		.byte	0
 2903 12a8 32       		.uleb128 0x32
 2904 12a9 BA000000 		.4byte	.LVL24
 2905 12ad 7B140000 		.4byte	0x147b
 2906 12b1 33       		.uleb128 0x33
 2907 12b2 01       		.uleb128 0x1
 2908 12b3 50       		.byte	0x50
 2909 12b4 05       		.uleb128 0x5
 2910 12b5 03       		.byte	0x3
 2911 12b6 30000000 		.4byte	.LANCHOR0+48
 2912 12ba 00       		.byte	0
 2913 12bb 00       		.byte	0
 2914 12bc 2E       		.uleb128 0x2e
 2915 12bd 720C0000 		.4byte	0xc72
 2916 12c1 D0000000 		.4byte	.LBB342
 2917 12c5 0A000000 		.4byte	.LBE342-.LBB342
 2918 12c9 01       		.byte	0x1
 2919 12ca BF       		.byte	0xbf
 2920 12cb F7120000 		.4byte	0x12f7
 2921 12cf 30       		.uleb128 0x30
 2922 12d0 8B0C0000 		.4byte	0xc8b
 2923 12d4 2A020000 		.4byte	.LLST22
 2924 12d8 30       		.uleb128 0x30
 2925 12d9 7F0C0000 		.4byte	0xc7f
 2926 12dd 3E020000 		.4byte	.LLST23
 2927 12e1 32       		.uleb128 0x32
 2928 12e2 D8000000 		.4byte	.LVL29
 2929 12e6 65140000 		.4byte	0x1465
 2930 12ea 33       		.uleb128 0x33
 2931 12eb 01       		.uleb128 0x1
 2932 12ec 51       		.byte	0x51
 2933 12ed 01       		.uleb128 0x1
 2934 12ee 40       		.byte	0x40
 2935 12ef 33       		.uleb128 0x33
 2936 12f0 01       		.uleb128 0x1
 2937 12f1 50       		.byte	0x50
 2938 12f2 02       		.uleb128 0x2
 2939 12f3 77       		.byte	0x77
 2940 12f4 04       		.sleb128 4
 2941 12f5 00       		.byte	0
 2942 12f6 00       		.byte	0
 2943 12f7 32       		.uleb128 0x32
 2944 12f8 58000000 		.4byte	.LVL12
 2945 12fc 90140000 		.4byte	0x1490
 2946 1300 33       		.uleb128 0x33
 2947 1301 01       		.uleb128 0x1
 2948 1302 50       		.byte	0x50
 2949 1303 02       		.uleb128 0x2
 2950 1304 77       		.byte	0x77
 2951 1305 00       		.sleb128 0
 2952 1306 00       		.byte	0
 2953 1307 00       		.byte	0
 2954 1308 00       		.byte	0
 2955 1309 38       		.uleb128 0x38
 2956 130a 48000000 		.4byte	.LVL11
 2957 130e A7140000 		.4byte	0x14a7
ARM GAS  /tmp/cc49awR3.s 			page 53


 2958 1312 00       		.byte	0
 2959 1313 29       		.uleb128 0x29
 2960 1314 E6020000 		.4byte	.LASF175
 2961 1318 01       		.byte	0x1
 2962 1319 7401     		.2byte	0x174
 2963 131b 00000000 		.4byte	.LFB261
 2964 131f 28000000 		.4byte	.LFE261-.LFB261
 2965 1323 01       		.uleb128 0x1
 2966 1324 9C       		.byte	0x9c
 2967 1325 48130000 		.4byte	0x1348
 2968 1329 32       		.uleb128 0x32
 2969 132a 0E000000 		.4byte	.LVL33
 2970 132e AF140000 		.4byte	0x14af
 2971 1332 33       		.uleb128 0x33
 2972 1333 01       		.uleb128 0x1
 2973 1334 52       		.byte	0x52
 2974 1335 05       		.uleb128 0x5
 2975 1336 03       		.byte	0x3
 2976 1337 00000000 		.4byte	notify1
 2977 133b 33       		.uleb128 0x33
 2978 133c 01       		.uleb128 0x1
 2979 133d 51       		.byte	0x51
 2980 133e 01       		.uleb128 0x1
 2981 133f 30       		.byte	0x30
 2982 1340 33       		.uleb128 0x33
 2983 1341 01       		.uleb128 0x1
 2984 1342 50       		.byte	0x50
 2985 1343 02       		.uleb128 0x2
 2986 1344 74       		.byte	0x74
 2987 1345 00       		.sleb128 0
 2988 1346 00       		.byte	0
 2989 1347 00       		.byte	0
 2990 1348 29       		.uleb128 0x29
 2991 1349 0B060000 		.4byte	.LASF176
 2992 134d 01       		.byte	0x1
 2993 134e A501     		.2byte	0x1a5
 2994 1350 00000000 		.4byte	.LFB262
 2995 1354 6C000000 		.4byte	.LFE262-.LFB262
 2996 1358 01       		.uleb128 0x1
 2997 1359 9C       		.byte	0x9c
 2998 135a D7130000 		.4byte	0x13d7
 2999 135e 39       		.uleb128 0x39
 3000 135f 73647000 		.ascii	"sdp\000"
 3001 1363 01       		.byte	0x1
 3002 1364 A501     		.2byte	0x1a5
 3003 1366 580C0000 		.4byte	0xc58
 3004 136a 56020000 		.4byte	.LLST24
 3005 136e 3A       		.uleb128 0x3a
 3006 136f 5C070000 		.4byte	.LASF166
 3007 1373 01       		.byte	0x1
 3008 1374 A501     		.2byte	0x1a5
 3009 1376 5E0C0000 		.4byte	0xc5e
 3010 137a 8A020000 		.4byte	.LLST25
 3011 137e 3B       		.uleb128 0x3b
 3012 137f 2C0C0000 		.4byte	0xc2c
 3013 1383 12000000 		.4byte	.LBB347
 3014 1387 32000000 		.4byte	.LBE347-.LBB347
ARM GAS  /tmp/cc49awR3.s 			page 54


 3015 138b 01       		.byte	0x1
 3016 138c D001     		.2byte	0x1d0
 3017 138e C1130000 		.4byte	0x13c1
 3018 1392 30       		.uleb128 0x30
 3019 1393 380C0000 		.4byte	0xc38
 3020 1397 D0020000 		.4byte	.LLST26
 3021 139b 30       		.uleb128 0x30
 3022 139c 380C0000 		.4byte	0xc38
 3023 13a0 D0020000 		.4byte	.LLST26
 3024 13a4 30       		.uleb128 0x30
 3025 13a5 430C0000 		.4byte	0xc43
 3026 13a9 E3020000 		.4byte	.LLST28
 3027 13ad 34       		.uleb128 0x34
 3028 13ae 12000000 		.4byte	.LBB348
 3029 13b2 32000000 		.4byte	.LBE348-.LBB348
 3030 13b6 2D       		.uleb128 0x2d
 3031 13b7 4E0C0000 		.4byte	0xc4e
 3032 13bb 13030000 		.4byte	.LLST29
 3033 13bf 00       		.byte	0
 3034 13c0 00       		.byte	0
 3035 13c1 32       		.uleb128 0x32
 3036 13c2 5C000000 		.4byte	.LVL41
 3037 13c6 CB140000 		.4byte	0x14cb
 3038 13ca 33       		.uleb128 0x33
 3039 13cb 01       		.uleb128 0x1
 3040 13cc 51       		.byte	0x51
 3041 13cd 01       		.uleb128 0x1
 3042 13ce 3C       		.byte	0x3c
 3043 13cf 33       		.uleb128 0x33
 3044 13d0 01       		.uleb128 0x1
 3045 13d1 50       		.byte	0x50
 3046 13d2 02       		.uleb128 0x2
 3047 13d3 08       		.byte	0x8
 3048 13d4 25       		.byte	0x25
 3049 13d5 00       		.byte	0
 3050 13d6 00       		.byte	0
 3051 13d7 29       		.uleb128 0x29
 3052 13d8 EC080000 		.4byte	.LASF177
 3053 13dc 01       		.byte	0x1
 3054 13dd DC01     		.2byte	0x1dc
 3055 13df 00000000 		.4byte	.LFB263
 3056 13e3 34000000 		.4byte	.LFE263-.LFB263
 3057 13e7 01       		.uleb128 0x1
 3058 13e8 9C       		.byte	0x9c
 3059 13e9 2C140000 		.4byte	0x142c
 3060 13ed 39       		.uleb128 0x39
 3061 13ee 73647000 		.ascii	"sdp\000"
 3062 13f2 01       		.byte	0x1
 3063 13f3 DC01     		.2byte	0x1dc
 3064 13f5 580C0000 		.4byte	0xc58
 3065 13f9 26030000 		.4byte	.LLST30
 3066 13fd 2A       		.uleb128 0x2a
 3067 13fe C50C0000 		.4byte	0xcc5
 3068 1402 0C000000 		.4byte	.LBB349
 3069 1406 48000000 		.4byte	.Ldebug_ranges0+0x48
 3070 140a 01       		.byte	0x1
 3071 140b DF01     		.2byte	0x1df
ARM GAS  /tmp/cc49awR3.s 			page 55


 3072 140d 1B140000 		.4byte	0x141b
 3073 1411 30       		.uleb128 0x30
 3074 1412 D10C0000 		.4byte	0xcd1
 3075 1416 47030000 		.4byte	.LLST31
 3076 141a 00       		.byte	0
 3077 141b 3C       		.uleb128 0x3c
 3078 141c 2E000000 		.4byte	.LVL46
 3079 1420 E1140000 		.4byte	0x14e1
 3080 1424 33       		.uleb128 0x33
 3081 1425 01       		.uleb128 0x1
 3082 1426 50       		.byte	0x50
 3083 1427 02       		.uleb128 0x2
 3084 1428 08       		.byte	0x8
 3085 1429 25       		.byte	0x25
 3086 142a 00       		.byte	0
 3087 142b 00       		.byte	0
 3088 142c 3D       		.uleb128 0x3d
 3089 142d 6B010000 		.4byte	.LASF188
 3090 1431 01       		.byte	0x1
 3091 1432 48       		.byte	0x48
 3092 1433 640C0000 		.4byte	0xc64
 3093 1437 05       		.uleb128 0x5
 3094 1438 03       		.byte	0x3
 3095 1439 00000000 		.4byte	default_config
 3096 143d 3E       		.uleb128 0x3e
 3097 143e 24060000 		.4byte	.LASF178
 3098 1442 15       		.byte	0x15
 3099 1443 A706     		.2byte	0x6a7
 3100 1445 E9000000 		.4byte	0xe9
 3101 1449 3F       		.uleb128 0x3f
 3102 144a 636800   		.ascii	"ch\000"
 3103 144d 0A       		.byte	0xa
 3104 144e EB01     		.2byte	0x1eb
 3105 1450 F4030000 		.4byte	0x3f4
 3106 1454 40       		.uleb128 0x40
 3107 1455 53443100 		.ascii	"SD1\000"
 3108 1459 01       		.byte	0x1
 3109 145a 27       		.byte	0x27
 3110 145b 820A0000 		.4byte	0xa82
 3111 145f 05       		.uleb128 0x5
 3112 1460 03       		.byte	0x3
 3113 1461 00000000 		.4byte	SD1
 3114 1465 41       		.uleb128 0x41
 3115 1466 B7010000 		.4byte	.LASF179
 3116 146a 10       		.byte	0x10
 3117 146b 87       		.byte	0x87
 3118 146c 7B140000 		.4byte	0x147b
 3119 1470 0D       		.uleb128 0xd
 3120 1471 980C0000 		.4byte	0xc98
 3121 1475 0D       		.uleb128 0xd
 3122 1476 40010000 		.4byte	0x140
 3123 147a 00       		.byte	0
 3124 147b 42       		.uleb128 0x42
 3125 147c A5010000 		.4byte	.LASF189
 3126 1480 03       		.byte	0x3
 3127 1481 F7       		.byte	0xf7
 3128 1482 2A010000 		.4byte	0x12a
ARM GAS  /tmp/cc49awR3.s 			page 56


 3129 1486 90140000 		.4byte	0x1490
 3130 148a 0D       		.uleb128 0xd
 3131 148b D60B0000 		.4byte	0xbd6
 3132 148f 00       		.byte	0
 3133 1490 43       		.uleb128 0x43
 3134 1491 4C070000 		.4byte	.LASF180
 3135 1495 11       		.byte	0x11
 3136 1496 2D01     		.2byte	0x12d
 3137 1498 A7140000 		.4byte	0x14a7
 3138 149c 0D       		.uleb128 0xd
 3139 149d 580C0000 		.4byte	0xc58
 3140 14a1 0D       		.uleb128 0xd
 3141 14a2 AD000000 		.4byte	0xad
 3142 14a6 00       		.byte	0
 3143 14a7 44       		.uleb128 0x44
 3144 14a8 35030000 		.4byte	.LASF190
 3145 14ac 0D       		.byte	0xd
 3146 14ad 6501     		.2byte	0x165
 3147 14af 43       		.uleb128 0x43
 3148 14b0 03010000 		.4byte	.LASF181
 3149 14b4 11       		.byte	0x11
 3150 14b5 2A01     		.2byte	0x12a
 3151 14b7 CB140000 		.4byte	0x14cb
 3152 14bb 0D       		.uleb128 0xd
 3153 14bc 580C0000 		.4byte	0xc58
 3154 14c0 0D       		.uleb128 0xd
 3155 14c1 33090000 		.4byte	0x933
 3156 14c5 0D       		.uleb128 0xd
 3157 14c6 33090000 		.4byte	0x933
 3158 14ca 00       		.byte	0
 3159 14cb 41       		.uleb128 0x41
 3160 14cc 53000000 		.4byte	.LASF182
 3161 14d0 14       		.byte	0x14
 3162 14d1 4E       		.byte	0x4e
 3163 14d2 E1140000 		.4byte	0x14e1
 3164 14d6 0D       		.uleb128 0xd
 3165 14d7 CE000000 		.4byte	0xce
 3166 14db 0D       		.uleb128 0xd
 3167 14dc CE000000 		.4byte	0xce
 3168 14e0 00       		.byte	0
 3169 14e1 45       		.uleb128 0x45
 3170 14e2 FC060000 		.4byte	.LASF191
 3171 14e6 14       		.byte	0x14
 3172 14e7 4F       		.byte	0x4f
 3173 14e8 0D       		.uleb128 0xd
 3174 14e9 CE000000 		.4byte	0xce
 3175 14ed 00       		.byte	0
 3176 14ee 00       		.byte	0
 3177              		.section	.debug_abbrev,"",%progbits
 3178              	.Ldebug_abbrev0:
 3179 0000 01       		.uleb128 0x1
 3180 0001 11       		.uleb128 0x11
 3181 0002 01       		.byte	0x1
 3182 0003 25       		.uleb128 0x25
 3183 0004 0E       		.uleb128 0xe
 3184 0005 13       		.uleb128 0x13
 3185 0006 0B       		.uleb128 0xb
ARM GAS  /tmp/cc49awR3.s 			page 57


 3186 0007 03       		.uleb128 0x3
 3187 0008 0E       		.uleb128 0xe
 3188 0009 1B       		.uleb128 0x1b
 3189 000a 0E       		.uleb128 0xe
 3190 000b 55       		.uleb128 0x55
 3191 000c 17       		.uleb128 0x17
 3192 000d 11       		.uleb128 0x11
 3193 000e 01       		.uleb128 0x1
 3194 000f 10       		.uleb128 0x10
 3195 0010 17       		.uleb128 0x17
 3196 0011 00       		.byte	0
 3197 0012 00       		.byte	0
 3198 0013 02       		.uleb128 0x2
 3199 0014 24       		.uleb128 0x24
 3200 0015 00       		.byte	0
 3201 0016 0B       		.uleb128 0xb
 3202 0017 0B       		.uleb128 0xb
 3203 0018 3E       		.uleb128 0x3e
 3204 0019 0B       		.uleb128 0xb
 3205 001a 03       		.uleb128 0x3
 3206 001b 08       		.uleb128 0x8
 3207 001c 00       		.byte	0
 3208 001d 00       		.byte	0
 3209 001e 03       		.uleb128 0x3
 3210 001f 16       		.uleb128 0x16
 3211 0020 00       		.byte	0
 3212 0021 03       		.uleb128 0x3
 3213 0022 0E       		.uleb128 0xe
 3214 0023 3A       		.uleb128 0x3a
 3215 0024 0B       		.uleb128 0xb
 3216 0025 3B       		.uleb128 0x3b
 3217 0026 0B       		.uleb128 0xb
 3218 0027 49       		.uleb128 0x49
 3219 0028 13       		.uleb128 0x13
 3220 0029 00       		.byte	0
 3221 002a 00       		.byte	0
 3222 002b 04       		.uleb128 0x4
 3223 002c 24       		.uleb128 0x24
 3224 002d 00       		.byte	0
 3225 002e 0B       		.uleb128 0xb
 3226 002f 0B       		.uleb128 0xb
 3227 0030 3E       		.uleb128 0x3e
 3228 0031 0B       		.uleb128 0xb
 3229 0032 03       		.uleb128 0x3
 3230 0033 0E       		.uleb128 0xe
 3231 0034 00       		.byte	0
 3232 0035 00       		.byte	0
 3233 0036 05       		.uleb128 0x5
 3234 0037 35       		.uleb128 0x35
 3235 0038 00       		.byte	0
 3236 0039 49       		.uleb128 0x49
 3237 003a 13       		.uleb128 0x13
 3238 003b 00       		.byte	0
 3239 003c 00       		.byte	0
 3240 003d 06       		.uleb128 0x6
 3241 003e 13       		.uleb128 0x13
 3242 003f 01       		.byte	0x1
ARM GAS  /tmp/cc49awR3.s 			page 58


 3243 0040 03       		.uleb128 0x3
 3244 0041 0E       		.uleb128 0xe
 3245 0042 0B       		.uleb128 0xb
 3246 0043 0B       		.uleb128 0xb
 3247 0044 3A       		.uleb128 0x3a
 3248 0045 0B       		.uleb128 0xb
 3249 0046 3B       		.uleb128 0x3b
 3250 0047 0B       		.uleb128 0xb
 3251 0048 01       		.uleb128 0x1
 3252 0049 13       		.uleb128 0x13
 3253 004a 00       		.byte	0
 3254 004b 00       		.byte	0
 3255 004c 07       		.uleb128 0x7
 3256 004d 0D       		.uleb128 0xd
 3257 004e 00       		.byte	0
 3258 004f 03       		.uleb128 0x3
 3259 0050 0E       		.uleb128 0xe
 3260 0051 3A       		.uleb128 0x3a
 3261 0052 0B       		.uleb128 0xb
 3262 0053 3B       		.uleb128 0x3b
 3263 0054 0B       		.uleb128 0xb
 3264 0055 49       		.uleb128 0x49
 3265 0056 13       		.uleb128 0x13
 3266 0057 38       		.uleb128 0x38
 3267 0058 0B       		.uleb128 0xb
 3268 0059 00       		.byte	0
 3269 005a 00       		.byte	0
 3270 005b 08       		.uleb128 0x8
 3271 005c 0D       		.uleb128 0xd
 3272 005d 00       		.byte	0
 3273 005e 03       		.uleb128 0x3
 3274 005f 08       		.uleb128 0x8
 3275 0060 3A       		.uleb128 0x3a
 3276 0061 0B       		.uleb128 0xb
 3277 0062 3B       		.uleb128 0x3b
 3278 0063 05       		.uleb128 0x5
 3279 0064 49       		.uleb128 0x49
 3280 0065 13       		.uleb128 0x13
 3281 0066 38       		.uleb128 0x38
 3282 0067 0B       		.uleb128 0xb
 3283 0068 00       		.byte	0
 3284 0069 00       		.byte	0
 3285 006a 09       		.uleb128 0x9
 3286 006b 0D       		.uleb128 0xd
 3287 006c 00       		.byte	0
 3288 006d 03       		.uleb128 0x3
 3289 006e 0E       		.uleb128 0xe
 3290 006f 3A       		.uleb128 0x3a
 3291 0070 0B       		.uleb128 0xb
 3292 0071 3B       		.uleb128 0x3b
 3293 0072 05       		.uleb128 0x5
 3294 0073 49       		.uleb128 0x49
 3295 0074 13       		.uleb128 0x13
 3296 0075 38       		.uleb128 0x38
 3297 0076 0B       		.uleb128 0xb
 3298 0077 00       		.byte	0
 3299 0078 00       		.byte	0
ARM GAS  /tmp/cc49awR3.s 			page 59


 3300 0079 0A       		.uleb128 0xa
 3301 007a 13       		.uleb128 0x13
 3302 007b 01       		.byte	0x1
 3303 007c 03       		.uleb128 0x3
 3304 007d 0E       		.uleb128 0xe
 3305 007e 0B       		.uleb128 0xb
 3306 007f 0B       		.uleb128 0xb
 3307 0080 3A       		.uleb128 0x3a
 3308 0081 0B       		.uleb128 0xb
 3309 0082 3B       		.uleb128 0x3b
 3310 0083 05       		.uleb128 0x5
 3311 0084 01       		.uleb128 0x1
 3312 0085 13       		.uleb128 0x13
 3313 0086 00       		.byte	0
 3314 0087 00       		.byte	0
 3315 0088 0B       		.uleb128 0xb
 3316 0089 0F       		.uleb128 0xf
 3317 008a 00       		.byte	0
 3318 008b 0B       		.uleb128 0xb
 3319 008c 0B       		.uleb128 0xb
 3320 008d 49       		.uleb128 0x49
 3321 008e 13       		.uleb128 0x13
 3322 008f 00       		.byte	0
 3323 0090 00       		.byte	0
 3324 0091 0C       		.uleb128 0xc
 3325 0092 15       		.uleb128 0x15
 3326 0093 01       		.byte	0x1
 3327 0094 27       		.uleb128 0x27
 3328 0095 19       		.uleb128 0x19
 3329 0096 01       		.uleb128 0x1
 3330 0097 13       		.uleb128 0x13
 3331 0098 00       		.byte	0
 3332 0099 00       		.byte	0
 3333 009a 0D       		.uleb128 0xd
 3334 009b 05       		.uleb128 0x5
 3335 009c 00       		.byte	0
 3336 009d 49       		.uleb128 0x49
 3337 009e 13       		.uleb128 0x13
 3338 009f 00       		.byte	0
 3339 00a0 00       		.byte	0
 3340 00a1 0E       		.uleb128 0xe
 3341 00a2 0F       		.uleb128 0xf
 3342 00a3 00       		.byte	0
 3343 00a4 0B       		.uleb128 0xb
 3344 00a5 0B       		.uleb128 0xb
 3345 00a6 00       		.byte	0
 3346 00a7 00       		.byte	0
 3347 00a8 0F       		.uleb128 0xf
 3348 00a9 13       		.uleb128 0x13
 3349 00aa 01       		.byte	0x1
 3350 00ab 03       		.uleb128 0x3
 3351 00ac 0E       		.uleb128 0xe
 3352 00ad 0B       		.uleb128 0xb
 3353 00ae 05       		.uleb128 0x5
 3354 00af 3A       		.uleb128 0x3a
 3355 00b0 0B       		.uleb128 0xb
 3356 00b1 3B       		.uleb128 0x3b
ARM GAS  /tmp/cc49awR3.s 			page 60


 3357 00b2 05       		.uleb128 0x5
 3358 00b3 01       		.uleb128 0x1
 3359 00b4 13       		.uleb128 0x13
 3360 00b5 00       		.byte	0
 3361 00b6 00       		.byte	0
 3362 00b7 10       		.uleb128 0x10
 3363 00b8 13       		.uleb128 0x13
 3364 00b9 01       		.byte	0x1
 3365 00ba 0B       		.uleb128 0xb
 3366 00bb 0B       		.uleb128 0xb
 3367 00bc 3A       		.uleb128 0x3a
 3368 00bd 0B       		.uleb128 0xb
 3369 00be 3B       		.uleb128 0x3b
 3370 00bf 05       		.uleb128 0x5
 3371 00c0 01       		.uleb128 0x1
 3372 00c1 13       		.uleb128 0x13
 3373 00c2 00       		.byte	0
 3374 00c3 00       		.byte	0
 3375 00c4 11       		.uleb128 0x11
 3376 00c5 16       		.uleb128 0x16
 3377 00c6 00       		.byte	0
 3378 00c7 03       		.uleb128 0x3
 3379 00c8 0E       		.uleb128 0xe
 3380 00c9 3A       		.uleb128 0x3a
 3381 00ca 0B       		.uleb128 0xb
 3382 00cb 3B       		.uleb128 0x3b
 3383 00cc 05       		.uleb128 0x5
 3384 00cd 49       		.uleb128 0x49
 3385 00ce 13       		.uleb128 0x13
 3386 00cf 00       		.byte	0
 3387 00d0 00       		.byte	0
 3388 00d1 12       		.uleb128 0x12
 3389 00d2 0D       		.uleb128 0xd
 3390 00d3 00       		.byte	0
 3391 00d4 03       		.uleb128 0x3
 3392 00d5 08       		.uleb128 0x8
 3393 00d6 3A       		.uleb128 0x3a
 3394 00d7 0B       		.uleb128 0xb
 3395 00d8 3B       		.uleb128 0x3b
 3396 00d9 0B       		.uleb128 0xb
 3397 00da 49       		.uleb128 0x49
 3398 00db 13       		.uleb128 0x13
 3399 00dc 38       		.uleb128 0x38
 3400 00dd 0B       		.uleb128 0xb
 3401 00de 00       		.byte	0
 3402 00df 00       		.byte	0
 3403 00e0 13       		.uleb128 0x13
 3404 00e1 13       		.uleb128 0x13
 3405 00e2 01       		.byte	0x1
 3406 00e3 0B       		.uleb128 0xb
 3407 00e4 0B       		.uleb128 0xb
 3408 00e5 3A       		.uleb128 0x3a
 3409 00e6 0B       		.uleb128 0xb
 3410 00e7 3B       		.uleb128 0x3b
 3411 00e8 0B       		.uleb128 0xb
 3412 00e9 01       		.uleb128 0x1
 3413 00ea 13       		.uleb128 0x13
ARM GAS  /tmp/cc49awR3.s 			page 61


 3414 00eb 00       		.byte	0
 3415 00ec 00       		.byte	0
 3416 00ed 14       		.uleb128 0x14
 3417 00ee 17       		.uleb128 0x17
 3418 00ef 01       		.byte	0x1
 3419 00f0 0B       		.uleb128 0xb
 3420 00f1 0B       		.uleb128 0xb
 3421 00f2 3A       		.uleb128 0x3a
 3422 00f3 0B       		.uleb128 0xb
 3423 00f4 3B       		.uleb128 0x3b
 3424 00f5 0B       		.uleb128 0xb
 3425 00f6 01       		.uleb128 0x1
 3426 00f7 13       		.uleb128 0x13
 3427 00f8 00       		.byte	0
 3428 00f9 00       		.byte	0
 3429 00fa 15       		.uleb128 0x15
 3430 00fb 0D       		.uleb128 0xd
 3431 00fc 00       		.byte	0
 3432 00fd 03       		.uleb128 0x3
 3433 00fe 0E       		.uleb128 0xe
 3434 00ff 3A       		.uleb128 0x3a
 3435 0100 0B       		.uleb128 0xb
 3436 0101 3B       		.uleb128 0x3b
 3437 0102 0B       		.uleb128 0xb
 3438 0103 49       		.uleb128 0x49
 3439 0104 13       		.uleb128 0x13
 3440 0105 00       		.byte	0
 3441 0106 00       		.byte	0
 3442 0107 16       		.uleb128 0x16
 3443 0108 0D       		.uleb128 0xd
 3444 0109 00       		.byte	0
 3445 010a 03       		.uleb128 0x3
 3446 010b 0E       		.uleb128 0xe
 3447 010c 3A       		.uleb128 0x3a
 3448 010d 0B       		.uleb128 0xb
 3449 010e 3B       		.uleb128 0x3b
 3450 010f 05       		.uleb128 0x5
 3451 0110 49       		.uleb128 0x49
 3452 0111 13       		.uleb128 0x13
 3453 0112 00       		.byte	0
 3454 0113 00       		.byte	0
 3455 0114 17       		.uleb128 0x17
 3456 0115 26       		.uleb128 0x26
 3457 0116 00       		.byte	0
 3458 0117 49       		.uleb128 0x49
 3459 0118 13       		.uleb128 0x13
 3460 0119 00       		.byte	0
 3461 011a 00       		.byte	0
 3462 011b 18       		.uleb128 0x18
 3463 011c 01       		.uleb128 0x1
 3464 011d 01       		.byte	0x1
 3465 011e 49       		.uleb128 0x49
 3466 011f 13       		.uleb128 0x13
 3467 0120 01       		.uleb128 0x1
 3468 0121 13       		.uleb128 0x13
 3469 0122 00       		.byte	0
 3470 0123 00       		.byte	0
ARM GAS  /tmp/cc49awR3.s 			page 62


 3471 0124 19       		.uleb128 0x19
 3472 0125 21       		.uleb128 0x21
 3473 0126 00       		.byte	0
 3474 0127 49       		.uleb128 0x49
 3475 0128 13       		.uleb128 0x13
 3476 0129 2F       		.uleb128 0x2f
 3477 012a 0B       		.uleb128 0xb
 3478 012b 00       		.byte	0
 3479 012c 00       		.byte	0
 3480 012d 1A       		.uleb128 0x1a
 3481 012e 15       		.uleb128 0x15
 3482 012f 01       		.byte	0x1
 3483 0130 27       		.uleb128 0x27
 3484 0131 19       		.uleb128 0x19
 3485 0132 49       		.uleb128 0x49
 3486 0133 13       		.uleb128 0x13
 3487 0134 01       		.uleb128 0x1
 3488 0135 13       		.uleb128 0x13
 3489 0136 00       		.byte	0
 3490 0137 00       		.byte	0
 3491 0138 1B       		.uleb128 0x1b
 3492 0139 04       		.uleb128 0x4
 3493 013a 01       		.byte	0x1
 3494 013b 0B       		.uleb128 0xb
 3495 013c 0B       		.uleb128 0xb
 3496 013d 3A       		.uleb128 0x3a
 3497 013e 0B       		.uleb128 0xb
 3498 013f 3B       		.uleb128 0x3b
 3499 0140 0B       		.uleb128 0xb
 3500 0141 01       		.uleb128 0x1
 3501 0142 13       		.uleb128 0x13
 3502 0143 00       		.byte	0
 3503 0144 00       		.byte	0
 3504 0145 1C       		.uleb128 0x1c
 3505 0146 28       		.uleb128 0x28
 3506 0147 00       		.byte	0
 3507 0148 03       		.uleb128 0x3
 3508 0149 0E       		.uleb128 0xe
 3509 014a 1C       		.uleb128 0x1c
 3510 014b 0D       		.uleb128 0xd
 3511 014c 00       		.byte	0
 3512 014d 00       		.byte	0
 3513 014e 1D       		.uleb128 0x1d
 3514 014f 2E       		.uleb128 0x2e
 3515 0150 01       		.byte	0x1
 3516 0151 03       		.uleb128 0x3
 3517 0152 0E       		.uleb128 0xe
 3518 0153 3A       		.uleb128 0x3a
 3519 0154 0B       		.uleb128 0xb
 3520 0155 3B       		.uleb128 0x3b
 3521 0156 05       		.uleb128 0x5
 3522 0157 27       		.uleb128 0x27
 3523 0158 19       		.uleb128 0x19
 3524 0159 20       		.uleb128 0x20
 3525 015a 0B       		.uleb128 0xb
 3526 015b 01       		.uleb128 0x1
 3527 015c 13       		.uleb128 0x13
ARM GAS  /tmp/cc49awR3.s 			page 63


 3528 015d 00       		.byte	0
 3529 015e 00       		.byte	0
 3530 015f 1E       		.uleb128 0x1e
 3531 0160 05       		.uleb128 0x5
 3532 0161 00       		.byte	0
 3533 0162 03       		.uleb128 0x3
 3534 0163 0E       		.uleb128 0xe
 3535 0164 3A       		.uleb128 0x3a
 3536 0165 0B       		.uleb128 0xb
 3537 0166 3B       		.uleb128 0x3b
 3538 0167 05       		.uleb128 0x5
 3539 0168 49       		.uleb128 0x49
 3540 0169 13       		.uleb128 0x13
 3541 016a 00       		.byte	0
 3542 016b 00       		.byte	0
 3543 016c 1F       		.uleb128 0x1f
 3544 016d 2E       		.uleb128 0x2e
 3545 016e 00       		.byte	0
 3546 016f 03       		.uleb128 0x3
 3547 0170 0E       		.uleb128 0xe
 3548 0171 3A       		.uleb128 0x3a
 3549 0172 0B       		.uleb128 0xb
 3550 0173 3B       		.uleb128 0x3b
 3551 0174 05       		.uleb128 0x5
 3552 0175 27       		.uleb128 0x27
 3553 0176 19       		.uleb128 0x19
 3554 0177 20       		.uleb128 0x20
 3555 0178 0B       		.uleb128 0xb
 3556 0179 00       		.byte	0
 3557 017a 00       		.byte	0
 3558 017b 20       		.uleb128 0x20
 3559 017c 2E       		.uleb128 0x2e
 3560 017d 01       		.byte	0x1
 3561 017e 03       		.uleb128 0x3
 3562 017f 0E       		.uleb128 0xe
 3563 0180 3A       		.uleb128 0x3a
 3564 0181 0B       		.uleb128 0xb
 3565 0182 3B       		.uleb128 0x3b
 3566 0183 0B       		.uleb128 0xb
 3567 0184 27       		.uleb128 0x27
 3568 0185 19       		.uleb128 0x19
 3569 0186 20       		.uleb128 0x20
 3570 0187 0B       		.uleb128 0xb
 3571 0188 01       		.uleb128 0x1
 3572 0189 13       		.uleb128 0x13
 3573 018a 00       		.byte	0
 3574 018b 00       		.byte	0
 3575 018c 21       		.uleb128 0x21
 3576 018d 05       		.uleb128 0x5
 3577 018e 00       		.byte	0
 3578 018f 03       		.uleb128 0x3
 3579 0190 08       		.uleb128 0x8
 3580 0191 3A       		.uleb128 0x3a
 3581 0192 0B       		.uleb128 0xb
 3582 0193 3B       		.uleb128 0x3b
 3583 0194 0B       		.uleb128 0xb
 3584 0195 49       		.uleb128 0x49
ARM GAS  /tmp/cc49awR3.s 			page 64


 3585 0196 13       		.uleb128 0x13
 3586 0197 00       		.byte	0
 3587 0198 00       		.byte	0
 3588 0199 22       		.uleb128 0x22
 3589 019a 05       		.uleb128 0x5
 3590 019b 00       		.byte	0
 3591 019c 03       		.uleb128 0x3
 3592 019d 0E       		.uleb128 0xe
 3593 019e 3A       		.uleb128 0x3a
 3594 019f 0B       		.uleb128 0xb
 3595 01a0 3B       		.uleb128 0x3b
 3596 01a1 0B       		.uleb128 0xb
 3597 01a2 49       		.uleb128 0x49
 3598 01a3 13       		.uleb128 0x13
 3599 01a4 00       		.byte	0
 3600 01a5 00       		.byte	0
 3601 01a6 23       		.uleb128 0x23
 3602 01a7 34       		.uleb128 0x34
 3603 01a8 00       		.byte	0
 3604 01a9 03       		.uleb128 0x3
 3605 01aa 08       		.uleb128 0x8
 3606 01ab 3A       		.uleb128 0x3a
 3607 01ac 0B       		.uleb128 0xb
 3608 01ad 3B       		.uleb128 0x3b
 3609 01ae 0B       		.uleb128 0xb
 3610 01af 49       		.uleb128 0x49
 3611 01b0 13       		.uleb128 0x13
 3612 01b1 00       		.byte	0
 3613 01b2 00       		.byte	0
 3614 01b3 24       		.uleb128 0x24
 3615 01b4 05       		.uleb128 0x5
 3616 01b5 00       		.byte	0
 3617 01b6 03       		.uleb128 0x3
 3618 01b7 08       		.uleb128 0x8
 3619 01b8 3A       		.uleb128 0x3a
 3620 01b9 0B       		.uleb128 0xb
 3621 01ba 3B       		.uleb128 0x3b
 3622 01bb 05       		.uleb128 0x5
 3623 01bc 49       		.uleb128 0x49
 3624 01bd 13       		.uleb128 0x13
 3625 01be 00       		.byte	0
 3626 01bf 00       		.byte	0
 3627 01c0 25       		.uleb128 0x25
 3628 01c1 2E       		.uleb128 0x2e
 3629 01c2 01       		.byte	0x1
 3630 01c3 03       		.uleb128 0x3
 3631 01c4 0E       		.uleb128 0xe
 3632 01c5 3A       		.uleb128 0x3a
 3633 01c6 0B       		.uleb128 0xb
 3634 01c7 3B       		.uleb128 0x3b
 3635 01c8 05       		.uleb128 0x5
 3636 01c9 27       		.uleb128 0x27
 3637 01ca 19       		.uleb128 0x19
 3638 01cb 49       		.uleb128 0x49
 3639 01cc 13       		.uleb128 0x13
 3640 01cd 20       		.uleb128 0x20
 3641 01ce 0B       		.uleb128 0xb
ARM GAS  /tmp/cc49awR3.s 			page 65


 3642 01cf 01       		.uleb128 0x1
 3643 01d0 13       		.uleb128 0x13
 3644 01d1 00       		.byte	0
 3645 01d2 00       		.byte	0
 3646 01d3 26       		.uleb128 0x26
 3647 01d4 0B       		.uleb128 0xb
 3648 01d5 01       		.byte	0x1
 3649 01d6 00       		.byte	0
 3650 01d7 00       		.byte	0
 3651 01d8 27       		.uleb128 0x27
 3652 01d9 2E       		.uleb128 0x2e
 3653 01da 01       		.byte	0x1
 3654 01db 03       		.uleb128 0x3
 3655 01dc 0E       		.uleb128 0xe
 3656 01dd 3A       		.uleb128 0x3a
 3657 01de 0B       		.uleb128 0xb
 3658 01df 3B       		.uleb128 0x3b
 3659 01e0 0B       		.uleb128 0xb
 3660 01e1 27       		.uleb128 0x27
 3661 01e2 19       		.uleb128 0x19
 3662 01e3 11       		.uleb128 0x11
 3663 01e4 01       		.uleb128 0x1
 3664 01e5 12       		.uleb128 0x12
 3665 01e6 06       		.uleb128 0x6
 3666 01e7 40       		.uleb128 0x40
 3667 01e8 18       		.uleb128 0x18
 3668 01e9 9742     		.uleb128 0x2117
 3669 01eb 19       		.uleb128 0x19
 3670 01ec 01       		.uleb128 0x1
 3671 01ed 13       		.uleb128 0x13
 3672 01ee 00       		.byte	0
 3673 01ef 00       		.byte	0
 3674 01f0 28       		.uleb128 0x28
 3675 01f1 05       		.uleb128 0x5
 3676 01f2 00       		.byte	0
 3677 01f3 03       		.uleb128 0x3
 3678 01f4 08       		.uleb128 0x8
 3679 01f5 3A       		.uleb128 0x3a
 3680 01f6 0B       		.uleb128 0xb
 3681 01f7 3B       		.uleb128 0x3b
 3682 01f8 0B       		.uleb128 0xb
 3683 01f9 49       		.uleb128 0x49
 3684 01fa 13       		.uleb128 0x13
 3685 01fb 02       		.uleb128 0x2
 3686 01fc 18       		.uleb128 0x18
 3687 01fd 00       		.byte	0
 3688 01fe 00       		.byte	0
 3689 01ff 29       		.uleb128 0x29
 3690 0200 2E       		.uleb128 0x2e
 3691 0201 01       		.byte	0x1
 3692 0202 3F       		.uleb128 0x3f
 3693 0203 19       		.uleb128 0x19
 3694 0204 03       		.uleb128 0x3
 3695 0205 0E       		.uleb128 0xe
 3696 0206 3A       		.uleb128 0x3a
 3697 0207 0B       		.uleb128 0xb
 3698 0208 3B       		.uleb128 0x3b
ARM GAS  /tmp/cc49awR3.s 			page 66


 3699 0209 05       		.uleb128 0x5
 3700 020a 27       		.uleb128 0x27
 3701 020b 19       		.uleb128 0x19
 3702 020c 11       		.uleb128 0x11
 3703 020d 01       		.uleb128 0x1
 3704 020e 12       		.uleb128 0x12
 3705 020f 06       		.uleb128 0x6
 3706 0210 40       		.uleb128 0x40
 3707 0211 18       		.uleb128 0x18
 3708 0212 9742     		.uleb128 0x2117
 3709 0214 19       		.uleb128 0x19
 3710 0215 01       		.uleb128 0x1
 3711 0216 13       		.uleb128 0x13
 3712 0217 00       		.byte	0
 3713 0218 00       		.byte	0
 3714 0219 2A       		.uleb128 0x2a
 3715 021a 1D       		.uleb128 0x1d
 3716 021b 01       		.byte	0x1
 3717 021c 31       		.uleb128 0x31
 3718 021d 13       		.uleb128 0x13
 3719 021e 52       		.uleb128 0x52
 3720 021f 01       		.uleb128 0x1
 3721 0220 55       		.uleb128 0x55
 3722 0221 17       		.uleb128 0x17
 3723 0222 58       		.uleb128 0x58
 3724 0223 0B       		.uleb128 0xb
 3725 0224 59       		.uleb128 0x59
 3726 0225 05       		.uleb128 0x5
 3727 0226 01       		.uleb128 0x1
 3728 0227 13       		.uleb128 0x13
 3729 0228 00       		.byte	0
 3730 0229 00       		.byte	0
 3731 022a 2B       		.uleb128 0x2b
 3732 022b 05       		.uleb128 0x5
 3733 022c 00       		.byte	0
 3734 022d 31       		.uleb128 0x31
 3735 022e 13       		.uleb128 0x13
 3736 022f 02       		.uleb128 0x2
 3737 0230 18       		.uleb128 0x18
 3738 0231 00       		.byte	0
 3739 0232 00       		.byte	0
 3740 0233 2C       		.uleb128 0x2c
 3741 0234 0B       		.uleb128 0xb
 3742 0235 01       		.byte	0x1
 3743 0236 55       		.uleb128 0x55
 3744 0237 17       		.uleb128 0x17
 3745 0238 00       		.byte	0
 3746 0239 00       		.byte	0
 3747 023a 2D       		.uleb128 0x2d
 3748 023b 34       		.uleb128 0x34
 3749 023c 00       		.byte	0
 3750 023d 31       		.uleb128 0x31
 3751 023e 13       		.uleb128 0x13
 3752 023f 02       		.uleb128 0x2
 3753 0240 17       		.uleb128 0x17
 3754 0241 00       		.byte	0
 3755 0242 00       		.byte	0
ARM GAS  /tmp/cc49awR3.s 			page 67


 3756 0243 2E       		.uleb128 0x2e
 3757 0244 1D       		.uleb128 0x1d
 3758 0245 01       		.byte	0x1
 3759 0246 31       		.uleb128 0x31
 3760 0247 13       		.uleb128 0x13
 3761 0248 11       		.uleb128 0x11
 3762 0249 01       		.uleb128 0x1
 3763 024a 12       		.uleb128 0x12
 3764 024b 06       		.uleb128 0x6
 3765 024c 58       		.uleb128 0x58
 3766 024d 0B       		.uleb128 0xb
 3767 024e 59       		.uleb128 0x59
 3768 024f 0B       		.uleb128 0xb
 3769 0250 01       		.uleb128 0x1
 3770 0251 13       		.uleb128 0x13
 3771 0252 00       		.byte	0
 3772 0253 00       		.byte	0
 3773 0254 2F       		.uleb128 0x2f
 3774 0255 1D       		.uleb128 0x1d
 3775 0256 01       		.byte	0x1
 3776 0257 31       		.uleb128 0x31
 3777 0258 13       		.uleb128 0x13
 3778 0259 11       		.uleb128 0x11
 3779 025a 01       		.uleb128 0x1
 3780 025b 12       		.uleb128 0x12
 3781 025c 06       		.uleb128 0x6
 3782 025d 58       		.uleb128 0x58
 3783 025e 0B       		.uleb128 0xb
 3784 025f 59       		.uleb128 0x59
 3785 0260 05       		.uleb128 0x5
 3786 0261 00       		.byte	0
 3787 0262 00       		.byte	0
 3788 0263 30       		.uleb128 0x30
 3789 0264 05       		.uleb128 0x5
 3790 0265 00       		.byte	0
 3791 0266 31       		.uleb128 0x31
 3792 0267 13       		.uleb128 0x13
 3793 0268 02       		.uleb128 0x2
 3794 0269 17       		.uleb128 0x17
 3795 026a 00       		.byte	0
 3796 026b 00       		.byte	0
 3797 026c 31       		.uleb128 0x31
 3798 026d 1D       		.uleb128 0x1d
 3799 026e 01       		.byte	0x1
 3800 026f 31       		.uleb128 0x31
 3801 0270 13       		.uleb128 0x13
 3802 0271 52       		.uleb128 0x52
 3803 0272 01       		.uleb128 0x1
 3804 0273 55       		.uleb128 0x55
 3805 0274 17       		.uleb128 0x17
 3806 0275 58       		.uleb128 0x58
 3807 0276 0B       		.uleb128 0xb
 3808 0277 59       		.uleb128 0x59
 3809 0278 0B       		.uleb128 0xb
 3810 0279 01       		.uleb128 0x1
 3811 027a 13       		.uleb128 0x13
 3812 027b 00       		.byte	0
ARM GAS  /tmp/cc49awR3.s 			page 68


 3813 027c 00       		.byte	0
 3814 027d 32       		.uleb128 0x32
 3815 027e 898201   		.uleb128 0x4109
 3816 0281 01       		.byte	0x1
 3817 0282 11       		.uleb128 0x11
 3818 0283 01       		.uleb128 0x1
 3819 0284 31       		.uleb128 0x31
 3820 0285 13       		.uleb128 0x13
 3821 0286 00       		.byte	0
 3822 0287 00       		.byte	0
 3823 0288 33       		.uleb128 0x33
 3824 0289 8A8201   		.uleb128 0x410a
 3825 028c 00       		.byte	0
 3826 028d 02       		.uleb128 0x2
 3827 028e 18       		.uleb128 0x18
 3828 028f 9142     		.uleb128 0x2111
 3829 0291 18       		.uleb128 0x18
 3830 0292 00       		.byte	0
 3831 0293 00       		.byte	0
 3832 0294 34       		.uleb128 0x34
 3833 0295 0B       		.uleb128 0xb
 3834 0296 01       		.byte	0x1
 3835 0297 11       		.uleb128 0x11
 3836 0298 01       		.uleb128 0x1
 3837 0299 12       		.uleb128 0x12
 3838 029a 06       		.uleb128 0x6
 3839 029b 00       		.byte	0
 3840 029c 00       		.byte	0
 3841 029d 35       		.uleb128 0x35
 3842 029e 1D       		.uleb128 0x1d
 3843 029f 01       		.byte	0x1
 3844 02a0 31       		.uleb128 0x31
 3845 02a1 13       		.uleb128 0x13
 3846 02a2 11       		.uleb128 0x11
 3847 02a3 01       		.uleb128 0x1
 3848 02a4 12       		.uleb128 0x12
 3849 02a5 06       		.uleb128 0x6
 3850 02a6 58       		.uleb128 0x58
 3851 02a7 0B       		.uleb128 0xb
 3852 02a8 59       		.uleb128 0x59
 3853 02a9 0B       		.uleb128 0xb
 3854 02aa 00       		.byte	0
 3855 02ab 00       		.byte	0
 3856 02ac 36       		.uleb128 0x36
 3857 02ad 0B       		.uleb128 0xb
 3858 02ae 01       		.byte	0x1
 3859 02af 55       		.uleb128 0x55
 3860 02b0 17       		.uleb128 0x17
 3861 02b1 01       		.uleb128 0x1
 3862 02b2 13       		.uleb128 0x13
 3863 02b3 00       		.byte	0
 3864 02b4 00       		.byte	0
 3865 02b5 37       		.uleb128 0x37
 3866 02b6 05       		.uleb128 0x5
 3867 02b7 00       		.byte	0
 3868 02b8 31       		.uleb128 0x31
 3869 02b9 13       		.uleb128 0x13
ARM GAS  /tmp/cc49awR3.s 			page 69


 3870 02ba 1C       		.uleb128 0x1c
 3871 02bb 0B       		.uleb128 0xb
 3872 02bc 00       		.byte	0
 3873 02bd 00       		.byte	0
 3874 02be 38       		.uleb128 0x38
 3875 02bf 898201   		.uleb128 0x4109
 3876 02c2 00       		.byte	0
 3877 02c3 11       		.uleb128 0x11
 3878 02c4 01       		.uleb128 0x1
 3879 02c5 9542     		.uleb128 0x2115
 3880 02c7 19       		.uleb128 0x19
 3881 02c8 31       		.uleb128 0x31
 3882 02c9 13       		.uleb128 0x13
 3883 02ca 00       		.byte	0
 3884 02cb 00       		.byte	0
 3885 02cc 39       		.uleb128 0x39
 3886 02cd 05       		.uleb128 0x5
 3887 02ce 00       		.byte	0
 3888 02cf 03       		.uleb128 0x3
 3889 02d0 08       		.uleb128 0x8
 3890 02d1 3A       		.uleb128 0x3a
 3891 02d2 0B       		.uleb128 0xb
 3892 02d3 3B       		.uleb128 0x3b
 3893 02d4 05       		.uleb128 0x5
 3894 02d5 49       		.uleb128 0x49
 3895 02d6 13       		.uleb128 0x13
 3896 02d7 02       		.uleb128 0x2
 3897 02d8 17       		.uleb128 0x17
 3898 02d9 00       		.byte	0
 3899 02da 00       		.byte	0
 3900 02db 3A       		.uleb128 0x3a
 3901 02dc 05       		.uleb128 0x5
 3902 02dd 00       		.byte	0
 3903 02de 03       		.uleb128 0x3
 3904 02df 0E       		.uleb128 0xe
 3905 02e0 3A       		.uleb128 0x3a
 3906 02e1 0B       		.uleb128 0xb
 3907 02e2 3B       		.uleb128 0x3b
 3908 02e3 05       		.uleb128 0x5
 3909 02e4 49       		.uleb128 0x49
 3910 02e5 13       		.uleb128 0x13
 3911 02e6 02       		.uleb128 0x2
 3912 02e7 17       		.uleb128 0x17
 3913 02e8 00       		.byte	0
 3914 02e9 00       		.byte	0
 3915 02ea 3B       		.uleb128 0x3b
 3916 02eb 1D       		.uleb128 0x1d
 3917 02ec 01       		.byte	0x1
 3918 02ed 31       		.uleb128 0x31
 3919 02ee 13       		.uleb128 0x13
 3920 02ef 11       		.uleb128 0x11
 3921 02f0 01       		.uleb128 0x1
 3922 02f1 12       		.uleb128 0x12
 3923 02f2 06       		.uleb128 0x6
 3924 02f3 58       		.uleb128 0x58
 3925 02f4 0B       		.uleb128 0xb
 3926 02f5 59       		.uleb128 0x59
ARM GAS  /tmp/cc49awR3.s 			page 70


 3927 02f6 05       		.uleb128 0x5
 3928 02f7 01       		.uleb128 0x1
 3929 02f8 13       		.uleb128 0x13
 3930 02f9 00       		.byte	0
 3931 02fa 00       		.byte	0
 3932 02fb 3C       		.uleb128 0x3c
 3933 02fc 898201   		.uleb128 0x4109
 3934 02ff 01       		.byte	0x1
 3935 0300 11       		.uleb128 0x11
 3936 0301 01       		.uleb128 0x1
 3937 0302 9542     		.uleb128 0x2115
 3938 0304 19       		.uleb128 0x19
 3939 0305 31       		.uleb128 0x31
 3940 0306 13       		.uleb128 0x13
 3941 0307 00       		.byte	0
 3942 0308 00       		.byte	0
 3943 0309 3D       		.uleb128 0x3d
 3944 030a 34       		.uleb128 0x34
 3945 030b 00       		.byte	0
 3946 030c 03       		.uleb128 0x3
 3947 030d 0E       		.uleb128 0xe
 3948 030e 3A       		.uleb128 0x3a
 3949 030f 0B       		.uleb128 0xb
 3950 0310 3B       		.uleb128 0x3b
 3951 0311 0B       		.uleb128 0xb
 3952 0312 49       		.uleb128 0x49
 3953 0313 13       		.uleb128 0x13
 3954 0314 02       		.uleb128 0x2
 3955 0315 18       		.uleb128 0x18
 3956 0316 00       		.byte	0
 3957 0317 00       		.byte	0
 3958 0318 3E       		.uleb128 0x3e
 3959 0319 34       		.uleb128 0x34
 3960 031a 00       		.byte	0
 3961 031b 03       		.uleb128 0x3
 3962 031c 0E       		.uleb128 0xe
 3963 031d 3A       		.uleb128 0x3a
 3964 031e 0B       		.uleb128 0xb
 3965 031f 3B       		.uleb128 0x3b
 3966 0320 05       		.uleb128 0x5
 3967 0321 49       		.uleb128 0x49
 3968 0322 13       		.uleb128 0x13
 3969 0323 3F       		.uleb128 0x3f
 3970 0324 19       		.uleb128 0x19
 3971 0325 3C       		.uleb128 0x3c
 3972 0326 19       		.uleb128 0x19
 3973 0327 00       		.byte	0
 3974 0328 00       		.byte	0
 3975 0329 3F       		.uleb128 0x3f
 3976 032a 34       		.uleb128 0x34
 3977 032b 00       		.byte	0
 3978 032c 03       		.uleb128 0x3
 3979 032d 08       		.uleb128 0x8
 3980 032e 3A       		.uleb128 0x3a
 3981 032f 0B       		.uleb128 0xb
 3982 0330 3B       		.uleb128 0x3b
 3983 0331 05       		.uleb128 0x5
ARM GAS  /tmp/cc49awR3.s 			page 71


 3984 0332 49       		.uleb128 0x49
 3985 0333 13       		.uleb128 0x13
 3986 0334 3F       		.uleb128 0x3f
 3987 0335 19       		.uleb128 0x19
 3988 0336 3C       		.uleb128 0x3c
 3989 0337 19       		.uleb128 0x19
 3990 0338 00       		.byte	0
 3991 0339 00       		.byte	0
 3992 033a 40       		.uleb128 0x40
 3993 033b 34       		.uleb128 0x34
 3994 033c 00       		.byte	0
 3995 033d 03       		.uleb128 0x3
 3996 033e 08       		.uleb128 0x8
 3997 033f 3A       		.uleb128 0x3a
 3998 0340 0B       		.uleb128 0xb
 3999 0341 3B       		.uleb128 0x3b
 4000 0342 0B       		.uleb128 0xb
 4001 0343 49       		.uleb128 0x49
 4002 0344 13       		.uleb128 0x13
 4003 0345 3F       		.uleb128 0x3f
 4004 0346 19       		.uleb128 0x19
 4005 0347 02       		.uleb128 0x2
 4006 0348 18       		.uleb128 0x18
 4007 0349 00       		.byte	0
 4008 034a 00       		.byte	0
 4009 034b 41       		.uleb128 0x41
 4010 034c 2E       		.uleb128 0x2e
 4011 034d 01       		.byte	0x1
 4012 034e 3F       		.uleb128 0x3f
 4013 034f 19       		.uleb128 0x19
 4014 0350 03       		.uleb128 0x3
 4015 0351 0E       		.uleb128 0xe
 4016 0352 3A       		.uleb128 0x3a
 4017 0353 0B       		.uleb128 0xb
 4018 0354 3B       		.uleb128 0x3b
 4019 0355 0B       		.uleb128 0xb
 4020 0356 27       		.uleb128 0x27
 4021 0357 19       		.uleb128 0x19
 4022 0358 3C       		.uleb128 0x3c
 4023 0359 19       		.uleb128 0x19
 4024 035a 01       		.uleb128 0x1
 4025 035b 13       		.uleb128 0x13
 4026 035c 00       		.byte	0
 4027 035d 00       		.byte	0
 4028 035e 42       		.uleb128 0x42
 4029 035f 2E       		.uleb128 0x2e
 4030 0360 01       		.byte	0x1
 4031 0361 3F       		.uleb128 0x3f
 4032 0362 19       		.uleb128 0x19
 4033 0363 03       		.uleb128 0x3
 4034 0364 0E       		.uleb128 0xe
 4035 0365 3A       		.uleb128 0x3a
 4036 0366 0B       		.uleb128 0xb
 4037 0367 3B       		.uleb128 0x3b
 4038 0368 0B       		.uleb128 0xb
 4039 0369 27       		.uleb128 0x27
 4040 036a 19       		.uleb128 0x19
ARM GAS  /tmp/cc49awR3.s 			page 72


 4041 036b 49       		.uleb128 0x49
 4042 036c 13       		.uleb128 0x13
 4043 036d 3C       		.uleb128 0x3c
 4044 036e 19       		.uleb128 0x19
 4045 036f 01       		.uleb128 0x1
 4046 0370 13       		.uleb128 0x13
 4047 0371 00       		.byte	0
 4048 0372 00       		.byte	0
 4049 0373 43       		.uleb128 0x43
 4050 0374 2E       		.uleb128 0x2e
 4051 0375 01       		.byte	0x1
 4052 0376 3F       		.uleb128 0x3f
 4053 0377 19       		.uleb128 0x19
 4054 0378 03       		.uleb128 0x3
 4055 0379 0E       		.uleb128 0xe
 4056 037a 3A       		.uleb128 0x3a
 4057 037b 0B       		.uleb128 0xb
 4058 037c 3B       		.uleb128 0x3b
 4059 037d 05       		.uleb128 0x5
 4060 037e 27       		.uleb128 0x27
 4061 037f 19       		.uleb128 0x19
 4062 0380 3C       		.uleb128 0x3c
 4063 0381 19       		.uleb128 0x19
 4064 0382 01       		.uleb128 0x1
 4065 0383 13       		.uleb128 0x13
 4066 0384 00       		.byte	0
 4067 0385 00       		.byte	0
 4068 0386 44       		.uleb128 0x44
 4069 0387 2E       		.uleb128 0x2e
 4070 0388 00       		.byte	0
 4071 0389 3F       		.uleb128 0x3f
 4072 038a 19       		.uleb128 0x19
 4073 038b 03       		.uleb128 0x3
 4074 038c 0E       		.uleb128 0xe
 4075 038d 3A       		.uleb128 0x3a
 4076 038e 0B       		.uleb128 0xb
 4077 038f 3B       		.uleb128 0x3b
 4078 0390 05       		.uleb128 0x5
 4079 0391 27       		.uleb128 0x27
 4080 0392 19       		.uleb128 0x19
 4081 0393 3C       		.uleb128 0x3c
 4082 0394 19       		.uleb128 0x19
 4083 0395 00       		.byte	0
 4084 0396 00       		.byte	0
 4085 0397 45       		.uleb128 0x45
 4086 0398 2E       		.uleb128 0x2e
 4087 0399 01       		.byte	0x1
 4088 039a 3F       		.uleb128 0x3f
 4089 039b 19       		.uleb128 0x19
 4090 039c 03       		.uleb128 0x3
 4091 039d 0E       		.uleb128 0xe
 4092 039e 3A       		.uleb128 0x3a
 4093 039f 0B       		.uleb128 0xb
 4094 03a0 3B       		.uleb128 0x3b
 4095 03a1 0B       		.uleb128 0xb
 4096 03a2 27       		.uleb128 0x27
 4097 03a3 19       		.uleb128 0x19
ARM GAS  /tmp/cc49awR3.s 			page 73


 4098 03a4 3C       		.uleb128 0x3c
 4099 03a5 19       		.uleb128 0x19
 4100 03a6 00       		.byte	0
 4101 03a7 00       		.byte	0
 4102 03a8 00       		.byte	0
 4103              		.section	.debug_loc,"",%progbits
 4104              	.Ldebug_loc0:
 4105              	.LLST0:
 4106 0000 06000000 		.4byte	.LVL2
 4107 0004 44000000 		.4byte	.LVL10
 4108 0008 0100     		.2byte	0x1
 4109 000a 55       		.byte	0x55
 4110 000b 48000000 		.4byte	.LVL11
 4111 000f FC000000 		.4byte	.LFE260
 4112 0013 0100     		.2byte	0x1
 4113 0015 55       		.byte	0x55
 4114 0016 00000000 		.4byte	0
 4115 001a 00000000 		.4byte	0
 4116              	.LLST1:
 4117 001e 08000000 		.4byte	.LVL3
 4118 0022 38000000 		.4byte	.LVL7
 4119 0026 0100     		.2byte	0x1
 4120 0028 56       		.byte	0x56
 4121 0029 48000000 		.4byte	.LVL11
 4122 002d FC000000 		.4byte	.LFE260
 4123 0031 0100     		.2byte	0x1
 4124 0033 56       		.byte	0x56
 4125 0034 00000000 		.4byte	0
 4126 0038 00000000 		.4byte	0
 4127              	.LLST2:
 4128 003c 0A000000 		.4byte	.LVL4
 4129 0040 44000000 		.4byte	.LVL10
 4130 0044 0100     		.2byte	0x1
 4131 0046 54       		.byte	0x54
 4132 0047 48000000 		.4byte	.LVL11
 4133 004b FC000000 		.4byte	.LFE260
 4134 004f 0100     		.2byte	0x1
 4135 0051 54       		.byte	0x54
 4136 0052 00000000 		.4byte	0
 4137 0056 00000000 		.4byte	0
 4138              	.LLST3:
 4139 005a 24000000 		.4byte	.LVL5
 4140 005e 40000000 		.4byte	.LVL9
 4141 0062 0300     		.2byte	0x3
 4142 0064 08       		.byte	0x8
 4143 0065 20       		.byte	0x20
 4144 0066 9F       		.byte	0x9f
 4145 0067 CA000000 		.4byte	.LVL27
 4146 006b DA000000 		.4byte	.LVL30
 4147 006f 0300     		.2byte	0x3
 4148 0071 08       		.byte	0x8
 4149 0072 20       		.byte	0x20
 4150 0073 9F       		.byte	0x9f
 4151 0074 00000000 		.4byte	0
 4152 0078 00000000 		.4byte	0
 4153              	.LLST4:
 4154 007c 2A000000 		.4byte	.LVL6
ARM GAS  /tmp/cc49awR3.s 			page 74


 4155 0080 40000000 		.4byte	.LVL9
 4156 0084 0600     		.2byte	0x6
 4157 0086 03       		.byte	0x3
 4158 0087 30000000 		.4byte	SD1+48
 4159 008b 9F       		.byte	0x9f
 4160 008c CA000000 		.4byte	.LVL27
 4161 0090 DA000000 		.4byte	.LVL30
 4162 0094 0600     		.2byte	0x6
 4163 0096 03       		.byte	0x3
 4164 0097 30000000 		.4byte	SD1+48
 4165 009b 9F       		.byte	0x9f
 4166 009c 00000000 		.4byte	0
 4167 00a0 00000000 		.4byte	0
 4168              	.LLST5:
 4169 00a4 3A000000 		.4byte	.LVL8
 4170 00a8 40000000 		.4byte	.LVL9
 4171 00ac 0200     		.2byte	0x2
 4172 00ae 30       		.byte	0x30
 4173 00af 9F       		.byte	0x9f
 4174 00b0 00000000 		.4byte	0
 4175 00b4 00000000 		.4byte	0
 4176              	.LLST6:
 4177 00b8 48000000 		.4byte	.LVL11
 4178 00bc 60000000 		.4byte	.LVL13
 4179 00c0 0300     		.2byte	0x3
 4180 00c2 08       		.byte	0x8
 4181 00c3 20       		.byte	0x20
 4182 00c4 9F       		.byte	0x9f
 4183 00c5 00000000 		.4byte	0
 4184 00c9 00000000 		.4byte	0
 4185              	.LLST7:
 4186 00cd 58000000 		.4byte	.LVL12
 4187 00d1 60000000 		.4byte	.LVL13
 4188 00d5 0200     		.2byte	0x2
 4189 00d7 30       		.byte	0x30
 4190 00d8 9F       		.byte	0x9f
 4191 00d9 00000000 		.4byte	0
 4192 00dd 00000000 		.4byte	0
 4193              	.LLST8:
 4194 00e1 60000000 		.4byte	.LVL13
 4195 00e5 78000000 		.4byte	.LVL16
 4196 00e9 0300     		.2byte	0x3
 4197 00eb 08       		.byte	0x8
 4198 00ec 20       		.byte	0x20
 4199 00ed 9F       		.byte	0x9f
 4200 00ee 00000000 		.4byte	0
 4201 00f2 00000000 		.4byte	0
 4202              	.LLST9:
 4203 00f6 66000000 		.4byte	.LVL14
 4204 00fa 78000000 		.4byte	.LVL16
 4205 00fe 0400     		.2byte	0x4
 4206 0100 0A       		.byte	0xa
 4207 0101 0002     		.2byte	0x200
 4208 0103 9F       		.byte	0x9f
 4209 0104 00000000 		.4byte	0
 4210 0108 00000000 		.4byte	0
 4211              	.LLST10:
ARM GAS  /tmp/cc49awR3.s 			page 75


 4212 010c 66000000 		.4byte	.LVL14
 4213 0110 78000000 		.4byte	.LVL16
 4214 0114 0600     		.2byte	0x6
 4215 0116 03       		.byte	0x3
 4216 0117 04000000 		.4byte	SD1+4
 4217 011b 9F       		.byte	0x9f
 4218 011c 00000000 		.4byte	0
 4219 0120 00000000 		.4byte	0
 4220              	.LLST11:
 4221 0124 70000000 		.4byte	.LVL15
 4222 0128 78000000 		.4byte	.LVL16
 4223 012c 0200     		.2byte	0x2
 4224 012e 30       		.byte	0x30
 4225 012f 9F       		.byte	0x9f
 4226 0130 00000000 		.4byte	0
 4227 0134 00000000 		.4byte	0
 4228              	.LLST12:
 4229 0138 78000000 		.4byte	.LVL16
 4230 013c AE000000 		.4byte	.LVL23
 4231 0140 0600     		.2byte	0x6
 4232 0142 03       		.byte	0x3
 4233 0143 00000000 		.4byte	SD1
 4234 0147 9F       		.byte	0x9f
 4235 0148 00000000 		.4byte	0
 4236 014c 00000000 		.4byte	0
 4237              	.LLST13:
 4238 0150 78000000 		.4byte	.LVL16
 4239 0154 AE000000 		.4byte	.LVL23
 4240 0158 0100     		.2byte	0x1
 4241 015a 54       		.byte	0x54
 4242 015b 00000000 		.4byte	0
 4243 015f 00000000 		.4byte	0
 4244              	.LLST14:
 4245 0163 78000000 		.4byte	.LVL16
 4246 0167 82000000 		.4byte	.LVL17
 4247 016b 0200     		.2byte	0x2
 4248 016d 30       		.byte	0x30
 4249 016e 9F       		.byte	0x9f
 4250 016f 82000000 		.4byte	.LVL17
 4251 0173 A5000000 		.4byte	.LVL22-1
 4252 0177 0100     		.2byte	0x1
 4253 0179 51       		.byte	0x51
 4254 017a 00000000 		.4byte	0
 4255 017e 00000000 		.4byte	0
 4256              	.LLST15:
 4257 0182 9A000000 		.4byte	.LVL20
 4258 0186 AE000000 		.4byte	.LVL23
 4259 018a 0300     		.2byte	0x3
 4260 018c 08       		.byte	0x8
 4261 018d 20       		.byte	0x20
 4262 018e 9F       		.byte	0x9f
 4263 018f 00000000 		.4byte	0
 4264 0193 00000000 		.4byte	0
 4265              	.LLST16:
 4266 0197 A0000000 		.4byte	.LVL21
 4267 019b A5000000 		.4byte	.LVL22-1
 4268 019f 0100     		.2byte	0x1
ARM GAS  /tmp/cc49awR3.s 			page 76


 4269 01a1 51       		.byte	0x51
 4270 01a2 00000000 		.4byte	0
 4271 01a6 00000000 		.4byte	0
 4272              	.LLST17:
 4273 01aa A0000000 		.4byte	.LVL21
 4274 01ae AE000000 		.4byte	.LVL23
 4275 01b2 0600     		.2byte	0x6
 4276 01b4 03       		.byte	0x3
 4277 01b5 04000000 		.4byte	SD1+4
 4278 01b9 9F       		.byte	0x9f
 4279 01ba 00000000 		.4byte	0
 4280 01be 00000000 		.4byte	0
 4281              	.LLST18:
 4282 01c2 A6000000 		.4byte	.LVL22
 4283 01c6 AE000000 		.4byte	.LVL23
 4284 01ca 0200     		.2byte	0x2
 4285 01cc 30       		.byte	0x30
 4286 01cd 9F       		.byte	0x9f
 4287 01ce 00000000 		.4byte	0
 4288 01d2 00000000 		.4byte	0
 4289              	.LLST19:
 4290 01d6 BA000000 		.4byte	.LVL24
 4291 01da C0000000 		.4byte	.LVL25
 4292 01de 0100     		.2byte	0x1
 4293 01e0 50       		.byte	0x50
 4294 01e1 DA000000 		.4byte	.LVL30
 4295 01e5 DC000000 		.4byte	.LVL31
 4296 01e9 0100     		.2byte	0x1
 4297 01eb 50       		.byte	0x50
 4298 01ec 00000000 		.4byte	0
 4299 01f0 00000000 		.4byte	0
 4300              	.LLST20:
 4301 01f4 AE000000 		.4byte	.LVL23
 4302 01f8 CA000000 		.4byte	.LVL27
 4303 01fc 0300     		.2byte	0x3
 4304 01fe 08       		.byte	0x8
 4305 01ff 20       		.byte	0x20
 4306 0200 9F       		.byte	0x9f
 4307 0201 DA000000 		.4byte	.LVL30
 4308 0205 FC000000 		.4byte	.LFE260
 4309 0209 0300     		.2byte	0x3
 4310 020b 08       		.byte	0x8
 4311 020c 20       		.byte	0x20
 4312 020d 9F       		.byte	0x9f
 4313 020e 00000000 		.4byte	0
 4314 0212 00000000 		.4byte	0
 4315              	.LLST21:
 4316 0216 C2000000 		.4byte	.LVL26
 4317 021a CA000000 		.4byte	.LVL27
 4318 021e 0200     		.2byte	0x2
 4319 0220 30       		.byte	0x30
 4320 0221 9F       		.byte	0x9f
 4321 0222 00000000 		.4byte	0
 4322 0226 00000000 		.4byte	0
 4323              	.LLST22:
 4324 022a D0000000 		.4byte	.LVL28
 4325 022e DA000000 		.4byte	.LVL30
ARM GAS  /tmp/cc49awR3.s 			page 77


 4326 0232 0200     		.2byte	0x2
 4327 0234 40       		.byte	0x40
 4328 0235 9F       		.byte	0x9f
 4329 0236 00000000 		.4byte	0
 4330 023a 00000000 		.4byte	0
 4331              	.LLST23:
 4332 023e D0000000 		.4byte	.LVL28
 4333 0242 DA000000 		.4byte	.LVL30
 4334 0246 0600     		.2byte	0x6
 4335 0248 03       		.byte	0x3
 4336 0249 04000000 		.4byte	SD1+4
 4337 024d 9F       		.byte	0x9f
 4338 024e 00000000 		.4byte	0
 4339 0252 00000000 		.4byte	0
 4340              	.LLST24:
 4341 0256 00000000 		.4byte	.LVL34
 4342 025a 12000000 		.4byte	.LVL36
 4343 025e 0100     		.2byte	0x1
 4344 0260 50       		.byte	0x50
 4345 0261 12000000 		.4byte	.LVL36
 4346 0265 44000000 		.4byte	.LVL39
 4347 0269 0100     		.2byte	0x1
 4348 026b 56       		.byte	0x56
 4349 026c 44000000 		.4byte	.LVL39
 4350 0270 56000000 		.4byte	.LVL40
 4351 0274 0100     		.2byte	0x1
 4352 0276 50       		.byte	0x50
 4353 0277 56000000 		.4byte	.LVL40
 4354 027b 6C000000 		.4byte	.LFE262
 4355 027f 0100     		.2byte	0x1
 4356 0281 56       		.byte	0x56
 4357 0282 00000000 		.4byte	0
 4358 0286 00000000 		.4byte	0
 4359              	.LLST25:
 4360 028a 00000000 		.4byte	.LVL34
 4361 028e 0C000000 		.4byte	.LVL35
 4362 0292 0100     		.2byte	0x1
 4363 0294 51       		.byte	0x51
 4364 0295 0C000000 		.4byte	.LVL35
 4365 0299 1C000000 		.4byte	.LVL38
 4366 029d 0100     		.2byte	0x1
 4367 029f 54       		.byte	0x54
 4368 02a0 1C000000 		.4byte	.LVL38
 4369 02a4 44000000 		.4byte	.LVL39
 4370 02a8 1300     		.2byte	0x13
 4371 02aa F3       		.byte	0xf3
 4372 02ab 01       		.uleb128 0x1
 4373 02ac 51       		.byte	0x51
 4374 02ad 03       		.byte	0x3
 4375 02ae 00000000 		.4byte	.LANCHOR1
 4376 02b2 F3       		.byte	0xf3
 4377 02b3 01       		.uleb128 0x1
 4378 02b4 51       		.byte	0x51
 4379 02b5 30       		.byte	0x30
 4380 02b6 2E       		.byte	0x2e
 4381 02b7 28       		.byte	0x28
 4382 02b8 0100     		.2byte	0x1
ARM GAS  /tmp/cc49awR3.s 			page 78


 4383 02ba 16       		.byte	0x16
 4384 02bb 13       		.byte	0x13
 4385 02bc 9F       		.byte	0x9f
 4386 02bd 44000000 		.4byte	.LVL39
 4387 02c1 6C000000 		.4byte	.LFE262
 4388 02c5 0100     		.2byte	0x1
 4389 02c7 54       		.byte	0x54
 4390 02c8 00000000 		.4byte	0
 4391 02cc 00000000 		.4byte	0
 4392              	.LLST26:
 4393 02d0 1A000000 		.4byte	.LVL37
 4394 02d4 44000000 		.4byte	.LVL39
 4395 02d8 0100     		.2byte	0x1
 4396 02da 56       		.byte	0x56
 4397 02db 00000000 		.4byte	0
 4398 02df 00000000 		.4byte	0
 4399              	.LLST28:
 4400 02e3 1A000000 		.4byte	.LVL37
 4401 02e7 1C000000 		.4byte	.LVL38
 4402 02eb 0100     		.2byte	0x1
 4403 02ed 54       		.byte	0x54
 4404 02ee 1C000000 		.4byte	.LVL38
 4405 02f2 44000000 		.4byte	.LVL39
 4406 02f6 1300     		.2byte	0x13
 4407 02f8 F3       		.byte	0xf3
 4408 02f9 01       		.uleb128 0x1
 4409 02fa 51       		.byte	0x51
 4410 02fb 03       		.byte	0x3
 4411 02fc 00000000 		.4byte	.LANCHOR1
 4412 0300 F3       		.byte	0xf3
 4413 0301 01       		.uleb128 0x1
 4414 0302 51       		.byte	0x51
 4415 0303 30       		.byte	0x30
 4416 0304 2E       		.byte	0x2e
 4417 0305 28       		.byte	0x28
 4418 0306 0100     		.2byte	0x1
 4419 0308 16       		.byte	0x16
 4420 0309 13       		.byte	0x13
 4421 030a 9F       		.byte	0x9f
 4422 030b 00000000 		.4byte	0
 4423 030f 00000000 		.4byte	0
 4424              	.LLST29:
 4425 0313 1A000000 		.4byte	.LVL37
 4426 0317 44000000 		.4byte	.LVL39
 4427 031b 0100     		.2byte	0x1
 4428 031d 53       		.byte	0x53
 4429 031e 00000000 		.4byte	0
 4430 0322 00000000 		.4byte	0
 4431              	.LLST30:
 4432 0326 00000000 		.4byte	.LVL42
 4433 032a 22000000 		.4byte	.LVL44
 4434 032e 0100     		.2byte	0x1
 4435 0330 50       		.byte	0x50
 4436 0331 22000000 		.4byte	.LVL44
 4437 0335 34000000 		.4byte	.LFE263
 4438 0339 0400     		.2byte	0x4
 4439 033b F3       		.byte	0xf3
ARM GAS  /tmp/cc49awR3.s 			page 79


 4440 033c 01       		.uleb128 0x1
 4441 033d 50       		.byte	0x50
 4442 033e 9F       		.byte	0x9f
 4443 033f 00000000 		.4byte	0
 4444 0343 00000000 		.4byte	0
 4445              	.LLST31:
 4446 0347 0C000000 		.4byte	.LVL43
 4447 034b 24000000 		.4byte	.LVL45
 4448 034f 0100     		.2byte	0x1
 4449 0351 53       		.byte	0x53
 4450 0352 24000000 		.4byte	.LVL45
 4451 0356 2D000000 		.4byte	.LVL46-1
 4452 035a 0500     		.2byte	0x5
 4453 035c F3       		.byte	0xf3
 4454 035d 01       		.uleb128 0x1
 4455 035e 50       		.byte	0x50
 4456 035f 23       		.byte	0x23
 4457 0360 74       		.uleb128 0x74
 4458 0361 00000000 		.4byte	0
 4459 0365 00000000 		.4byte	0
 4460              		.section	.debug_aranges,"",%progbits
 4461 0000 3C000000 		.4byte	0x3c
 4462 0004 0200     		.2byte	0x2
 4463 0006 00000000 		.4byte	.Ldebug_info0
 4464 000a 04       		.byte	0x4
 4465 000b 00       		.byte	0
 4466 000c 0000     		.2byte	0
 4467 000e 0000     		.2byte	0
 4468 0010 00000000 		.4byte	.LFB259
 4469 0014 10000000 		.4byte	.LFE259-.LFB259
 4470 0018 00000000 		.4byte	.LFB260
 4471 001c FC000000 		.4byte	.LFE260-.LFB260
 4472 0020 00000000 		.4byte	.LFB261
 4473 0024 28000000 		.4byte	.LFE261-.LFB261
 4474 0028 00000000 		.4byte	.LFB262
 4475 002c 6C000000 		.4byte	.LFE262-.LFB262
 4476 0030 00000000 		.4byte	.LFB263
 4477 0034 34000000 		.4byte	.LFE263-.LFB263
 4478 0038 00000000 		.4byte	0
 4479 003c 00000000 		.4byte	0
 4480              		.section	.debug_ranges,"",%progbits
 4481              	.Ldebug_ranges0:
 4482 0000 02000000 		.4byte	.LBB267
 4483 0004 40000000 		.4byte	.LBE267
 4484 0008 48000000 		.4byte	.LBB346
 4485 000c FC000000 		.4byte	.LBE346
 4486 0010 00000000 		.4byte	0
 4487 0014 00000000 		.4byte	0
 4488 0018 2A000000 		.4byte	.LBB275
 4489 001c 34000000 		.4byte	.LBE275
 4490 0020 CA000000 		.4byte	.LBB341
 4491 0024 D0000000 		.4byte	.LBE341
 4492 0028 00000000 		.4byte	0
 4493 002c 00000000 		.4byte	0
 4494 0030 AE000000 		.4byte	.LBB326
 4495 0034 CA000000 		.4byte	.LBE326
 4496 0038 DA000000 		.4byte	.LBB344
ARM GAS  /tmp/cc49awR3.s 			page 80


 4497 003c FC000000 		.4byte	.LBE344
 4498 0040 00000000 		.4byte	0
 4499 0044 00000000 		.4byte	0
 4500 0048 0C000000 		.4byte	.LBB349
 4501 004c 0E000000 		.4byte	.LBE349
 4502 0050 10000000 		.4byte	.LBB352
 4503 0054 16000000 		.4byte	.LBE352
 4504 0058 00000000 		.4byte	0
 4505 005c 00000000 		.4byte	0
 4506 0060 00000000 		.4byte	.LFB259
 4507 0064 10000000 		.4byte	.LFE259
 4508 0068 00000000 		.4byte	.LFB260
 4509 006c FC000000 		.4byte	.LFE260
 4510 0070 00000000 		.4byte	.LFB261
 4511 0074 28000000 		.4byte	.LFE261
 4512 0078 00000000 		.4byte	.LFB262
 4513 007c 6C000000 		.4byte	.LFE262
 4514 0080 00000000 		.4byte	.LFB263
 4515 0084 34000000 		.4byte	.LFE263
 4516 0088 00000000 		.4byte	0
 4517 008c 00000000 		.4byte	0
 4518              		.section	.debug_line,"",%progbits
 4519              	.Ldebug_line0:
 4520 0000 36040000 		.section	.debug_str,"MS",%progbits,1
 4520      02001903 
 4520      00000201 
 4520      FB0E0D00 
 4520      01010101 
 4521              	.LASF52:
 4522 0000 72656164 		.ascii	"ready_list_t\000"
 4522      795F6C69 
 4522      73745F74 
 4522      00
 4523              	.LASF2:
 4524 000d 73697A65 		.ascii	"size_t\000"
 4524      5F7400
 4525              	.LASF103:
 4526 0014 7264796D 		.ascii	"rdymsg\000"
 4526      736700
 4527              	.LASF19:
 4528 001b 75696E74 		.ascii	"uint64_t\000"
 4528      36345F74 
 4528      00
 4529              	.LASF3:
 4530 0024 5F5F7569 		.ascii	"__uint8_t\000"
 4530      6E74385F 
 4530      7400
 4531              	.LASF100:
 4532 002e 706F7274 		.ascii	"port_intctx\000"
 4532      5F696E74 
 4532      63747800 
 4533              	.LASF71:
 4534 003a 73797374 		.ascii	"system_debug_t\000"
 4534      656D5F64 
 4534      65627567 
 4534      5F7400
 4535              	.LASF172:
ARM GAS  /tmp/cc49awR3.s 			page 81


 4536 0049 7365745F 		.ascii	"set_error\000"
 4536      6572726F 
 4536      7200
 4537              	.LASF182:
 4538 0053 6E766963 		.ascii	"nvicEnableVector\000"
 4538      456E6162 
 4538      6C655665 
 4538      63746F72 
 4538      00
 4539              	.LASF157:
 4540 0064 706F7274 		.ascii	"port_lock\000"
 4540      5F6C6F63 
 4540      6B00
 4541              	.LASF14:
 4542 006e 6C6F6E67 		.ascii	"long long unsigned int\000"
 4542      206C6F6E 
 4542      6720756E 
 4542      7369676E 
 4542      65642069 
 4543              	.LASF168:
 4544 0085 6F73616C 		.ascii	"osalEventBroadcastFlagsI\000"
 4544      4576656E 
 4544      7442726F 
 4544      61646361 
 4544      7374466C 
 4545              	.LASF104:
 4546 009e 65786974 		.ascii	"exitcode\000"
 4546      636F6465 
 4546      00
 4547              	.LASF78:
 4548 00a7 6D61696E 		.ascii	"mainthread\000"
 4548      74687265 
 4548      616400
 4549              	.LASF8:
 4550 00b2 5F5F696E 		.ascii	"__int32_t\000"
 4550      7433325F 
 4550      7400
 4551              	.LASF68:
 4552 00bc 76697274 		.ascii	"virtual_timers_list_t\000"
 4552      75616C5F 
 4552      74696D65 
 4552      72735F6C 
 4552      6973745F 
 4553              	.LASF170:
 4554 00d2 6F73616C 		.ascii	"osalSysUnlockFromISR\000"
 4554      53797355 
 4554      6E6C6F63 
 4554      6B46726F 
 4554      6D495352 
 4555              	.LASF123:
 4556 00e7 696F5F71 		.ascii	"io_queue_t\000"
 4556      75657565 
 4556      5F7400
 4557              	.LASF51:
 4558 00f2 63685F74 		.ascii	"ch_threads_queue\000"
 4558      68726561 
 4558      64735F71 
ARM GAS  /tmp/cc49awR3.s 			page 82


 4558      75657565 
 4558      00
 4559              	.LASF181:
 4560 0103 73644F62 		.ascii	"sdObjectInit\000"
 4560      6A656374 
 4560      496E6974 
 4560      00
 4561              	.LASF156:
 4562 0110 72656164 		.ascii	"readt\000"
 4562      7400
 4563              	.LASF125:
 4564 0116 715F7761 		.ascii	"q_waiting\000"
 4564      6974696E 
 4564      6700
 4565              	.LASF112:
 4566 0120 6D757465 		.ascii	"mutex_t\000"
 4566      785F7400 
 4567              	.LASF12:
 4568 0128 6C6F6E67 		.ascii	"long long int\000"
 4568      206C6F6E 
 4568      6720696E 
 4568      7400
 4569              	.LASF1:
 4570 0136 7369676E 		.ascii	"signed char\000"
 4570      65642063 
 4570      68617200 
 4571              	.LASF92:
 4572 0142 47545052 		.ascii	"GTPR\000"
 4572      00
 4573              	.LASF37:
 4574 0147 705F7374 		.ascii	"p_state\000"
 4574      61746500 
 4575              	.LASF46:
 4576 014f 705F6D70 		.ascii	"p_mpool\000"
 4576      6F6F6C00 
 4577              	.LASF109:
 4578 0157 6D5F7175 		.ascii	"m_queue\000"
 4578      65756500 
 4579              	.LASF158:
 4580 015f 706F7274 		.ascii	"port_unlock\000"
 4580      5F756E6C 
 4580      6F636B00 
 4581              	.LASF188:
 4582 016b 64656661 		.ascii	"default_config\000"
 4582      756C745F 
 4582      636F6E66 
 4582      696700
 4583              	.LASF143:
 4584 017a 73746174 		.ascii	"state\000"
 4584      6500
 4585              	.LASF75:
 4586 0180 63685F73 		.ascii	"ch_system\000"
 4586      79737465 
 4586      6D00
 4587              	.LASF9:
 4588 018a 6C6F6E67 		.ascii	"long int\000"
 4588      20696E74 
ARM GAS  /tmp/cc49awR3.s 			page 83


 4588      00
 4589              	.LASF82:
 4590 0193 41504232 		.ascii	"APB2RSTR\000"
 4590      52535452 
 4590      00
 4591              	.LASF22:
 4592 019c 74737461 		.ascii	"tstate_t\000"
 4592      74655F74 
 4592      00
 4593              	.LASF189:
 4594 01a5 63684F51 		.ascii	"chOQGetI\000"
 4594      47657449 
 4594      00
 4595              	.LASF127:
 4596 01ae 715F6275 		.ascii	"q_buffer\000"
 4596      66666572 
 4596      00
 4597              	.LASF179:
 4598 01b7 63684576 		.ascii	"chEvtBroadcastFlagsI\000"
 4598      7442726F 
 4598      61646361 
 4598      7374466C 
 4598      61677349 
 4599              	.LASF34:
 4600 01cc 705F6E65 		.ascii	"p_newer\000"
 4600      77657200 
 4601              	.LASF162:
 4602 01d4 63685379 		.ascii	"chSysUnlockFromISR\000"
 4602      73556E6C 
 4602      6F636B46 
 4602      726F6D49 
 4602      535200
 4603              	.LASF7:
 4604 01e7 73686F72 		.ascii	"short unsigned int\000"
 4604      7420756E 
 4604      7369676E 
 4604      65642069 
 4604      6E7400
 4605              	.LASF57:
 4606 01fa 725F6E65 		.ascii	"r_newer\000"
 4606      77657200 
 4607              	.LASF97:
 4608 0202 72656761 		.ascii	"regarm_t\000"
 4608      726D5F74 
 4608      00
 4609              	.LASF64:
 4610 020b 76745F70 		.ascii	"vt_prev\000"
 4610      72657600 
 4611              	.LASF101:
 4612 0213 6F666673 		.ascii	"offset\000"
 4612      657400
 4613              	.LASF167:
 4614 021a 6F73616C 		.ascii	"osalSysLockFromISR\000"
 4614      5379734C 
 4614      6F636B46 
 4614      726F6D49 
 4614      535200
ARM GAS  /tmp/cc49awR3.s 			page 84


 4615              	.LASF171:
 4616 022d 75736172 		.ascii	"usart_deinit\000"
 4616      745F6465 
 4616      696E6974 
 4616      00
 4617              	.LASF165:
 4618 023a 76616C75 		.ascii	"value\000"
 4618      6500
 4619              	.LASF124:
 4620 0240 696F5F71 		.ascii	"io_queue\000"
 4620      75657565 
 4620      00
 4621              	.LASF122:
 4622 0249 6576656E 		.ascii	"event_source_t\000"
 4622      745F736F 
 4622      75726365 
 4622      5F7400
 4623              	.LASF79:
 4624 0258 69646C65 		.ascii	"idle_thread_wa\000"
 4624      5F746872 
 4624      6561645F 
 4624      776100
 4625              	.LASF184:
 4626 0267 2E2E2F43 		.ascii	"../ChibiOS/os/hal/ports/STM32/LLD/USARTv2/serial_ll"
 4626      68696269 
 4626      4F532F6F 
 4626      732F6861 
 4626      6C2F706F 
 4627 029a 642E6300 		.ascii	"d.c\000"
 4628              	.LASF146:
 4629 029e 75736172 		.ascii	"usart\000"
 4629      7400
 4630              	.LASF0:
 4631 02a4 756E7369 		.ascii	"unsigned int\000"
 4631      676E6564 
 4631      20696E74 
 4631      00
 4632              	.LASF63:
 4633 02b1 76745F6E 		.ascii	"vt_next\000"
 4633      65787400 
 4634              	.LASF16:
 4635 02b9 75696E74 		.ascii	"uint16_t\000"
 4635      31365F74 
 4635      00
 4636              	.LASF150:
 4637 02c2 53657269 		.ascii	"SerialDriverVMT\000"
 4637      616C4472 
 4637      69766572 
 4637      564D5400 
 4638              	.LASF65:
 4639 02d2 76745F64 		.ascii	"vt_delta\000"
 4639      656C7461 
 4639      00
 4640              	.LASF41:
 4641 02db 705F6D73 		.ascii	"p_msgqueue\000"
 4641      67717565 
 4641      756500
ARM GAS  /tmp/cc49awR3.s 			page 85


 4642              	.LASF175:
 4643 02e6 73645F6C 		.ascii	"sd_lld_init\000"
 4643      6C645F69 
 4643      6E697400 
 4644              	.LASF154:
 4645 02f2 67657474 		.ascii	"gett\000"
 4645      00
 4646              	.LASF142:
 4647 02f7 6576656E 		.ascii	"event\000"
 4647      7400
 4648              	.LASF129:
 4649 02fd 715F7772 		.ascii	"q_wrptr\000"
 4649      70747200 
 4650              	.LASF48:
 4651 0305 63685F74 		.ascii	"ch_thread\000"
 4651      68726561 
 4651      6400
 4652              	.LASF77:
 4653 030f 76746C69 		.ascii	"vtlist\000"
 4653      737400
 4654              	.LASF119:
 4655 0316 656C5F77 		.ascii	"el_wflags\000"
 4655      666C6167 
 4655      7300
 4656              	.LASF25:
 4657 0320 6D73675F 		.ascii	"msg_t\000"
 4657      7400
 4658              	.LASF145:
 4659 0326 6F717565 		.ascii	"oqueue\000"
 4659      756500
 4660              	.LASF115:
 4661 032d 656C5F6E 		.ascii	"el_next\000"
 4661      65787400 
 4662              	.LASF190:
 4663 0335 5F706F72 		.ascii	"_port_irq_epilogue\000"
 4663      745F6972 
 4663      715F6570 
 4663      696C6F67 
 4663      756500
 4664              	.LASF96:
 4665 0348 55534152 		.ascii	"USART_TypeDef\000"
 4665      545F5479 
 4665      70654465 
 4665      6600
 4666              	.LASF155:
 4667 0356 77726974 		.ascii	"writet\000"
 4667      657400
 4668              	.LASF105:
 4669 035d 77746F62 		.ascii	"wtobjp\000"
 4669      6A7000
 4670              	.LASF53:
 4671 0364 63685F72 		.ascii	"ch_ready_list\000"
 4671      65616479 
 4671      5F6C6973 
 4671      7400
 4672              	.LASF26:
 4673 0372 6576656E 		.ascii	"eventmask_t\000"
ARM GAS  /tmp/cc49awR3.s 			page 86


 4673      746D6173 
 4673      6B5F7400 
 4674              	.LASF174:
 4675 037e 56656374 		.ascii	"VectorD4\000"
 4675      6F724434 
 4675      00
 4676              	.LASF148:
 4677 0387 73706565 		.ascii	"speed\000"
 4677      6400
 4678              	.LASF133:
 4679 038d 716E6F74 		.ascii	"qnotify_t\000"
 4679      6966795F 
 4679      7400
 4680              	.LASF98:
 4681 0397 73746B61 		.ascii	"stkalign_t\000"
 4681      6C69676E 
 4681      5F7400
 4682              	.LASF47:
 4683 03a2 74687265 		.ascii	"threads_list_t\000"
 4683      6164735F 
 4683      6C697374 
 4683      5F7400
 4684              	.LASF183:
 4685 03b1 474E5520 		.ascii	"GNU C 4.9.3 20141119 (release) [ARM/embedded-4_9-br"
 4685      4320342E 
 4685      392E3320 
 4685      32303134 
 4685      31313139 
 4686 03e4 616E6368 		.ascii	"anch revision 218278] -mcpu=cortex-m4 -mfloat-abi=h"
 4686      20726576 
 4686      6973696F 
 4686      6E203231 
 4686      38323738 
 4687 0417 61726420 		.ascii	"ard -mfpu=fpv4-sp-d16 -mno-thumb-interwork -mthumb "
 4687      2D6D6670 
 4687      753D6670 
 4687      76342D73 
 4687      702D6431 
 4688 044a 2D676764 		.ascii	"-ggdb -O2 -fomit-frame-pointer -falign-functions=16"
 4688      62202D4F 
 4688      32202D66 
 4688      6F6D6974 
 4688      2D667261 
 4689 047d 202D6666 		.ascii	" -ffunction-sections -fdata-sections -fno-common -f"
 4689      756E6374 
 4689      696F6E2D 
 4689      73656374 
 4689      696F6E73 
 4690 04b0 73696E67 		.ascii	"single-precision-constant\000"
 4690      6C652D70 
 4690      72656369 
 4690      73696F6E 
 4690      2D636F6E 
 4691              	.LASF151:
 4692 04ca 77726974 		.ascii	"write\000"
 4692      6500
 4693              	.LASF134:
ARM GAS  /tmp/cc49awR3.s 			page 87


 4694 04d0 696E7075 		.ascii	"input_queue_t\000"
 4694      745F7175 
 4694      6575655F 
 4694      7400
 4695              	.LASF153:
 4696 04de 70757474 		.ascii	"putt\000"
 4696      00
 4697              	.LASF164:
 4698 04e3 75736172 		.ascii	"usart_init\000"
 4698      745F696E 
 4698      697400
 4699              	.LASF80:
 4700 04ee 73697A65 		.ascii	"sizetype\000"
 4700      74797065 
 4700      00
 4701              	.LASF69:
 4702 04f7 63685F76 		.ascii	"ch_virtual_timers_list\000"
 4702      69727475 
 4702      616C5F74 
 4702      696D6572 
 4702      735F6C69 
 4703              	.LASF126:
 4704 050e 715F636F 		.ascii	"q_counter\000"
 4704      756E7465 
 4704      7200
 4705              	.LASF30:
 4706 0518 705F6E65 		.ascii	"p_next\000"
 4706      787400
 4707              	.LASF70:
 4708 051f 76745F6C 		.ascii	"vt_lasttime\000"
 4708      61737474 
 4708      696D6500 
 4709              	.LASF35:
 4710 052b 705F6F6C 		.ascii	"p_older\000"
 4710      64657200 
 4711              	.LASF56:
 4712 0533 725F6374 		.ascii	"r_ctx\000"
 4712      7800
 4713              	.LASF102:
 4714 0539 746D5F63 		.ascii	"tm_calibration_t\000"
 4714      616C6962 
 4714      72617469 
 4714      6F6E5F74 
 4714      00
 4715              	.LASF88:
 4716 054a 41484252 		.ascii	"AHBRSTR\000"
 4716      53545200 
 4717              	.LASF39:
 4718 0552 705F7265 		.ascii	"p_refs\000"
 4718      667300
 4719              	.LASF59:
 4720 0559 725F6375 		.ascii	"r_current\000"
 4720      7272656E 
 4720      7400
 4721              	.LASF83:
 4722 0563 41504231 		.ascii	"APB1RSTR\000"
 4722      52535452 
ARM GAS  /tmp/cc49awR3.s 			page 88


 4722      00
 4723              	.LASF117:
 4724 056c 656C5F65 		.ascii	"el_events\000"
 4724      76656E74 
 4724      7300
 4725              	.LASF149:
 4726 0576 53657269 		.ascii	"SerialConfig\000"
 4726      616C436F 
 4726      6E666967 
 4726      00
 4727              	.LASF13:
 4728 0583 5F5F7569 		.ascii	"__uint64_t\000"
 4728      6E743634 
 4728      5F7400
 4729              	.LASF187:
 4730 058e 6E6F7469 		.ascii	"notify1\000"
 4730      66793100 
 4731              	.LASF23:
 4732 0596 74726566 		.ascii	"trefs_t\000"
 4732      735F7400 
 4733              	.LASF94:
 4734 059e 52455345 		.ascii	"RESERVED1\000"
 4734      52564544 
 4734      3100
 4735              	.LASF95:
 4736 05a8 52455345 		.ascii	"RESERVED2\000"
 4736      52564544 
 4736      3200
 4737              	.LASF61:
 4738 05b2 76697274 		.ascii	"virtual_timer_t\000"
 4738      75616C5F 
 4738      74696D65 
 4738      725F7400 
 4739              	.LASF31:
 4740 05c2 705F7072 		.ascii	"p_prev\000"
 4740      657600
 4741              	.LASF24:
 4742 05c9 74707269 		.ascii	"tprio_t\000"
 4742      6F5F7400 
 4743              	.LASF130:
 4744 05d1 715F7264 		.ascii	"q_rdptr\000"
 4744      70747200 
 4745              	.LASF108:
 4746 05d9 6D757465 		.ascii	"mutex\000"
 4746      7800
 4747              	.LASF72:
 4748 05df 63685F73 		.ascii	"ch_system_debug\000"
 4748      79737465 
 4748      6D5F6465 
 4748      62756700 
 4749              	.LASF136:
 4750 05ef 5F426F6F 		.ascii	"_Bool\000"
 4750      6C00
 4751              	.LASF17:
 4752 05f5 696E7433 		.ascii	"int32_t\000"
 4752      325F7400 
 4753              	.LASF4:
ARM GAS  /tmp/cc49awR3.s 			page 89


 4754 05fd 756E7369 		.ascii	"unsigned char\000"
 4754      676E6564 
 4754      20636861 
 4754      7200
 4755              	.LASF176:
 4756 060b 73645F6C 		.ascii	"sd_lld_start\000"
 4756      6C645F73 
 4756      74617274 
 4756      00
 4757              	.LASF116:
 4758 0618 656C5F6C 		.ascii	"el_listener\000"
 4758      69737465 
 4758      6E657200 
 4759              	.LASF178:
 4760 0624 49544D5F 		.ascii	"ITM_RxBuffer\000"
 4760      52784275 
 4760      66666572 
 4760      00
 4761              	.LASF118:
 4762 0631 656C5F66 		.ascii	"el_flags\000"
 4762      6C616773 
 4762      00
 4763              	.LASF91:
 4764 063a 5243435F 		.ascii	"RCC_TypeDef\000"
 4764      54797065 
 4764      44656600 
 4765              	.LASF44:
 4766 0646 705F6D74 		.ascii	"p_mtxlist\000"
 4766      786C6973 
 4766      7400
 4767              	.LASF5:
 4768 0650 73686F72 		.ascii	"short int\000"
 4768      7420696E 
 4768      7400
 4769              	.LASF55:
 4770 065a 725F7072 		.ascii	"r_prio\000"
 4770      696F00
 4771              	.LASF106:
 4772 0661 65776D61 		.ascii	"ewmask\000"
 4772      736B00
 4773              	.LASF21:
 4774 0668 746D6F64 		.ascii	"tmode_t\000"
 4774      655F7400 
 4775              	.LASF38:
 4776 0670 705F666C 		.ascii	"p_flags\000"
 4776      61677300 
 4777              	.LASF138:
 4778 0678 53445F53 		.ascii	"SD_STOP\000"
 4778      544F5000 
 4779              	.LASF85:
 4780 0680 41504232 		.ascii	"APB2ENR\000"
 4780      454E5200 
 4781              	.LASF50:
 4782 0688 74687265 		.ascii	"threads_queue_t\000"
 4782      6164735F 
 4782      71756575 
 4782      655F7400 
ARM GAS  /tmp/cc49awR3.s 			page 90


 4783              	.LASF62:
 4784 0698 63685F76 		.ascii	"ch_virtual_timer\000"
 4784      69727475 
 4784      616C5F74 
 4784      696D6572 
 4784      00
 4785              	.LASF173:
 4786 06a9 73657276 		.ascii	"serve_interrupt\000"
 4786      655F696E 
 4786      74657272 
 4786      75707400 
 4787              	.LASF43:
 4788 06b9 705F6570 		.ascii	"p_epending\000"
 4788      656E6469 
 4788      6E6700
 4789              	.LASF137:
 4790 06c4 53445F55 		.ascii	"SD_UNINIT\000"
 4790      4E494E49 
 4790      5400
 4791              	.LASF18:
 4792 06ce 75696E74 		.ascii	"uint32_t\000"
 4792      33325F74 
 4792      00
 4793              	.LASF54:
 4794 06d7 725F7175 		.ascii	"r_queue\000"
 4794      65756500 
 4795              	.LASF49:
 4796 06df 63685F74 		.ascii	"ch_threads_list\000"
 4796      68726561 
 4796      64735F6C 
 4796      69737400 
 4797              	.LASF141:
 4798 06ef 53657269 		.ascii	"SerialDriver\000"
 4798      616C4472 
 4798      69766572 
 4798      00
 4799              	.LASF191:
 4800 06fc 6E766963 		.ascii	"nvicDisableVector\000"
 4800      44697361 
 4800      626C6556 
 4800      6563746F 
 4800      7200
 4801              	.LASF185:
 4802 070e 2F686F6D 		.ascii	"/home/bhimebau/forge/annsynth/src\000"
 4802      652F6268 
 4802      696D6562 
 4802      61752F66 
 4802      6F726765 
 4803              	.LASF11:
 4804 0730 6C6F6E67 		.ascii	"long unsigned int\000"
 4804      20756E73 
 4804      69676E65 
 4804      6420696E 
 4804      7400
 4805              	.LASF152:
 4806 0742 72656164 		.ascii	"read\000"
 4806      00
ARM GAS  /tmp/cc49awR3.s 			page 91


 4807              	.LASF107:
 4808 0747 63686172 		.ascii	"char\000"
 4808      00
 4809              	.LASF180:
 4810 074c 7364496E 		.ascii	"sdIncomingDataI\000"
 4810      636F6D69 
 4810      6E674461 
 4810      74614900 
 4811              	.LASF166:
 4812 075c 636F6E66 		.ascii	"config\000"
 4812      696700
 4813              	.LASF6:
 4814 0763 5F5F7569 		.ascii	"__uint16_t\000"
 4814      6E743136 
 4814      5F7400
 4815              	.LASF160:
 4816 076e 706F7274 		.ascii	"port_unlock_from_isr\000"
 4816      5F756E6C 
 4816      6F636B5F 
 4816      66726F6D 
 4816      5F697372 
 4817              	.LASF29:
 4818 0783 74687265 		.ascii	"thread_t\000"
 4818      61645F74 
 4818      00
 4819              	.LASF111:
 4820 078c 6D5F6E65 		.ascii	"m_next\000"
 4820      787400
 4821              	.LASF28:
 4822 0793 73797374 		.ascii	"systime_t\000"
 4822      696D655F 
 4822      7400
 4823              	.LASF45:
 4824 079d 705F7265 		.ascii	"p_realprio\000"
 4824      616C7072 
 4824      696F00
 4825              	.LASF60:
 4826 07a8 76746675 		.ascii	"vtfunc_t\000"
 4826      6E635F74 
 4826      00
 4827              	.LASF10:
 4828 07b1 5F5F7569 		.ascii	"__uint32_t\000"
 4828      6E743332 
 4828      5F7400
 4829              	.LASF163:
 4830 07bc 5F5F7365 		.ascii	"__set_BASEPRI\000"
 4830      745F4241 
 4830      53455052 
 4830      4900
 4831              	.LASF73:
 4832 07ca 70616E69 		.ascii	"panic_msg\000"
 4832      635F6D73 
 4832      6700
 4833              	.LASF93:
 4834 07d4 52544F52 		.ascii	"RTOR\000"
 4834      00
 4835              	.LASF86:
ARM GAS  /tmp/cc49awR3.s 			page 92


 4836 07d9 41504231 		.ascii	"APB1ENR\000"
 4836      454E5200 
 4837              	.LASF113:
 4838 07e1 6576656E 		.ascii	"event_listener_t\000"
 4838      745F6C69 
 4838      7374656E 
 4838      65725F74 
 4838      00
 4839              	.LASF99:
 4840 07f2 636F6E74 		.ascii	"context\000"
 4840      65787400 
 4841              	.LASF58:
 4842 07fa 725F6F6C 		.ascii	"r_older\000"
 4842      64657200 
 4843              	.LASF74:
 4844 0802 63685F73 		.ascii	"ch_system_t\000"
 4844      79737465 
 4844      6D5F7400 
 4845              	.LASF42:
 4846 080e 705F6D73 		.ascii	"p_msg\000"
 4846      6700
 4847              	.LASF20:
 4848 0814 7274636E 		.ascii	"rtcnt_t\000"
 4848      745F7400 
 4849              	.LASF159:
 4850 081c 706F7274 		.ascii	"port_lock_from_isr\000"
 4850      5F6C6F63 
 4850      6B5F6672 
 4850      6F6D5F69 
 4850      737200
 4851              	.LASF139:
 4852 082f 53445F52 		.ascii	"SD_READY\000"
 4852      45414459 
 4852      00
 4853              	.LASF120:
 4854 0838 6576656E 		.ascii	"event_source\000"
 4854      745F736F 
 4854      75726365 
 4854      00
 4855              	.LASF67:
 4856 0845 76745F70 		.ascii	"vt_par\000"
 4856      617200
 4857              	.LASF27:
 4858 084c 6576656E 		.ascii	"eventflags_t\000"
 4858      74666C61 
 4858      67735F74 
 4858      00
 4859              	.LASF135:
 4860 0859 6F757470 		.ascii	"output_queue_t\000"
 4860      75745F71 
 4860      75657565 
 4860      5F7400
 4861              	.LASF140:
 4862 0868 73647374 		.ascii	"sdstate_t\000"
 4862      6174655F 
 4862      7400
 4863              	.LASF128:
ARM GAS  /tmp/cc49awR3.s 			page 93


 4864 0872 715F746F 		.ascii	"q_top\000"
 4864      7000
 4865              	.LASF36:
 4866 0878 705F6E61 		.ascii	"p_name\000"
 4866      6D6500
 4867              	.LASF121:
 4868 087f 65735F6E 		.ascii	"es_next\000"
 4868      65787400 
 4869              	.LASF87:
 4870 0887 42444352 		.ascii	"BDCR\000"
 4870      00
 4871              	.LASF131:
 4872 088c 715F6E6F 		.ascii	"q_notify\000"
 4872      74696679 
 4872      00
 4873              	.LASF76:
 4874 0895 726C6973 		.ascii	"rlist\000"
 4874      7400
 4875              	.LASF89:
 4876 089b 43464752 		.ascii	"CFGR2\000"
 4876      3200
 4877              	.LASF90:
 4878 08a1 43464752 		.ascii	"CFGR3\000"
 4878      3300
 4879              	.LASF15:
 4880 08a7 75696E74 		.ascii	"uint8_t\000"
 4880      385F7400 
 4881              	.LASF169:
 4882 08af 666C6167 		.ascii	"flags\000"
 4882      7300
 4883              	.LASF32:
 4884 08b5 705F7072 		.ascii	"p_prio\000"
 4884      696F00
 4885              	.LASF161:
 4886 08bc 63685379 		.ascii	"chSysLockFromISR\000"
 4886      734C6F63 
 4886      6B46726F 
 4886      6D495352 
 4886      00
 4887              	.LASF144:
 4888 08cd 69717565 		.ascii	"iqueue\000"
 4888      756500
 4889              	.LASF186:
 4890 08d4 63684F51 		.ascii	"chOQIsEmptyI\000"
 4890      4973456D 
 4890      70747949 
 4890      00
 4891              	.LASF81:
 4892 08e1 43464752 		.ascii	"CFGR\000"
 4892      00
 4893              	.LASF147:
 4894 08e6 636C6F63 		.ascii	"clock\000"
 4894      6B00
 4895              	.LASF177:
 4896 08ec 73645F6C 		.ascii	"sd_lld_stop\000"
 4896      6C645F73 
 4896      746F7000 
ARM GAS  /tmp/cc49awR3.s 			page 94


 4897              	.LASF132:
 4898 08f8 715F6C69 		.ascii	"q_link\000"
 4898      6E6B00
 4899              	.LASF110:
 4900 08ff 6D5F6F77 		.ascii	"m_owner\000"
 4900      6E657200 
 4901              	.LASF33:
 4902 0907 705F6374 		.ascii	"p_ctx\000"
 4902      7800
 4903              	.LASF66:
 4904 090d 76745F66 		.ascii	"vt_func\000"
 4904      756E6300 
 4905              	.LASF84:
 4906 0915 41484245 		.ascii	"AHBENR\000"
 4906      4E5200
 4907              	.LASF114:
 4908 091c 6576656E 		.ascii	"event_listener\000"
 4908      745F6C69 
 4908      7374656E 
 4908      657200
 4909              	.LASF40:
 4910 092b 705F7761 		.ascii	"p_waiting\000"
 4910      6974696E 
 4910      6700
 4911              		.ident	"GCC: (GNU Tools for ARM Embedded Processors) 4.9.3 20141119 (release) [ARM/embedded-4_9-br
ARM GAS  /tmp/cc49awR3.s 			page 95


DEFINED SYMBOLS
                            *ABS*:00000000 serial_lld.c
     /tmp/cc49awR3.s:21     .text.notify1:00000000 $t
     /tmp/cc49awR3.s:26     .text.notify1:00000000 notify1
     /tmp/cc49awR3.s:44     .text.notify1:0000000c $d
     /tmp/cc49awR3.s:49     .text.VectorD4:00000000 $t
     /tmp/cc49awR3.s:55     .text.VectorD4:00000000 VectorD4
     /tmp/cc49awR3.s:445    .text.VectorD4:000000f0 $d
     /tmp/cc49awR3.s:455    .text.sd_lld_init:00000000 $t
     /tmp/cc49awR3.s:461    .text.sd_lld_init:00000000 sd_lld_init
     /tmp/cc49awR3.s:490    .text.sd_lld_init:00000018 $d
     /tmp/cc49awR3.s:498    .text.sd_lld_start:00000000 $t
     /tmp/cc49awR3.s:504    .text.sd_lld_start:00000000 sd_lld_start
     /tmp/cc49awR3.s:594    .text.sd_lld_start:00000060 $d
     /tmp/cc49awR3.s:601    .text.sd_lld_stop:00000000 $t
     /tmp/cc49awR3.s:607    .text.sd_lld_stop:00000000 sd_lld_stop
     /tmp/cc49awR3.s:664    .text.sd_lld_stop:00000030 $d
     /tmp/cc49awR3.s:684    .bss.SD1:00000000 SD1
     /tmp/cc49awR3.s:670    .rodata.default_config:00000000 $d
     /tmp/cc49awR3.s:674    .rodata.default_config:00000000 default_config
     /tmp/cc49awR3.s:680    .bss.SD1:00000000 $d
                     .debug_frame:00000010 $d
     /tmp/cc49awR3.s:454    .text.VectorD4:000000fc $t
     /tmp/cc49awR3.s:497    .text.sd_lld_init:00000028 $t
     /tmp/cc49awR3.s:600    .text.sd_lld_start:0000006c $t
     /tmp/cc49awR3.s:669    .text.sd_lld_stop:00000034 $t

UNDEFINED SYMBOLS
_port_irq_epilogue
sdIncomingDataI
chEvtBroadcastFlagsI
chOQGetI
sdObjectInit
nvicEnableVector
nvicDisableVector
