ARM GAS  /tmp/ccXUYVVH.s 			page 1


   1              		.syntax unified
   2              		.cpu cortex-m4
   3              		.eabi_attribute 27, 3
   4              		.eabi_attribute 28, 1
   5              		.fpu fpv4-sp-d16
   6              		.eabi_attribute 20, 1
   7              		.eabi_attribute 21, 1
   8              		.eabi_attribute 23, 3
   9              		.eabi_attribute 24, 1
  10              		.eabi_attribute 25, 1
  11              		.eabi_attribute 26, 1
  12              		.eabi_attribute 30, 2
  13              		.eabi_attribute 34, 1
  14              		.eabi_attribute 18, 4
  15              		.thumb
  16              		.file	"serial_usb.c"
  17              		.text
  18              	.Ltext0:
  19              		.cfi_sections	.debug_frame
  20              		.section	.text.onotify,"ax",%progbits
  21              		.align	2
  22              		.p2align 4,,15
  23              		.thumb
  24              		.thumb_func
  25              		.type	onotify, %function
  26              	onotify:
  27              	.LFB264:
  28              		.file 1 "../ChibiOS/os/hal/src/serial_usb.c"
  29              		.loc 1 145 0
  30              		.cfi_startproc
  31              		@ args = 0, pretend = 0, frame = 0
  32              		@ frame_needed = 0, uses_anonymous_args = 0
  33              	.LVL0:
  34 0000 10B5     		push	{r4, lr}
  35              		.cfi_def_cfa_offset 8
  36              		.cfi_offset 4, -8
  37              		.cfi_offset 14, -4
  38              		.loc 1 147 0
  39 0002 046A     		ldr	r4, [r0, #32]
  40              	.LVL1:
  41              		.loc 1 151 0
  42 0004 D4F85432 		ldr	r3, [r4, #596]
  43 0008 1A68     		ldr	r2, [r3]
  44 000a 1178     		ldrb	r1, [r2]	@ zero_extendqisi2
  45 000c 0429     		cmp	r1, #4
  46 000e 00D0     		beq	.L8
  47              	.LVL2:
  48              	.L1:
  49 0010 10BD     		pop	{r4, pc}
  50              	.LVL3:
  51              	.L8:
  52              		.loc 1 151 0 is_stmt 0 discriminator 1
  53 0012 217A     		ldrb	r1, [r4, #8]	@ zero_extendqisi2
  54 0014 0229     		cmp	r1, #2
  55 0016 FBD1     		bne	.L1
  56              		.loc 1 157 0 is_stmt 1
  57 0018 1289     		ldrh	r2, [r2, #8]
ARM GAS  /tmp/ccXUYVVH.s 			page 2


  58 001a 1B79     		ldrb	r3, [r3, #4]	@ zero_extendqisi2
  59 001c 42FA03F3 		asr	r3, r2, r3
  60 0020 13F00102 		ands	r2, r3, #1
  61 0024 F4D1     		bne	.L1
  62              	.LVL4:
  63              	.LBB200:
  64              	.LBB201:
  65              		.file 2 "../ChibiOS/os/rt/include/chqueues.h"
  66              		.loc 2 354 0 discriminator 1
  67 0026 216C     		ldr	r1, [r4, #64]
  68 0028 E36B     		ldr	r3, [r4, #60]
  69 002a A06B     		ldr	r0, [r4, #56]
  70              	.LVL5:
  71 002c CB1A     		subs	r3, r1, r3
  72              	.LBE201:
  73              	.LBE200:
  74              		.loc 1 157 0 discriminator 1
  75 002e 1B1A     		subs	r3, r3, r0
  76 0030 EED0     		beq	.L1
  77              	.LVL6:
  78              	.LBB202:
  79              	.LBB203:
  80              	.LBB204:
  81              	.LBB205:
  82              	.LBB206:
  83              	.LBB207:
  84              		.file 3 "../ChibiOS/os/ext/CMSIS/include/core_cmFunc.h"
  85              		.loc 3 546 0
  86              	@ 546 "../ChibiOS/os/ext/CMSIS/include/core_cmFunc.h" 1
  87 0032 82F31188 		MSR basepri, r2
  88              	@ 0 "" 2
  89              		.thumb
  90              	.LBE207:
  91              	.LBE206:
  92              	.LBE205:
  93              	.LBE204:
  94              	.LBE203:
  95              	.LBE202:
  96              		.loc 1 161 0
  97 0036 D4F85422 		ldr	r2, [r4, #596]
  98 003a 1068     		ldr	r0, [r2]
  99 003c 1179     		ldrb	r1, [r2, #4]	@ zero_extendqisi2
 100 003e 04F13002 		add	r2, r4, #48
 101              	.LVL7:
 102 0042 FFF7FEFF 		bl	usbPrepareQueuedTransmit
 103              	.LVL8:
 104              	.LBB208:
 105              	.LBB209:
 106              	.LBB210:
 107              	.LBB211:
 108              	.LBB212:
 109              		.loc 3 546 0
 110 0046 2023     		movs	r3, #32
 111              	@ 546 "../ChibiOS/os/ext/CMSIS/include/core_cmFunc.h" 1
 112 0048 83F31188 		MSR basepri, r3
 113              	@ 0 "" 2
 114              		.thumb
ARM GAS  /tmp/ccXUYVVH.s 			page 3


 115              	.LBE212:
 116              	.LBE211:
 117              	.LBE210:
 118              	.LBE209:
 119              	.LBE208:
 120              		.loc 1 166 0
 121 004c D4F85432 		ldr	r3, [r4, #596]
 122              		.loc 1 168 0
 123 0050 BDE81040 		pop	{r4, lr}
 124              		.cfi_restore 14
 125              		.cfi_restore 4
 126              		.cfi_def_cfa_offset 0
 127              	.LVL9:
 128              		.loc 1 166 0
 129 0054 1868     		ldr	r0, [r3]
 130 0056 1979     		ldrb	r1, [r3, #4]	@ zero_extendqisi2
 131 0058 FFF7FEBF 		b	usbStartTransmitI
 132              	.LVL10:
 133              		.cfi_endproc
 134              	.LFE264:
 135              		.size	onotify, .-onotify
 136 005c AFF30080 		.section	.text.inotify,"ax",%progbits
 137              		.align	2
 138              		.p2align 4,,15
 139              		.thumb
 140              		.thumb_func
 141              		.type	inotify, %function
 142              	inotify:
 143              	.LFB263:
 144              		.loc 1 112 0
 145              		.cfi_startproc
 146              		@ args = 0, pretend = 0, frame = 0
 147              		@ frame_needed = 0, uses_anonymous_args = 0
 148              	.LVL11:
 149 0000 38B5     		push	{r3, r4, r5, lr}
 150              		.cfi_def_cfa_offset 16
 151              		.cfi_offset 3, -16
 152              		.cfi_offset 4, -12
 153              		.cfi_offset 5, -8
 154              		.cfi_offset 14, -4
 155              		.loc 1 114 0
 156 0002 046A     		ldr	r4, [r0, #32]
 157              	.LVL12:
 158              		.loc 1 118 0
 159 0004 D4F85422 		ldr	r2, [r4, #596]
 160 0008 1368     		ldr	r3, [r2]
 161 000a 1978     		ldrb	r1, [r3]	@ zero_extendqisi2
 162 000c 0429     		cmp	r1, #4
 163 000e 00D0     		beq	.L12
 164              	.LVL13:
 165              	.L9:
 166 0010 38BD     		pop	{r3, r4, r5, pc}
 167              	.LVL14:
 168              	.L12:
 169              		.loc 1 118 0 is_stmt 0 discriminator 1
 170 0012 217A     		ldrb	r1, [r4, #8]	@ zero_extendqisi2
 171 0014 0229     		cmp	r1, #2
ARM GAS  /tmp/ccXUYVVH.s 			page 4


 172 0016 FBD1     		bne	.L9
 173              		.loc 1 125 0 is_stmt 1
 174 0018 5179     		ldrb	r1, [r2, #5]	@ zero_extendqisi2
 175              		.loc 1 126 0
 176 001a 5A89     		ldrh	r2, [r3, #10]
 177              		.loc 1 125 0
 178 001c 03EB8103 		add	r3, r3, r1, lsl #2
 179              		.loc 1 126 0
 180 0020 0A41     		asrs	r2, r2, r1
 181              		.loc 1 125 0
 182 0022 DB68     		ldr	r3, [r3, #12]
 183              		.loc 1 126 0
 184 0024 12F00102 		ands	r2, r2, #1
 185              		.loc 1 125 0
 186 0028 5B8A     		ldrh	r3, [r3, #18]
 187              	.LVL15:
 188              		.loc 1 126 0
 189 002a F1D1     		bne	.L9
 190              	.LVL16:
 191              	.LBB213:
 192              	.LBB214:
 193              		.loc 2 287 0 discriminator 1
 194 002c A169     		ldr	r1, [r4, #24]
 195 002e E069     		ldr	r0, [r4, #28]
 196              	.LVL17:
 197 0030 6569     		ldr	r5, [r4, #20]
 198 0032 401A     		subs	r0, r0, r1
 199 0034 411B     		subs	r1, r0, r5
 200              	.LBE214:
 201              	.LBE213:
 202              		.loc 1 126 0 discriminator 1
 203 0036 8B42     		cmp	r3, r1
 204 0038 EAD8     		bhi	.L9
 205              	.LVL18:
 206              	.LBB215:
 207              	.LBB216:
 208              	.LBB217:
 209              	.LBB218:
 210              	.LBB219:
 211              	.LBB220:
 212              		.loc 3 546 0
 213              	@ 546 "../ChibiOS/os/ext/CMSIS/include/core_cmFunc.h" 1
 214 003a 82F31188 		MSR basepri, r2
 215              	@ 0 "" 2
 216              	.LVL19:
 217              		.thumb
 218              	.LBE220:
 219              	.LBE219:
 220              	.LBE218:
 221              	.LBE217:
 222              	.LBE216:
 223              	.LBE215:
 224              		.loc 1 130 0
 225 003e B1FBF3F1 		udiv	r1, r1, r3
 226              	.LVL20:
 227              		.loc 1 131 0
 228 0042 D4F85422 		ldr	r2, [r4, #596]
ARM GAS  /tmp/ccXUYVVH.s 			page 5


 229 0046 03FB01F3 		mul	r3, r3, r1
 230              	.LVL21:
 231 004a 1068     		ldr	r0, [r2]
 232 004c 5179     		ldrb	r1, [r2, #5]	@ zero_extendqisi2
 233 004e 04F10C02 		add	r2, r4, #12
 234              	.LVL22:
 235 0052 FFF7FEFF 		bl	usbPrepareQueuedReceive
 236              	.LVL23:
 237              	.LBB221:
 238              	.LBB222:
 239              	.LBB223:
 240              	.LBB224:
 241              	.LBB225:
 242              		.loc 3 546 0
 243 0056 2023     		movs	r3, #32
 244              	@ 546 "../ChibiOS/os/ext/CMSIS/include/core_cmFunc.h" 1
 245 0058 83F31188 		MSR basepri, r3
 246              	@ 0 "" 2
 247              		.thumb
 248              	.LBE225:
 249              	.LBE224:
 250              	.LBE223:
 251              	.LBE222:
 252              	.LBE221:
 253              		.loc 1 136 0
 254 005c D4F85432 		ldr	r3, [r4, #596]
 255 0060 1868     		ldr	r0, [r3]
 256 0062 5979     		ldrb	r1, [r3, #5]	@ zero_extendqisi2
 257              		.loc 1 138 0
 258 0064 BDE83840 		pop	{r3, r4, r5, lr}
 259              		.cfi_restore 14
 260              		.cfi_restore 5
 261              		.cfi_restore 4
 262              		.cfi_restore 3
 263              		.cfi_def_cfa_offset 0
 264              	.LVL24:
 265              		.loc 1 136 0
 266 0068 FFF7FEBF 		b	usbStartReceiveI
 267              	.LVL25:
 268              		.cfi_endproc
 269              	.LFE263:
 270              		.size	inotify, .-inotify
 271 006c AFF30080 		.section	.text.readt,"ax",%progbits
 272              		.align	2
 273              		.p2align 4,,15
 274              		.thumb
 275              		.thumb_func
 276              		.type	readt, %function
 277              	readt:
 278              	.LFB262:
 279              		.loc 1 97 0
 280              		.cfi_startproc
 281              		@ args = 0, pretend = 0, frame = 0
 282              		@ frame_needed = 0, uses_anonymous_args = 0
 283              		@ link register save eliminated.
 284              	.LVL26:
 285              		.loc 1 99 0
ARM GAS  /tmp/ccXUYVVH.s 			page 6


 286 0000 0C30     		adds	r0, r0, #12
 287              	.LVL27:
 288 0002 FFF7FEBF 		b	chIQReadTimeout
 289              	.LVL28:
 290              		.cfi_endproc
 291              	.LFE262:
 292              		.size	readt, .-readt
 293 0006 00BFAFF3 		.section	.text.read,"ax",%progbits
 293      0080AFF3 
 293      0080
 294              		.align	2
 295              		.p2align 4,,15
 296              		.thumb
 297              		.thumb_func
 298              		.type	read, %function
 299              	read:
 300              	.LFB256:
 301              		.loc 1 66 0
 302              		.cfi_startproc
 303              		@ args = 0, pretend = 0, frame = 0
 304              		@ frame_needed = 0, uses_anonymous_args = 0
 305              		@ link register save eliminated.
 306              	.LVL29:
 307              		.loc 1 68 0
 308 0000 0C30     		adds	r0, r0, #12
 309              	.LVL30:
 310 0002 4FF0FF33 		mov	r3, #-1
 311 0006 FFF7FEBF 		b	chIQReadTimeout
 312              	.LVL31:
 313              		.cfi_endproc
 314              	.LFE256:
 315              		.size	read, .-read
 316 000a 00BFAFF3 		.section	.text.writet,"ax",%progbits
 316      0080
 317              		.align	2
 318              		.p2align 4,,15
 319              		.thumb
 320              		.thumb_func
 321              		.type	writet, %function
 322              	writet:
 323              	.LFB261:
 324              		.loc 1 92 0
 325              		.cfi_startproc
 326              		@ args = 0, pretend = 0, frame = 0
 327              		@ frame_needed = 0, uses_anonymous_args = 0
 328              		@ link register save eliminated.
 329              	.LVL32:
 330              		.loc 1 94 0
 331 0000 3030     		adds	r0, r0, #48
 332              	.LVL33:
 333 0002 FFF7FEBF 		b	chOQWriteTimeout
 334              	.LVL34:
 335              		.cfi_endproc
 336              	.LFE261:
 337              		.size	writet, .-writet
 338 0006 00BFAFF3 		.section	.text.write,"ax",%progbits
 338      0080AFF3 
ARM GAS  /tmp/ccXUYVVH.s 			page 7


 338      0080
 339              		.align	2
 340              		.p2align 4,,15
 341              		.thumb
 342              		.thumb_func
 343              		.type	write, %function
 344              	write:
 345              	.LFB255:
 346              		.loc 1 60 0
 347              		.cfi_startproc
 348              		@ args = 0, pretend = 0, frame = 0
 349              		@ frame_needed = 0, uses_anonymous_args = 0
 350              		@ link register save eliminated.
 351              	.LVL35:
 352              		.loc 1 62 0
 353 0000 3030     		adds	r0, r0, #48
 354              	.LVL36:
 355 0002 4FF0FF33 		mov	r3, #-1
 356 0006 FFF7FEBF 		b	chOQWriteTimeout
 357              	.LVL37:
 358              		.cfi_endproc
 359              	.LFE255:
 360              		.size	write, .-write
 361 000a 00BFAFF3 		.section	.text.gett,"ax",%progbits
 361      0080
 362              		.align	2
 363              		.p2align 4,,15
 364              		.thumb
 365              		.thumb_func
 366              		.type	gett, %function
 367              	gett:
 368              	.LFB260:
 369              		.loc 1 87 0
 370              		.cfi_startproc
 371              		@ args = 0, pretend = 0, frame = 0
 372              		@ frame_needed = 0, uses_anonymous_args = 0
 373              		@ link register save eliminated.
 374              	.LVL38:
 375              		.loc 1 89 0
 376 0000 0C30     		adds	r0, r0, #12
 377              	.LVL39:
 378 0002 FFF7FEBF 		b	chIQGetTimeout
 379              	.LVL40:
 380              		.cfi_endproc
 381              	.LFE260:
 382              		.size	gett, .-gett
 383 0006 00BFAFF3 		.section	.text.get,"ax",%progbits
 383      0080AFF3 
 383      0080
 384              		.align	2
 385              		.p2align 4,,15
 386              		.thumb
 387              		.thumb_func
 388              		.type	get, %function
 389              	get:
 390              	.LFB258:
 391              		.loc 1 77 0
ARM GAS  /tmp/ccXUYVVH.s 			page 8


 392              		.cfi_startproc
 393              		@ args = 0, pretend = 0, frame = 0
 394              		@ frame_needed = 0, uses_anonymous_args = 0
 395              		@ link register save eliminated.
 396              	.LVL41:
 397              		.loc 1 79 0
 398 0000 0C30     		adds	r0, r0, #12
 399              	.LVL42:
 400 0002 4FF0FF31 		mov	r1, #-1
 401 0006 FFF7FEBF 		b	chIQGetTimeout
 402              	.LVL43:
 403              		.cfi_endproc
 404              	.LFE258:
 405              		.size	get, .-get
 406 000a 00BFAFF3 		.section	.text.putt,"ax",%progbits
 406      0080
 407              		.align	2
 408              		.p2align 4,,15
 409              		.thumb
 410              		.thumb_func
 411              		.type	putt, %function
 412              	putt:
 413              	.LFB259:
 414              		.loc 1 82 0
 415              		.cfi_startproc
 416              		@ args = 0, pretend = 0, frame = 0
 417              		@ frame_needed = 0, uses_anonymous_args = 0
 418              		@ link register save eliminated.
 419              	.LVL44:
 420              		.loc 1 84 0
 421 0000 3030     		adds	r0, r0, #48
 422              	.LVL45:
 423 0002 FFF7FEBF 		b	chOQPutTimeout
 424              	.LVL46:
 425              		.cfi_endproc
 426              	.LFE259:
 427              		.size	putt, .-putt
 428 0006 00BFAFF3 		.section	.text.put,"ax",%progbits
 428      0080AFF3 
 428      0080
 429              		.align	2
 430              		.p2align 4,,15
 431              		.thumb
 432              		.thumb_func
 433              		.type	put, %function
 434              	put:
 435              	.LFB257:
 436              		.loc 1 72 0
 437              		.cfi_startproc
 438              		@ args = 0, pretend = 0, frame = 0
 439              		@ frame_needed = 0, uses_anonymous_args = 0
 440              		@ link register save eliminated.
 441              	.LVL47:
 442              		.loc 1 74 0
 443 0000 3030     		adds	r0, r0, #48
 444              	.LVL48:
 445 0002 4FF0FF32 		mov	r2, #-1
ARM GAS  /tmp/ccXUYVVH.s 			page 9


 446 0006 FFF7FEBF 		b	chOQPutTimeout
 447              	.LVL49:
 448              		.cfi_endproc
 449              	.LFE257:
 450              		.size	put, .-put
 451 000a 00BFAFF3 		.section	.text.sduInit,"ax",%progbits
 451      0080
 452              		.align	2
 453              		.p2align 4,,15
 454              		.global	sduInit
 455              		.thumb
 456              		.thumb_func
 457              		.type	sduInit, %function
 458              	sduInit:
 459              	.LFB265:
 460              		.loc 1 181 0
 461              		.cfi_startproc
 462              		@ args = 0, pretend = 0, frame = 0
 463              		@ frame_needed = 0, uses_anonymous_args = 0
 464              		@ link register save eliminated.
 465 0000 7047     		bx	lr
 466              		.cfi_endproc
 467              	.LFE265:
 468              		.size	sduInit, .-sduInit
 469 0002 00BFAFF3 		.section	.text.sduObjectInit,"ax",%progbits
 469      0080AFF3 
 469      0080AFF3 
 469      0080
 470              		.align	2
 471              		.p2align 4,,15
 472              		.global	sduObjectInit
 473              		.thumb
 474              		.thumb_func
 475              		.type	sduObjectInit, %function
 476              	sduObjectInit:
 477              	.LFB266:
 478              		.loc 1 193 0
 479              		.cfi_startproc
 480              		@ args = 0, pretend = 0, frame = 0
 481              		@ frame_needed = 0, uses_anonymous_args = 0
 482              	.LVL50:
 483              		.loc 1 193 0
 484 0000 10B5     		push	{r4, lr}
 485              		.cfi_def_cfa_offset 8
 486              		.cfi_offset 4, -8
 487              		.cfi_offset 14, -4
 488              		.loc 1 195 0
 489 0002 0346     		mov	r3, r0
 490 0004 0E4A     		ldr	r2, .L24
 491 0006 43F8042B 		str	r2, [r3], #4
 492              	.LVL51:
 493              		.loc 1 193 0
 494 000a 82B0     		sub	sp, sp, #8
 495              		.cfi_def_cfa_offset 16
 496              		.loc 1 193 0
 497 000c 0446     		mov	r4, r0
 498              		.loc 1 197 0
ARM GAS  /tmp/ccXUYVVH.s 			page 10


 499 000e 0122     		movs	r2, #1
 500              		.loc 1 198 0
 501 0010 0090     		str	r0, [sp]
 502 0012 04F15401 		add	r1, r4, #84
 503              	.LBB226:
 504              	.LBB227:
 505              	.LBB228:
 506              		.file 4 "../ChibiOS/os/rt/include/chevents.h"
 507              		.loc 4 172 0
 508 0016 4360     		str	r3, [r0, #4]
 509              	.LBE228:
 510              	.LBE227:
 511              	.LBE226:
 512              		.loc 1 197 0
 513 0018 0272     		strb	r2, [r0, #8]
 514              		.loc 1 198 0
 515 001a 0A4B     		ldr	r3, .L24+4
 516              	.LVL52:
 517 001c 0C30     		adds	r0, r0, #12
 518              	.LVL53:
 519 001e 4FF48072 		mov	r2, #256
 520 0022 FFF7FEFF 		bl	chIQObjectInit
 521              	.LVL54:
 522              		.loc 1 199 0
 523 0026 0094     		str	r4, [sp]
 524 0028 04F13000 		add	r0, r4, #48
 525 002c 04F5AA71 		add	r1, r4, #340
 526 0030 4FF48072 		mov	r2, #256
 527 0034 044B     		ldr	r3, .L24+8
 528 0036 FFF7FEFF 		bl	chOQObjectInit
 529              	.LVL55:
 530              		.loc 1 200 0
 531 003a 02B0     		add	sp, sp, #8
 532              		.cfi_def_cfa_offset 8
 533              		@ sp needed
 534 003c 10BD     		pop	{r4, pc}
 535              	.LVL56:
 536              	.L25:
 537 003e 00BF     		.align	2
 538              	.L24:
 539 0040 00000000 		.word	.LANCHOR0
 540 0044 00000000 		.word	inotify
 541 0048 00000000 		.word	onotify
 542              		.cfi_endproc
 543              	.LFE266:
 544              		.size	sduObjectInit, .-sduObjectInit
 545 004c AFF30080 		.section	.text.sduStart,"ax",%progbits
 546              		.align	2
 547              		.p2align 4,,15
 548              		.global	sduStart
 549              		.thumb
 550              		.thumb_func
 551              		.type	sduStart, %function
 552              	sduStart:
 553              	.LFB267:
 554              		.loc 1 210 0
 555              		.cfi_startproc
ARM GAS  /tmp/ccXUYVVH.s 			page 11


 556              		@ args = 0, pretend = 0, frame = 0
 557              		@ frame_needed = 0, uses_anonymous_args = 0
 558              		@ link register save eliminated.
 559              	.LVL57:
 560 0000 30B4     		push	{r4, r5}
 561              		.cfi_def_cfa_offset 8
 562              		.cfi_offset 4, -8
 563              		.cfi_offset 5, -4
 564              		.loc 1 211 0
 565 0002 0B68     		ldr	r3, [r1]
 566              	.LVL58:
 567              	.LBB229:
 568              	.LBB230:
 569              	.LBB231:
 570              	.LBB232:
 571              	.LBB233:
 572              		.loc 3 546 0
 573 0004 2022     		movs	r2, #32
 574              	@ 546 "../ChibiOS/os/ext/CMSIS/include/core_cmFunc.h" 1
 575 0006 82F31188 		MSR basepri, r2
 576              	@ 0 "" 2
 577              		.thumb
 578              	.LBE233:
 579              	.LBE232:
 580              	.LBE231:
 581              	.LBE230:
 582              	.LBE229:
 583              		.loc 1 218 0
 584 000a 0A79     		ldrb	r2, [r1, #4]	@ zero_extendqisi2
 585 000c 03EB8202 		add	r2, r3, r2, lsl #2
 586              		.loc 1 222 0
 587 0010 0225     		movs	r5, #2
 588              		.loc 1 218 0
 589 0012 9062     		str	r0, [r2, #40]
 590              		.loc 1 219 0
 591 0014 4A79     		ldrb	r2, [r1, #5]	@ zero_extendqisi2
 592 0016 1132     		adds	r2, r2, #17
 593              	.LBB234:
 594              	.LBB235:
 595              	.LBB236:
 596              	.LBB237:
 597              	.LBB238:
 598              	.LBB239:
 599              		.loc 3 546 0
 600 0018 0024     		movs	r4, #0
 601              	.LBE239:
 602              	.LBE238:
 603              	.LBE237:
 604              	.LBE236:
 605              	.LBE235:
 606              	.LBE234:
 607              		.loc 1 219 0
 608 001a 43F82200 		str	r0, [r3, r2, lsl #2]
 609              		.loc 1 220 0
 610 001e 8A79     		ldrb	r2, [r1, #6]	@ zero_extendqisi2
 611 0020 03EB8203 		add	r3, r3, r2, lsl #2
 612              	.LVL59:
ARM GAS  /tmp/ccXUYVVH.s 			page 12


 613 0024 9862     		str	r0, [r3, #40]
 614              		.loc 1 221 0
 615 0026 C0F85412 		str	r1, [r0, #596]
 616              		.loc 1 222 0
 617 002a 0572     		strb	r5, [r0, #8]
 618              	.LVL60:
 619              	.LBB245:
 620              	.LBB244:
 621              	.LBB243:
 622              	.LBB242:
 623              	.LBB241:
 624              	.LBB240:
 625              		.loc 3 546 0
 626              	@ 546 "../ChibiOS/os/ext/CMSIS/include/core_cmFunc.h" 1
 627 002c 84F31188 		MSR basepri, r4
 628              	@ 0 "" 2
 629              		.thumb
 630              	.LBE240:
 631              	.LBE241:
 632              	.LBE242:
 633              	.LBE243:
 634              	.LBE244:
 635              	.LBE245:
 636              		.loc 1 224 0
 637 0030 30BC     		pop	{r4, r5}
 638              		.cfi_restore 5
 639              		.cfi_restore 4
 640              		.cfi_def_cfa_offset 0
 641 0032 7047     		bx	lr
 642              		.cfi_endproc
 643              	.LFE267:
 644              		.size	sduStart, .-sduStart
 645 0034 AFF30080 		.section	.text.sduStop,"ax",%progbits
 645      AFF30080 
 645      AFF30080 
 646              		.align	2
 647              		.p2align 4,,15
 648              		.global	sduStop
 649              		.thumb
 650              		.thumb_func
 651              		.type	sduStop, %function
 652              	sduStop:
 653              	.LFB268:
 654              		.loc 1 235 0
 655              		.cfi_startproc
 656              		@ args = 0, pretend = 0, frame = 0
 657              		@ frame_needed = 0, uses_anonymous_args = 0
 658              	.LVL61:
 659              		.loc 1 236 0
 660 0000 D0F85432 		ldr	r3, [r0, #596]
 661              		.loc 1 235 0
 662 0004 70B5     		push	{r4, r5, r6, lr}
 663              		.cfi_def_cfa_offset 16
 664              		.cfi_offset 4, -16
 665              		.cfi_offset 5, -12
 666              		.cfi_offset 6, -8
 667              		.cfi_offset 14, -4
ARM GAS  /tmp/ccXUYVVH.s 			page 13


 668              	.LBB246:
 669              	.LBB247:
 670              	.LBB248:
 671              	.LBB249:
 672              	.LBB250:
 673              		.loc 3 546 0
 674 0006 2022     		movs	r2, #32
 675              	.LBE250:
 676              	.LBE249:
 677              	.LBE248:
 678              	.LBE247:
 679              	.LBE246:
 680              		.loc 1 235 0
 681 0008 0446     		mov	r4, r0
 682              		.loc 1 236 0
 683 000a 1B68     		ldr	r3, [r3]
 684              	.LVL62:
 685              	.LBB255:
 686              	.LBB254:
 687              	.LBB253:
 688              	.LBB252:
 689              	.LBB251:
 690              		.loc 3 546 0
 691              	@ 546 "../ChibiOS/os/ext/CMSIS/include/core_cmFunc.h" 1
 692 000c 82F31188 		MSR basepri, r2
 693              	@ 0 "" 2
 694              		.thumb
 695              	.LBE251:
 696              	.LBE252:
 697              	.LBE253:
 698              	.LBE254:
 699              	.LBE255:
 700              		.loc 1 246 0
 701 0010 D0F85412 		ldr	r1, [r0, #596]
 702 0014 0A79     		ldrb	r2, [r1, #4]	@ zero_extendqisi2
 703 0016 0932     		adds	r2, r2, #9
 704 0018 03EB8202 		add	r2, r3, r2, lsl #2
 705 001c 0025     		movs	r5, #0
 706 001e 5560     		str	r5, [r2, #4]
 707              		.loc 1 247 0
 708 0020 4A79     		ldrb	r2, [r1, #5]	@ zero_extendqisi2
 709 0022 1132     		adds	r2, r2, #17
 710              		.loc 1 249 0
 711 0024 0126     		movs	r6, #1
 712              		.loc 1 247 0
 713 0026 43F82250 		str	r5, [r3, r2, lsl #2]
 714              		.loc 1 248 0
 715 002a 8A79     		ldrb	r2, [r1, #6]	@ zero_extendqisi2
 716 002c 0932     		adds	r2, r2, #9
 717 002e 03EB8203 		add	r3, r3, r2, lsl #2
 718              	.LVL63:
 719              	.LBB256:
 720              	.LBB257:
 721              		.file 5 "../ChibiOS/os/hal/osal/rt/osal.h"
 722              		.loc 5 776 0
 723 0032 0221     		movs	r1, #2
 724              	.LBE257:
ARM GAS  /tmp/ccXUYVVH.s 			page 14


 725              	.LBE256:
 726              		.loc 1 248 0
 727 0034 5D60     		str	r5, [r3, #4]
 728              	.LBB260:
 729              	.LBB258:
 730              		.loc 5 776 0
 731 0036 0430     		adds	r0, r0, #4
 732              	.LVL64:
 733              	.LBE258:
 734              	.LBE260:
 735              		.loc 1 249 0
 736 0038 2672     		strb	r6, [r4, #8]
 737              	.LVL65:
 738              	.LBB261:
 739              	.LBB259:
 740              		.loc 5 776 0
 741 003a FFF7FEFF 		bl	chEvtBroadcastFlagsI
 742              	.LVL66:
 743              	.LBE259:
 744              	.LBE261:
 745              		.loc 1 253 0
 746 003e 04F10C00 		add	r0, r4, #12
 747 0042 FFF7FEFF 		bl	chIQResetI
 748              	.LVL67:
 749              		.loc 1 254 0
 750 0046 04F13000 		add	r0, r4, #48
 751 004a FFF7FEFF 		bl	chIQResetI
 752              	.LVL68:
 753              	.LBB262:
 754              	.LBB263:
 755              		.loc 5 532 0
 756 004e FFF7FEFF 		bl	chSchRescheduleS
 757              	.LVL69:
 758              	.LBE263:
 759              	.LBE262:
 760              	.LBB264:
 761              	.LBB265:
 762              	.LBB266:
 763              	.LBB267:
 764              	.LBB268:
 765              	.LBB269:
 766              		.loc 3 546 0
 767              	@ 546 "../ChibiOS/os/ext/CMSIS/include/core_cmFunc.h" 1
 768 0052 85F31188 		MSR basepri, r5
 769              	@ 0 "" 2
 770              		.thumb
 771 0056 70BD     		pop	{r4, r5, r6, pc}
 772              	.LBE269:
 773              	.LBE268:
 774              	.LBE267:
 775              	.LBE266:
 776              	.LBE265:
 777              	.LBE264:
 778              		.cfi_endproc
 779              	.LFE268:
 780              		.size	sduStop, .-sduStop
 781 0058 AFF30080 		.section	.text.sduConfigureHookI,"ax",%progbits
ARM GAS  /tmp/ccXUYVVH.s 			page 15


 781      AFF30080 
 782              		.align	2
 783              		.p2align 4,,15
 784              		.global	sduConfigureHookI
 785              		.thumb
 786              		.thumb_func
 787              		.type	sduConfigureHookI, %function
 788              	sduConfigureHookI:
 789              	.LFB269:
 790              		.loc 1 267 0
 791              		.cfi_startproc
 792              		@ args = 0, pretend = 0, frame = 0
 793              		@ frame_needed = 0, uses_anonymous_args = 0
 794              	.LVL70:
 795 0000 70B5     		push	{r4, r5, r6, lr}
 796              		.cfi_def_cfa_offset 16
 797              		.cfi_offset 4, -16
 798              		.cfi_offset 5, -12
 799              		.cfi_offset 6, -8
 800              		.cfi_offset 14, -4
 801              		.loc 1 268 0
 802 0002 D0F85432 		ldr	r3, [r0, #596]
 803              		.loc 1 270 0
 804 0006 00F10C06 		add	r6, r0, #12
 805              		.loc 1 267 0
 806 000a 0446     		mov	r4, r0
 807              		.loc 1 270 0
 808 000c 3046     		mov	r0, r6
 809              	.LVL71:
 810              		.loc 1 268 0
 811 000e 1D68     		ldr	r5, [r3]
 812              	.LVL72:
 813              		.loc 1 270 0
 814 0010 FFF7FEFF 		bl	chIQResetI
 815              	.LVL73:
 816              		.loc 1 271 0
 817 0014 04F13000 		add	r0, r4, #48
 818 0018 FFF7FEFF 		bl	chOQResetI
 819              	.LVL74:
 820              	.LBB270:
 821              	.LBB271:
 822              		.loc 5 776 0
 823 001c 201D     		adds	r0, r4, #4
 824              	.LVL75:
 825 001e 0121     		movs	r1, #1
 826 0020 FFF7FEFF 		bl	chEvtBroadcastFlagsI
 827              	.LVL76:
 828              	.LBE271:
 829              	.LBE270:
 830              		.loc 1 276 0
 831 0024 D4F85432 		ldr	r3, [r4, #596]
 832 0028 5979     		ldrb	r1, [r3, #5]	@ zero_extendqisi2
 833 002a 05EB8103 		add	r3, r5, r1, lsl #2
 834              		.loc 1 275 0
 835 002e 2846     		mov	r0, r5
 836              		.loc 1 276 0
 837 0030 DB68     		ldr	r3, [r3, #12]
ARM GAS  /tmp/ccXUYVVH.s 			page 16


 838              		.loc 1 275 0
 839 0032 3246     		mov	r2, r6
 840 0034 5B8A     		ldrh	r3, [r3, #18]
 841 0036 FFF7FEFF 		bl	usbPrepareQueuedReceive
 842              	.LVL77:
 843              		.loc 1 277 0
 844 003a D4F85432 		ldr	r3, [r4, #596]
 845 003e 2846     		mov	r0, r5
 846 0040 5979     		ldrb	r1, [r3, #5]	@ zero_extendqisi2
 847              		.loc 1 278 0
 848 0042 BDE87040 		pop	{r4, r5, r6, lr}
 849              		.cfi_restore 14
 850              		.cfi_restore 6
 851              		.cfi_restore 5
 852              		.cfi_restore 4
 853              		.cfi_def_cfa_offset 0
 854              	.LVL78:
 855              		.loc 1 277 0
 856 0046 FFF7FEBF 		b	usbStartReceiveI
 857              	.LVL79:
 858              		.cfi_endproc
 859              	.LFE269:
 860              		.size	sduConfigureHookI, .-sduConfigureHookI
 861 004a 00BFAFF3 		.section	.text.sduRequestsHook,"ax",%progbits
 861      0080
 862              		.align	2
 863              		.p2align 4,,15
 864              		.global	sduRequestsHook
 865              		.thumb
 866              		.thumb_func
 867              		.type	sduRequestsHook, %function
 868              	sduRequestsHook:
 869              	.LFB270:
 870              		.loc 1 295 0
 871              		.cfi_startproc
 872              		@ args = 0, pretend = 0, frame = 0
 873              		@ frame_needed = 0, uses_anonymous_args = 0
 874              		@ link register save eliminated.
 875              	.LVL80:
 876              		.loc 1 297 0
 877 0000 90F87430 		ldrb	r3, [r0, #116]	@ zero_extendqisi2
 878 0004 03F06003 		and	r3, r3, #96
 879 0008 202B     		cmp	r3, #32
 880 000a 01D0     		beq	.L40
 881              	.L39:
 882              		.loc 1 310 0
 883 000c 0020     		movs	r0, #0
 884              	.LVL81:
 885              		.loc 1 314 0
 886 000e 7047     		bx	lr
 887              	.LVL82:
 888              	.L40:
 889              		.loc 1 298 0
 890 0010 90F87530 		ldrb	r3, [r0, #117]	@ zero_extendqisi2
 891 0014 212B     		cmp	r3, #33
 892 0016 03D0     		beq	.L36
 893 0018 222B     		cmp	r3, #34
ARM GAS  /tmp/ccXUYVVH.s 			page 17


 894 001a 09D0     		beq	.L35
 895 001c 202B     		cmp	r3, #32
 896 001e F5D1     		bne	.L39
 897              	.L36:
 898              		.loc 1 303 0
 899 0020 064B     		ldr	r3, .L41
 900 0022 8366     		str	r3, [r0, #104]
 901 0024 0722     		movs	r2, #7
 902 0026 0023     		movs	r3, #0
 903 0028 C266     		str	r2, [r0, #108]
 904 002a 0367     		str	r3, [r0, #112]
 905              		.loc 1 304 0
 906 002c 0120     		movs	r0, #1
 907              	.LVL83:
 908 002e 7047     		bx	lr
 909              	.LVL84:
 910              	.L35:
 911              		.loc 1 307 0
 912 0030 0023     		movs	r3, #0
 913 0032 8366     		str	r3, [r0, #104]
 914 0034 C366     		str	r3, [r0, #108]
 915 0036 0367     		str	r3, [r0, #112]
 916              		.loc 1 308 0
 917 0038 0120     		movs	r0, #1
 918              	.LVL85:
 919 003a 7047     		bx	lr
 920              	.L42:
 921              		.align	2
 922              	.L41:
 923 003c 00000000 		.word	.LANCHOR1
 924              		.cfi_endproc
 925              	.LFE270:
 926              		.size	sduRequestsHook, .-sduRequestsHook
 927              		.section	.text.sduDataTransmitted,"ax",%progbits
 928              		.align	2
 929              		.p2align 4,,15
 930              		.global	sduDataTransmitted
 931              		.thumb
 932              		.thumb_func
 933              		.type	sduDataTransmitted, %function
 934              	sduDataTransmitted:
 935              	.LFB271:
 936              		.loc 1 324 0
 937              		.cfi_startproc
 938              		@ args = 0, pretend = 0, frame = 0
 939              		@ frame_needed = 0, uses_anonymous_args = 0
 940              	.LVL86:
 941 0000 2DE9F041 		push	{r4, r5, r6, r7, r8, lr}
 942              		.cfi_def_cfa_offset 24
 943              		.cfi_offset 4, -24
 944              		.cfi_offset 5, -20
 945              		.cfi_offset 6, -16
 946              		.cfi_offset 7, -12
 947              		.cfi_offset 8, -8
 948              		.cfi_offset 14, -4
 949 0004 00EB8107 		add	r7, r0, r1, lsl #2
 950              		.loc 1 326 0
ARM GAS  /tmp/ccXUYVVH.s 			page 18


 951 0008 BC6A     		ldr	r4, [r7, #40]
 952              	.LVL87:
 953              		.loc 1 328 0
 954 000a B4B1     		cbz	r4, .L43
 955              	.LVL88:
 956 000c 0E46     		mov	r6, r1
 957 000e 0546     		mov	r5, r0
 958              	.LBB272:
 959              	.LBB273:
 960              	.LBB274:
 961              	.LBB275:
 962              	.LBB276:
 963              	.LBB277:
 964              		.loc 3 546 0
 965 0010 4FF02008 		mov	r8, #32
 966              	@ 546 "../ChibiOS/os/ext/CMSIS/include/core_cmFunc.h" 1
 967 0014 88F31188 		MSR basepri, r8
 968              	@ 0 "" 2
 969              	.LVL89:
 970              		.thumb
 971              	.LBE277:
 972              	.LBE276:
 973              	.LBE275:
 974              	.LBE274:
 975              	.LBE273:
 976              	.LBE272:
 977              	.LBB278:
 978              	.LBB279:
 979              		.loc 5 776 0
 980 0018 0821     		movs	r1, #8
 981              	.LVL90:
 982 001a 201D     		adds	r0, r4, #4
 983              	.LVL91:
 984 001c FFF7FEFF 		bl	chEvtBroadcastFlagsI
 985              	.LVL92:
 986              	.LBE279:
 987              	.LBE278:
 988              	.LBB280:
 989              	.LBB281:
 990              		.loc 2 354 0
 991 0020 226C     		ldr	r2, [r4, #64]
 992 0022 E36B     		ldr	r3, [r4, #60]
 993 0024 A16B     		ldr	r1, [r4, #56]
 994 0026 D31A     		subs	r3, r2, r3
 995              	.LBE281:
 996              	.LBE280:
 997              		.loc 1 334 0
 998 0028 5B1A     		subs	r3, r3, r1
 999 002a 0FD1     		bne	.L55
 1000              		.loc 1 344 0
 1001 002c FB68     		ldr	r3, [r7, #12]
 1002 002e 5A69     		ldr	r2, [r3, #20]
 1003 0030 5268     		ldr	r2, [r2, #4]
 1004 0032 22B9     		cbnz	r2, .L56
 1005              	.L46:
 1006              	.LVL93:
 1007              	.LBB282:
ARM GAS  /tmp/ccXUYVVH.s 			page 19


 1008              	.LBB283:
 1009              	.LBB284:
 1010              	.LBB285:
 1011              	.LBB286:
 1012              	.LBB287:
 1013              		.loc 3 546 0
 1014 0034 0023     		movs	r3, #0
 1015              	@ 546 "../ChibiOS/os/ext/CMSIS/include/core_cmFunc.h" 1
 1016 0036 83F31188 		MSR basepri, r3
 1017              	@ 0 "" 2
 1018              	.LVL94:
 1019              		.thumb
 1020              	.L43:
 1021 003a BDE8F081 		pop	{r4, r5, r6, r7, r8, pc}
 1022              	.LVL95:
 1023              	.L56:
 1024              	.LBE287:
 1025              	.LBE286:
 1026              	.LBE285:
 1027              	.LBE284:
 1028              	.LBE283:
 1029              	.LBE282:
 1030              		.loc 1 346 0 discriminator 1
 1031 003e 1B8A     		ldrh	r3, [r3, #16]
 1032 0040 013B     		subs	r3, r3, #1
 1033              		.loc 1 344 0 discriminator 1
 1034 0042 1340     		ands	r3, r3, r2
 1035 0044 F6D1     		bne	.L46
 1036              	.LVL96:
 1037              	.LBB288:
 1038              	.LBB289:
 1039              	.LBB290:
 1040              	.LBB291:
 1041              	.LBB292:
 1042              	.LBB293:
 1043              		.loc 3 546 0
 1044              	@ 546 "../ChibiOS/os/ext/CMSIS/include/core_cmFunc.h" 1
 1045 0046 83F31188 		MSR basepri, r3
 1046              	@ 0 "" 2
 1047              		.thumb
 1048 004a 02E0     		b	.L54
 1049              	.LVL97:
 1050              	.L55:
 1051              	.LBE293:
 1052              	.LBE292:
 1053              	.LBE291:
 1054              	.LBE290:
 1055              	.LBE289:
 1056              	.LBE288:
 1057              	.LBB294:
 1058              	.LBB295:
 1059              	.LBB296:
 1060              	.LBB297:
 1061              	.LBB298:
 1062              	.LBB299:
 1063 004c 0022     		movs	r2, #0
 1064              	@ 546 "../ChibiOS/os/ext/CMSIS/include/core_cmFunc.h" 1
ARM GAS  /tmp/ccXUYVVH.s 			page 20


 1065 004e 82F31188 		MSR basepri, r2
 1066              	@ 0 "" 2
 1067              	.LVL98:
 1068              		.thumb
 1069              	.L54:
 1070              	.LBE299:
 1071              	.LBE298:
 1072              	.LBE297:
 1073              	.LBE296:
 1074              	.LBE295:
 1075              	.LBE294:
 1076              		.loc 1 353 0
 1077 0052 04F13002 		add	r2, r4, #48
 1078 0056 2846     		mov	r0, r5
 1079 0058 3146     		mov	r1, r6
 1080 005a FFF7FEFF 		bl	usbPrepareQueuedTransmit
 1081              	.LVL99:
 1082              	.LBB300:
 1083              	.LBB301:
 1084              	.LBB302:
 1085              	.LBB303:
 1086              	.LBB304:
 1087              	.LBB305:
 1088              		.loc 3 546 0
 1089              	@ 546 "../ChibiOS/os/ext/CMSIS/include/core_cmFunc.h" 1
 1090 005e 88F31188 		MSR basepri, r8
 1091              	@ 0 "" 2
 1092              		.thumb
 1093              	.LBE305:
 1094              	.LBE304:
 1095              	.LBE303:
 1096              	.LBE302:
 1097              	.LBE301:
 1098              	.LBE300:
 1099              		.loc 1 356 0
 1100 0062 2846     		mov	r0, r5
 1101 0064 3146     		mov	r1, r6
 1102 0066 FFF7FEFF 		bl	usbStartTransmitI
 1103              	.LVL100:
 1104 006a E3E7     		b	.L46
 1105              		.cfi_endproc
 1106              	.LFE271:
 1107              		.size	sduDataTransmitted, .-sduDataTransmitted
 1108 006c AFF30080 		.section	.text.sduDataReceived,"ax",%progbits
 1109              		.align	2
 1110              		.p2align 4,,15
 1111              		.global	sduDataReceived
 1112              		.thumb
 1113              		.thumb_func
 1114              		.type	sduDataReceived, %function
 1115              	sduDataReceived:
 1116              	.LFB272:
 1117              		.loc 1 370 0
 1118              		.cfi_startproc
 1119              		@ args = 0, pretend = 0, frame = 0
 1120              		@ frame_needed = 0, uses_anonymous_args = 0
 1121              	.LVL101:
ARM GAS  /tmp/ccXUYVVH.s 			page 21


 1122 0000 2DE9F843 		push	{r3, r4, r5, r6, r7, r8, r9, lr}
 1123              		.cfi_def_cfa_offset 32
 1124              		.cfi_offset 3, -32
 1125              		.cfi_offset 4, -28
 1126              		.cfi_offset 5, -24
 1127              		.cfi_offset 6, -20
 1128              		.cfi_offset 7, -16
 1129              		.cfi_offset 8, -12
 1130              		.cfi_offset 9, -8
 1131              		.cfi_offset 14, -4
 1132 0004 00EB8104 		add	r4, r0, r1, lsl #2
 1133              		.loc 1 372 0
 1134 0008 666C     		ldr	r6, [r4, #68]
 1135              	.LVL102:
 1136              		.loc 1 374 0
 1137 000a AEB1     		cbz	r6, .L57
 1138              	.LVL103:
 1139 000c 0F46     		mov	r7, r1
 1140 000e 8046     		mov	r8, r0
 1141              	.LBB306:
 1142              	.LBB307:
 1143              	.LBB308:
 1144              	.LBB309:
 1145              	.LBB310:
 1146              	.LBB311:
 1147              		.loc 3 546 0
 1148 0010 4FF02009 		mov	r9, #32
 1149              	@ 546 "../ChibiOS/os/ext/CMSIS/include/core_cmFunc.h" 1
 1150 0014 89F31188 		MSR basepri, r9
 1151              	@ 0 "" 2
 1152              	.LVL104:
 1153              		.thumb
 1154              	.LBE311:
 1155              	.LBE310:
 1156              	.LBE309:
 1157              	.LBE308:
 1158              	.LBE307:
 1159              	.LBE306:
 1160              	.LBB312:
 1161              	.LBB313:
 1162              		.loc 5 776 0
 1163 0018 0421     		movs	r1, #4
 1164              	.LVL105:
 1165 001a 7018     		adds	r0, r6, r1
 1166              	.LVL106:
 1167 001c FFF7FEFF 		bl	chEvtBroadcastFlagsI
 1168              	.LVL107:
 1169              	.LBE313:
 1170              	.LBE312:
 1171              	.LBB314:
 1172              	.LBB315:
 1173              		.loc 2 287 0
 1174 0020 06F11403 		add	r3, r6, #20
 1175              	.LBE315:
 1176              	.LBE314:
 1177              		.loc 1 382 0
 1178 0024 E268     		ldr	r2, [r4, #12]
ARM GAS  /tmp/ccXUYVVH.s 			page 22


 1179              	.LBB318:
 1180              	.LBB316:
 1181              		.loc 2 287 0
 1182 0026 38CB     		ldmia	r3, {r3, r4, r5}
 1183              	.LBE316:
 1184              	.LBE318:
 1185              		.loc 1 382 0
 1186 0028 518A     		ldrh	r1, [r2, #18]
 1187              	.LVL108:
 1188              	.LBB319:
 1189              	.LBB317:
 1190              		.loc 2 287 0
 1191 002a 2D1B     		subs	r5, r5, r4
 1192 002c EC1A     		subs	r4, r5, r3
 1193              	.LBE317:
 1194              	.LBE319:
 1195              		.loc 1 383 0
 1196 002e A142     		cmp	r1, r4
 1197 0030 04D9     		bls	.L64
 1198              	.LVL109:
 1199              	.L59:
 1200              	.LBB320:
 1201              	.LBB321:
 1202              	.LBB322:
 1203              	.LBB323:
 1204              	.LBB324:
 1205              	.LBB325:
 1206              		.loc 3 546 0
 1207 0032 0023     		movs	r3, #0
 1208              	@ 546 "../ChibiOS/os/ext/CMSIS/include/core_cmFunc.h" 1
 1209 0034 83F31188 		MSR basepri, r3
 1210              	@ 0 "" 2
 1211              	.LVL110:
 1212              		.thumb
 1213              	.L57:
 1214 0038 BDE8F883 		pop	{r3, r4, r5, r6, r7, r8, r9, pc}
 1215              	.LVL111:
 1216              	.L64:
 1217              	.LBE325:
 1218              	.LBE324:
 1219              	.LBE323:
 1220              	.LBE322:
 1221              	.LBE321:
 1222              	.LBE320:
 1223              	.LBB326:
 1224              	.LBB327:
 1225              	.LBB328:
 1226              	.LBB329:
 1227              	.LBB330:
 1228              	.LBB331:
 1229 003c 0023     		movs	r3, #0
 1230              	@ 546 "../ChibiOS/os/ext/CMSIS/include/core_cmFunc.h" 1
 1231 003e 83F31188 		MSR basepri, r3
 1232              	@ 0 "" 2
 1233              	.LVL112:
 1234              		.thumb
 1235              	.LBE331:
ARM GAS  /tmp/ccXUYVVH.s 			page 23


 1236              	.LBE330:
 1237              	.LBE329:
 1238              	.LBE328:
 1239              	.LBE327:
 1240              	.LBE326:
 1241              		.loc 1 388 0
 1242 0042 B4FBF1F3 		udiv	r3, r4, r1
 1243              		.loc 1 389 0
 1244 0046 06F10C02 		add	r2, r6, #12
 1245 004a 01FB03F3 		mul	r3, r1, r3
 1246              	.LVL113:
 1247 004e 4046     		mov	r0, r8
 1248 0050 3946     		mov	r1, r7
 1249              	.LVL114:
 1250 0052 FFF7FEFF 		bl	usbPrepareQueuedReceive
 1251              	.LVL115:
 1252              	.LBB332:
 1253              	.LBB333:
 1254              	.LBB334:
 1255              	.LBB335:
 1256              	.LBB336:
 1257              	.LBB337:
 1258              		.loc 3 546 0
 1259              	@ 546 "../ChibiOS/os/ext/CMSIS/include/core_cmFunc.h" 1
 1260 0056 89F31188 		MSR basepri, r9
 1261              	@ 0 "" 2
 1262              		.thumb
 1263              	.LBE337:
 1264              	.LBE336:
 1265              	.LBE335:
 1266              	.LBE334:
 1267              	.LBE333:
 1268              	.LBE332:
 1269              		.loc 1 392 0
 1270 005a 4046     		mov	r0, r8
 1271 005c 3946     		mov	r1, r7
 1272 005e FFF7FEFF 		bl	usbStartReceiveI
 1273              	.LVL116:
 1274 0062 E6E7     		b	.L59
 1275              		.cfi_endproc
 1276              	.LFE272:
 1277              		.size	sduDataReceived, .-sduDataReceived
 1278 0064 AFF30080 		.section	.text.sduInterruptTransmitted,"ax",%progbits
 1278      AFF30080 
 1278      AFF30080 
 1279              		.align	2
 1280              		.p2align 4,,15
 1281              		.global	sduInterruptTransmitted
 1282              		.thumb
 1283              		.thumb_func
 1284              		.type	sduInterruptTransmitted, %function
 1285              	sduInterruptTransmitted:
 1286              	.LFB273:
 1287              		.loc 1 406 0
 1288              		.cfi_startproc
 1289              		@ args = 0, pretend = 0, frame = 0
 1290              		@ frame_needed = 0, uses_anonymous_args = 0
ARM GAS  /tmp/ccXUYVVH.s 			page 24


 1291              		@ link register save eliminated.
 1292              	.LVL117:
 1293 0000 7047     		bx	lr
 1294              		.cfi_endproc
 1295              	.LFE273:
 1296              		.size	sduInterruptTransmitted, .-sduInterruptTransmitted
 1297 0002 00BFAFF3 		.section	.rodata.vmt,"a",%progbits
 1297      0080AFF3 
 1297      0080AFF3 
 1297      0080
 1298              		.align	2
 1299              		.set	.LANCHOR0,. + 0
 1300              		.type	vmt, %object
 1301              		.size	vmt, 32
 1302              	vmt:
 1303 0000 00000000 		.word	write
 1304 0004 00000000 		.word	read
 1305 0008 00000000 		.word	put
 1306 000c 00000000 		.word	get
 1307 0010 00000000 		.word	putt
 1308 0014 00000000 		.word	gett
 1309 0018 00000000 		.word	writet
 1310 001c 00000000 		.word	readt
 1311              		.section	.data.linecoding,"aw",%progbits
 1312              		.align	2
 1313              		.set	.LANCHOR1,. + 0
 1314              		.type	linecoding, %object
 1315              		.size	linecoding, 7
 1316              	linecoding:
 1317 0000 00       		.byte	0
 1318 0001 96       		.byte	-106
 1319 0002 00       		.byte	0
 1320 0003 00       		.byte	0
 1321 0004 00       		.byte	0
 1322 0005 00       		.byte	0
 1323 0006 08       		.byte	8
 1324 0007 00       		.text
 1325              	.Letext0:
 1326              		.file 6 "/l/arm2/gcc-arm-none-eabi-4_9-2014q4/lib/gcc/arm-none-eabi/4.9.3/include/stddef.h"
 1327              		.file 7 "/l/arm2/gcc-arm-none-eabi-4_9-2014q4/arm-none-eabi/include/machine/_default_types.h"
 1328              		.file 8 "/l/arm2/gcc-arm-none-eabi-4_9-2014q4/arm-none-eabi/include/stdint.h"
 1329              		.file 9 "../ChibiOS/os/rt/ports/ARMCMx/compilers/GCC/chtypes.h"
 1330              		.file 10 "../ChibiOS/os/rt/include/chsystypes.h"
 1331              		.file 11 "../ChibiOS/os/rt/include/chschd.h"
 1332              		.file 12 "../ChibiOS/os/rt/ports/ARMCMx/chcore.h"
 1333              		.file 13 "../ChibiOS/os/rt/ports/ARMCMx/chcore_v7m.h"
 1334              		.file 14 "../ChibiOS/os/rt/include/chtm.h"
 1335              		.file 15 "../ChibiOS/os/rt/include/chmtx.h"
 1336              		.file 16 "../ChibiOS/os/hal/include/usb.h"
 1337              		.file 17 "../ChibiOS/os/hal/ports/STM32/LLD/USBv1/usb_lld.h"
 1338              		.file 18 "../ChibiOS/os/hal/include/serial_usb.h"
 1339              		.file 19 "../ChibiOS/os/rt/include/chsys.h"
 1340              		.file 20 "../ChibiOS/os/ext/CMSIS/include/core_cm4.h"