ARM GAS  /tmp/cc49awR3.s 			page 1


   1              		.syntax unified
   2              		.cpu cortex-m4
   3              		.eabi_attribute 27, 3
   4              		.eabi_attribute 28, 1
   5              		.fpu fpv4-sp-d16
   6              		.eabi_attribute 20, 1
   7              		.eabi_attribute 21, 1
   8              		.eabi_attribute 23, 3
   9              		.eabi_attribute 24, 1
  10              		.eabi_attribute 25, 1
  11              		.eabi_attribute 26, 1
  12              		.eabi_attribute 30, 2
  13              		.eabi_attribute 34, 1
  14              		.eabi_attribute 18, 4
  15              		.thumb
  16              		.file	"serial_lld.c"
  17              		.text
  18              	.Ltext0:
  19              		.cfi_sections	.debug_frame
  20              		.section	.text.notify1,"ax",%progbits
  21              		.align	2
  22              		.p2align 4,,15
  23              		.thumb
  24              		.thumb_func
  25              		.type	notify1, %function
  26              	notify1:
  27              	.LFB259:
  28              		.file 1 "../ChibiOS/os/hal/ports/STM32/LLD/USARTv2/serial_lld.c"
  29              		.loc 1 198 0
  30              		.cfi_startproc
  31              		@ args = 0, pretend = 0, frame = 0
  32              		@ frame_needed = 0, uses_anonymous_args = 0
  33              		@ link register save eliminated.
  34              	.LVL0:
  35              		.loc 1 201 0
  36 0000 024A     		ldr	r2, .L2
  37 0002 1368     		ldr	r3, [r2]
  38 0004 43F08003 		orr	r3, r3, #128
  39 0008 1360     		str	r3, [r2]
  40 000a 7047     		bx	lr
  41              	.L3:
  42              		.align	2
  43              	.L2:
  44 000c 00380140 		.word	1073821696
  45              		.cfi_endproc
  46              	.LFE259:
  47              		.size	notify1, .-notify1
  48              		.section	.text.VectorD4,"ax",%progbits
  49              		.align	2
  50              		.p2align 4,,15
  51              		.global	VectorD4
  52              		.thumb
  53              		.thumb_func
  54              		.type	VectorD4, %function
  55              	VectorD4:
  56              	.LFB260:
  57              		.loc 1 258 0
ARM GAS  /tmp/cc49awR3.s 			page 2


  58              		.cfi_startproc
  59              		@ args = 0, pretend = 0, frame = 0
  60              		@ frame_needed = 0, uses_anonymous_args = 0
  61              	.LVL1:
  62 0000 F8B5     		push	{r3, r4, r5, r6, r7, lr}
  63              		.cfi_def_cfa_offset 24
  64              		.cfi_offset 3, -24
  65              		.cfi_offset 4, -20
  66              		.cfi_offset 5, -16
  67              		.cfi_offset 6, -12
  68              		.cfi_offset 7, -8
  69              		.cfi_offset 14, -4
  70              	.LBB267:
  71              	.LBB268:
  72              		.loc 1 147 0
  73 0002 3B4F     		ldr	r7, .L54
  74 0004 7D6F     		ldr	r5, [r7, #116]
  75              	.LVL2:
  76              		.loc 1 148 0
  77 0006 2E68     		ldr	r6, [r5]
  78              	.LVL3:
  79              		.loc 1 152 0
  80 0008 EC69     		ldr	r4, [r5, #28]
  81              	.LVL4:
  82              		.loc 1 153 0
  83 000a 2C62     		str	r4, [r5, #32]
  84              		.loc 1 156 0
  85 000c 2207     		lsls	r2, r4, #28
  86 000e 33D1     		bne	.L48
  87              	.L5:
  88              		.loc 1 160 0
  89 0010 E305     		lsls	r3, r4, #23
  90 0012 25D4     		bmi	.L49
  91              	.L10:
  92              		.loc 1 167 0
  93 0014 A006     		lsls	r0, r4, #26
  94 0016 17D4     		bmi	.L50
  95              	.L11:
  96              		.loc 1 174 0
  97 0018 3106     		lsls	r1, r6, #24
  98 001a 01D5     		bpl	.L12
  99 001c 2206     		lsls	r2, r4, #24
 100 001e 46D4     		bmi	.L51
 101              	.L12:
 102              		.loc 1 188 0
 103 0020 6306     		lsls	r3, r4, #25
 104 0022 0DD5     		bpl	.L15
 105              	.LVL5:
 106              	.LBB269:
 107              	.LBB270:
 108              	.LBB271:
 109              	.LBB272:
 110              	.LBB273:
 111              	.LBB274:
 112              		.file 2 "../ChibiOS/os/ext/CMSIS/include/core_cmFunc.h"
 113              		.loc 2 546 0
 114 0024 2023     		movs	r3, #32
ARM GAS  /tmp/cc49awR3.s 			page 3


 115              	@ 546 "../ChibiOS/os/ext/CMSIS/include/core_cmFunc.h" 1
 116 0026 83F31188 		MSR basepri, r3
 117              	@ 0 "" 2
 118              	.LVL6:
 119              		.thumb
 120              	.LBE274:
 121              	.LBE273:
 122              	.LBE272:
 123              	.LBE271:
 124              	.LBE270:
 125              	.LBE269:
 126              	.LBB275:
 127              	.LBB276:
 128              		.file 3 "../ChibiOS/os/rt/include/chqueues.h"
 129              		.loc 3 387 0
 130 002a 7A6C     		ldr	r2, [r7, #68]
 131 002c BB6C     		ldr	r3, [r7, #72]
 132 002e 3048     		ldr	r0, .L54
 133 0030 9A42     		cmp	r2, r3
 134 0032 4AD0     		beq	.L52
 135              	.L16:
 136              	.LBE276:
 137              	.LBE275:
 138              		.loc 1 192 0
 139 0034 26F04006 		bic	r6, r6, #64
 140              	.LVL7:
 141 0038 2E60     		str	r6, [r5]
 142              	.LVL8:
 143              	.LBB278:
 144              	.LBB279:
 145              	.LBB280:
 146              	.LBB281:
 147              	.LBB282:
 148              	.LBB283:
 149              		.loc 2 546 0
 150 003a 0023     		movs	r3, #0
 151              	@ 546 "../ChibiOS/os/ext/CMSIS/include/core_cmFunc.h" 1
 152 003c 83F31188 		MSR basepri, r3
 153              	@ 0 "" 2
 154              	.LVL9:
 155              		.thumb
 156              	.L15:
 157              	.LBE283:
 158              	.LBE282:
 159              	.LBE281:
 160              	.LBE280:
 161              	.LBE279:
 162              	.LBE278:
 163              	.LBE268:
 164              	.LBE267:
 165              		.loc 1 265 0
 166 0040 BDE8F840 		pop	{r3, r4, r5, r6, r7, lr}
 167              		.cfi_remember_state
 168              		.cfi_restore 14
 169              		.cfi_restore 7
 170              		.cfi_restore 6
 171              		.cfi_restore 5
ARM GAS  /tmp/cc49awR3.s 			page 4


 172              		.cfi_restore 4
 173              		.cfi_restore 3
 174              		.cfi_def_cfa_offset 0
 175              	.LVL10:
 176              		.loc 1 264 0
 177 0044 FFF7FEBF 		b	_port_irq_epilogue
 178              	.LVL11:
 179              	.L50:
 180              		.cfi_restore_state
 181              	.LBB346:
 182              	.LBB345:
 183              	.LBB284:
 184              	.LBB285:
 185              	.LBB286:
 186              	.LBB287:
 187              	.LBB288:
 188              	.LBB289:
 189              		.loc 2 546 0
 190 0048 2023     		movs	r3, #32
 191              	@ 546 "../ChibiOS/os/ext/CMSIS/include/core_cmFunc.h" 1
 192 004a 83F31188 		MSR basepri, r3
 193              	@ 0 "" 2
 194              		.thumb
 195              	.LBE289:
 196              	.LBE288:
 197              	.LBE287:
 198              	.LBE286:
 199              	.LBE285:
 200              	.LBE284:
 201              		.loc 1 169 0
 202 004e A98C     		ldrh	r1, [r5, #36]
 203 0050 2748     		ldr	r0, .L54
 204 0052 C9B2     		uxtb	r1, r1
 205 0054 FFF7FEFF 		bl	sdIncomingDataI
 206              	.LVL12:
 207              	.LBB290:
 208              	.LBB291:
 209              	.LBB292:
 210              	.LBB293:
 211              	.LBB294:
 212              	.LBB295:
 213              		.loc 2 546 0
 214 0058 0023     		movs	r3, #0
 215              	@ 546 "../ChibiOS/os/ext/CMSIS/include/core_cmFunc.h" 1
 216 005a 83F31188 		MSR basepri, r3
 217              	@ 0 "" 2
 218              		.thumb
 219 005e DBE7     		b	.L11
 220              	.LVL13:
 221              	.L49:
 222              	.LBE295:
 223              	.LBE294:
 224              	.LBE293:
 225              	.LBE292:
 226              	.LBE291:
 227              	.LBE290:
 228              	.LBB296:
ARM GAS  /tmp/cc49awR3.s 			page 5


 229              	.LBB297:
 230              	.LBB298:
 231              	.LBB299:
 232              	.LBB300:
 233              	.LBB301:
 234 0060 2023     		movs	r3, #32
 235              	@ 546 "../ChibiOS/os/ext/CMSIS/include/core_cmFunc.h" 1
 236 0062 83F31188 		MSR basepri, r3
 237              	@ 0 "" 2
 238              	.LVL14:
 239              		.thumb
 240              	.LBE301:
 241              	.LBE300:
 242              	.LBE299:
 243              	.LBE298:
 244              	.LBE297:
 245              	.LBE296:
 246              	.LBB302:
 247              	.LBB303:
 248              		.file 4 "../ChibiOS/os/hal/osal/rt/osal.h"
 249              		.loc 4 776 0
 250 0066 2348     		ldr	r0, .L54+4
 251 0068 4FF40071 		mov	r1, #512
 252 006c FFF7FEFF 		bl	chEvtBroadcastFlagsI
 253              	.LVL15:
 254              	.LBE303:
 255              	.LBE302:
 256              	.LBB304:
 257              	.LBB305:
 258              	.LBB306:
 259              	.LBB307:
 260              	.LBB308:
 261              	.LBB309:
 262              		.loc 2 546 0
 263 0070 0023     		movs	r3, #0
 264              	@ 546 "../ChibiOS/os/ext/CMSIS/include/core_cmFunc.h" 1
 265 0072 83F31188 		MSR basepri, r3
 266              	@ 0 "" 2
 267              		.thumb
 268 0076 CDE7     		b	.L10
 269              	.LVL16:
 270              	.L48:
 271              	.LBE309:
 272              	.LBE308:
 273              	.LBE307:
 274              	.LBE306:
 275              	.LBE305:
 276              	.LBE304:
 277              	.LBB310:
 278              	.LBB311:
 279              		.loc 1 129 0
 280 0078 14F0080F 		tst	r4, #8
 281 007c 0CBF     		ite	eq
 282 007e 0021     		moveq	r1, #0
 283 0080 8021     		movne	r1, #128
 284              	.LVL17:
 285              		.loc 1 130 0
ARM GAS  /tmp/cc49awR3.s 			page 6


 286 0082 E307     		lsls	r3, r4, #31
 287              		.loc 1 131 0
 288 0084 48BF     		it	mi
 289 0086 41F02001 		orrmi	r1, r1, #32
 290              	.LVL18:
 291              		.loc 1 132 0
 292 008a A007     		lsls	r0, r4, #30
 293              		.loc 1 133 0
 294 008c 48BF     		it	mi
 295 008e 41F04001 		orrmi	r1, r1, #64
 296              	.LVL19:
 297              		.loc 1 134 0
 298 0092 6207     		lsls	r2, r4, #29
 299              		.loc 1 135 0
 300 0094 48BF     		it	mi
 301 0096 41F48071 		orrmi	r1, r1, #256
 302              	.LVL20:
 303              	.LBB312:
 304              	.LBB313:
 305              	.LBB314:
 306              	.LBB315:
 307              	.LBB316:
 308              	.LBB317:
 309              		.loc 2 546 0
 310 009a 2023     		movs	r3, #32
 311              	@ 546 "../ChibiOS/os/ext/CMSIS/include/core_cmFunc.h" 1
 312 009c 83F31188 		MSR basepri, r3
 313              	@ 0 "" 2
 314              	.LVL21:
 315              		.thumb
 316              	.LBE317:
 317              	.LBE316:
 318              	.LBE315:
 319              	.LBE314:
 320              	.LBE313:
 321              	.LBE312:
 322              	.LBB318:
 323              	.LBB319:
 324              		.loc 4 776 0
 325 00a0 1448     		ldr	r0, .L54+4
 326 00a2 FFF7FEFF 		bl	chEvtBroadcastFlagsI
 327              	.LVL22:
 328              	.LBE319:
 329              	.LBE318:
 330              	.LBB320:
 331              	.LBB321:
 332              	.LBB322:
 333              	.LBB323:
 334              	.LBB324:
 335              	.LBB325:
 336              		.loc 2 546 0
 337 00a6 0023     		movs	r3, #0
 338              	@ 546 "../ChibiOS/os/ext/CMSIS/include/core_cmFunc.h" 1
 339 00a8 83F31188 		MSR basepri, r3
 340              	@ 0 "" 2
 341              		.thumb
 342 00ac B0E7     		b	.L5
ARM GAS  /tmp/cc49awR3.s 			page 7


 343              	.LVL23:
 344              	.L51:
 345              	.LBE325:
 346              	.LBE324:
 347              	.LBE323:
 348              	.LBE322:
 349              	.LBE321:
 350              	.LBE320:
 351              	.LBE311:
 352              	.LBE310:
 353              	.LBB326:
 354              	.LBB327:
 355              	.LBB328:
 356              	.LBB329:
 357              	.LBB330:
 358              	.LBB331:
 359              	.LBB332:
 360 00ae 2023     		movs	r3, #32
 361              	@ 546 "../ChibiOS/os/ext/CMSIS/include/core_cmFunc.h" 1
 362 00b0 83F31188 		MSR basepri, r3
 363              	@ 0 "" 2
 364              		.thumb
 365              	.LBE332:
 366              	.LBE331:
 367              	.LBE330:
 368              	.LBE329:
 369              	.LBE328:
 370              	.LBE327:
 371              		.loc 1 177 0
 372 00b4 1048     		ldr	r0, .L54+8
 373 00b6 FFF7FEFF 		bl	chOQGetI
 374              	.LVL24:
 375              		.loc 1 178 0
 376 00ba 0028     		cmp	r0, #0
 377 00bc 0DDB     		blt	.L53
 378              		.loc 1 183 0
 379 00be 80B2     		uxth	r0, r0
 380              	.LVL25:
 381 00c0 2885     		strh	r0, [r5, #40]	@ movhi
 382              	.L14:
 383              	.LVL26:
 384              	.LBB333:
 385              	.LBB334:
 386              	.LBB335:
 387              	.LBB336:
 388              	.LBB337:
 389              	.LBB338:
 390              		.loc 2 546 0
 391 00c2 0023     		movs	r3, #0
 392              	@ 546 "../ChibiOS/os/ext/CMSIS/include/core_cmFunc.h" 1
 393 00c4 83F31188 		MSR basepri, r3
 394              	@ 0 "" 2
 395              		.thumb
 396 00c8 AAE7     		b	.L12
 397              	.LVL27:
 398              	.L52:
 399              	.LBE338:
ARM GAS  /tmp/cc49awR3.s 			page 8


 400              	.LBE337:
 401              	.LBE336:
 402              	.LBE335:
 403              	.LBE334:
 404              	.LBE333:
 405              	.LBE326:
 406              	.LBB341:
 407              	.LBB277:
 408              		.loc 3 387 0
 409 00ca 836B     		ldr	r3, [r0, #56]
 410 00cc 002B     		cmp	r3, #0
 411 00ce B1D0     		beq	.L16
 412              	.LVL28:
 413              	.LBE277:
 414              	.LBE341:
 415              	.LBB342:
 416              	.LBB343:
 417              		.loc 4 776 0
 418 00d0 0430     		adds	r0, r0, #4
 419 00d2 1021     		movs	r1, #16
 420 00d4 FFF7FEFF 		bl	chEvtBroadcastFlagsI
 421              	.LVL29:
 422 00d8 ACE7     		b	.L16
 423              	.LVL30:
 424              	.L53:
 425              	.LBE343:
 426              	.LBE342:
 427              	.LBB344:
 428              	.LBB339:
 429              	.LBB340:
 430 00da 0648     		ldr	r0, .L54+4
 431              	.LVL31:
 432 00dc 0821     		movs	r1, #8
 433 00de FFF7FEFF 		bl	chEvtBroadcastFlagsI
 434              	.LVL32:
 435              	.LBE340:
 436              	.LBE339:
 437              		.loc 1 180 0
 438 00e2 26F0C003 		bic	r3, r6, #192
 439 00e6 43F04003 		orr	r3, r3, #64
 440 00ea 2B60     		str	r3, [r5]
 441 00ec E9E7     		b	.L14
 442              	.L55:
 443 00ee 00BF     		.align	2
 444              	.L54:
 445 00f0 00000000 		.word	.LANCHOR0
 446 00f4 04000000 		.word	.LANCHOR0+4
 447 00f8 30000000 		.word	.LANCHOR0+48
 448              	.LBE344:
 449              	.LBE345:
 450              	.LBE346:
 451              		.cfi_endproc
 452              	.LFE260:
 453              		.size	VectorD4, .-VectorD4
 454 00fc AFF30080 		.section	.text.sd_lld_init,"ax",%progbits
 455              		.align	2
 456              		.p2align 4,,15
ARM GAS  /tmp/cc49awR3.s 			page 9


 457              		.global	sd_lld_init
 458              		.thumb
 459              		.thumb_func
 460              		.type	sd_lld_init, %function
 461              	sd_lld_init:
 462              	.LFB261:
 463              		.loc 1 372 0
 464              		.cfi_startproc
 465              		@ args = 0, pretend = 0, frame = 0
 466              		@ frame_needed = 0, uses_anonymous_args = 0
 467 0000 10B5     		push	{r4, lr}
 468              		.cfi_def_cfa_offset 8
 469              		.cfi_offset 4, -8
 470              		.cfi_offset 14, -4
 471              		.loc 1 375 0
 472 0002 054C     		ldr	r4, .L58
 473 0004 054A     		ldr	r2, .L58+4
 474 0006 2046     		mov	r0, r4
 475 0008 0021     		movs	r1, #0
 476 000a FFF7FEFF 		bl	sdObjectInit
 477              	.LVL33:
 478              		.loc 1 376 0
 479 000e 044A     		ldr	r2, .L58+8
 480              		.loc 1 377 0
 481 0010 044B     		ldr	r3, .L58+12
 482              		.loc 1 376 0
 483 0012 6267     		str	r2, [r4, #116]
 484              		.loc 1 377 0
 485 0014 A367     		str	r3, [r4, #120]
 486 0016 10BD     		pop	{r4, pc}
 487              	.L59:
 488              		.align	2
 489              	.L58:
 490 0018 00000000 		.word	.LANCHOR0
 491 001c 00000000 		.word	notify1
 492 0020 00380140 		.word	1073821696
 493 0024 00512502 		.word	36000000
 494              		.cfi_endproc
 495              	.LFE261:
 496              		.size	sd_lld_init, .-sd_lld_init
 497 0028 AFF30080 		.section	.text.sd_lld_start,"ax",%progbits
 497      AFF30080 
 498              		.align	2
 499              		.p2align 4,,15
 500              		.global	sd_lld_start
 501              		.thumb
 502              		.thumb_func
 503              		.type	sd_lld_start, %function
 504              	sd_lld_start:
 505              	.LFB262:
 506              		.loc 1 421 0
 507              		.cfi_startproc
 508              		@ args = 0, pretend = 0, frame = 0
 509              		@ frame_needed = 0, uses_anonymous_args = 0
 510              	.LVL34:
 511 0000 70B5     		push	{r4, r5, r6, lr}
 512              		.cfi_def_cfa_offset 16
ARM GAS  /tmp/cc49awR3.s 			page 10


 513              		.cfi_offset 4, -16
 514              		.cfi_offset 5, -12
 515              		.cfi_offset 6, -8
 516              		.cfi_offset 14, -4
 517              		.loc 1 426 0
 518 0002 037A     		ldrb	r3, [r0, #8]	@ zero_extendqisi2
 519              		.loc 1 424 0
 520 0004 164C     		ldr	r4, .L65
 521 0006 0029     		cmp	r1, #0
 522 0008 18BF     		it	ne
 523 000a 0C46     		movne	r4, r1
 524              	.LVL35:
 525              		.loc 1 426 0
 526 000c 012B     		cmp	r3, #1
 527              		.loc 1 421 0
 528 000e 0646     		mov	r6, r0
 529              		.loc 1 426 0
 530 0010 18D0     		beq	.L64
 531              	.LVL36:
 532              	.L62:
 533              	.LBB347:
 534              	.LBB348:
 535              		.loc 1 101 0
 536 0012 6268     		ldr	r2, [r4, #4]
 537              		.loc 1 98 0
 538 0014 A568     		ldr	r5, [r4, #8]
 539              		.loc 1 99 0
 540 0016 E068     		ldr	r0, [r4, #12]
 541 0018 736F     		ldr	r3, [r6, #116]
 542              	.LVL37:
 543              		.loc 1 95 0
 544 001a 2468     		ldr	r4, [r4]
 545              	.LVL38:
 546 001c B16F     		ldr	r1, [r6, #120]
 547 001e B1FBF4F1 		udiv	r1, r1, r4
 548              		.loc 1 101 0
 549 0022 42F49672 		orr	r2, r2, #300
 550              		.loc 1 98 0
 551 0026 45F04004 		orr	r4, r5, #64
 552              		.loc 1 95 0
 553 002a 89B2     		uxth	r1, r1
 554              		.loc 1 99 0
 555 002c 40F00100 		orr	r0, r0, #1
 556              		.loc 1 101 0
 557 0030 42F00102 		orr	r2, r2, #1
 558              		.loc 1 103 0
 559 0034 4FF0FF35 		mov	r5, #-1
 560              		.loc 1 95 0
 561 0038 D960     		str	r1, [r3, #12]
 562              		.loc 1 98 0
 563 003a 5C60     		str	r4, [r3, #4]
 564              		.loc 1 99 0
 565 003c 9860     		str	r0, [r3, #8]
 566              		.loc 1 100 0
 567 003e 1A60     		str	r2, [r3]
 568              		.loc 1 103 0
 569 0040 1D62     		str	r5, [r3, #32]
ARM GAS  /tmp/cc49awR3.s 			page 11


 570 0042 70BD     		pop	{r4, r5, r6, pc}
 571              	.LVL39:
 572              	.L64:
 573              	.LBE348:
 574              	.LBE347:
 575              		.loc 1 428 0
 576 0044 074B     		ldr	r3, .L65+4
 577 0046 9842     		cmp	r0, r3
 578 0048 E3D1     		bne	.L62
 579              		.loc 1 429 0
 580 004a 074A     		ldr	r2, .L65+8
 581 004c 9369     		ldr	r3, [r2, #24]
 582 004e 43F48043 		orr	r3, r3, #16384
 583 0052 9361     		str	r3, [r2, #24]
 584              		.loc 1 430 0
 585 0054 2520     		movs	r0, #37
 586              	.LVL40:
 587 0056 0C21     		movs	r1, #12
 588 0058 FFF7FEFF 		bl	nvicEnableVector
 589              	.LVL41:
 590 005c D9E7     		b	.L62
 591              	.L66:
 592 005e 00BF     		.align	2
 593              	.L65:
 594 0060 00000000 		.word	.LANCHOR1
 595 0064 00000000 		.word	.LANCHOR0
 596 0068 00100240 		.word	1073876992
 597              		.cfi_endproc
 598              	.LFE262:
 599              		.size	sd_lld_start, .-sd_lld_start
 600 006c AFF30080 		.section	.text.sd_lld_stop,"ax",%progbits
 601              		.align	2
 602              		.p2align 4,,15
 603              		.global	sd_lld_stop
 604              		.thumb
 605              		.thumb_func
 606              		.type	sd_lld_stop, %function
 607              	sd_lld_stop:
 608              	.LFB263:
 609              		.loc 1 476 0
 610              		.cfi_startproc
 611              		@ args = 0, pretend = 0, frame = 0
 612              		@ frame_needed = 0, uses_anonymous_args = 0
 613              		@ link register save eliminated.
 614              	.LVL42:
 615              		.loc 1 478 0
 616 0000 037A     		ldrb	r3, [r0, #8]	@ zero_extendqisi2
 617 0002 022B     		cmp	r3, #2
 618 0004 00D0     		beq	.L71
 619              	.L67:
 620 0006 7047     		bx	lr
 621              	.L71:
 622              		.loc 1 481 0
 623 0008 0949     		ldr	r1, .L72
 624              		.loc 1 479 0
 625 000a 436F     		ldr	r3, [r0, #116]
 626              	.LVL43:
ARM GAS  /tmp/cc49awR3.s 			page 12


 627              	.LBB349:
 628              	.LBB350:
 629              		.loc 1 114 0
 630 000c 0022     		movs	r2, #0
 631              	.LBE350:
 632              	.LBE349:
 633              		.loc 1 481 0
 634 000e 8842     		cmp	r0, r1
 635              	.LBB352:
 636              	.LBB351:
 637              		.loc 1 114 0
 638 0010 1A60     		str	r2, [r3]
 639              		.loc 1 115 0
 640 0012 5A60     		str	r2, [r3, #4]
 641              		.loc 1 116 0
 642 0014 9A60     		str	r2, [r3, #8]
 643              	.LBE351:
 644              	.LBE352:
 645              		.loc 1 481 0
 646 0016 F6D1     		bne	.L67
 647              		.loc 1 482 0
 648 0018 02F18042 		add	r2, r2, #1073741824
 649 001c 02F50432 		add	r2, r2, #135168
 650              		.loc 1 483 0
 651 0020 2520     		movs	r0, #37
 652              	.LVL44:
 653              		.loc 1 482 0
 654 0022 9369     		ldr	r3, [r2, #24]
 655              	.LVL45:
 656 0024 23F48043 		bic	r3, r3, #16384
 657 0028 9361     		str	r3, [r2, #24]
 658              		.loc 1 483 0
 659 002a FFF7FEBF 		b	nvicDisableVector
 660              	.LVL46:
 661              	.L73:
 662 002e 00BF     		.align	2
 663              	.L72:
 664 0030 00000000 		.word	.LANCHOR0
 665              		.cfi_endproc
 666              	.LFE263:
 667              		.size	sd_lld_stop, .-sd_lld_stop
 668              		.global	SD1
 669 0034 AFF30080 		.section	.rodata.default_config,"a",%progbits
 669      AFF30080 
 669      AFF30080 
 670              		.align	2
 671              		.set	.LANCHOR1,. + 0
 672              		.type	default_config, %object
 673              		.size	default_config, 16
 674              	default_config:
 675 0000 80250000 		.word	9600
 676 0004 00000000 		.word	0
 677 0008 00400000 		.word	16384
 678 000c 00000000 		.word	0
 679              		.section	.bss.SD1,"aw",%nobits
 680              		.align	2
 681              		.set	.LANCHOR0,. + 0
ARM GAS  /tmp/cc49awR3.s 			page 13


 682              		.type	SD1, %object
 683              		.size	SD1, 124
 684              	SD1:
 685 0000 00000000 		.space	124
 685      00000000 
 685      00000000 
 685      00000000 
 685      00000000 
 686              		.text
 687              	.Letext0:
 688              		.file 5 "/l/arm2/gcc-arm-none-eabi-4_9-2014q4/lib/gcc/arm-none-eabi/4.9.3/include/stddef.h"
 689              		.file 6 "/l/arm2/gcc-arm-none-eabi-4_9-2014q4/arm-none-eabi/include/machine/_default_types.h"
 690              		.file 7 "/l/arm2/gcc-arm-none-eabi-4_9-2014q4/arm-none-eabi/include/stdint.h"
 691              		.file 8 "../ChibiOS/os/rt/ports/ARMCMx/compilers/GCC/chtypes.h"
 692              		.file 9 "../ChibiOS/os/rt/include/chsystypes.h"
 693              		.file 10 "../ChibiOS/os/rt/include/chschd.h"
 694              		.file 11 "../ChibiOS/os/ext/CMSIS/ST/stm32f303xc.h"
 695              		.file 12 "../ChibiOS/os/rt/ports/ARMCMx/chcore.h"
 696              		.file 13 "../ChibiOS/os/rt/ports/ARMCMx/chcore_v7m.h"
 697              		.file 14 "../ChibiOS/os/rt/include/chtm.h"
 698              		.file 15 "../ChibiOS/os/rt/include/chmtx.h"
 699              		.file 16 "../ChibiOS/os/rt/include/chevents.h"
 700              		.file 17 "../ChibiOS/os/hal/include/serial.h"
 701              		.file 18 "../ChibiOS/os/hal/ports/STM32/LLD/USARTv2/serial_lld.h"
 702              		.file 19 "../ChibiOS/os/rt/include/chsys.h"
 703              		.file 20 "../ChibiOS/os/hal/ports/common/ARMCMx/nvic.h"
 704              		.file 21 "../ChibiOS/os/ext/CMSIS/include/core_cm4.h"