ARM GAS  /tmp/ccaflzsT.s 			page 1


   1              		.syntax unified
   2              		.cpu cortex-m4
   3              		.eabi_attribute 27, 3
   4              		.eabi_attribute 28, 1
   5              		.fpu fpv4-sp-d16
   6              		.eabi_attribute 20, 1
   7              		.eabi_attribute 21, 1
   8              		.eabi_attribute 23, 3
   9              		.eabi_attribute 24, 1
  10              		.eabi_attribute 25, 1
  11              		.eabi_attribute 26, 1
  12              		.eabi_attribute 30, 2
  13              		.eabi_attribute 34, 1
  14              		.eabi_attribute 18, 4
  15              		.thumb
  16              		.file	"st_lld.c"
  17              		.text
  18              	.Ltext0:
  19              		.cfi_sections	.debug_frame
  20              		.section	.text.VectorB0,"ax",%progbits
  21              		.align	2
  22              		.p2align 4,,15
  23              		.global	VectorB0
  24              		.thumb
  25              		.thumb_func
  26              		.type	VectorB0, %function
  27              	VectorB0:
  28              	.LFB255:
  29              		.file 1 "../ChibiOS/os/hal/ports/STM32/LLD/TIMv1/st_lld.c"
  30              		.loc 1 153 0
  31              		.cfi_startproc
  32              		@ args = 0, pretend = 0, frame = 0
  33              		@ frame_needed = 0, uses_anonymous_args = 0
  34              		.loc 1 157 0
  35 0000 4FF08043 		mov	r3, #1073741824
  36              		.loc 1 153 0
  37 0004 10B5     		push	{r4, lr}
  38              		.cfi_def_cfa_offset 8
  39              		.cfi_offset 4, -8
  40              		.cfi_offset 14, -4
  41              		.loc 1 157 0
  42 0006 0024     		movs	r4, #0
  43 0008 1C61     		str	r4, [r3, #16]
  44              	.LVL0:
  45              	.LBB52:
  46              	.LBB53:
  47              	.LBB54:
  48              	.LBB55:
  49              	.LBB56:
  50              	.LBB57:
  51              		.file 2 "../ChibiOS/os/ext/CMSIS/include/core_cmFunc.h"
  52              		.loc 2 546 0
  53 000a 2023     		movs	r3, #32
  54              	@ 546 "../ChibiOS/os/ext/CMSIS/include/core_cmFunc.h" 1
  55 000c 83F31188 		MSR basepri, r3
  56              	@ 0 "" 2
  57              		.thumb
ARM GAS  /tmp/ccaflzsT.s 			page 2


  58              	.LBE57:
  59              	.LBE56:
  60              	.LBE55:
  61              	.LBE54:
  62              	.LBE53:
  63              	.LBE52:
  64              	.LBB58:
  65              	.LBB59:
  66              		.file 3 "../ChibiOS/os/hal/osal/rt/osal.h"
  67              		.loc 3 517 0
  68 0010 FFF7FEFF 		bl	chSysTimerHandlerI
  69              	.LVL1:
  70              	.LBE59:
  71              	.LBE58:
  72              	.LBB60:
  73              	.LBB61:
  74              	.LBB62:
  75              	.LBB63:
  76              	.LBB64:
  77              	.LBB65:
  78              		.loc 2 546 0
  79              	@ 546 "../ChibiOS/os/ext/CMSIS/include/core_cmFunc.h" 1
  80 0014 84F31188 		MSR basepri, r4
  81              	@ 0 "" 2
  82              		.thumb
  83              	.LBE65:
  84              	.LBE64:
  85              	.LBE63:
  86              	.LBE62:
  87              	.LBE61:
  88              	.LBE60:
  89              		.loc 1 164 0
  90 0018 BDE81040 		pop	{r4, lr}
  91              		.cfi_restore 14
  92              		.cfi_restore 4
  93              		.cfi_def_cfa_offset 0
  94              		.loc 1 163 0
  95 001c FFF7FEBF 		b	_port_irq_epilogue
  96              	.LVL2:
  97              		.cfi_endproc
  98              	.LFE255:
  99              		.size	VectorB0, .-VectorB0
 100              		.section	.text.st_lld_init,"ax",%progbits
 101              		.align	2
 102              		.p2align 4,,15
 103              		.global	st_lld_init
 104              		.thumb
 105              		.thumb_func
 106              		.type	st_lld_init, %function
 107              	st_lld_init:
 108              	.LFB256:
 109              		.loc 1 176 0
 110              		.cfi_startproc
 111              		@ args = 0, pretend = 0, frame = 0
 112              		@ frame_needed = 0, uses_anonymous_args = 0
 113              		@ link register save eliminated.
 114 0000 70B4     		push	{r4, r5, r6}
ARM GAS  /tmp/ccaflzsT.s 			page 3


 115              		.cfi_def_cfa_offset 12
 116              		.cfi_offset 4, -12
 117              		.cfi_offset 5, -8
 118              		.cfi_offset 6, -4
 119              		.loc 1 182 0
 120 0002 0D48     		ldr	r0, .L5
 121 0004 C169     		ldr	r1, [r0, #28]
 122              		.loc 1 185 0
 123 0006 4FF08043 		mov	r3, #1073741824
 124              		.loc 1 187 0
 125 000a 0022     		movs	r2, #0
 126              		.loc 1 191 0
 127 000c 0124     		movs	r4, #1
 128              		.loc 1 182 0
 129 000e 41F00101 		orr	r1, r1, #1
 130              		.loc 1 185 0
 131 0012 41F61F46 		movw	r6, #7199
 132              		.loc 1 186 0
 133 0016 4FF0FF35 		mov	r5, #-1
 134              		.loc 1 182 0
 135 001a C161     		str	r1, [r0, #28]
 136              		.loc 1 185 0
 137 001c 9E62     		str	r6, [r3, #40]
 138              		.loc 1 195 0
 139 001e 1C20     		movs	r0, #28
 140              		.loc 1 186 0
 141 0020 DD62     		str	r5, [r3, #44]
 142              		.loc 1 195 0
 143 0022 0821     		movs	r1, #8
 144              		.loc 1 187 0
 145 0024 9A61     		str	r2, [r3, #24]
 146              		.loc 1 188 0
 147 0026 5A63     		str	r2, [r3, #52]
 148              		.loc 1 189 0
 149 0028 DA60     		str	r2, [r3, #12]
 150              		.loc 1 190 0
 151 002a 5A60     		str	r2, [r3, #4]
 152              		.loc 1 191 0
 153 002c 5C61     		str	r4, [r3, #20]
 154              		.loc 1 192 0
 155 002e 1C60     		str	r4, [r3]
 156              		.loc 1 210 0
 157 0030 70BC     		pop	{r4, r5, r6}
 158              		.cfi_restore 6
 159              		.cfi_restore 5
 160              		.cfi_restore 4
 161              		.cfi_def_cfa_offset 0
 162              		.loc 1 195 0
 163 0032 FFF7FEBF 		b	nvicEnableVector
 164              	.LVL3:
 165              	.L6:
 166 0036 00BF     		.align	2
 167              	.L5:
 168 0038 00100240 		.word	1073876992
 169              		.cfi_endproc
 170              	.LFE256:
 171              		.size	st_lld_init, .-st_lld_init
ARM GAS  /tmp/ccaflzsT.s 			page 4


 172 003c AFF30080 		.text
 173              	.Letext0:
 174              		.file 4 "/l/arm2/gcc-arm-none-eabi-4_9-2014q4/arm-none-eabi/include/machine/_default_types.h"
 175              		.file 5 "/l/arm2/gcc-arm-none-eabi-4_9-2014q4/arm-none-eabi/include/stdint.h"
 176              		.file 6 "../ChibiOS/os/rt/ports/ARMCMx/compilers/GCC/chtypes.h"
 177              		.file 7 "../ChibiOS/os/rt/include/chsystypes.h"
 178              		.file 8 "../ChibiOS/os/rt/include/chschd.h"
 179              		.file 9 "../ChibiOS/os/ext/CMSIS/ST/stm32f303xc.h"
 180              		.file 10 "../ChibiOS/os/rt/ports/ARMCMx/chcore.h"
 181              		.file 11 "../ChibiOS/os/rt/ports/ARMCMx/chcore_v7m.h"
 182              		.file 12 "../ChibiOS/os/hal/ports/STM32/LLD/TIMv1/stm32_tim.h"
 183              		.file 13 "../ChibiOS/os/rt/include/chtm.h"
 184              		.file 14 "../ChibiOS/os/rt/include/chmtx.h"
 185              		.file 15 "../ChibiOS/os/rt/include/chsys.h"
 186              		.file 16 "../ChibiOS/os/ext/CMSIS/include/core_cm4.h"
 187              		.file 17 "../ChibiOS/os/hal/ports/common/ARMCMx/nvic.h"
 188              		.section	.debug_info,"",%progbits
 189              	.Ldebug_info0:
 190 0000 430A0000 		.4byte	0xa43
 191 0004 0400     		.2byte	0x4
 192 0006 00000000 		.4byte	.Ldebug_abbrev0
 193 000a 04       		.byte	0x4
 194 000b 01       		.uleb128 0x1
 195 000c B8020000 		.4byte	.LASF129
 196 0010 01       		.byte	0x1
 197 0011 0A020000 		.4byte	.LASF130
 198 0015 48050000 		.4byte	.LASF131
 199 0019 00000000 		.4byte	.Ldebug_ranges0+0
 200 001d 00000000 		.4byte	0
 201 0021 00000000 		.4byte	.Ldebug_line0
 202 0025 02       		.uleb128 0x2
 203 0026 04       		.byte	0x4
 204 0027 05       		.byte	0x5
 205 0028 696E7400 		.ascii	"int\000"
 206 002c 03       		.uleb128 0x3
 207 002d 04       		.byte	0x4
 208 002e 07       		.byte	0x7
 209 002f C6010000 		.4byte	.LASF0
 210 0033 03       		.uleb128 0x3
 211 0034 01       		.byte	0x1
 212 0035 06       		.byte	0x6
 213 0036 F3000000 		.4byte	.LASF1
 214 003a 04       		.uleb128 0x4
 215 003b 22000000 		.4byte	.LASF5
 216 003f 04       		.byte	0x4
 217 0040 1D       		.byte	0x1d
 218 0041 45000000 		.4byte	0x45
 219 0045 03       		.uleb128 0x3
 220 0046 01       		.byte	0x1
 221 0047 08       		.byte	0x8
 222 0048 B1040000 		.4byte	.LASF2
 223 004c 03       		.uleb128 0x3
 224 004d 02       		.byte	0x2
 225 004e 05       		.byte	0x5
 226 004f D6040000 		.4byte	.LASF3
 227 0053 03       		.uleb128 0x3
 228 0054 02       		.byte	0x2
ARM GAS  /tmp/ccaflzsT.s 			page 5


 229 0055 07       		.byte	0x7
 230 0056 55010000 		.4byte	.LASF4
 231 005a 04       		.uleb128 0x4
 232 005b 80020000 		.4byte	.LASF6
 233 005f 04       		.byte	0x4
 234 0060 3F       		.byte	0x3f
 235 0061 65000000 		.4byte	0x65
 236 0065 03       		.uleb128 0x3
 237 0066 04       		.byte	0x4
 238 0067 05       		.byte	0x5
 239 0068 32010000 		.4byte	.LASF7
 240 006c 04       		.uleb128 0x4
 241 006d D6050000 		.4byte	.LASF8
 242 0071 04       		.byte	0x4
 243 0072 41       		.byte	0x41
 244 0073 77000000 		.4byte	0x77
 245 0077 03       		.uleb128 0x3
 246 0078 04       		.byte	0x4
 247 0079 07       		.byte	0x7
 248 007a 6A050000 		.4byte	.LASF9
 249 007e 03       		.uleb128 0x3
 250 007f 08       		.byte	0x8
 251 0080 05       		.byte	0x5
 252 0081 A3010000 		.4byte	.LASF10
 253 0085 04       		.uleb128 0x4
 254 0086 48040000 		.4byte	.LASF11
 255 008a 04       		.byte	0x4
 256 008b 5B       		.byte	0x5b
 257 008c 90000000 		.4byte	0x90
 258 0090 03       		.uleb128 0x3
 259 0091 08       		.byte	0x8
 260 0092 07       		.byte	0x7
 261 0093 51000000 		.4byte	.LASF12
 262 0097 04       		.uleb128 0x4
 263 0098 74060000 		.4byte	.LASF13
 264 009c 05       		.byte	0x5
 265 009d 15       		.byte	0x15
 266 009e 3A000000 		.4byte	0x3a
 267 00a2 04       		.uleb128 0x4
 268 00a3 A9040000 		.4byte	.LASF14
 269 00a7 05       		.byte	0x5
 270 00a8 2C       		.byte	0x2c
 271 00a9 5A000000 		.4byte	0x5a
 272 00ad 04       		.uleb128 0x4
 273 00ae 27050000 		.4byte	.LASF15
 274 00b2 05       		.byte	0x5
 275 00b3 2D       		.byte	0x2d
 276 00b4 6C000000 		.4byte	0x6c
 277 00b8 04       		.uleb128 0x4
 278 00b9 19000000 		.4byte	.LASF16
 279 00bd 05       		.byte	0x5
 280 00be 39       		.byte	0x39
 281 00bf 85000000 		.4byte	0x85
 282 00c3 05       		.uleb128 0x5
 283 00c4 A2000000 		.4byte	0xa2
 284 00c8 05       		.uleb128 0x5
 285 00c9 AD000000 		.4byte	0xad
ARM GAS  /tmp/ccaflzsT.s 			page 6


 286 00cd 04       		.uleb128 0x4
 287 00ce 24060000 		.4byte	.LASF17
 288 00d2 06       		.byte	0x6
 289 00d3 45       		.byte	0x45
 290 00d4 AD000000 		.4byte	0xad
 291 00d8 04       		.uleb128 0x4
 292 00d9 99060000 		.4byte	.LASF18
 293 00dd 06       		.byte	0x6
 294 00de 48       		.byte	0x48
 295 00df 97000000 		.4byte	0x97
 296 00e3 04       		.uleb128 0x4
 297 00e4 44010000 		.4byte	.LASF19
 298 00e8 06       		.byte	0x6
 299 00e9 49       		.byte	0x49
 300 00ea 97000000 		.4byte	0x97
 301 00ee 04       		.uleb128 0x4
 302 00ef 53040000 		.4byte	.LASF20
 303 00f3 06       		.byte	0x6
 304 00f4 4A       		.byte	0x4a
 305 00f5 97000000 		.4byte	0x97
 306 00f9 04       		.uleb128 0x4
 307 00fa 72040000 		.4byte	.LASF21
 308 00fe 06       		.byte	0x6
 309 00ff 4C       		.byte	0x4c
 310 0100 AD000000 		.4byte	0xad
 311 0104 04       		.uleb128 0x4
 312 0105 3B020000 		.4byte	.LASF22
 313 0109 06       		.byte	0x6
 314 010a 4D       		.byte	0x4d
 315 010b A2000000 		.4byte	0xa2
 316 010f 04       		.uleb128 0x4
 317 0110 74020000 		.4byte	.LASF23
 318 0114 06       		.byte	0x6
 319 0115 4F       		.byte	0x4f
 320 0116 AD000000 		.4byte	0xad
 321 011a 04       		.uleb128 0x4
 322 011b B0050000 		.4byte	.LASF24
 323 011f 07       		.byte	0x7
 324 0120 33       		.byte	0x33
 325 0121 AD000000 		.4byte	0xad
 326 0125 04       		.uleb128 0x4
 327 0126 9B050000 		.4byte	.LASF25
 328 012a 07       		.byte	0x7
 329 012b 3F       		.byte	0x3f
 330 012c 30010000 		.4byte	0x130
 331 0130 06       		.uleb128 0x6
 332 0131 FB010000 		.4byte	.LASF44
 333 0135 44       		.byte	0x44
 334 0136 08       		.byte	0x8
 335 0137 BE       		.byte	0xbe
 336 0138 1D020000 		.4byte	0x21d
 337 013c 07       		.uleb128 0x7
 338 013d FB030000 		.4byte	.LASF26
 339 0141 08       		.byte	0x8
 340 0142 BF       		.byte	0xbf
 341 0143 C7070000 		.4byte	0x7c7
 342 0147 00       		.byte	0
ARM GAS  /tmp/ccaflzsT.s 			page 7


 343 0148 07       		.uleb128 0x7
 344 0149 6B040000 		.4byte	.LASF27
 345 014d 08       		.byte	0x8
 346 014e C1       		.byte	0xc1
 347 014f C7070000 		.4byte	0x7c7
 348 0153 04       		.byte	0x4
 349 0154 07       		.uleb128 0x7
 350 0155 C9000000 		.4byte	.LASF28
 351 0159 08       		.byte	0x8
 352 015a C3       		.byte	0xc3
 353 015b F9000000 		.4byte	0xf9
 354 015f 08       		.byte	0x8
 355 0160 07       		.uleb128 0x7
 356 0161 B7060000 		.4byte	.LASF29
 357 0165 08       		.byte	0x8
 358 0166 C4       		.byte	0xc4
 359 0167 25050000 		.4byte	0x525
 360 016b 0C       		.byte	0xc
 361 016c 07       		.uleb128 0x7
 362 016d 4D010000 		.4byte	.LASF30
 363 0171 08       		.byte	0x8
 364 0172 C6       		.byte	0xc6
 365 0173 C7070000 		.4byte	0x7c7
 366 0177 10       		.byte	0x10
 367 0178 07       		.uleb128 0x7
 368 0179 0E040000 		.4byte	.LASF31
 369 017d 08       		.byte	0x8
 370 017e C7       		.byte	0xc7
 371 017f C7070000 		.4byte	0x7c7
 372 0183 14       		.byte	0x14
 373 0184 07       		.uleb128 0x7
 374 0185 8D060000 		.4byte	.LASF32
 375 0189 08       		.byte	0x8
 376 018a CE       		.byte	0xce
 377 018b 05080000 		.4byte	0x805
 378 018f 18       		.byte	0x18
 379 0190 07       		.uleb128 0x7
 380 0191 E0040000 		.4byte	.LASF33
 381 0195 08       		.byte	0x8
 382 0196 D9       		.byte	0xd9
 383 0197 E3000000 		.4byte	0xe3
 384 019b 1C       		.byte	0x1c
 385 019c 07       		.uleb128 0x7
 386 019d F6040000 		.4byte	.LASF34
 387 01a1 08       		.byte	0x8
 388 01a2 DD       		.byte	0xdd
 389 01a3 D8000000 		.4byte	0xd8
 390 01a7 1D       		.byte	0x1d
 391 01a8 07       		.uleb128 0x7
 392 01a9 56060000 		.4byte	.LASF35
 393 01ad 08       		.byte	0x8
 394 01ae E2       		.byte	0xe2
 395 01af EE000000 		.4byte	0xee
 396 01b3 1E       		.byte	0x1e
 397 01b4 08       		.uleb128 0x8
 398 01b5 705F7500 		.ascii	"p_u\000"
 399 01b9 08       		.byte	0x8
ARM GAS  /tmp/ccaflzsT.s 			page 8


 400 01ba 1401     		.2byte	0x114
 401 01bc CD070000 		.4byte	0x7cd
 402 01c0 20       		.byte	0x20
 403 01c1 09       		.uleb128 0x9
 404 01c2 D1030000 		.4byte	.LASF36
 405 01c6 08       		.byte	0x8
 406 01c7 1901     		.2byte	0x119
 407 01c9 1D020000 		.4byte	0x21d
 408 01cd 24       		.byte	0x24
 409 01ce 09       		.uleb128 0x9
 410 01cf E4010000 		.4byte	.LASF37
 411 01d3 08       		.byte	0x8
 412 01d4 1F01     		.2byte	0x11f
 413 01d6 41020000 		.4byte	0x241
 414 01da 28       		.byte	0x28
 415 01db 09       		.uleb128 0x9
 416 01dc A1060000 		.4byte	.LASF38
 417 01e0 08       		.byte	0x8
 418 01e1 2301     		.2byte	0x123
 419 01e3 04010000 		.4byte	0x104
 420 01e7 30       		.byte	0x30
 421 01e8 09       		.uleb128 0x9
 422 01e9 1C050000 		.4byte	.LASF39
 423 01ed 08       		.byte	0x8
 424 01ee 2901     		.2byte	0x129
 425 01f0 0F010000 		.4byte	0x10f
 426 01f4 34       		.byte	0x34
 427 01f5 09       		.uleb128 0x9
 428 01f6 CC040000 		.4byte	.LASF40
 429 01fa 08       		.byte	0x8
 430 01fb 3001     		.2byte	0x130
 431 01fd 48080000 		.4byte	0x848
 432 0201 38       		.byte	0x38
 433 0202 09       		.uleb128 0x9
 434 0203 41020000 		.4byte	.LASF41
 435 0207 08       		.byte	0x8
 436 0208 3401     		.2byte	0x134
 437 020a F9000000 		.4byte	0xf9
 438 020e 3C       		.byte	0x3c
 439 020f 09       		.uleb128 0x9
 440 0210 70010000 		.4byte	.LASF42
 441 0214 08       		.byte	0x8
 442 0215 3A01     		.2byte	0x13a
 443 0217 F4020000 		.4byte	0x2f4
 444 021b 40       		.byte	0x40
 445 021c 00       		.byte	0
 446 021d 04       		.uleb128 0x4
 447 021e A9020000 		.4byte	.LASF43
 448 0222 07       		.byte	0x7
 449 0223 44       		.byte	0x44
 450 0224 28020000 		.4byte	0x228
 451 0228 06       		.uleb128 0x6
 452 0229 38050000 		.4byte	.LASF45
 453 022d 04       		.byte	0x4
 454 022e 08       		.byte	0x8
 455 022f AC       		.byte	0xac
 456 0230 41020000 		.4byte	0x241
ARM GAS  /tmp/ccaflzsT.s 			page 9


 457 0234 07       		.uleb128 0x7
 458 0235 FB030000 		.4byte	.LASF26
 459 0239 08       		.byte	0x8
 460 023a AD       		.byte	0xad
 461 023b C7070000 		.4byte	0x7c7
 462 023f 00       		.byte	0
 463 0240 00       		.byte	0
 464 0241 04       		.uleb128 0x4
 465 0242 46060000 		.4byte	.LASF46
 466 0246 07       		.byte	0x7
 467 0247 4B       		.byte	0x4b
 468 0248 4C020000 		.4byte	0x24c
 469 024c 06       		.uleb128 0x6
 470 024d B8000000 		.4byte	.LASF47
 471 0251 08       		.byte	0x8
 472 0252 08       		.byte	0x8
 473 0253 B3       		.byte	0xb3
 474 0254 71020000 		.4byte	0x271
 475 0258 07       		.uleb128 0x7
 476 0259 FB030000 		.4byte	.LASF26
 477 025d 08       		.byte	0x8
 478 025e B4       		.byte	0xb4
 479 025f C7070000 		.4byte	0x7c7
 480 0263 00       		.byte	0
 481 0264 07       		.uleb128 0x7
 482 0265 6B040000 		.4byte	.LASF27
 483 0269 08       		.byte	0x8
 484 026a B5       		.byte	0xb5
 485 026b C7070000 		.4byte	0x7c7
 486 026f 04       		.byte	0x4
 487 0270 00       		.byte	0
 488 0271 04       		.uleb128 0x4
 489 0272 00000000 		.4byte	.LASF48
 490 0276 07       		.byte	0x7
 491 0277 52       		.byte	0x52
 492 0278 7C020000 		.4byte	0x27c
 493 027c 0A       		.uleb128 0xa
 494 027d 66020000 		.4byte	.LASF49
 495 0281 1C       		.byte	0x1c
 496 0282 08       		.byte	0x8
 497 0283 7201     		.2byte	0x172
 498 0285 D8020000 		.4byte	0x2d8
 499 0289 09       		.uleb128 0x9
 500 028a 30050000 		.4byte	.LASF50
 501 028e 08       		.byte	0x8
 502 028f 7301     		.2byte	0x173
 503 0291 41020000 		.4byte	0x241
 504 0295 00       		.byte	0
 505 0296 09       		.uleb128 0x9
 506 0297 E8040000 		.4byte	.LASF51
 507 029b 08       		.byte	0x8
 508 029c 7401     		.2byte	0x174
 509 029e F9000000 		.4byte	0xf9
 510 02a2 08       		.byte	0x8
 511 02a3 09       		.uleb128 0x9
 512 02a4 16040000 		.4byte	.LASF52
 513 02a8 08       		.byte	0x8
ARM GAS  /tmp/ccaflzsT.s 			page 10


 514 02a9 7601     		.2byte	0x176
 515 02ab 25050000 		.4byte	0x525
 516 02af 0C       		.byte	0xc
 517 02b0 09       		.uleb128 0x9
 518 02b1 68010000 		.4byte	.LASF53
 519 02b5 08       		.byte	0x8
 520 02b6 7901     		.2byte	0x179
 521 02b8 C7070000 		.4byte	0x7c7
 522 02bc 10       		.byte	0x10
 523 02bd 09       		.uleb128 0x9
 524 02be 10060000 		.4byte	.LASF54
 525 02c2 08       		.byte	0x8
 526 02c3 7A01     		.2byte	0x17a
 527 02c5 C7070000 		.4byte	0x7c7
 528 02c9 14       		.byte	0x14
 529 02ca 09       		.uleb128 0x9
 530 02cb 35040000 		.4byte	.LASF55
 531 02cf 08       		.byte	0x8
 532 02d0 7D01     		.2byte	0x17d
 533 02d2 C7070000 		.4byte	0x7c7
 534 02d6 18       		.byte	0x18
 535 02d7 00       		.byte	0
 536 02d8 04       		.uleb128 0x4
 537 02d9 CD050000 		.4byte	.LASF56
 538 02dd 07       		.byte	0x7
 539 02de 57       		.byte	0x57
 540 02df E3020000 		.4byte	0x2e3
 541 02e3 0B       		.uleb128 0xb
 542 02e4 04       		.byte	0x4
 543 02e5 E9020000 		.4byte	0x2e9
 544 02e9 0C       		.uleb128 0xc
 545 02ea F4020000 		.4byte	0x2f4
 546 02ee 0D       		.uleb128 0xd
 547 02ef F4020000 		.4byte	0x2f4
 548 02f3 00       		.byte	0
 549 02f4 0E       		.uleb128 0xe
 550 02f5 04       		.byte	0x4
 551 02f6 04       		.uleb128 0x4
 552 02f7 5B040000 		.4byte	.LASF57
 553 02fb 07       		.byte	0x7
 554 02fc 5C       		.byte	0x5c
 555 02fd 01030000 		.4byte	0x301
 556 0301 0A       		.uleb128 0xa
 557 0302 06050000 		.4byte	.LASF58
 558 0306 14       		.byte	0x14
 559 0307 08       		.byte	0x8
 560 0308 4D01     		.2byte	0x14d
 561 030a 50030000 		.4byte	0x350
 562 030e 09       		.uleb128 0x9
 563 030f D3010000 		.4byte	.LASF59
 564 0313 08       		.byte	0x8
 565 0314 4E01     		.2byte	0x14e
 566 0316 4E080000 		.4byte	0x84e
 567 031a 00       		.byte	0
 568 031b 09       		.uleb128 0x9
 569 031c 81010000 		.4byte	.LASF60
 570 0320 08       		.byte	0x8
ARM GAS  /tmp/ccaflzsT.s 			page 11


 571 0321 4F01     		.2byte	0x14f
 572 0323 4E080000 		.4byte	0x84e
 573 0327 04       		.byte	0x4
 574 0328 09       		.uleb128 0x9
 575 0329 DB010000 		.4byte	.LASF61
 576 032d 08       		.byte	0x8
 577 032e 5001     		.2byte	0x150
 578 0330 1A010000 		.4byte	0x11a
 579 0334 08       		.byte	0x8
 580 0335 09       		.uleb128 0x9
 581 0336 BD060000 		.4byte	.LASF62
 582 033a 08       		.byte	0x8
 583 033b 5101     		.2byte	0x151
 584 033d D8020000 		.4byte	0x2d8
 585 0341 0C       		.byte	0xc
 586 0342 09       		.uleb128 0x9
 587 0343 3F060000 		.4byte	.LASF63
 588 0347 08       		.byte	0x8
 589 0348 5301     		.2byte	0x153
 590 034a F4020000 		.4byte	0x2f4
 591 034e 10       		.byte	0x10
 592 034f 00       		.byte	0
 593 0350 04       		.uleb128 0x4
 594 0351 7C000000 		.4byte	.LASF64
 595 0355 07       		.byte	0x7
 596 0356 61       		.byte	0x61
 597 0357 5B030000 		.4byte	0x35b
 598 035b 0A       		.uleb128 0xa
 599 035c E4030000 		.4byte	.LASF65
 600 0360 10       		.byte	0x10
 601 0361 08       		.byte	0x8
 602 0362 5D01     		.2byte	0x15d
 603 0364 9D030000 		.4byte	0x39d
 604 0368 09       		.uleb128 0x9
 605 0369 D3010000 		.4byte	.LASF59
 606 036d 08       		.byte	0x8
 607 036e 5E01     		.2byte	0x15e
 608 0370 4E080000 		.4byte	0x84e
 609 0374 00       		.byte	0
 610 0375 09       		.uleb128 0x9
 611 0376 81010000 		.4byte	.LASF60
 612 037a 08       		.byte	0x8
 613 037b 6001     		.2byte	0x160
 614 037d 4E080000 		.4byte	0x84e
 615 0381 04       		.byte	0x4
 616 0382 09       		.uleb128 0x9
 617 0383 DB010000 		.4byte	.LASF61
 618 0387 08       		.byte	0x8
 619 0388 6201     		.2byte	0x162
 620 038a 1A010000 		.4byte	0x11a
 621 038e 08       		.byte	0x8
 622 038f 09       		.uleb128 0x9
 623 0390 02040000 		.4byte	.LASF66
 624 0394 08       		.byte	0x8
 625 0395 6A01     		.2byte	0x16a
 626 0397 1A010000 		.4byte	0x11a
 627 039b 0C       		.byte	0xc
ARM GAS  /tmp/ccaflzsT.s 			page 12


 628 039c 00       		.byte	0
 629 039d 04       		.uleb128 0x4
 630 039e 38000000 		.4byte	.LASF67
 631 03a2 07       		.byte	0x7
 632 03a3 66       		.byte	0x66
 633 03a4 A8030000 		.4byte	0x3a8
 634 03a8 0A       		.uleb128 0xa
 635 03a9 93040000 		.4byte	.LASF68
 636 03ad 04       		.byte	0x4
 637 03ae 08       		.byte	0x8
 638 03af 8401     		.2byte	0x184
 639 03b1 C3030000 		.4byte	0x3c3
 640 03b5 09       		.uleb128 0x9
 641 03b6 EF050000 		.4byte	.LASF69
 642 03ba 08       		.byte	0x8
 643 03bb 8C01     		.2byte	0x18c
 644 03bd 54080000 		.4byte	0x854
 645 03c1 00       		.byte	0
 646 03c2 00       		.byte	0
 647 03c3 04       		.uleb128 0x4
 648 03c4 18060000 		.4byte	.LASF70
 649 03c8 07       		.byte	0x7
 650 03c9 6B       		.byte	0x6b
 651 03ca CE030000 		.4byte	0x3ce
 652 03ce 0F       		.uleb128 0xf
 653 03cf 28010000 		.4byte	.LASF71
 654 03d3 D801     		.2byte	0x1d8
 655 03d5 08       		.byte	0x8
 656 03d6 A401     		.2byte	0x1a4
 657 03d8 2A040000 		.4byte	0x42a
 658 03dc 09       		.uleb128 0x9
 659 03dd 62060000 		.4byte	.LASF72
 660 03e1 08       		.byte	0x8
 661 03e2 A801     		.2byte	0x1a8
 662 03e4 71020000 		.4byte	0x271
 663 03e8 00       		.byte	0
 664 03e9 09       		.uleb128 0x9
 665 03ea 89010000 		.4byte	.LASF73
 666 03ee 08       		.byte	0x8
 667 03ef AC01     		.2byte	0x1ac
 668 03f1 50030000 		.4byte	0x350
 669 03f5 1C       		.byte	0x1c
 670 03f6 08       		.uleb128 0x8
 671 03f7 64626700 		.ascii	"dbg\000"
 672 03fb 08       		.byte	0x8
 673 03fc B001     		.2byte	0x1b0
 674 03fe 9D030000 		.4byte	0x39d
 675 0402 2C       		.byte	0x2c
 676 0403 09       		.uleb128 0x9
 677 0404 71000000 		.4byte	.LASF74
 678 0408 08       		.byte	0x8
 679 0409 B401     		.2byte	0x1b4
 680 040b 25010000 		.4byte	0x125
 681 040f 30       		.byte	0x30
 682 0410 08       		.uleb128 0x8
 683 0411 746D00   		.ascii	"tm\000"
 684 0414 08       		.byte	0x8
ARM GAS  /tmp/ccaflzsT.s 			page 13


 685 0415 B901     		.2byte	0x1b9
 686 0417 BC070000 		.4byte	0x7bc
 687 041b 74       		.byte	0x74
 688 041c 09       		.uleb128 0x9
 689 041d B7010000 		.4byte	.LASF75
 690 0421 08       		.byte	0x8
 691 0422 C501     		.2byte	0x1c5
 692 0424 59080000 		.4byte	0x859
 693 0428 78       		.byte	0x78
 694 0429 00       		.byte	0
 695 042a 03       		.uleb128 0x3
 696 042b 04       		.byte	0x4
 697 042c 07       		.byte	0x7
 698 042d DB030000 		.4byte	.LASF76
 699 0431 10       		.uleb128 0x10
 700 0432 AD000000 		.4byte	0xad
 701 0436 41040000 		.4byte	0x441
 702 043a 11       		.uleb128 0x11
 703 043b 2A040000 		.4byte	0x42a
 704 043f 01       		.byte	0x1
 705 0440 00       		.byte	0
 706 0441 10       		.uleb128 0x10
 707 0442 AD000000 		.4byte	0xad
 708 0446 51040000 		.4byte	0x451
 709 044a 11       		.uleb128 0x11
 710 044b 2A040000 		.4byte	0x42a
 711 044f 03       		.byte	0x3
 712 0450 00       		.byte	0
 713 0451 12       		.uleb128 0x12
 714 0452 34       		.byte	0x34
 715 0453 09       		.byte	0x9
 716 0454 FC01     		.2byte	0x1fc
 717 0456 03050000 		.4byte	0x503
 718 045a 08       		.uleb128 0x8
 719 045b 435200   		.ascii	"CR\000"
 720 045e 09       		.byte	0x9
 721 045f FE01     		.2byte	0x1fe
 722 0461 C8000000 		.4byte	0xc8
 723 0465 00       		.byte	0
 724 0466 09       		.uleb128 0x9
 725 0467 94060000 		.4byte	.LASF77
 726 046b 09       		.byte	0x9
 727 046c FF01     		.2byte	0x1ff
 728 046e C8000000 		.4byte	0xc8
 729 0472 04       		.byte	0x4
 730 0473 08       		.uleb128 0x8
 731 0474 43495200 		.ascii	"CIR\000"
 732 0478 09       		.byte	0x9
 733 0479 0002     		.2byte	0x200
 734 047b C8000000 		.4byte	0xc8
 735 047f 08       		.byte	0x8
 736 0480 09       		.uleb128 0x9
 737 0481 3B010000 		.4byte	.LASF78
 738 0485 09       		.byte	0x9
 739 0486 0102     		.2byte	0x201
 740 0488 C8000000 		.4byte	0xc8
 741 048c 0C       		.byte	0xc
ARM GAS  /tmp/ccaflzsT.s 			page 14


 742 048d 09       		.uleb128 0x9
 743 048e 3F040000 		.4byte	.LASF79
 744 0492 09       		.byte	0x9
 745 0493 0202     		.2byte	0x202
 746 0495 C8000000 		.4byte	0xc8
 747 0499 10       		.byte	0x10
 748 049a 09       		.uleb128 0x9
 749 049b C5060000 		.4byte	.LASF80
 750 049f 09       		.byte	0x9
 751 04a0 0302     		.2byte	0x203
 752 04a2 C8000000 		.4byte	0xc8
 753 04a6 14       		.byte	0x14
 754 04a7 09       		.uleb128 0x9
 755 04a8 FE040000 		.4byte	.LASF81
 756 04ac 09       		.byte	0x9
 757 04ad 0402     		.2byte	0x204
 758 04af C8000000 		.4byte	0xc8
 759 04b3 18       		.byte	0x18
 760 04b4 09       		.uleb128 0x9
 761 04b5 00060000 		.4byte	.LASF82
 762 04b9 09       		.byte	0x9
 763 04ba 0502     		.2byte	0x205
 764 04bc C8000000 		.4byte	0xc8
 765 04c0 1C       		.byte	0x1c
 766 04c1 09       		.uleb128 0x9
 767 04c2 5D060000 		.4byte	.LASF83
 768 04c6 09       		.byte	0x9
 769 04c7 0602     		.2byte	0x206
 770 04c9 C8000000 		.4byte	0xc8
 771 04cd 20       		.byte	0x20
 772 04ce 08       		.uleb128 0x8
 773 04cf 43535200 		.ascii	"CSR\000"
 774 04d3 09       		.byte	0x9
 775 04d4 0702     		.2byte	0x207
 776 04d6 C8000000 		.4byte	0xc8
 777 04da 24       		.byte	0x24
 778 04db 09       		.uleb128 0x9
 779 04dc 2D040000 		.4byte	.LASF84
 780 04e0 09       		.byte	0x9
 781 04e1 0802     		.2byte	0x208
 782 04e3 C8000000 		.4byte	0xc8
 783 04e7 28       		.byte	0x28
 784 04e8 09       		.uleb128 0x9
 785 04e9 68060000 		.4byte	.LASF85
 786 04ed 09       		.byte	0x9
 787 04ee 0902     		.2byte	0x209
 788 04f0 C8000000 		.4byte	0xc8
 789 04f4 2C       		.byte	0x2c
 790 04f5 09       		.uleb128 0x9
 791 04f6 6E060000 		.4byte	.LASF86
 792 04fa 09       		.byte	0x9
 793 04fb 0A02     		.2byte	0x20a
 794 04fd C8000000 		.4byte	0xc8
 795 0501 30       		.byte	0x30
 796 0502 00       		.byte	0
 797 0503 13       		.uleb128 0x13
 798 0504 EF010000 		.4byte	.LASF87
ARM GAS  /tmp/ccaflzsT.s 			page 15


 799 0508 09       		.byte	0x9
 800 0509 0B02     		.2byte	0x20b
 801 050b 51040000 		.4byte	0x451
 802 050f 04       		.uleb128 0x4
 803 0510 78010000 		.4byte	.LASF88
 804 0514 0A       		.byte	0xa
 805 0515 85       		.byte	0x85
 806 0516 F4020000 		.4byte	0x2f4
 807 051a 04       		.uleb128 0x4
 808 051b 8A020000 		.4byte	.LASF89
 809 051f 0A       		.byte	0xa
 810 0520 8D       		.byte	0x8d
 811 0521 B8000000 		.4byte	0xb8
 812 0525 06       		.uleb128 0x6
 813 0526 08060000 		.4byte	.LASF90
 814 052a 04       		.byte	0x4
 815 052b 0A       		.byte	0xa
 816 052c A9       		.byte	0xa9
 817 052d 3E050000 		.4byte	0x53e
 818 0531 14       		.uleb128 0x14
 819 0532 72313300 		.ascii	"r13\000"
 820 0536 0A       		.byte	0xa
 821 0537 AA       		.byte	0xaa
 822 0538 7F060000 		.4byte	0x67f
 823 053c 00       		.byte	0
 824 053d 00       		.byte	0
 825 053e 06       		.uleb128 0x6
 826 053f 2C000000 		.4byte	.LASF91
 827 0543 64       		.byte	0x64
 828 0544 0B       		.byte	0xb
 829 0545 F4       		.byte	0xf4
 830 0546 7F060000 		.4byte	0x67f
 831 054a 14       		.uleb128 0x14
 832 054b 73313600 		.ascii	"s16\000"
 833 054f 0B       		.byte	0xb
 834 0550 F6       		.byte	0xf6
 835 0551 0F050000 		.4byte	0x50f
 836 0555 00       		.byte	0
 837 0556 14       		.uleb128 0x14
 838 0557 73313700 		.ascii	"s17\000"
 839 055b 0B       		.byte	0xb
 840 055c F7       		.byte	0xf7
 841 055d 0F050000 		.4byte	0x50f
 842 0561 04       		.byte	0x4
 843 0562 14       		.uleb128 0x14
 844 0563 73313800 		.ascii	"s18\000"
 845 0567 0B       		.byte	0xb
 846 0568 F8       		.byte	0xf8
 847 0569 0F050000 		.4byte	0x50f
 848 056d 08       		.byte	0x8
 849 056e 14       		.uleb128 0x14
 850 056f 73313900 		.ascii	"s19\000"
 851 0573 0B       		.byte	0xb
 852 0574 F9       		.byte	0xf9
 853 0575 0F050000 		.4byte	0x50f
 854 0579 0C       		.byte	0xc
 855 057a 14       		.uleb128 0x14
ARM GAS  /tmp/ccaflzsT.s 			page 16


 856 057b 73323000 		.ascii	"s20\000"
 857 057f 0B       		.byte	0xb
 858 0580 FA       		.byte	0xfa
 859 0581 0F050000 		.4byte	0x50f
 860 0585 10       		.byte	0x10
 861 0586 14       		.uleb128 0x14
 862 0587 73323100 		.ascii	"s21\000"
 863 058b 0B       		.byte	0xb
 864 058c FB       		.byte	0xfb
 865 058d 0F050000 		.4byte	0x50f
 866 0591 14       		.byte	0x14
 867 0592 14       		.uleb128 0x14
 868 0593 73323200 		.ascii	"s22\000"
 869 0597 0B       		.byte	0xb
 870 0598 FC       		.byte	0xfc
 871 0599 0F050000 		.4byte	0x50f
 872 059d 18       		.byte	0x18
 873 059e 14       		.uleb128 0x14
 874 059f 73323300 		.ascii	"s23\000"
 875 05a3 0B       		.byte	0xb
 876 05a4 FD       		.byte	0xfd
 877 05a5 0F050000 		.4byte	0x50f
 878 05a9 1C       		.byte	0x1c
 879 05aa 14       		.uleb128 0x14
 880 05ab 73323400 		.ascii	"s24\000"
 881 05af 0B       		.byte	0xb
 882 05b0 FE       		.byte	0xfe
 883 05b1 0F050000 		.4byte	0x50f
 884 05b5 20       		.byte	0x20
 885 05b6 14       		.uleb128 0x14
 886 05b7 73323500 		.ascii	"s25\000"
 887 05bb 0B       		.byte	0xb
 888 05bc FF       		.byte	0xff
 889 05bd 0F050000 		.4byte	0x50f
 890 05c1 24       		.byte	0x24
 891 05c2 08       		.uleb128 0x8
 892 05c3 73323600 		.ascii	"s26\000"
 893 05c7 0B       		.byte	0xb
 894 05c8 0001     		.2byte	0x100
 895 05ca 0F050000 		.4byte	0x50f
 896 05ce 28       		.byte	0x28
 897 05cf 08       		.uleb128 0x8
 898 05d0 73323700 		.ascii	"s27\000"
 899 05d4 0B       		.byte	0xb
 900 05d5 0101     		.2byte	0x101
 901 05d7 0F050000 		.4byte	0x50f
 902 05db 2C       		.byte	0x2c
 903 05dc 08       		.uleb128 0x8
 904 05dd 73323800 		.ascii	"s28\000"
 905 05e1 0B       		.byte	0xb
 906 05e2 0201     		.2byte	0x102
 907 05e4 0F050000 		.4byte	0x50f
 908 05e8 30       		.byte	0x30
 909 05e9 08       		.uleb128 0x8
 910 05ea 73323900 		.ascii	"s29\000"
 911 05ee 0B       		.byte	0xb
 912 05ef 0301     		.2byte	0x103
ARM GAS  /tmp/ccaflzsT.s 			page 17


 913 05f1 0F050000 		.4byte	0x50f
 914 05f5 34       		.byte	0x34
 915 05f6 08       		.uleb128 0x8
 916 05f7 73333000 		.ascii	"s30\000"
 917 05fb 0B       		.byte	0xb
 918 05fc 0401     		.2byte	0x104
 919 05fe 0F050000 		.4byte	0x50f
 920 0602 38       		.byte	0x38
 921 0603 08       		.uleb128 0x8
 922 0604 73333100 		.ascii	"s31\000"
 923 0608 0B       		.byte	0xb
 924 0609 0501     		.2byte	0x105
 925 060b 0F050000 		.4byte	0x50f
 926 060f 3C       		.byte	0x3c
 927 0610 08       		.uleb128 0x8
 928 0611 723400   		.ascii	"r4\000"
 929 0614 0B       		.byte	0xb
 930 0615 0701     		.2byte	0x107
 931 0617 0F050000 		.4byte	0x50f
 932 061b 40       		.byte	0x40
 933 061c 08       		.uleb128 0x8
 934 061d 723500   		.ascii	"r5\000"
 935 0620 0B       		.byte	0xb
 936 0621 0801     		.2byte	0x108
 937 0623 0F050000 		.4byte	0x50f
 938 0627 44       		.byte	0x44
 939 0628 08       		.uleb128 0x8
 940 0629 723600   		.ascii	"r6\000"
 941 062c 0B       		.byte	0xb
 942 062d 0901     		.2byte	0x109
 943 062f 0F050000 		.4byte	0x50f
 944 0633 48       		.byte	0x48
 945 0634 08       		.uleb128 0x8
 946 0635 723700   		.ascii	"r7\000"
 947 0638 0B       		.byte	0xb
 948 0639 0A01     		.2byte	0x10a
 949 063b 0F050000 		.4byte	0x50f
 950 063f 4C       		.byte	0x4c
 951 0640 08       		.uleb128 0x8
 952 0641 723800   		.ascii	"r8\000"
 953 0644 0B       		.byte	0xb
 954 0645 0B01     		.2byte	0x10b
 955 0647 0F050000 		.4byte	0x50f
 956 064b 50       		.byte	0x50
 957 064c 08       		.uleb128 0x8
 958 064d 723900   		.ascii	"r9\000"
 959 0650 0B       		.byte	0xb
 960 0651 0C01     		.2byte	0x10c
 961 0653 0F050000 		.4byte	0x50f
 962 0657 54       		.byte	0x54
 963 0658 08       		.uleb128 0x8
 964 0659 72313000 		.ascii	"r10\000"
 965 065d 0B       		.byte	0xb
 966 065e 0D01     		.2byte	0x10d
 967 0660 0F050000 		.4byte	0x50f
 968 0664 58       		.byte	0x58
 969 0665 08       		.uleb128 0x8
ARM GAS  /tmp/ccaflzsT.s 			page 18


 970 0666 72313100 		.ascii	"r11\000"
 971 066a 0B       		.byte	0xb
 972 066b 0E01     		.2byte	0x10e
 973 066d 0F050000 		.4byte	0x50f
 974 0671 5C       		.byte	0x5c
 975 0672 08       		.uleb128 0x8
 976 0673 6C7200   		.ascii	"lr\000"
 977 0676 0B       		.byte	0xb
 978 0677 0F01     		.2byte	0x10f
 979 0679 0F050000 		.4byte	0x50f
 980 067d 60       		.byte	0x60
 981 067e 00       		.byte	0
 982 067f 0B       		.uleb128 0xb
 983 0680 04       		.byte	0x4
 984 0681 3E050000 		.4byte	0x53e
 985 0685 12       		.uleb128 0x12
 986 0686 60       		.byte	0x60
 987 0687 0C       		.byte	0xc
 988 0688 9E01     		.2byte	0x19e
 989 068a 91070000 		.4byte	0x791
 990 068e 08       		.uleb128 0x8
 991 068f 43523100 		.ascii	"CR1\000"
 992 0693 0C       		.byte	0xc
 993 0694 9F01     		.2byte	0x19f
 994 0696 C8000000 		.4byte	0xc8
 995 069a 00       		.byte	0
 996 069b 08       		.uleb128 0x8
 997 069c 43523200 		.ascii	"CR2\000"
 998 06a0 0C       		.byte	0xc
 999 06a1 A001     		.2byte	0x1a0
 1000 06a3 C8000000 		.4byte	0xc8
 1001 06a7 04       		.byte	0x4
 1002 06a8 09       		.uleb128 0x9
 1003 06a9 05020000 		.4byte	.LASF92
 1004 06ad 0C       		.byte	0xc
 1005 06ae A101     		.2byte	0x1a1
 1006 06b0 C8000000 		.4byte	0xc8
 1007 06b4 08       		.byte	0x8
 1008 06b5 09       		.uleb128 0x9
 1009 06b6 0D000000 		.4byte	.LASF93
 1010 06ba 0C       		.byte	0xc
 1011 06bb A201     		.2byte	0x1a2
 1012 06bd C8000000 		.4byte	0xc8
 1013 06c1 0C       		.byte	0xc
 1014 06c2 08       		.uleb128 0x8
 1015 06c3 535200   		.ascii	"SR\000"
 1016 06c6 0C       		.byte	0xc
 1017 06c7 A301     		.2byte	0x1a3
 1018 06c9 C8000000 		.4byte	0xc8
 1019 06cd 10       		.byte	0x10
 1020 06ce 08       		.uleb128 0x8
 1021 06cf 45475200 		.ascii	"EGR\000"
 1022 06d3 0C       		.byte	0xc
 1023 06d4 A401     		.2byte	0x1a4
 1024 06d6 C8000000 		.4byte	0xc8
 1025 06da 14       		.byte	0x14
 1026 06db 09       		.uleb128 0x9
ARM GAS  /tmp/ccaflzsT.s 			page 19


 1027 06dc E1000000 		.4byte	.LASF94
 1028 06e0 0C       		.byte	0xc
 1029 06e1 A501     		.2byte	0x1a5
 1030 06e3 C8000000 		.4byte	0xc8
 1031 06e7 18       		.byte	0x18
 1032 06e8 09       		.uleb128 0x9
 1033 06e9 E7000000 		.4byte	.LASF95
 1034 06ed 0C       		.byte	0xc
 1035 06ee A601     		.2byte	0x1a6
 1036 06f0 C8000000 		.4byte	0xc8
 1037 06f4 1C       		.byte	0x1c
 1038 06f5 09       		.uleb128 0x9
 1039 06f6 A4050000 		.4byte	.LASF96
 1040 06fa 0C       		.byte	0xc
 1041 06fb A701     		.2byte	0x1a7
 1042 06fd C8000000 		.4byte	0xc8
 1043 0701 20       		.byte	0x20
 1044 0702 08       		.uleb128 0x8
 1045 0703 434E5400 		.ascii	"CNT\000"
 1046 0707 0C       		.byte	0xc
 1047 0708 A801     		.2byte	0x1a8
 1048 070a C8000000 		.4byte	0xc8
 1049 070e 24       		.byte	0x24
 1050 070f 08       		.uleb128 0x8
 1051 0710 50534300 		.ascii	"PSC\000"
 1052 0714 0C       		.byte	0xc
 1053 0715 A901     		.2byte	0x1a9
 1054 0717 C8000000 		.4byte	0xc8
 1055 071b 28       		.byte	0x28
 1056 071c 08       		.uleb128 0x8
 1057 071d 41525200 		.ascii	"ARR\000"
 1058 0721 0C       		.byte	0xc
 1059 0722 AA01     		.2byte	0x1aa
 1060 0724 C8000000 		.4byte	0xc8
 1061 0728 2C       		.byte	0x2c
 1062 0729 08       		.uleb128 0x8
 1063 072a 52435200 		.ascii	"RCR\000"
 1064 072e 0C       		.byte	0xc
 1065 072f AB01     		.2byte	0x1ab
 1066 0731 C8000000 		.4byte	0xc8
 1067 0735 30       		.byte	0x30
 1068 0736 08       		.uleb128 0x8
 1069 0737 43435200 		.ascii	"CCR\000"
 1070 073b 0C       		.byte	0xc
 1071 073c AC01     		.2byte	0x1ac
 1072 073e 91070000 		.4byte	0x791
 1073 0742 34       		.byte	0x34
 1074 0743 09       		.uleb128 0x9
 1075 0744 B3000000 		.4byte	.LASF97
 1076 0748 0C       		.byte	0xc
 1077 0749 AD01     		.2byte	0x1ad
 1078 074b C8000000 		.4byte	0xc8
 1079 074f 44       		.byte	0x44
 1080 0750 08       		.uleb128 0x8
 1081 0751 44435200 		.ascii	"DCR\000"
 1082 0755 0C       		.byte	0xc
 1083 0756 AE01     		.2byte	0x1ae
ARM GAS  /tmp/ccaflzsT.s 			page 20


 1084 0758 C8000000 		.4byte	0xc8
 1085 075c 48       		.byte	0x48
 1086 075d 09       		.uleb128 0x9
 1087 075e 81050000 		.4byte	.LASF98
 1088 0762 0C       		.byte	0xc
 1089 0763 AF01     		.2byte	0x1af
 1090 0765 C8000000 		.4byte	0xc8
 1091 0769 4C       		.byte	0x4c
 1092 076a 08       		.uleb128 0x8
 1093 076b 4F5200   		.ascii	"OR\000"
 1094 076e 0C       		.byte	0xc
 1095 076f B001     		.2byte	0x1b0
 1096 0771 C8000000 		.4byte	0xc8
 1097 0775 50       		.byte	0x50
 1098 0776 09       		.uleb128 0x9
 1099 0777 ED000000 		.4byte	.LASF99
 1100 077b 0C       		.byte	0xc
 1101 077c B101     		.2byte	0x1b1
 1102 077e C8000000 		.4byte	0xc8
 1103 0782 54       		.byte	0x54
 1104 0783 09       		.uleb128 0x9
 1105 0784 17050000 		.4byte	.LASF100
 1106 0788 0C       		.byte	0xc
 1107 0789 B201     		.2byte	0x1b2
 1108 078b 96070000 		.4byte	0x796
 1109 078f 58       		.byte	0x58
 1110 0790 00       		.byte	0
 1111 0791 05       		.uleb128 0x5
 1112 0792 41040000 		.4byte	0x441
 1113 0796 05       		.uleb128 0x5
 1114 0797 31040000 		.4byte	0x431
 1115 079b 13       		.uleb128 0x13
 1116 079c FF000000 		.4byte	.LASF101
 1117 07a0 0C       		.byte	0xc
 1118 07a1 B301     		.2byte	0x1b3
 1119 07a3 85060000 		.4byte	0x685
 1120 07a7 15       		.uleb128 0x15
 1121 07a8 04       		.byte	0x4
 1122 07a9 0D       		.byte	0xd
 1123 07aa 38       		.byte	0x38
 1124 07ab BC070000 		.4byte	0x7bc
 1125 07af 07       		.uleb128 0x7
 1126 07b0 F9050000 		.4byte	.LASF102
 1127 07b4 0D       		.byte	0xd
 1128 07b5 3C       		.byte	0x3c
 1129 07b6 CD000000 		.4byte	0xcd
 1130 07ba 00       		.byte	0
 1131 07bb 00       		.byte	0
 1132 07bc 04       		.uleb128 0x4
 1133 07bd 1C040000 		.4byte	.LASF103
 1134 07c1 0D       		.byte	0xd
 1135 07c2 3D       		.byte	0x3d
 1136 07c3 A7070000 		.4byte	0x7a7
 1137 07c7 0B       		.uleb128 0xb
 1138 07c8 04       		.byte	0x4
 1139 07c9 25010000 		.4byte	0x125
 1140 07cd 16       		.uleb128 0x16
ARM GAS  /tmp/ccaflzsT.s 			page 21


 1141 07ce 04       		.byte	0x4
 1142 07cf 08       		.byte	0x8
 1143 07d0 F6       		.byte	0xf6
 1144 07d1 05080000 		.4byte	0x805
 1145 07d5 17       		.uleb128 0x17
 1146 07d6 12000000 		.4byte	.LASF104
 1147 07da 08       		.byte	0x8
 1148 07db FD       		.byte	0xfd
 1149 07dc 04010000 		.4byte	0x104
 1150 07e0 18       		.uleb128 0x18
 1151 07e1 68000000 		.4byte	.LASF105
 1152 07e5 08       		.byte	0x8
 1153 07e6 0401     		.2byte	0x104
 1154 07e8 04010000 		.4byte	0x104
 1155 07ec 18       		.uleb128 0x18
 1156 07ed 5F020000 		.4byte	.LASF106
 1157 07f1 08       		.byte	0x8
 1158 07f2 0B01     		.2byte	0x10b
 1159 07f4 F4020000 		.4byte	0x2f4
 1160 07f8 18       		.uleb128 0x18
 1161 07f9 EF040000 		.4byte	.LASF107
 1162 07fd 08       		.byte	0x8
 1163 07fe 1201     		.2byte	0x112
 1164 0800 0F010000 		.4byte	0x10f
 1165 0804 00       		.byte	0
 1166 0805 0B       		.uleb128 0xb
 1167 0806 04       		.byte	0x4
 1168 0807 0B080000 		.4byte	0x80b
 1169 080b 19       		.uleb128 0x19
 1170 080c 10080000 		.4byte	0x810
 1171 0810 03       		.uleb128 0x3
 1172 0811 01       		.byte	0x1
 1173 0812 08       		.byte	0x8
 1174 0813 7C050000 		.4byte	.LASF108
 1175 0817 06       		.uleb128 0x6
 1176 0818 8D040000 		.4byte	.LASF109
 1177 081c 10       		.byte	0x10
 1178 081d 0E       		.byte	0xe
 1179 081e 39       		.byte	0x39
 1180 081f 48080000 		.4byte	0x848
 1181 0823 07       		.uleb128 0x7
 1182 0824 0B010000 		.4byte	.LASF110
 1183 0828 0E       		.byte	0xe
 1184 0829 3A       		.byte	0x3a
 1185 082a 41020000 		.4byte	0x241
 1186 082e 00       		.byte	0
 1187 082f 07       		.uleb128 0x7
 1188 0830 AF060000 		.4byte	.LASF111
 1189 0834 0E       		.byte	0xe
 1190 0835 3C       		.byte	0x3c
 1191 0836 C7070000 		.4byte	0x7c7
 1192 083a 08       		.byte	0x8
 1193 083b 07       		.uleb128 0x7
 1194 083c A9050000 		.4byte	.LASF112
 1195 0840 0E       		.byte	0xe
 1196 0841 3E       		.byte	0x3e
 1197 0842 74080000 		.4byte	0x874
ARM GAS  /tmp/ccaflzsT.s 			page 22


 1198 0846 0C       		.byte	0xc
 1199 0847 00       		.byte	0
 1200 0848 0B       		.uleb128 0xb
 1201 0849 04       		.byte	0x4
 1202 084a 17080000 		.4byte	0x817
 1203 084e 0B       		.uleb128 0xb
 1204 084f 04       		.byte	0x4
 1205 0850 F6020000 		.4byte	0x2f6
 1206 0854 05       		.uleb128 0x5
 1207 0855 05080000 		.4byte	0x805
 1208 0859 10       		.uleb128 0x10
 1209 085a 1A050000 		.4byte	0x51a
 1210 085e 69080000 		.4byte	0x869
 1211 0862 11       		.uleb128 0x11
 1212 0863 2A040000 		.4byte	0x42a
 1213 0867 2B       		.byte	0x2b
 1214 0868 00       		.byte	0
 1215 0869 04       		.uleb128 0x4
 1216 086a A7060000 		.4byte	.LASF113
 1217 086e 0E       		.byte	0xe
 1218 086f 34       		.byte	0x34
 1219 0870 17080000 		.4byte	0x817
 1220 0874 0B       		.uleb128 0xb
 1221 0875 04       		.byte	0x4
 1222 0876 69080000 		.4byte	0x869
 1223 087a 03       		.uleb128 0x3
 1224 087b 01       		.byte	0x1
 1225 087c 02       		.byte	0x2
 1226 087d A3040000 		.4byte	.LASF114
 1227 0881 1A       		.uleb128 0x1a
 1228 0882 E1050000 		.4byte	.LASF132
 1229 0886 02       		.byte	0x2
 1230 0887 2002     		.2byte	0x220
 1231 0889 03       		.byte	0x3
 1232 088a 9B080000 		.4byte	0x89b
 1233 088e 1B       		.uleb128 0x1b
 1234 088f B1010000 		.4byte	.LASF133
 1235 0893 02       		.byte	0x2
 1236 0894 2002     		.2byte	0x220
 1237 0896 AD000000 		.4byte	0xad
 1238 089a 00       		.byte	0
 1239 089b 1C       		.uleb128 0x1c
 1240 089c 47000000 		.4byte	.LASF115
 1241 08a0 0B       		.byte	0xb
 1242 08a1 BB01     		.2byte	0x1bb
 1243 08a3 03       		.byte	0x3
 1244 08a4 1C       		.uleb128 0x1c
 1245 08a5 1C010000 		.4byte	.LASF116
 1246 08a9 0B       		.byte	0xb
 1247 08aa C901     		.2byte	0x1c9
 1248 08ac 03       		.byte	0x3
 1249 08ad 1C       		.uleb128 0x1c
 1250 08ae 2C060000 		.4byte	.LASF117
 1251 08b2 0B       		.byte	0xb
 1252 08b3 D801     		.2byte	0x1d8
 1253 08b5 03       		.byte	0x3
 1254 08b6 1C       		.uleb128 0x1c
ARM GAS  /tmp/ccaflzsT.s 			page 23


 1255 08b7 86050000 		.4byte	.LASF118
 1256 08bb 0B       		.byte	0xb
 1257 08bc E301     		.2byte	0x1e3
 1258 08be 03       		.byte	0x3
 1259 08bf 1C       		.uleb128 0x1c
 1260 08c0 7C060000 		.4byte	.LASF119
 1261 08c4 0F       		.byte	0xf
 1262 08c5 5001     		.2byte	0x150
 1263 08c7 03       		.byte	0x3
 1264 08c8 1C       		.uleb128 0x1c
 1265 08c9 7A040000 		.4byte	.LASF120
 1266 08cd 0F       		.byte	0xf
 1267 08ce 6401     		.2byte	0x164
 1268 08d0 03       		.byte	0x3
 1269 08d1 1C       		.uleb128 0x1c
 1270 08d2 90010000 		.4byte	.LASF121
 1271 08d6 03       		.byte	0x3
 1272 08d7 BD01     		.2byte	0x1bd
 1273 08d9 03       		.byte	0x3
 1274 08da 1C       		.uleb128 0x1c
 1275 08db 95020000 		.4byte	.LASF122
 1276 08df 03       		.byte	0x3
 1277 08e0 0302     		.2byte	0x203
 1278 08e2 03       		.byte	0x3
 1279 08e3 1C       		.uleb128 0x1c
 1280 08e4 92000000 		.4byte	.LASF123
 1281 08e8 03       		.byte	0x3
 1282 08e9 C801     		.2byte	0x1c8
 1283 08eb 03       		.byte	0x3
 1284 08ec 1D       		.uleb128 0x1d
 1285 08ed 13010000 		.4byte	.LASF124
 1286 08f1 01       		.byte	0x1
 1287 08f2 99       		.byte	0x99
 1288 08f3 00000000 		.4byte	.LFB255
 1289 08f7 20000000 		.4byte	.LFE255-.LFB255
 1290 08fb 01       		.uleb128 0x1
 1291 08fc 9C       		.byte	0x9c
 1292 08fd E4090000 		.4byte	0x9e4
 1293 0901 1E       		.uleb128 0x1e
 1294 0902 D1080000 		.4byte	0x8d1
 1295 0906 0A000000 		.4byte	.LBB52
 1296 090a 06000000 		.4byte	.LBE52-.LBB52
 1297 090e 01       		.byte	0x1
 1298 090f 9F       		.byte	0x9f
 1299 0910 5F090000 		.4byte	0x95f
 1300 0914 1F       		.uleb128 0x1f
 1301 0915 BF080000 		.4byte	0x8bf
 1302 0919 0A000000 		.4byte	.LBB53
 1303 091d 06000000 		.4byte	.LBE53-.LBB53
 1304 0921 03       		.byte	0x3
 1305 0922 BF01     		.2byte	0x1bf
 1306 0924 1F       		.uleb128 0x1f
 1307 0925 AD080000 		.4byte	0x8ad
 1308 0929 0A000000 		.4byte	.LBB54
 1309 092d 06000000 		.4byte	.LBE54-.LBB54
 1310 0931 0F       		.byte	0xf
 1311 0932 5201     		.2byte	0x152
ARM GAS  /tmp/ccaflzsT.s 			page 24


 1312 0934 1F       		.uleb128 0x1f
 1313 0935 9B080000 		.4byte	0x89b
 1314 0939 0A000000 		.4byte	.LBB55
 1315 093d 06000000 		.4byte	.LBE55-.LBB55
 1316 0941 0B       		.byte	0xb
 1317 0942 DA01     		.2byte	0x1da
 1318 0944 1F       		.uleb128 0x1f
 1319 0945 81080000 		.4byte	0x881
 1320 0949 0A000000 		.4byte	.LBB56
 1321 094d 06000000 		.4byte	.LBE56-.LBB56
 1322 0951 0B       		.byte	0xb
 1323 0952 BE01     		.2byte	0x1be
 1324 0954 20       		.uleb128 0x20
 1325 0955 8E080000 		.4byte	0x88e
 1326 0959 20       		.byte	0x20
 1327 095a 00       		.byte	0
 1328 095b 00       		.byte	0
 1329 095c 00       		.byte	0
 1330 095d 00       		.byte	0
 1331 095e 00       		.byte	0
 1332 095f 1E       		.uleb128 0x1e
 1333 0960 DA080000 		.4byte	0x8da
 1334 0964 10000000 		.4byte	.LBB58
 1335 0968 04000000 		.4byte	.LBE58-.LBB58
 1336 096c 01       		.byte	0x1
 1337 096d A0       		.byte	0xa0
 1338 096e 7C090000 		.4byte	0x97c
 1339 0972 21       		.uleb128 0x21
 1340 0973 14000000 		.4byte	.LVL1
 1341 0977 250A0000 		.4byte	0xa25
 1342 097b 00       		.byte	0
 1343 097c 1E       		.uleb128 0x1e
 1344 097d E3080000 		.4byte	0x8e3
 1345 0981 14000000 		.4byte	.LBB60
 1346 0985 04000000 		.4byte	.LBE60-.LBB60
 1347 0989 01       		.byte	0x1
 1348 098a A1       		.byte	0xa1
 1349 098b DA090000 		.4byte	0x9da
 1350 098f 1F       		.uleb128 0x1f
 1351 0990 C8080000 		.4byte	0x8c8
 1352 0994 14000000 		.4byte	.LBB61
 1353 0998 04000000 		.4byte	.LBE61-.LBB61
 1354 099c 03       		.byte	0x3
 1355 099d CA01     		.2byte	0x1ca
 1356 099f 1F       		.uleb128 0x1f
 1357 09a0 B6080000 		.4byte	0x8b6
 1358 09a4 14000000 		.4byte	.LBB62
 1359 09a8 04000000 		.4byte	.LBE62-.LBB62
 1360 09ac 0F       		.byte	0xf
 1361 09ad 6801     		.2byte	0x168
 1362 09af 1F       		.uleb128 0x1f
 1363 09b0 A4080000 		.4byte	0x8a4
 1364 09b4 14000000 		.4byte	.LBB63
 1365 09b8 04000000 		.4byte	.LBE63-.LBB63
 1366 09bc 0B       		.byte	0xb
 1367 09bd E501     		.2byte	0x1e5
 1368 09bf 1F       		.uleb128 0x1f
ARM GAS  /tmp/ccaflzsT.s 			page 25


 1369 09c0 81080000 		.4byte	0x881
 1370 09c4 14000000 		.4byte	.LBB64
 1371 09c8 04000000 		.4byte	.LBE64-.LBB64
 1372 09cc 0B       		.byte	0xb
 1373 09cd CC01     		.2byte	0x1cc
 1374 09cf 20       		.uleb128 0x20
 1375 09d0 8E080000 		.4byte	0x88e
 1376 09d4 00       		.byte	0
 1377 09d5 00       		.byte	0
 1378 09d6 00       		.byte	0
 1379 09d7 00       		.byte	0
 1380 09d8 00       		.byte	0
 1381 09d9 00       		.byte	0
 1382 09da 22       		.uleb128 0x22
 1383 09db 20000000 		.4byte	.LVL2
 1384 09df 2C0A0000 		.4byte	0xa2c
 1385 09e3 00       		.byte	0
 1386 09e4 1D       		.uleb128 0x1d
 1387 09e5 A7000000 		.4byte	.LASF125
 1388 09e9 01       		.byte	0x1
 1389 09ea B0       		.byte	0xb0
 1390 09eb 00000000 		.4byte	.LFB256
 1391 09ef 3C000000 		.4byte	.LFE256-.LFB256
 1392 09f3 01       		.uleb128 0x1
 1393 09f4 9C       		.byte	0x9c
 1394 09f5 0E0A0000 		.4byte	0xa0e
 1395 09f9 23       		.uleb128 0x23
 1396 09fa 36000000 		.4byte	.LVL3
 1397 09fe 340A0000 		.4byte	0xa34
 1398 0a02 24       		.uleb128 0x24
 1399 0a03 01       		.uleb128 0x1
 1400 0a04 51       		.byte	0x51
 1401 0a05 01       		.uleb128 0x1
 1402 0a06 38       		.byte	0x38
 1403 0a07 24       		.uleb128 0x24
 1404 0a08 01       		.uleb128 0x1
 1405 0a09 50       		.byte	0x50
 1406 0a0a 01       		.uleb128 0x1
 1407 0a0b 4C       		.byte	0x4c
 1408 0a0c 00       		.byte	0
 1409 0a0d 00       		.byte	0
 1410 0a0e 25       		.uleb128 0x25
 1411 0a0f BF040000 		.4byte	.LASF126
 1412 0a13 10       		.byte	0x10
 1413 0a14 A706     		.2byte	0x6a7
 1414 0a16 C3000000 		.4byte	0xc3
 1415 0a1a 26       		.uleb128 0x26
 1416 0a1b 636800   		.ascii	"ch\000"
 1417 0a1e 08       		.byte	0x8
 1418 0a1f EB01     		.2byte	0x1eb
 1419 0a21 C3030000 		.4byte	0x3c3
 1420 0a25 27       		.uleb128 0x27
 1421 0a26 BA050000 		.4byte	.LASF127
 1422 0a2a 0F       		.byte	0xf
 1423 0a2b E7       		.byte	0xe7
 1424 0a2c 28       		.uleb128 0x28
 1425 0a2d 4C020000 		.4byte	.LASF128
ARM GAS  /tmp/ccaflzsT.s 			page 26


 1426 0a31 0B       		.byte	0xb
 1427 0a32 6501     		.2byte	0x165
 1428 0a34 29       		.uleb128 0x29
 1429 0a35 D0000000 		.4byte	.LASF134
 1430 0a39 11       		.byte	0x11
 1431 0a3a 4E       		.byte	0x4e
 1432 0a3b 0D       		.uleb128 0xd
 1433 0a3c AD000000 		.4byte	0xad
 1434 0a40 0D       		.uleb128 0xd
 1435 0a41 AD000000 		.4byte	0xad
 1436 0a45 00       		.byte	0
 1437 0a46 00       		.byte	0
 1438              		.section	.debug_abbrev,"",%progbits
 1439              	.Ldebug_abbrev0:
 1440 0000 01       		.uleb128 0x1
 1441 0001 11       		.uleb128 0x11
 1442 0002 01       		.byte	0x1
 1443 0003 25       		.uleb128 0x25
 1444 0004 0E       		.uleb128 0xe
 1445 0005 13       		.uleb128 0x13
 1446 0006 0B       		.uleb128 0xb
 1447 0007 03       		.uleb128 0x3
 1448 0008 0E       		.uleb128 0xe
 1449 0009 1B       		.uleb128 0x1b
 1450 000a 0E       		.uleb128 0xe
 1451 000b 55       		.uleb128 0x55
 1452 000c 17       		.uleb128 0x17
 1453 000d 11       		.uleb128 0x11
 1454 000e 01       		.uleb128 0x1
 1455 000f 10       		.uleb128 0x10
 1456 0010 17       		.uleb128 0x17
 1457 0011 00       		.byte	0
 1458 0012 00       		.byte	0
 1459 0013 02       		.uleb128 0x2
 1460 0014 24       		.uleb128 0x24
 1461 0015 00       		.byte	0
 1462 0016 0B       		.uleb128 0xb
 1463 0017 0B       		.uleb128 0xb
 1464 0018 3E       		.uleb128 0x3e
 1465 0019 0B       		.uleb128 0xb
 1466 001a 03       		.uleb128 0x3
 1467 001b 08       		.uleb128 0x8
 1468 001c 00       		.byte	0
 1469 001d 00       		.byte	0
 1470 001e 03       		.uleb128 0x3
 1471 001f 24       		.uleb128 0x24
 1472 0020 00       		.byte	0
 1473 0021 0B       		.uleb128 0xb
 1474 0022 0B       		.uleb128 0xb
 1475 0023 3E       		.uleb128 0x3e
 1476 0024 0B       		.uleb128 0xb
 1477 0025 03       		.uleb128 0x3
 1478 0026 0E       		.uleb128 0xe
 1479 0027 00       		.byte	0
 1480 0028 00       		.byte	0
 1481 0029 04       		.uleb128 0x4
 1482 002a 16       		.uleb128 0x16
ARM GAS  /tmp/ccaflzsT.s 			page 27


 1483 002b 00       		.byte	0
 1484 002c 03       		.uleb128 0x3
 1485 002d 0E       		.uleb128 0xe
 1486 002e 3A       		.uleb128 0x3a
 1487 002f 0B       		.uleb128 0xb
 1488 0030 3B       		.uleb128 0x3b
 1489 0031 0B       		.uleb128 0xb
 1490 0032 49       		.uleb128 0x49
 1491 0033 13       		.uleb128 0x13
 1492 0034 00       		.byte	0
 1493 0035 00       		.byte	0
 1494 0036 05       		.uleb128 0x5
 1495 0037 35       		.uleb128 0x35
 1496 0038 00       		.byte	0
 1497 0039 49       		.uleb128 0x49
 1498 003a 13       		.uleb128 0x13
 1499 003b 00       		.byte	0
 1500 003c 00       		.byte	0
 1501 003d 06       		.uleb128 0x6
 1502 003e 13       		.uleb128 0x13
 1503 003f 01       		.byte	0x1
 1504 0040 03       		.uleb128 0x3
 1505 0041 0E       		.uleb128 0xe
 1506 0042 0B       		.uleb128 0xb
 1507 0043 0B       		.uleb128 0xb
 1508 0044 3A       		.uleb128 0x3a
 1509 0045 0B       		.uleb128 0xb
 1510 0046 3B       		.uleb128 0x3b
 1511 0047 0B       		.uleb128 0xb
 1512 0048 01       		.uleb128 0x1
 1513 0049 13       		.uleb128 0x13
 1514 004a 00       		.byte	0
 1515 004b 00       		.byte	0
 1516 004c 07       		.uleb128 0x7
 1517 004d 0D       		.uleb128 0xd
 1518 004e 00       		.byte	0
 1519 004f 03       		.uleb128 0x3
 1520 0050 0E       		.uleb128 0xe
 1521 0051 3A       		.uleb128 0x3a
 1522 0052 0B       		.uleb128 0xb
 1523 0053 3B       		.uleb128 0x3b
 1524 0054 0B       		.uleb128 0xb
 1525 0055 49       		.uleb128 0x49
 1526 0056 13       		.uleb128 0x13
 1527 0057 38       		.uleb128 0x38
 1528 0058 0B       		.uleb128 0xb
 1529 0059 00       		.byte	0
 1530 005a 00       		.byte	0
 1531 005b 08       		.uleb128 0x8
 1532 005c 0D       		.uleb128 0xd
 1533 005d 00       		.byte	0
 1534 005e 03       		.uleb128 0x3
 1535 005f 08       		.uleb128 0x8
 1536 0060 3A       		.uleb128 0x3a
 1537 0061 0B       		.uleb128 0xb
 1538 0062 3B       		.uleb128 0x3b
 1539 0063 05       		.uleb128 0x5
ARM GAS  /tmp/ccaflzsT.s 			page 28


 1540 0064 49       		.uleb128 0x49
 1541 0065 13       		.uleb128 0x13
 1542 0066 38       		.uleb128 0x38
 1543 0067 0B       		.uleb128 0xb
 1544 0068 00       		.byte	0
 1545 0069 00       		.byte	0
 1546 006a 09       		.uleb128 0x9
 1547 006b 0D       		.uleb128 0xd
 1548 006c 00       		.byte	0
 1549 006d 03       		.uleb128 0x3
 1550 006e 0E       		.uleb128 0xe
 1551 006f 3A       		.uleb128 0x3a
 1552 0070 0B       		.uleb128 0xb
 1553 0071 3B       		.uleb128 0x3b
 1554 0072 05       		.uleb128 0x5
 1555 0073 49       		.uleb128 0x49
 1556 0074 13       		.uleb128 0x13
 1557 0075 38       		.uleb128 0x38
 1558 0076 0B       		.uleb128 0xb
 1559 0077 00       		.byte	0
 1560 0078 00       		.byte	0
 1561 0079 0A       		.uleb128 0xa
 1562 007a 13       		.uleb128 0x13
 1563 007b 01       		.byte	0x1
 1564 007c 03       		.uleb128 0x3
 1565 007d 0E       		.uleb128 0xe
 1566 007e 0B       		.uleb128 0xb
 1567 007f 0B       		.uleb128 0xb
 1568 0080 3A       		.uleb128 0x3a
 1569 0081 0B       		.uleb128 0xb
 1570 0082 3B       		.uleb128 0x3b
 1571 0083 05       		.uleb128 0x5
 1572 0084 01       		.uleb128 0x1
 1573 0085 13       		.uleb128 0x13
 1574 0086 00       		.byte	0
 1575 0087 00       		.byte	0
 1576 0088 0B       		.uleb128 0xb
 1577 0089 0F       		.uleb128 0xf
 1578 008a 00       		.byte	0
 1579 008b 0B       		.uleb128 0xb
 1580 008c 0B       		.uleb128 0xb
 1581 008d 49       		.uleb128 0x49
 1582 008e 13       		.uleb128 0x13
 1583 008f 00       		.byte	0
 1584 0090 00       		.byte	0
 1585 0091 0C       		.uleb128 0xc
 1586 0092 15       		.uleb128 0x15
 1587 0093 01       		.byte	0x1
 1588 0094 27       		.uleb128 0x27
 1589 0095 19       		.uleb128 0x19
 1590 0096 01       		.uleb128 0x1
 1591 0097 13       		.uleb128 0x13
 1592 0098 00       		.byte	0
 1593 0099 00       		.byte	0
 1594 009a 0D       		.uleb128 0xd
 1595 009b 05       		.uleb128 0x5
 1596 009c 00       		.byte	0
ARM GAS  /tmp/ccaflzsT.s 			page 29


 1597 009d 49       		.uleb128 0x49
 1598 009e 13       		.uleb128 0x13
 1599 009f 00       		.byte	0
 1600 00a0 00       		.byte	0
 1601 00a1 0E       		.uleb128 0xe
 1602 00a2 0F       		.uleb128 0xf
 1603 00a3 00       		.byte	0
 1604 00a4 0B       		.uleb128 0xb
 1605 00a5 0B       		.uleb128 0xb
 1606 00a6 00       		.byte	0
 1607 00a7 00       		.byte	0
 1608 00a8 0F       		.uleb128 0xf
 1609 00a9 13       		.uleb128 0x13
 1610 00aa 01       		.byte	0x1
 1611 00ab 03       		.uleb128 0x3
 1612 00ac 0E       		.uleb128 0xe
 1613 00ad 0B       		.uleb128 0xb
 1614 00ae 05       		.uleb128 0x5
 1615 00af 3A       		.uleb128 0x3a
 1616 00b0 0B       		.uleb128 0xb
 1617 00b1 3B       		.uleb128 0x3b
 1618 00b2 05       		.uleb128 0x5
 1619 00b3 01       		.uleb128 0x1
 1620 00b4 13       		.uleb128 0x13
 1621 00b5 00       		.byte	0
 1622 00b6 00       		.byte	0
 1623 00b7 10       		.uleb128 0x10
 1624 00b8 01       		.uleb128 0x1
 1625 00b9 01       		.byte	0x1
 1626 00ba 49       		.uleb128 0x49
 1627 00bb 13       		.uleb128 0x13
 1628 00bc 01       		.uleb128 0x1
 1629 00bd 13       		.uleb128 0x13
 1630 00be 00       		.byte	0
 1631 00bf 00       		.byte	0
 1632 00c0 11       		.uleb128 0x11
 1633 00c1 21       		.uleb128 0x21
 1634 00c2 00       		.byte	0
 1635 00c3 49       		.uleb128 0x49
 1636 00c4 13       		.uleb128 0x13
 1637 00c5 2F       		.uleb128 0x2f
 1638 00c6 0B       		.uleb128 0xb
 1639 00c7 00       		.byte	0
 1640 00c8 00       		.byte	0
 1641 00c9 12       		.uleb128 0x12
 1642 00ca 13       		.uleb128 0x13
 1643 00cb 01       		.byte	0x1
 1644 00cc 0B       		.uleb128 0xb
 1645 00cd 0B       		.uleb128 0xb
 1646 00ce 3A       		.uleb128 0x3a
 1647 00cf 0B       		.uleb128 0xb
 1648 00d0 3B       		.uleb128 0x3b
 1649 00d1 05       		.uleb128 0x5
 1650 00d2 01       		.uleb128 0x1
 1651 00d3 13       		.uleb128 0x13
 1652 00d4 00       		.byte	0
 1653 00d5 00       		.byte	0
ARM GAS  /tmp/ccaflzsT.s 			page 30


 1654 00d6 13       		.uleb128 0x13
 1655 00d7 16       		.uleb128 0x16
 1656 00d8 00       		.byte	0
 1657 00d9 03       		.uleb128 0x3
 1658 00da 0E       		.uleb128 0xe
 1659 00db 3A       		.uleb128 0x3a
 1660 00dc 0B       		.uleb128 0xb
 1661 00dd 3B       		.uleb128 0x3b
 1662 00de 05       		.uleb128 0x5
 1663 00df 49       		.uleb128 0x49
 1664 00e0 13       		.uleb128 0x13
 1665 00e1 00       		.byte	0
 1666 00e2 00       		.byte	0
 1667 00e3 14       		.uleb128 0x14
 1668 00e4 0D       		.uleb128 0xd
 1669 00e5 00       		.byte	0
 1670 00e6 03       		.uleb128 0x3
 1671 00e7 08       		.uleb128 0x8
 1672 00e8 3A       		.uleb128 0x3a
 1673 00e9 0B       		.uleb128 0xb
 1674 00ea 3B       		.uleb128 0x3b
 1675 00eb 0B       		.uleb128 0xb
 1676 00ec 49       		.uleb128 0x49
 1677 00ed 13       		.uleb128 0x13
 1678 00ee 38       		.uleb128 0x38
 1679 00ef 0B       		.uleb128 0xb
 1680 00f0 00       		.byte	0
 1681 00f1 00       		.byte	0
 1682 00f2 15       		.uleb128 0x15
 1683 00f3 13       		.uleb128 0x13
 1684 00f4 01       		.byte	0x1
 1685 00f5 0B       		.uleb128 0xb
 1686 00f6 0B       		.uleb128 0xb
 1687 00f7 3A       		.uleb128 0x3a
 1688 00f8 0B       		.uleb128 0xb
 1689 00f9 3B       		.uleb128 0x3b
 1690 00fa 0B       		.uleb128 0xb
 1691 00fb 01       		.uleb128 0x1
 1692 00fc 13       		.uleb128 0x13
 1693 00fd 00       		.byte	0
 1694 00fe 00       		.byte	0
 1695 00ff 16       		.uleb128 0x16
 1696 0100 17       		.uleb128 0x17
 1697 0101 01       		.byte	0x1
 1698 0102 0B       		.uleb128 0xb
 1699 0103 0B       		.uleb128 0xb
 1700 0104 3A       		.uleb128 0x3a
 1701 0105 0B       		.uleb128 0xb
 1702 0106 3B       		.uleb128 0x3b
 1703 0107 0B       		.uleb128 0xb
 1704 0108 01       		.uleb128 0x1
 1705 0109 13       		.uleb128 0x13
 1706 010a 00       		.byte	0
 1707 010b 00       		.byte	0
 1708 010c 17       		.uleb128 0x17
 1709 010d 0D       		.uleb128 0xd
 1710 010e 00       		.byte	0
ARM GAS  /tmp/ccaflzsT.s 			page 31


 1711 010f 03       		.uleb128 0x3
 1712 0110 0E       		.uleb128 0xe
 1713 0111 3A       		.uleb128 0x3a
 1714 0112 0B       		.uleb128 0xb
 1715 0113 3B       		.uleb128 0x3b
 1716 0114 0B       		.uleb128 0xb
 1717 0115 49       		.uleb128 0x49
 1718 0116 13       		.uleb128 0x13
 1719 0117 00       		.byte	0
 1720 0118 00       		.byte	0
 1721 0119 18       		.uleb128 0x18
 1722 011a 0D       		.uleb128 0xd
 1723 011b 00       		.byte	0
 1724 011c 03       		.uleb128 0x3
 1725 011d 0E       		.uleb128 0xe
 1726 011e 3A       		.uleb128 0x3a
 1727 011f 0B       		.uleb128 0xb
 1728 0120 3B       		.uleb128 0x3b
 1729 0121 05       		.uleb128 0x5
 1730 0122 49       		.uleb128 0x49
 1731 0123 13       		.uleb128 0x13
 1732 0124 00       		.byte	0
 1733 0125 00       		.byte	0
 1734 0126 19       		.uleb128 0x19
 1735 0127 26       		.uleb128 0x26
 1736 0128 00       		.byte	0
 1737 0129 49       		.uleb128 0x49
 1738 012a 13       		.uleb128 0x13
 1739 012b 00       		.byte	0
 1740 012c 00       		.byte	0
 1741 012d 1A       		.uleb128 0x1a
 1742 012e 2E       		.uleb128 0x2e
 1743 012f 01       		.byte	0x1
 1744 0130 03       		.uleb128 0x3
 1745 0131 0E       		.uleb128 0xe
 1746 0132 3A       		.uleb128 0x3a
 1747 0133 0B       		.uleb128 0xb
 1748 0134 3B       		.uleb128 0x3b
 1749 0135 05       		.uleb128 0x5
 1750 0136 27       		.uleb128 0x27
 1751 0137 19       		.uleb128 0x19
 1752 0138 20       		.uleb128 0x20
 1753 0139 0B       		.uleb128 0xb
 1754 013a 01       		.uleb128 0x1
 1755 013b 13       		.uleb128 0x13
 1756 013c 00       		.byte	0
 1757 013d 00       		.byte	0
 1758 013e 1B       		.uleb128 0x1b
 1759 013f 05       		.uleb128 0x5
 1760 0140 00       		.byte	0
 1761 0141 03       		.uleb128 0x3
 1762 0142 0E       		.uleb128 0xe
 1763 0143 3A       		.uleb128 0x3a
 1764 0144 0B       		.uleb128 0xb
 1765 0145 3B       		.uleb128 0x3b
 1766 0146 05       		.uleb128 0x5
 1767 0147 49       		.uleb128 0x49
ARM GAS  /tmp/ccaflzsT.s 			page 32


 1768 0148 13       		.uleb128 0x13
 1769 0149 00       		.byte	0
 1770 014a 00       		.byte	0
 1771 014b 1C       		.uleb128 0x1c
 1772 014c 2E       		.uleb128 0x2e
 1773 014d 00       		.byte	0
 1774 014e 03       		.uleb128 0x3
 1775 014f 0E       		.uleb128 0xe
 1776 0150 3A       		.uleb128 0x3a
 1777 0151 0B       		.uleb128 0xb
 1778 0152 3B       		.uleb128 0x3b
 1779 0153 05       		.uleb128 0x5
 1780 0154 27       		.uleb128 0x27
 1781 0155 19       		.uleb128 0x19
 1782 0156 20       		.uleb128 0x20
 1783 0157 0B       		.uleb128 0xb
 1784 0158 00       		.byte	0
 1785 0159 00       		.byte	0
 1786 015a 1D       		.uleb128 0x1d
 1787 015b 2E       		.uleb128 0x2e
 1788 015c 01       		.byte	0x1
 1789 015d 3F       		.uleb128 0x3f
 1790 015e 19       		.uleb128 0x19
 1791 015f 03       		.uleb128 0x3
 1792 0160 0E       		.uleb128 0xe
 1793 0161 3A       		.uleb128 0x3a
 1794 0162 0B       		.uleb128 0xb
 1795 0163 3B       		.uleb128 0x3b
 1796 0164 0B       		.uleb128 0xb
 1797 0165 27       		.uleb128 0x27
 1798 0166 19       		.uleb128 0x19
 1799 0167 11       		.uleb128 0x11
 1800 0168 01       		.uleb128 0x1
 1801 0169 12       		.uleb128 0x12
 1802 016a 06       		.uleb128 0x6
 1803 016b 40       		.uleb128 0x40
 1804 016c 18       		.uleb128 0x18
 1805 016d 9742     		.uleb128 0x2117
 1806 016f 19       		.uleb128 0x19
 1807 0170 01       		.uleb128 0x1
 1808 0171 13       		.uleb128 0x13
 1809 0172 00       		.byte	0
 1810 0173 00       		.byte	0
 1811 0174 1E       		.uleb128 0x1e
 1812 0175 1D       		.uleb128 0x1d
 1813 0176 01       		.byte	0x1
 1814 0177 31       		.uleb128 0x31
 1815 0178 13       		.uleb128 0x13
 1816 0179 11       		.uleb128 0x11
 1817 017a 01       		.uleb128 0x1
 1818 017b 12       		.uleb128 0x12
 1819 017c 06       		.uleb128 0x6
 1820 017d 58       		.uleb128 0x58
 1821 017e 0B       		.uleb128 0xb
 1822 017f 59       		.uleb128 0x59
 1823 0180 0B       		.uleb128 0xb
 1824 0181 01       		.uleb128 0x1
ARM GAS  /tmp/ccaflzsT.s 			page 33


 1825 0182 13       		.uleb128 0x13
 1826 0183 00       		.byte	0
 1827 0184 00       		.byte	0
 1828 0185 1F       		.uleb128 0x1f
 1829 0186 1D       		.uleb128 0x1d
 1830 0187 01       		.byte	0x1
 1831 0188 31       		.uleb128 0x31
 1832 0189 13       		.uleb128 0x13
 1833 018a 11       		.uleb128 0x11
 1834 018b 01       		.uleb128 0x1
 1835 018c 12       		.uleb128 0x12
 1836 018d 06       		.uleb128 0x6
 1837 018e 58       		.uleb128 0x58
 1838 018f 0B       		.uleb128 0xb
 1839 0190 59       		.uleb128 0x59
 1840 0191 05       		.uleb128 0x5
 1841 0192 00       		.byte	0
 1842 0193 00       		.byte	0
 1843 0194 20       		.uleb128 0x20
 1844 0195 05       		.uleb128 0x5
 1845 0196 00       		.byte	0
 1846 0197 31       		.uleb128 0x31
 1847 0198 13       		.uleb128 0x13
 1848 0199 1C       		.uleb128 0x1c
 1849 019a 0B       		.uleb128 0xb
 1850 019b 00       		.byte	0
 1851 019c 00       		.byte	0
 1852 019d 21       		.uleb128 0x21
 1853 019e 898201   		.uleb128 0x4109
 1854 01a1 00       		.byte	0
 1855 01a2 11       		.uleb128 0x11
 1856 01a3 01       		.uleb128 0x1
 1857 01a4 31       		.uleb128 0x31
 1858 01a5 13       		.uleb128 0x13
 1859 01a6 00       		.byte	0
 1860 01a7 00       		.byte	0
 1861 01a8 22       		.uleb128 0x22
 1862 01a9 898201   		.uleb128 0x4109
 1863 01ac 00       		.byte	0
 1864 01ad 11       		.uleb128 0x11
 1865 01ae 01       		.uleb128 0x1
 1866 01af 9542     		.uleb128 0x2115
 1867 01b1 19       		.uleb128 0x19
 1868 01b2 31       		.uleb128 0x31
 1869 01b3 13       		.uleb128 0x13
 1870 01b4 00       		.byte	0
 1871 01b5 00       		.byte	0
 1872 01b6 23       		.uleb128 0x23
 1873 01b7 898201   		.uleb128 0x4109
 1874 01ba 01       		.byte	0x1
 1875 01bb 11       		.uleb128 0x11
 1876 01bc 01       		.uleb128 0x1
 1877 01bd 9542     		.uleb128 0x2115
 1878 01bf 19       		.uleb128 0x19
 1879 01c0 31       		.uleb128 0x31
 1880 01c1 13       		.uleb128 0x13
 1881 01c2 00       		.byte	0
ARM GAS  /tmp/ccaflzsT.s 			page 34


 1882 01c3 00       		.byte	0
 1883 01c4 24       		.uleb128 0x24
 1884 01c5 8A8201   		.uleb128 0x410a
 1885 01c8 00       		.byte	0
 1886 01c9 02       		.uleb128 0x2
 1887 01ca 18       		.uleb128 0x18
 1888 01cb 9142     		.uleb128 0x2111
 1889 01cd 18       		.uleb128 0x18
 1890 01ce 00       		.byte	0
 1891 01cf 00       		.byte	0
 1892 01d0 25       		.uleb128 0x25
 1893 01d1 34       		.uleb128 0x34
 1894 01d2 00       		.byte	0
 1895 01d3 03       		.uleb128 0x3
 1896 01d4 0E       		.uleb128 0xe
 1897 01d5 3A       		.uleb128 0x3a
 1898 01d6 0B       		.uleb128 0xb
 1899 01d7 3B       		.uleb128 0x3b
 1900 01d8 05       		.uleb128 0x5
 1901 01d9 49       		.uleb128 0x49
 1902 01da 13       		.uleb128 0x13
 1903 01db 3F       		.uleb128 0x3f
 1904 01dc 19       		.uleb128 0x19
 1905 01dd 3C       		.uleb128 0x3c
 1906 01de 19       		.uleb128 0x19
 1907 01df 00       		.byte	0
 1908 01e0 00       		.byte	0
 1909 01e1 26       		.uleb128 0x26
 1910 01e2 34       		.uleb128 0x34
 1911 01e3 00       		.byte	0
 1912 01e4 03       		.uleb128 0x3
 1913 01e5 08       		.uleb128 0x8
 1914 01e6 3A       		.uleb128 0x3a
 1915 01e7 0B       		.uleb128 0xb
 1916 01e8 3B       		.uleb128 0x3b
 1917 01e9 05       		.uleb128 0x5
 1918 01ea 49       		.uleb128 0x49
 1919 01eb 13       		.uleb128 0x13
 1920 01ec 3F       		.uleb128 0x3f
 1921 01ed 19       		.uleb128 0x19
 1922 01ee 3C       		.uleb128 0x3c
 1923 01ef 19       		.uleb128 0x19
 1924 01f0 00       		.byte	0
 1925 01f1 00       		.byte	0
 1926 01f2 27       		.uleb128 0x27
 1927 01f3 2E       		.uleb128 0x2e
 1928 01f4 00       		.byte	0
 1929 01f5 3F       		.uleb128 0x3f
 1930 01f6 19       		.uleb128 0x19
 1931 01f7 03       		.uleb128 0x3
 1932 01f8 0E       		.uleb128 0xe
 1933 01f9 3A       		.uleb128 0x3a
 1934 01fa 0B       		.uleb128 0xb
 1935 01fb 3B       		.uleb128 0x3b
 1936 01fc 0B       		.uleb128 0xb
 1937 01fd 27       		.uleb128 0x27
 1938 01fe 19       		.uleb128 0x19
ARM GAS  /tmp/ccaflzsT.s 			page 35


 1939 01ff 3C       		.uleb128 0x3c
 1940 0200 19       		.uleb128 0x19
 1941 0201 00       		.byte	0
 1942 0202 00       		.byte	0
 1943 0203 28       		.uleb128 0x28
 1944 0204 2E       		.uleb128 0x2e
 1945 0205 00       		.byte	0
 1946 0206 3F       		.uleb128 0x3f
 1947 0207 19       		.uleb128 0x19
 1948 0208 03       		.uleb128 0x3
 1949 0209 0E       		.uleb128 0xe
 1950 020a 3A       		.uleb128 0x3a
 1951 020b 0B       		.uleb128 0xb
 1952 020c 3B       		.uleb128 0x3b
 1953 020d 05       		.uleb128 0x5
 1954 020e 27       		.uleb128 0x27
 1955 020f 19       		.uleb128 0x19
 1956 0210 3C       		.uleb128 0x3c
 1957 0211 19       		.uleb128 0x19
 1958 0212 00       		.byte	0
 1959 0213 00       		.byte	0
 1960 0214 29       		.uleb128 0x29
 1961 0215 2E       		.uleb128 0x2e
 1962 0216 01       		.byte	0x1
 1963 0217 3F       		.uleb128 0x3f
 1964 0218 19       		.uleb128 0x19
 1965 0219 03       		.uleb128 0x3
 1966 021a 0E       		.uleb128 0xe
 1967 021b 3A       		.uleb128 0x3a
 1968 021c 0B       		.uleb128 0xb
 1969 021d 3B       		.uleb128 0x3b
 1970 021e 0B       		.uleb128 0xb
 1971 021f 27       		.uleb128 0x27
 1972 0220 19       		.uleb128 0x19
 1973 0221 3C       		.uleb128 0x3c
 1974 0222 19       		.uleb128 0x19
 1975 0223 00       		.byte	0
 1976 0224 00       		.byte	0
 1977 0225 00       		.byte	0
 1978              		.section	.debug_aranges,"",%progbits
 1979 0000 24000000 		.4byte	0x24
 1980 0004 0200     		.2byte	0x2
 1981 0006 00000000 		.4byte	.Ldebug_info0
 1982 000a 04       		.byte	0x4
 1983 000b 00       		.byte	0
 1984 000c 0000     		.2byte	0
 1985 000e 0000     		.2byte	0
 1986 0010 00000000 		.4byte	.LFB255
 1987 0014 20000000 		.4byte	.LFE255-.LFB255
 1988 0018 00000000 		.4byte	.LFB256
 1989 001c 3C000000 		.4byte	.LFE256-.LFB256
 1990 0020 00000000 		.4byte	0
 1991 0024 00000000 		.4byte	0
 1992              		.section	.debug_ranges,"",%progbits
 1993              	.Ldebug_ranges0:
 1994 0000 00000000 		.4byte	.LFB255
 1995 0004 20000000 		.4byte	.LFE255
ARM GAS  /tmp/ccaflzsT.s 			page 36


 1996 0008 00000000 		.4byte	.LFB256
 1997 000c 3C000000 		.4byte	.LFE256
 1998 0010 00000000 		.4byte	0
 1999 0014 00000000 		.4byte	0
 2000              		.section	.debug_line,"",%progbits
 2001              	.Ldebug_line0:
 2002 0000 DD020000 		.section	.debug_str,"MS",%progbits,1
 2002      02007B02 
 2002      00000201 
 2002      FB0E0D00 
 2002      01010101 
 2003              	.LASF48:
 2004 0000 72656164 		.ascii	"ready_list_t\000"
 2004      795F6C69 
 2004      73745F74 
 2004      00
 2005              	.LASF93:
 2006 000d 44494552 		.ascii	"DIER\000"
 2006      00
 2007              	.LASF104:
 2008 0012 7264796D 		.ascii	"rdymsg\000"
 2008      736700
 2009              	.LASF16:
 2010 0019 75696E74 		.ascii	"uint64_t\000"
 2010      36345F74 
 2010      00
 2011              	.LASF5:
 2012 0022 5F5F7569 		.ascii	"__uint8_t\000"
 2012      6E74385F 
 2012      7400
 2013              	.LASF91:
 2014 002c 706F7274 		.ascii	"port_intctx\000"
 2014      5F696E74 
 2014      63747800 
 2015              	.LASF67:
 2016 0038 73797374 		.ascii	"system_debug_t\000"
 2016      656D5F64 
 2016      65627567 
 2016      5F7400
 2017              	.LASF115:
 2018 0047 706F7274 		.ascii	"port_lock\000"
 2018      5F6C6F63 
 2018      6B00
 2019              	.LASF12:
 2020 0051 6C6F6E67 		.ascii	"long long unsigned int\000"
 2020      206C6F6E 
 2020      6720756E 
 2020      7369676E 
 2020      65642069 
 2021              	.LASF105:
 2022 0068 65786974 		.ascii	"exitcode\000"
 2022      636F6465 
 2022      00
 2023              	.LASF74:
 2024 0071 6D61696E 		.ascii	"mainthread\000"
 2024      74687265 
 2024      616400
ARM GAS  /tmp/ccaflzsT.s 			page 37


 2025              	.LASF64:
 2026 007c 76697274 		.ascii	"virtual_timers_list_t\000"
 2026      75616C5F 
 2026      74696D65 
 2026      72735F6C 
 2026      6973745F 
 2027              	.LASF123:
 2028 0092 6F73616C 		.ascii	"osalSysUnlockFromISR\000"
 2028      53797355 
 2028      6E6C6F63 
 2028      6B46726F 
 2028      6D495352 
 2029              	.LASF125:
 2030 00a7 73745F6C 		.ascii	"st_lld_init\000"
 2030      6C645F69 
 2030      6E697400 
 2031              	.LASF97:
 2032 00b3 42445452 		.ascii	"BDTR\000"
 2032      00
 2033              	.LASF47:
 2034 00b8 63685F74 		.ascii	"ch_threads_queue\000"
 2034      68726561 
 2034      64735F71 
 2034      75657565 
 2034      00
 2035              	.LASF28:
 2036 00c9 705F7072 		.ascii	"p_prio\000"
 2036      696F00
 2037              	.LASF134:
 2038 00d0 6E766963 		.ascii	"nvicEnableVector\000"
 2038      456E6162 
 2038      6C655665 
 2038      63746F72 
 2038      00
 2039              	.LASF94:
 2040 00e1 43434D52 		.ascii	"CCMR1\000"
 2040      3100
 2041              	.LASF95:
 2042 00e7 43434D52 		.ascii	"CCMR2\000"
 2042      3200
 2043              	.LASF99:
 2044 00ed 43434D52 		.ascii	"CCMR3\000"
 2044      3300
 2045              	.LASF1:
 2046 00f3 7369676E 		.ascii	"signed char\000"
 2046      65642063 
 2046      68617200 
 2047              	.LASF101:
 2048 00ff 73746D33 		.ascii	"stm32_tim_t\000"
 2048      325F7469 
 2048      6D5F7400 
 2049              	.LASF110:
 2050 010b 6D5F7175 		.ascii	"m_queue\000"
 2050      65756500 
 2051              	.LASF124:
 2052 0113 56656374 		.ascii	"VectorB0\000"
 2052      6F724230 
ARM GAS  /tmp/ccaflzsT.s 			page 38


 2052      00
 2053              	.LASF116:
 2054 011c 706F7274 		.ascii	"port_unlock\000"
 2054      5F756E6C 
 2054      6F636B00 
 2055              	.LASF71:
 2056 0128 63685F73 		.ascii	"ch_system\000"
 2056      79737465 
 2056      6D00
 2057              	.LASF7:
 2058 0132 6C6F6E67 		.ascii	"long int\000"
 2058      20696E74 
 2058      00
 2059              	.LASF78:
 2060 013b 41504232 		.ascii	"APB2RSTR\000"
 2060      52535452 
 2060      00
 2061              	.LASF19:
 2062 0144 74737461 		.ascii	"tstate_t\000"
 2062      74655F74 
 2062      00
 2063              	.LASF30:
 2064 014d 705F6E65 		.ascii	"p_newer\000"
 2064      77657200 
 2065              	.LASF4:
 2066 0155 73686F72 		.ascii	"short unsigned int\000"
 2066      7420756E 
 2066      7369676E 
 2066      65642069 
 2066      6E7400
 2067              	.LASF53:
 2068 0168 725F6E65 		.ascii	"r_newer\000"
 2068      77657200 
 2069              	.LASF42:
 2070 0170 705F6D70 		.ascii	"p_mpool\000"
 2070      6F6F6C00 
 2071              	.LASF88:
 2072 0178 72656761 		.ascii	"regarm_t\000"
 2072      726D5F74 
 2072      00
 2073              	.LASF60:
 2074 0181 76745F70 		.ascii	"vt_prev\000"
 2074      72657600 
 2075              	.LASF73:
 2076 0189 76746C69 		.ascii	"vtlist\000"
 2076      737400
 2077              	.LASF121:
 2078 0190 6F73616C 		.ascii	"osalSysLockFromISR\000"
 2078      5379734C 
 2078      6F636B46 
 2078      726F6D49 
 2078      535200
 2079              	.LASF10:
 2080 01a3 6C6F6E67 		.ascii	"long long int\000"
 2080      206C6F6E 
 2080      6720696E 
 2080      7400
ARM GAS  /tmp/ccaflzsT.s 			page 39


 2081              	.LASF133:
 2082 01b1 76616C75 		.ascii	"value\000"
 2082      6500
 2083              	.LASF75:
 2084 01b7 69646C65 		.ascii	"idle_thread_wa\000"
 2084      5F746872 
 2084      6561645F 
 2084      776100
 2085              	.LASF0:
 2086 01c6 756E7369 		.ascii	"unsigned int\000"
 2086      676E6564 
 2086      20696E74 
 2086      00
 2087              	.LASF59:
 2088 01d3 76745F6E 		.ascii	"vt_next\000"
 2088      65787400 
 2089              	.LASF61:
 2090 01db 76745F64 		.ascii	"vt_delta\000"
 2090      656C7461 
 2090      00
 2091              	.LASF37:
 2092 01e4 705F6D73 		.ascii	"p_msgqueue\000"
 2092      67717565 
 2092      756500
 2093              	.LASF87:
 2094 01ef 5243435F 		.ascii	"RCC_TypeDef\000"
 2094      54797065 
 2094      44656600 
 2095              	.LASF44:
 2096 01fb 63685F74 		.ascii	"ch_thread\000"
 2096      68726561 
 2096      6400
 2097              	.LASF92:
 2098 0205 534D4352 		.ascii	"SMCR\000"
 2098      00
 2099              	.LASF130:
 2100 020a 2E2E2F43 		.ascii	"../ChibiOS/os/hal/ports/STM32/LLD/TIMv1/st_lld.c\000"
 2100      68696269 
 2100      4F532F6F 
 2100      732F6861 
 2100      6C2F706F 
 2101              	.LASF22:
 2102 023b 6D73675F 		.ascii	"msg_t\000"
 2102      7400
 2103              	.LASF41:
 2104 0241 705F7265 		.ascii	"p_realprio\000"
 2104      616C7072 
 2104      696F00
 2105              	.LASF128:
 2106 024c 5F706F72 		.ascii	"_port_irq_epilogue\000"
 2106      745F6972 
 2106      715F6570 
 2106      696C6F67 
 2106      756500
 2107              	.LASF106:
 2108 025f 77746F62 		.ascii	"wtobjp\000"
 2108      6A7000
ARM GAS  /tmp/ccaflzsT.s 			page 40


 2109              	.LASF49:
 2110 0266 63685F72 		.ascii	"ch_ready_list\000"
 2110      65616479 
 2110      5F6C6973 
 2110      7400
 2111              	.LASF23:
 2112 0274 6576656E 		.ascii	"eventmask_t\000"
 2112      746D6173 
 2112      6B5F7400 
 2113              	.LASF6:
 2114 0280 5F5F696E 		.ascii	"__int32_t\000"
 2114      7433325F 
 2114      7400
 2115              	.LASF89:
 2116 028a 73746B61 		.ascii	"stkalign_t\000"
 2116      6C69676E 
 2116      5F7400
 2117              	.LASF122:
 2118 0295 6F73616C 		.ascii	"osalOsTimerHandlerI\000"
 2118      4F735469 
 2118      6D657248 
 2118      616E646C 
 2118      65724900 
 2119              	.LASF43:
 2120 02a9 74687265 		.ascii	"threads_list_t\000"
 2120      6164735F 
 2120      6C697374 
 2120      5F7400
 2121              	.LASF129:
 2122 02b8 474E5520 		.ascii	"GNU C 4.9.3 20141119 (release) [ARM/embedded-4_9-br"
 2122      4320342E 
 2122      392E3320 
 2122      32303134 
 2122      31313139 
 2123 02eb 616E6368 		.ascii	"anch revision 218278] -mcpu=cortex-m4 -mfloat-abi=h"
 2123      20726576 
 2123      6973696F 
 2123      6E203231 
 2123      38323738 
 2124 031e 61726420 		.ascii	"ard -mfpu=fpv4-sp-d16 -mno-thumb-interwork -mthumb "
 2124      2D6D6670 
 2124      753D6670 
 2124      76342D73 
 2124      702D6431 
 2125 0351 2D676764 		.ascii	"-ggdb -O2 -fomit-frame-pointer -falign-functions=16"
 2125      62202D4F 
 2125      32202D66 
 2125      6F6D6974 
 2125      2D667261 
 2126 0384 202D6666 		.ascii	" -ffunction-sections -fdata-sections -fno-common -f"
 2126      756E6374 
 2126      696F6E2D 
 2126      73656374 
 2126      696F6E73 
 2127 03b7 73696E67 		.ascii	"single-precision-constant\000"
 2127      6C652D70 
 2127      72656369 
ARM GAS  /tmp/ccaflzsT.s 			page 41


 2127      73696F6E 
 2127      2D636F6E 
 2128              	.LASF36:
 2129 03d1 705F7761 		.ascii	"p_waiting\000"
 2129      6974696E 
 2129      6700
 2130              	.LASF76:
 2131 03db 73697A65 		.ascii	"sizetype\000"
 2131      74797065 
 2131      00
 2132              	.LASF65:
 2133 03e4 63685F76 		.ascii	"ch_virtual_timers_list\000"
 2133      69727475 
 2133      616C5F74 
 2133      696D6572 
 2133      735F6C69 
 2134              	.LASF26:
 2135 03fb 705F6E65 		.ascii	"p_next\000"
 2135      787400
 2136              	.LASF66:
 2137 0402 76745F6C 		.ascii	"vt_lasttime\000"
 2137      61737474 
 2137      696D6500 
 2138              	.LASF31:
 2139 040e 705F6F6C 		.ascii	"p_older\000"
 2139      64657200 
 2140              	.LASF52:
 2141 0416 725F6374 		.ascii	"r_ctx\000"
 2141      7800
 2142              	.LASF103:
 2143 041c 746D5F63 		.ascii	"tm_calibration_t\000"
 2143      616C6962 
 2143      72617469 
 2143      6F6E5F74 
 2143      00
 2144              	.LASF84:
 2145 042d 41484252 		.ascii	"AHBRSTR\000"
 2145      53545200 
 2146              	.LASF55:
 2147 0435 725F6375 		.ascii	"r_current\000"
 2147      7272656E 
 2147      7400
 2148              	.LASF79:
 2149 043f 41504231 		.ascii	"APB1RSTR\000"
 2149      52535452 
 2149      00
 2150              	.LASF11:
 2151 0448 5F5F7569 		.ascii	"__uint64_t\000"
 2151      6E743634 
 2151      5F7400
 2152              	.LASF20:
 2153 0453 74726566 		.ascii	"trefs_t\000"
 2153      735F7400 
 2154              	.LASF57:
 2155 045b 76697274 		.ascii	"virtual_timer_t\000"
 2155      75616C5F 
 2155      74696D65 
ARM GAS  /tmp/ccaflzsT.s 			page 42


 2155      725F7400 
 2156              	.LASF27:
 2157 046b 705F7072 		.ascii	"p_prev\000"
 2157      657600
 2158              	.LASF21:
 2159 0472 74707269 		.ascii	"tprio_t\000"
 2159      6F5F7400 
 2160              	.LASF120:
 2161 047a 63685379 		.ascii	"chSysUnlockFromISR\000"
 2161      73556E6C 
 2161      6F636B46 
 2161      726F6D49 
 2161      535200
 2162              	.LASF109:
 2163 048d 6D757465 		.ascii	"mutex\000"
 2163      7800
 2164              	.LASF68:
 2165 0493 63685F73 		.ascii	"ch_system_debug\000"
 2165      79737465 
 2165      6D5F6465 
 2165      62756700 
 2166              	.LASF114:
 2167 04a3 5F426F6F 		.ascii	"_Bool\000"
 2167      6C00
 2168              	.LASF14:
 2169 04a9 696E7433 		.ascii	"int32_t\000"
 2169      325F7400 
 2170              	.LASF2:
 2171 04b1 756E7369 		.ascii	"unsigned char\000"
 2171      676E6564 
 2171      20636861 
 2171      7200
 2172              	.LASF126:
 2173 04bf 49544D5F 		.ascii	"ITM_RxBuffer\000"
 2173      52784275 
 2173      66666572 
 2173      00
 2174              	.LASF40:
 2175 04cc 705F6D74 		.ascii	"p_mtxlist\000"
 2175      786C6973 
 2175      7400
 2176              	.LASF3:
 2177 04d6 73686F72 		.ascii	"short int\000"
 2177      7420696E 
 2177      7400
 2178              	.LASF33:
 2179 04e0 705F7374 		.ascii	"p_state\000"
 2179      61746500 
 2180              	.LASF51:
 2181 04e8 725F7072 		.ascii	"r_prio\000"
 2181      696F00
 2182              	.LASF107:
 2183 04ef 65776D61 		.ascii	"ewmask\000"
 2183      736B00
 2184              	.LASF34:
 2185 04f6 705F666C 		.ascii	"p_flags\000"
 2185      61677300 
ARM GAS  /tmp/ccaflzsT.s 			page 43


 2186              	.LASF81:
 2187 04fe 41504232 		.ascii	"APB2ENR\000"
 2187      454E5200 
 2188              	.LASF58:
 2189 0506 63685F76 		.ascii	"ch_virtual_timer\000"
 2189      69727475 
 2189      616C5F74 
 2189      696D6572 
 2189      00
 2190              	.LASF100:
 2191 0517 43435852 		.ascii	"CCXR\000"
 2191      00
 2192              	.LASF39:
 2193 051c 705F6570 		.ascii	"p_epending\000"
 2193      656E6469 
 2193      6E6700
 2194              	.LASF15:
 2195 0527 75696E74 		.ascii	"uint32_t\000"
 2195      33325F74 
 2195      00
 2196              	.LASF50:
 2197 0530 725F7175 		.ascii	"r_queue\000"
 2197      65756500 
 2198              	.LASF45:
 2199 0538 63685F74 		.ascii	"ch_threads_list\000"
 2199      68726561 
 2199      64735F6C 
 2199      69737400 
 2200              	.LASF131:
 2201 0548 2F686F6D 		.ascii	"/home/bhimebau/forge/annsynth/src\000"
 2201      652F6268 
 2201      696D6562 
 2201      61752F66 
 2201      6F726765 
 2202              	.LASF9:
 2203 056a 6C6F6E67 		.ascii	"long unsigned int\000"
 2203      20756E73 
 2203      69676E65 
 2203      6420696E 
 2203      7400
 2204              	.LASF108:
 2205 057c 63686172 		.ascii	"char\000"
 2205      00
 2206              	.LASF98:
 2207 0581 444D4152 		.ascii	"DMAR\000"
 2207      00
 2208              	.LASF118:
 2209 0586 706F7274 		.ascii	"port_unlock_from_isr\000"
 2209      5F756E6C 
 2209      6F636B5F 
 2209      66726F6D 
 2209      5F697372 
 2210              	.LASF25:
 2211 059b 74687265 		.ascii	"thread_t\000"
 2211      61645F74 
 2211      00
 2212              	.LASF96:
ARM GAS  /tmp/ccaflzsT.s 			page 44


 2213 05a4 43434552 		.ascii	"CCER\000"
 2213      00
 2214              	.LASF112:
 2215 05a9 6D5F6E65 		.ascii	"m_next\000"
 2215      787400
 2216              	.LASF24:
 2217 05b0 73797374 		.ascii	"systime_t\000"
 2217      696D655F 
 2217      7400
 2218              	.LASF127:
 2219 05ba 63685379 		.ascii	"chSysTimerHandlerI\000"
 2219      7354696D 
 2219      65724861 
 2219      6E646C65 
 2219      724900
 2220              	.LASF56:
 2221 05cd 76746675 		.ascii	"vtfunc_t\000"
 2221      6E635F74 
 2221      00
 2222              	.LASF8:
 2223 05d6 5F5F7569 		.ascii	"__uint32_t\000"
 2223      6E743332 
 2223      5F7400
 2224              	.LASF132:
 2225 05e1 5F5F7365 		.ascii	"__set_BASEPRI\000"
 2225      745F4241 
 2225      53455052 
 2225      4900
 2226              	.LASF69:
 2227 05ef 70616E69 		.ascii	"panic_msg\000"
 2227      635F6D73 
 2227      6700
 2228              	.LASF102:
 2229 05f9 6F666673 		.ascii	"offset\000"
 2229      657400
 2230              	.LASF82:
 2231 0600 41504231 		.ascii	"APB1ENR\000"
 2231      454E5200 
 2232              	.LASF90:
 2233 0608 636F6E74 		.ascii	"context\000"
 2233      65787400 
 2234              	.LASF54:
 2235 0610 725F6F6C 		.ascii	"r_older\000"
 2235      64657200 
 2236              	.LASF70:
 2237 0618 63685F73 		.ascii	"ch_system_t\000"
 2237      79737465 
 2237      6D5F7400 
 2238              	.LASF17:
 2239 0624 7274636E 		.ascii	"rtcnt_t\000"
 2239      745F7400 
 2240              	.LASF117:
 2241 062c 706F7274 		.ascii	"port_lock_from_isr\000"
 2241      5F6C6F63 
 2241      6B5F6672 
 2241      6F6D5F69 
 2241      737200
ARM GAS  /tmp/ccaflzsT.s 			page 45


 2242              	.LASF63:
 2243 063f 76745F70 		.ascii	"vt_par\000"
 2243      617200
 2244              	.LASF46:
 2245 0646 74687265 		.ascii	"threads_queue_t\000"
 2245      6164735F 
 2245      71756575 
 2245      655F7400 
 2246              	.LASF35:
 2247 0656 705F7265 		.ascii	"p_refs\000"
 2247      667300
 2248              	.LASF83:
 2249 065d 42444352 		.ascii	"BDCR\000"
 2249      00
 2250              	.LASF72:
 2251 0662 726C6973 		.ascii	"rlist\000"
 2251      7400
 2252              	.LASF85:
 2253 0668 43464752 		.ascii	"CFGR2\000"
 2253      3200
 2254              	.LASF86:
 2255 066e 43464752 		.ascii	"CFGR3\000"
 2255      3300
 2256              	.LASF13:
 2257 0674 75696E74 		.ascii	"uint8_t\000"
 2257      385F7400 
 2258              	.LASF119:
 2259 067c 63685379 		.ascii	"chSysLockFromISR\000"
 2259      734C6F63 
 2259      6B46726F 
 2259      6D495352 
 2259      00
 2260              	.LASF32:
 2261 068d 705F6E61 		.ascii	"p_name\000"
 2261      6D6500
 2262              	.LASF77:
 2263 0694 43464752 		.ascii	"CFGR\000"
 2263      00
 2264              	.LASF18:
 2265 0699 746D6F64 		.ascii	"tmode_t\000"
 2265      655F7400 
 2266              	.LASF38:
 2267 06a1 705F6D73 		.ascii	"p_msg\000"
 2267      6700
 2268              	.LASF113:
 2269 06a7 6D757465 		.ascii	"mutex_t\000"
 2269      785F7400 
 2270              	.LASF111:
 2271 06af 6D5F6F77 		.ascii	"m_owner\000"
 2271      6E657200 
 2272              	.LASF29:
 2273 06b7 705F6374 		.ascii	"p_ctx\000"
 2273      7800
 2274              	.LASF62:
 2275 06bd 76745F66 		.ascii	"vt_func\000"
 2275      756E6300 
 2276              	.LASF80:
ARM GAS  /tmp/ccaflzsT.s 			page 46


 2277 06c5 41484245 		.ascii	"AHBENR\000"
 2277      4E5200
 2278              		.ident	"GCC: (GNU Tools for ARM Embedded Processors) 4.9.3 20141119 (release) [ARM/embedded-4_9-br
ARM GAS  /tmp/ccaflzsT.s 			page 47


DEFINED SYMBOLS
                            *ABS*:00000000 st_lld.c
     /tmp/ccaflzsT.s:21     .text.VectorB0:00000000 $t
     /tmp/ccaflzsT.s:27     .text.VectorB0:00000000 VectorB0
     /tmp/ccaflzsT.s:101    .text.st_lld_init:00000000 $t
     /tmp/ccaflzsT.s:107    .text.st_lld_init:00000000 st_lld_init
     /tmp/ccaflzsT.s:168    .text.st_lld_init:00000038 $d
                     .debug_frame:00000010 $d
     /tmp/ccaflzsT.s:172    .text.st_lld_init:0000003c $t

UNDEFINED SYMBOLS
chSysTimerHandlerI
_port_irq_epilogue
nvicEnableVector
