ARM GAS  /tmp/ccGNTUjr.s 			page 1


   1              		.syntax unified
   2              		.cpu cortex-m4
   3              		.eabi_attribute 27, 3
   4              		.eabi_attribute 28, 1
   5              		.fpu fpv4-sp-d16
   6              		.eabi_attribute 20, 1
   7              		.eabi_attribute 21, 1
   8              		.eabi_attribute 23, 3
   9              		.eabi_attribute 24, 1
  10              		.eabi_attribute 25, 1
  11              		.eabi_attribute 26, 1
  12              		.eabi_attribute 30, 2
  13              		.eabi_attribute 34, 1
  14              		.eabi_attribute 18, 4
  15              		.thumb
  16              		.file	"stm32_dma.c"
  17              		.text
  18              	.Ltext0:
  19              		.cfi_sections	.debug_frame
  20              		.section	.text.Vector6C,"ax",%progbits
  21              		.align	2
  22              		.p2align 4,,15
  23              		.global	Vector6C
  24              		.thumb
  25              		.thumb_func
  26              		.type	Vector6C, %function
  27              	Vector6C:
  28              	.LFB255:
  29              		.file 1 "../ChibiOS/os/hal/ports/STM32/STM32F3xx/stm32_dma.c"
  30              		.loc 1 118 0
  31              		.cfi_startproc
  32              		@ args = 0, pretend = 0, frame = 0
  33              		@ frame_needed = 0, uses_anonymous_args = 0
  34 0000 08B5     		push	{r3, lr}
  35              		.cfi_def_cfa_offset 8
  36              		.cfi_offset 3, -8
  37              		.cfi_offset 14, -4
  38              		.loc 1 123 0
  39 0002 074B     		ldr	r3, .L8
  40              		.loc 1 125 0
  41 0004 074A     		ldr	r2, .L8+4
  42              		.loc 1 123 0
  43 0006 1968     		ldr	r1, [r3]
  44 0008 01F00F01 		and	r1, r1, #15
  45              	.LVL0:
  46              		.loc 1 124 0
  47 000c 5960     		str	r1, [r3, #4]
  48              		.loc 1 125 0
  49 000e 1368     		ldr	r3, [r2]
  50 0010 0BB1     		cbz	r3, .L2
  51              		.loc 1 126 0
  52 0012 5068     		ldr	r0, [r2, #4]
  53 0014 9847     		blx	r3
  54              	.LVL1:
  55              	.L2:
  56              		.loc 1 129 0
  57 0016 BDE80840 		pop	{r3, lr}
ARM GAS  /tmp/ccGNTUjr.s 			page 2


  58              		.cfi_restore 14
  59              		.cfi_restore 3
  60              		.cfi_def_cfa_offset 0
  61              		.loc 1 128 0
  62 001a FFF7FEBF 		b	_port_irq_epilogue
  63              	.LVL2:
  64              	.L9:
  65 001e 00BF     		.align	2
  66              	.L8:
  67 0020 00000240 		.word	1073872896
  68 0024 00000000 		.word	.LANCHOR0
  69              		.cfi_endproc
  70              	.LFE255:
  71              		.size	Vector6C, .-Vector6C
  72 0028 AFF30080 		.section	.text.Vector70,"ax",%progbits
  72      AFF30080 
  73              		.align	2
  74              		.p2align 4,,15
  75              		.global	Vector70
  76              		.thumb
  77              		.thumb_func
  78              		.type	Vector70, %function
  79              	Vector70:
  80              	.LFB256:
  81              		.loc 1 136 0
  82              		.cfi_startproc
  83              		@ args = 0, pretend = 0, frame = 0
  84              		@ frame_needed = 0, uses_anonymous_args = 0
  85              		.loc 1 141 0
  86 0000 074B     		ldr	r3, .L16
  87              		.loc 1 143 0
  88 0002 0848     		ldr	r0, .L16+4
  89              		.loc 1 141 0
  90 0004 1968     		ldr	r1, [r3]
  91              		.loc 1 143 0
  92 0006 8268     		ldr	r2, [r0, #8]
  93              		.loc 1 141 0
  94 0008 C1F30311 		ubfx	r1, r1, #4, #4
  95              	.LVL3:
  96              		.loc 1 136 0
  97 000c 10B5     		push	{r4, lr}
  98              		.cfi_def_cfa_offset 8
  99              		.cfi_offset 4, -8
 100              		.cfi_offset 14, -4
 101              		.loc 1 142 0
 102 000e 0C01     		lsls	r4, r1, #4
 103 0010 5C60     		str	r4, [r3, #4]
 104              		.loc 1 143 0
 105 0012 0AB1     		cbz	r2, .L11
 106              		.loc 1 144 0
 107 0014 C068     		ldr	r0, [r0, #12]
 108 0016 9047     		blx	r2
 109              	.LVL4:
 110              	.L11:
 111              		.loc 1 147 0
 112 0018 BDE81040 		pop	{r4, lr}
 113              		.cfi_restore 14
ARM GAS  /tmp/ccGNTUjr.s 			page 3


 114              		.cfi_restore 4
 115              		.cfi_def_cfa_offset 0
 116              		.loc 1 146 0
 117 001c FFF7FEBF 		b	_port_irq_epilogue
 118              	.LVL5:
 119              	.L17:
 120              		.align	2
 121              	.L16:
 122 0020 00000240 		.word	1073872896
 123 0024 00000000 		.word	.LANCHOR0
 124              		.cfi_endproc
 125              	.LFE256:
 126              		.size	Vector70, .-Vector70
 127 0028 AFF30080 		.section	.text.Vector74,"ax",%progbits
 127      AFF30080 
 128              		.align	2
 129              		.p2align 4,,15
 130              		.global	Vector74
 131              		.thumb
 132              		.thumb_func
 133              		.type	Vector74, %function
 134              	Vector74:
 135              	.LFB257:
 136              		.loc 1 154 0
 137              		.cfi_startproc
 138              		@ args = 0, pretend = 0, frame = 0
 139              		@ frame_needed = 0, uses_anonymous_args = 0
 140              		.loc 1 159 0
 141 0000 074B     		ldr	r3, .L24
 142              		.loc 1 161 0
 143 0002 0848     		ldr	r0, .L24+4
 144              		.loc 1 159 0
 145 0004 1968     		ldr	r1, [r3]
 146              		.loc 1 161 0
 147 0006 0269     		ldr	r2, [r0, #16]
 148              		.loc 1 159 0
 149 0008 C1F30321 		ubfx	r1, r1, #8, #4
 150              	.LVL6:
 151              		.loc 1 154 0
 152 000c 10B5     		push	{r4, lr}
 153              		.cfi_def_cfa_offset 8
 154              		.cfi_offset 4, -8
 155              		.cfi_offset 14, -4
 156              		.loc 1 160 0
 157 000e 0C02     		lsls	r4, r1, #8
 158 0010 5C60     		str	r4, [r3, #4]
 159              		.loc 1 161 0
 160 0012 0AB1     		cbz	r2, .L19
 161              		.loc 1 162 0
 162 0014 4069     		ldr	r0, [r0, #20]
 163 0016 9047     		blx	r2
 164              	.LVL7:
 165              	.L19:
 166              		.loc 1 165 0
 167 0018 BDE81040 		pop	{r4, lr}
 168              		.cfi_restore 14
 169              		.cfi_restore 4
ARM GAS  /tmp/ccGNTUjr.s 			page 4


 170              		.cfi_def_cfa_offset 0
 171              		.loc 1 164 0
 172 001c FFF7FEBF 		b	_port_irq_epilogue
 173              	.LVL8:
 174              	.L25:
 175              		.align	2
 176              	.L24:
 177 0020 00000240 		.word	1073872896
 178 0024 00000000 		.word	.LANCHOR0
 179              		.cfi_endproc
 180              	.LFE257:
 181              		.size	Vector74, .-Vector74
 182 0028 AFF30080 		.section	.text.Vector78,"ax",%progbits
 182      AFF30080 
 183              		.align	2
 184              		.p2align 4,,15
 185              		.global	Vector78
 186              		.thumb
 187              		.thumb_func
 188              		.type	Vector78, %function
 189              	Vector78:
 190              	.LFB258:
 191              		.loc 1 172 0
 192              		.cfi_startproc
 193              		@ args = 0, pretend = 0, frame = 0
 194              		@ frame_needed = 0, uses_anonymous_args = 0
 195              		.loc 1 177 0
 196 0000 074B     		ldr	r3, .L32
 197              		.loc 1 179 0
 198 0002 0848     		ldr	r0, .L32+4
 199              		.loc 1 177 0
 200 0004 1968     		ldr	r1, [r3]
 201              		.loc 1 179 0
 202 0006 8269     		ldr	r2, [r0, #24]
 203              		.loc 1 177 0
 204 0008 C1F30331 		ubfx	r1, r1, #12, #4
 205              	.LVL9:
 206              		.loc 1 172 0
 207 000c 10B5     		push	{r4, lr}
 208              		.cfi_def_cfa_offset 8
 209              		.cfi_offset 4, -8
 210              		.cfi_offset 14, -4
 211              		.loc 1 178 0
 212 000e 0C03     		lsls	r4, r1, #12
 213 0010 5C60     		str	r4, [r3, #4]
 214              		.loc 1 179 0
 215 0012 0AB1     		cbz	r2, .L27
 216              		.loc 1 180 0
 217 0014 C069     		ldr	r0, [r0, #28]
 218 0016 9047     		blx	r2
 219              	.LVL10:
 220              	.L27:
 221              		.loc 1 183 0
 222 0018 BDE81040 		pop	{r4, lr}
 223              		.cfi_restore 14
 224              		.cfi_restore 4
 225              		.cfi_def_cfa_offset 0
ARM GAS  /tmp/ccGNTUjr.s 			page 5


 226              		.loc 1 182 0
 227 001c FFF7FEBF 		b	_port_irq_epilogue
 228              	.LVL11:
 229              	.L33:
 230              		.align	2
 231              	.L32:
 232 0020 00000240 		.word	1073872896
 233 0024 00000000 		.word	.LANCHOR0
 234              		.cfi_endproc
 235              	.LFE258:
 236              		.size	Vector78, .-Vector78
 237 0028 AFF30080 		.section	.text.Vector7C,"ax",%progbits
 237      AFF30080 
 238              		.align	2
 239              		.p2align 4,,15
 240              		.global	Vector7C
 241              		.thumb
 242              		.thumb_func
 243              		.type	Vector7C, %function
 244              	Vector7C:
 245              	.LFB259:
 246              		.loc 1 190 0
 247              		.cfi_startproc
 248              		@ args = 0, pretend = 0, frame = 0
 249              		@ frame_needed = 0, uses_anonymous_args = 0
 250              		.loc 1 195 0
 251 0000 074B     		ldr	r3, .L40
 252              		.loc 1 197 0
 253 0002 0848     		ldr	r0, .L40+4
 254              		.loc 1 195 0
 255 0004 1968     		ldr	r1, [r3]
 256              		.loc 1 197 0
 257 0006 026A     		ldr	r2, [r0, #32]
 258              		.loc 1 195 0
 259 0008 C1F30341 		ubfx	r1, r1, #16, #4
 260              	.LVL12:
 261              		.loc 1 190 0
 262 000c 10B5     		push	{r4, lr}
 263              		.cfi_def_cfa_offset 8
 264              		.cfi_offset 4, -8
 265              		.cfi_offset 14, -4
 266              		.loc 1 196 0
 267 000e 0C04     		lsls	r4, r1, #16
 268 0010 5C60     		str	r4, [r3, #4]
 269              		.loc 1 197 0
 270 0012 0AB1     		cbz	r2, .L35
 271              		.loc 1 198 0
 272 0014 406A     		ldr	r0, [r0, #36]
 273 0016 9047     		blx	r2
 274              	.LVL13:
 275              	.L35:
 276              		.loc 1 201 0
 277 0018 BDE81040 		pop	{r4, lr}
 278              		.cfi_restore 14
 279              		.cfi_restore 4
 280              		.cfi_def_cfa_offset 0
 281              		.loc 1 200 0
ARM GAS  /tmp/ccGNTUjr.s 			page 6


 282 001c FFF7FEBF 		b	_port_irq_epilogue
 283              	.LVL14:
 284              	.L41:
 285              		.align	2
 286              	.L40:
 287 0020 00000240 		.word	1073872896
 288 0024 00000000 		.word	.LANCHOR0
 289              		.cfi_endproc
 290              	.LFE259:
 291              		.size	Vector7C, .-Vector7C
 292 0028 AFF30080 		.section	.text.Vector80,"ax",%progbits
 292      AFF30080 
 293              		.align	2
 294              		.p2align 4,,15
 295              		.global	Vector80
 296              		.thumb
 297              		.thumb_func
 298              		.type	Vector80, %function
 299              	Vector80:
 300              	.LFB260:
 301              		.loc 1 208 0
 302              		.cfi_startproc
 303              		@ args = 0, pretend = 0, frame = 0
 304              		@ frame_needed = 0, uses_anonymous_args = 0
 305              		.loc 1 213 0
 306 0000 074B     		ldr	r3, .L48
 307              		.loc 1 215 0
 308 0002 0848     		ldr	r0, .L48+4
 309              		.loc 1 213 0
 310 0004 1968     		ldr	r1, [r3]
 311              		.loc 1 215 0
 312 0006 826A     		ldr	r2, [r0, #40]
 313              		.loc 1 213 0
 314 0008 C1F30351 		ubfx	r1, r1, #20, #4
 315              	.LVL15:
 316              		.loc 1 208 0
 317 000c 10B5     		push	{r4, lr}
 318              		.cfi_def_cfa_offset 8
 319              		.cfi_offset 4, -8
 320              		.cfi_offset 14, -4
 321              		.loc 1 214 0
 322 000e 0C05     		lsls	r4, r1, #20
 323 0010 5C60     		str	r4, [r3, #4]
 324              		.loc 1 215 0
 325 0012 0AB1     		cbz	r2, .L43
 326              		.loc 1 216 0
 327 0014 C06A     		ldr	r0, [r0, #44]
 328 0016 9047     		blx	r2
 329              	.LVL16:
 330              	.L43:
 331              		.loc 1 219 0
 332 0018 BDE81040 		pop	{r4, lr}
 333              		.cfi_restore 14
 334              		.cfi_restore 4
 335              		.cfi_def_cfa_offset 0
 336              		.loc 1 218 0
 337 001c FFF7FEBF 		b	_port_irq_epilogue
ARM GAS  /tmp/ccGNTUjr.s 			page 7


 338              	.LVL17:
 339              	.L49:
 340              		.align	2
 341              	.L48:
 342 0020 00000240 		.word	1073872896
 343 0024 00000000 		.word	.LANCHOR0
 344              		.cfi_endproc
 345              	.LFE260:
 346              		.size	Vector80, .-Vector80
 347 0028 AFF30080 		.section	.text.Vector84,"ax",%progbits
 347      AFF30080 
 348              		.align	2
 349              		.p2align 4,,15
 350              		.global	Vector84
 351              		.thumb
 352              		.thumb_func
 353              		.type	Vector84, %function
 354              	Vector84:
 355              	.LFB261:
 356              		.loc 1 226 0
 357              		.cfi_startproc
 358              		@ args = 0, pretend = 0, frame = 0
 359              		@ frame_needed = 0, uses_anonymous_args = 0
 360              		.loc 1 231 0
 361 0000 074B     		ldr	r3, .L56
 362              		.loc 1 233 0
 363 0002 0848     		ldr	r0, .L56+4
 364              		.loc 1 231 0
 365 0004 1968     		ldr	r1, [r3]
 366              		.loc 1 233 0
 367 0006 026B     		ldr	r2, [r0, #48]
 368              		.loc 1 231 0
 369 0008 C1F30361 		ubfx	r1, r1, #24, #4
 370              	.LVL18:
 371              		.loc 1 226 0
 372 000c 10B5     		push	{r4, lr}
 373              		.cfi_def_cfa_offset 8
 374              		.cfi_offset 4, -8
 375              		.cfi_offset 14, -4
 376              		.loc 1 232 0
 377 000e 0C06     		lsls	r4, r1, #24
 378 0010 5C60     		str	r4, [r3, #4]
 379              		.loc 1 233 0
 380 0012 0AB1     		cbz	r2, .L51
 381              		.loc 1 234 0
 382 0014 406B     		ldr	r0, [r0, #52]
 383 0016 9047     		blx	r2
 384              	.LVL19:
 385              	.L51:
 386              		.loc 1 237 0
 387 0018 BDE81040 		pop	{r4, lr}
 388              		.cfi_restore 14
 389              		.cfi_restore 4
 390              		.cfi_def_cfa_offset 0
 391              		.loc 1 236 0
 392 001c FFF7FEBF 		b	_port_irq_epilogue
 393              	.LVL20:
ARM GAS  /tmp/ccGNTUjr.s 			page 8


 394              	.L57:
 395              		.align	2
 396              	.L56:
 397 0020 00000240 		.word	1073872896
 398 0024 00000000 		.word	.LANCHOR0
 399              		.cfi_endproc
 400              	.LFE261:
 401              		.size	Vector84, .-Vector84
 402 0028 AFF30080 		.section	.text.Vector120,"ax",%progbits
 402      AFF30080 
 403              		.align	2
 404              		.p2align 4,,15
 405              		.global	Vector120
 406              		.thumb
 407              		.thumb_func
 408              		.type	Vector120, %function
 409              	Vector120:
 410              	.LFB262:
 411              		.loc 1 244 0
 412              		.cfi_startproc
 413              		@ args = 0, pretend = 0, frame = 0
 414              		@ frame_needed = 0, uses_anonymous_args = 0
 415 0000 08B5     		push	{r3, lr}
 416              		.cfi_def_cfa_offset 8
 417              		.cfi_offset 3, -8
 418              		.cfi_offset 14, -4
 419              		.loc 1 249 0
 420 0002 074B     		ldr	r3, .L64
 421              		.loc 1 251 0
 422 0004 0748     		ldr	r0, .L64+4
 423              		.loc 1 249 0
 424 0006 1968     		ldr	r1, [r3]
 425              		.loc 1 251 0
 426 0008 826B     		ldr	r2, [r0, #56]
 427              		.loc 1 249 0
 428 000a 01F00F01 		and	r1, r1, #15
 429              	.LVL21:
 430              		.loc 1 250 0
 431 000e 5960     		str	r1, [r3, #4]
 432              		.loc 1 251 0
 433 0010 0AB1     		cbz	r2, .L59
 434              		.loc 1 252 0
 435 0012 C06B     		ldr	r0, [r0, #60]
 436 0014 9047     		blx	r2
 437              	.LVL22:
 438              	.L59:
 439              		.loc 1 255 0
 440 0016 BDE80840 		pop	{r3, lr}
 441              		.cfi_restore 14
 442              		.cfi_restore 3
 443              		.cfi_def_cfa_offset 0
 444              		.loc 1 254 0
 445 001a FFF7FEBF 		b	_port_irq_epilogue
 446              	.LVL23:
 447              	.L65:
 448 001e 00BF     		.align	2
 449              	.L64:
ARM GAS  /tmp/ccGNTUjr.s 			page 9


 450 0020 00040240 		.word	1073873920
 451 0024 00000000 		.word	.LANCHOR0
 452              		.cfi_endproc
 453              	.LFE262:
 454              		.size	Vector120, .-Vector120
 455 0028 AFF30080 		.section	.text.Vector124,"ax",%progbits
 455      AFF30080 
 456              		.align	2
 457              		.p2align 4,,15
 458              		.global	Vector124
 459              		.thumb
 460              		.thumb_func
 461              		.type	Vector124, %function
 462              	Vector124:
 463              	.LFB263:
 464              		.loc 1 262 0
 465              		.cfi_startproc
 466              		@ args = 0, pretend = 0, frame = 0
 467              		@ frame_needed = 0, uses_anonymous_args = 0
 468              		.loc 1 267 0
 469 0000 074B     		ldr	r3, .L72
 470              		.loc 1 269 0
 471 0002 0848     		ldr	r0, .L72+4
 472              		.loc 1 267 0
 473 0004 1968     		ldr	r1, [r3]
 474              		.loc 1 269 0
 475 0006 026C     		ldr	r2, [r0, #64]
 476              		.loc 1 267 0
 477 0008 C1F30311 		ubfx	r1, r1, #4, #4
 478              	.LVL24:
 479              		.loc 1 262 0
 480 000c 10B5     		push	{r4, lr}
 481              		.cfi_def_cfa_offset 8
 482              		.cfi_offset 4, -8
 483              		.cfi_offset 14, -4
 484              		.loc 1 268 0
 485 000e 0C01     		lsls	r4, r1, #4
 486 0010 5C60     		str	r4, [r3, #4]
 487              		.loc 1 269 0
 488 0012 0AB1     		cbz	r2, .L67
 489              		.loc 1 270 0
 490 0014 406C     		ldr	r0, [r0, #68]
 491 0016 9047     		blx	r2
 492              	.LVL25:
 493              	.L67:
 494              		.loc 1 273 0
 495 0018 BDE81040 		pop	{r4, lr}
 496              		.cfi_restore 14
 497              		.cfi_restore 4
 498              		.cfi_def_cfa_offset 0
 499              		.loc 1 272 0
 500 001c FFF7FEBF 		b	_port_irq_epilogue
 501              	.LVL26:
 502              	.L73:
 503              		.align	2
 504              	.L72:
 505 0020 00040240 		.word	1073873920
ARM GAS  /tmp/ccGNTUjr.s 			page 10


 506 0024 00000000 		.word	.LANCHOR0
 507              		.cfi_endproc
 508              	.LFE263:
 509              		.size	Vector124, .-Vector124
 510 0028 AFF30080 		.section	.text.Vector128,"ax",%progbits
 510      AFF30080 
 511              		.align	2
 512              		.p2align 4,,15
 513              		.global	Vector128
 514              		.thumb
 515              		.thumb_func
 516              		.type	Vector128, %function
 517              	Vector128:
 518              	.LFB264:
 519              		.loc 1 280 0
 520              		.cfi_startproc
 521              		@ args = 0, pretend = 0, frame = 0
 522              		@ frame_needed = 0, uses_anonymous_args = 0
 523              		.loc 1 285 0
 524 0000 074B     		ldr	r3, .L80
 525              		.loc 1 287 0
 526 0002 0848     		ldr	r0, .L80+4
 527              		.loc 1 285 0
 528 0004 1968     		ldr	r1, [r3]
 529              		.loc 1 287 0
 530 0006 826C     		ldr	r2, [r0, #72]
 531              		.loc 1 285 0
 532 0008 C1F30321 		ubfx	r1, r1, #8, #4
 533              	.LVL27:
 534              		.loc 1 280 0
 535 000c 10B5     		push	{r4, lr}
 536              		.cfi_def_cfa_offset 8
 537              		.cfi_offset 4, -8
 538              		.cfi_offset 14, -4
 539              		.loc 1 286 0
 540 000e 0C02     		lsls	r4, r1, #8
 541 0010 5C60     		str	r4, [r3, #4]
 542              		.loc 1 287 0
 543 0012 0AB1     		cbz	r2, .L75
 544              		.loc 1 288 0
 545 0014 C06C     		ldr	r0, [r0, #76]
 546 0016 9047     		blx	r2
 547              	.LVL28:
 548              	.L75:
 549              		.loc 1 291 0
 550 0018 BDE81040 		pop	{r4, lr}
 551              		.cfi_restore 14
 552              		.cfi_restore 4
 553              		.cfi_def_cfa_offset 0
 554              		.loc 1 290 0
 555 001c FFF7FEBF 		b	_port_irq_epilogue
 556              	.LVL29:
 557              	.L81:
 558              		.align	2
 559              	.L80:
 560 0020 00040240 		.word	1073873920
 561 0024 00000000 		.word	.LANCHOR0
ARM GAS  /tmp/ccGNTUjr.s 			page 11


 562              		.cfi_endproc
 563              	.LFE264:
 564              		.size	Vector128, .-Vector128
 565 0028 AFF30080 		.section	.text.Vector12C,"ax",%progbits
 565      AFF30080 
 566              		.align	2
 567              		.p2align 4,,15
 568              		.global	Vector12C
 569              		.thumb
 570              		.thumb_func
 571              		.type	Vector12C, %function
 572              	Vector12C:
 573              	.LFB265:
 574              		.loc 1 298 0
 575              		.cfi_startproc
 576              		@ args = 0, pretend = 0, frame = 0
 577              		@ frame_needed = 0, uses_anonymous_args = 0
 578              		.loc 1 303 0
 579 0000 074B     		ldr	r3, .L88
 580              		.loc 1 305 0
 581 0002 0848     		ldr	r0, .L88+4
 582              		.loc 1 303 0
 583 0004 1968     		ldr	r1, [r3]
 584              		.loc 1 305 0
 585 0006 026D     		ldr	r2, [r0, #80]
 586              		.loc 1 303 0
 587 0008 C1F30331 		ubfx	r1, r1, #12, #4
 588              	.LVL30:
 589              		.loc 1 298 0
 590 000c 10B5     		push	{r4, lr}
 591              		.cfi_def_cfa_offset 8
 592              		.cfi_offset 4, -8
 593              		.cfi_offset 14, -4
 594              		.loc 1 304 0
 595 000e 0C03     		lsls	r4, r1, #12
 596 0010 5C60     		str	r4, [r3, #4]
 597              		.loc 1 305 0
 598 0012 0AB1     		cbz	r2, .L83
 599              		.loc 1 306 0
 600 0014 406D     		ldr	r0, [r0, #84]
 601 0016 9047     		blx	r2
 602              	.LVL31:
 603              	.L83:
 604              		.loc 1 309 0
 605 0018 BDE81040 		pop	{r4, lr}
 606              		.cfi_restore 14
 607              		.cfi_restore 4
 608              		.cfi_def_cfa_offset 0
 609              		.loc 1 308 0
 610 001c FFF7FEBF 		b	_port_irq_epilogue
 611              	.LVL32:
 612              	.L89:
 613              		.align	2
 614              	.L88:
 615 0020 00040240 		.word	1073873920
 616 0024 00000000 		.word	.LANCHOR0
 617              		.cfi_endproc
ARM GAS  /tmp/ccGNTUjr.s 			page 12


 618              	.LFE265:
 619              		.size	Vector12C, .-Vector12C
 620 0028 AFF30080 		.section	.text.Vector130,"ax",%progbits
 620      AFF30080 
 621              		.align	2
 622              		.p2align 4,,15
 623              		.global	Vector130
 624              		.thumb
 625              		.thumb_func
 626              		.type	Vector130, %function
 627              	Vector130:
 628              	.LFB266:
 629              		.loc 1 316 0
 630              		.cfi_startproc
 631              		@ args = 0, pretend = 0, frame = 0
 632              		@ frame_needed = 0, uses_anonymous_args = 0
 633              		.loc 1 321 0
 634 0000 074B     		ldr	r3, .L96
 635              		.loc 1 323 0
 636 0002 0848     		ldr	r0, .L96+4
 637              		.loc 1 321 0
 638 0004 1968     		ldr	r1, [r3]
 639              		.loc 1 323 0
 640 0006 826D     		ldr	r2, [r0, #88]
 641              		.loc 1 321 0
 642 0008 C1F30341 		ubfx	r1, r1, #16, #4
 643              	.LVL33:
 644              		.loc 1 316 0
 645 000c 10B5     		push	{r4, lr}
 646              		.cfi_def_cfa_offset 8
 647              		.cfi_offset 4, -8
 648              		.cfi_offset 14, -4
 649              		.loc 1 322 0
 650 000e 0C04     		lsls	r4, r1, #16
 651 0010 5C60     		str	r4, [r3, #4]
 652              		.loc 1 323 0
 653 0012 0AB1     		cbz	r2, .L91
 654              		.loc 1 324 0
 655 0014 C06D     		ldr	r0, [r0, #92]
 656 0016 9047     		blx	r2
 657              	.LVL34:
 658              	.L91:
 659              		.loc 1 327 0
 660 0018 BDE81040 		pop	{r4, lr}
 661              		.cfi_restore 14
 662              		.cfi_restore 4
 663              		.cfi_def_cfa_offset 0
 664              		.loc 1 326 0
 665 001c FFF7FEBF 		b	_port_irq_epilogue
 666              	.LVL35:
 667              	.L97:
 668              		.align	2
 669              	.L96:
 670 0020 00040240 		.word	1073873920
 671 0024 00000000 		.word	.LANCHOR0
 672              		.cfi_endproc
 673              	.LFE266:
ARM GAS  /tmp/ccGNTUjr.s 			page 13


 674              		.size	Vector130, .-Vector130
 675 0028 AFF30080 		.section	.text.dmaInit,"ax",%progbits
 675      AFF30080 
 676              		.align	2
 677              		.p2align 4,,15
 678              		.global	dmaInit
 679              		.thumb
 680              		.thumb_func
 681              		.type	dmaInit, %function
 682              	dmaInit:
 683              	.LFB267:
 684              		.loc 1 338 0
 685              		.cfi_startproc
 686              		@ args = 0, pretend = 0, frame = 0
 687              		@ frame_needed = 0, uses_anonymous_args = 0
 688              		@ link register save eliminated.
 689              		.loc 1 341 0
 690 0000 0C4B     		ldr	r3, .L102
 691              		.loc 1 338 0
 692 0002 30B4     		push	{r4, r5}
 693              		.cfi_def_cfa_offset 8
 694              		.cfi_offset 4, -8
 695              		.cfi_offset 5, -4
 696              		.loc 1 341 0
 697 0004 0022     		movs	r2, #0
 698 0006 0C4D     		ldr	r5, .L102+4
 699 0008 0C4C     		ldr	r4, .L102+8
 700 000a 1A60     		str	r2, [r3]
 701              	.LVL36:
 702              		.loc 1 343 0
 703 000c 1146     		mov	r1, r2
 704              		.loc 1 342 0
 705 000e 1346     		mov	r3, r2
 706              	.LVL37:
 707              	.L99:
 708              		.loc 1 343 0 discriminator 3
 709 0010 A858     		ldr	r0, [r5, r2]
 710 0012 0160     		str	r1, [r0]
 711              		.loc 1 344 0 discriminator 3
 712 0014 44F83310 		str	r1, [r4, r3, lsl #3]
 713              		.loc 1 342 0 discriminator 3
 714 0018 0133     		adds	r3, r3, #1
 715              	.LVL38:
 716 001a 0C2B     		cmp	r3, #12
 717 001c 02F10C02 		add	r2, r2, #12
 718 0020 F6D1     		bne	.L99
 719              		.loc 1 346 0
 720 0022 0749     		ldr	r1, .L102+12
 721              		.loc 1 348 0
 722 0024 074A     		ldr	r2, .L102+16
 723              		.loc 1 346 0
 724 0026 4FF0FF33 		mov	r3, #-1
 725              	.LVL39:
 726 002a 4B60     		str	r3, [r1, #4]
 727              		.loc 1 350 0
 728 002c 30BC     		pop	{r4, r5}
 729              		.cfi_restore 5
ARM GAS  /tmp/ccGNTUjr.s 			page 14


 730              		.cfi_restore 4
 731              		.cfi_def_cfa_offset 0
 732              		.loc 1 348 0
 733 002e 5360     		str	r3, [r2, #4]
 734              		.loc 1 350 0
 735 0030 7047     		bx	lr
 736              	.L103:
 737 0032 00BF     		.align	2
 738              	.L102:
 739 0034 00000000 		.word	.LANCHOR1
 740 0038 00000000 		.word	.LANCHOR2
 741 003c 00000000 		.word	.LANCHOR0
 742 0040 00000240 		.word	1073872896
 743 0044 00040240 		.word	1073873920
 744              		.cfi_endproc
 745              	.LFE267:
 746              		.size	dmaInit, .-dmaInit
 747 0048 AFF30080 		.section	.text.dmaStreamAllocate,"ax",%progbits
 747      AFF30080 
 748              		.align	2
 749              		.p2align 4,,15
 750              		.global	dmaStreamAllocate
 751              		.thumb
 752              		.thumb_func
 753              		.type	dmaStreamAllocate, %function
 754              	dmaStreamAllocate:
 755              	.LFB268:
 756              		.loc 1 379 0
 757              		.cfi_startproc
 758              		@ args = 0, pretend = 0, frame = 0
 759              		@ frame_needed = 0, uses_anonymous_args = 0
 760              	.LVL40:
 761 0000 F8B5     		push	{r3, r4, r5, r6, r7, lr}
 762              		.cfi_def_cfa_offset 24
 763              		.cfi_offset 3, -24
 764              		.cfi_offset 4, -20
 765              		.cfi_offset 5, -16
 766              		.cfi_offset 6, -12
 767              		.cfi_offset 7, -8
 768              		.cfi_offset 14, -4
 769              		.loc 1 384 0
 770 0002 1C4F     		ldr	r7, .L117
 771 0004 467A     		ldrb	r6, [r0, #9]	@ zero_extendqisi2
 772 0006 3D68     		ldr	r5, [r7]
 773 0008 0124     		movs	r4, #1
 774 000a 04FA06FE 		lsl	lr, r4, r6
 775 000e 1EEA050F 		tst	lr, r5
 776 0012 2AD1     		bne	.L108
 777              		.loc 1 388 0
 778 0014 184C     		ldr	r4, .L117+4
 779              		.loc 1 389 0
 780 0016 04EBC60C 		add	ip, r4, r6, lsl #3
 781              		.loc 1 390 0
 782 001a 4EEA0505 		orr	r5, lr, r5
 783              		.loc 1 389 0
 784 001e CCF80430 		str	r3, [ip, #4]
 785              		.loc 1 393 0
ARM GAS  /tmp/ccGNTUjr.s 			page 15


 786 0022 6B06     		lsls	r3, r5, #25
 787              	.LVL41:
 788              		.loc 1 390 0
 789 0024 3D60     		str	r5, [r7]
 790              		.loc 1 388 0
 791 0026 44F83620 		str	r2, [r4, r6, lsl #3]
 792              		.loc 1 393 0
 793 002a 04D0     		beq	.L106
 794              		.loc 1 394 0
 795 002c 134C     		ldr	r4, .L117+8
 796 002e 6369     		ldr	r3, [r4, #20]
 797 0030 43F00103 		orr	r3, r3, #1
 798 0034 6361     		str	r3, [r4, #20]
 799              	.L106:
 800              		.loc 1 396 0
 801 0036 15F4786F 		tst	r5, #3968
 802 003a 04D0     		beq	.L107
 803              		.loc 1 397 0
 804 003c 0F4C     		ldr	r4, .L117+8
 805 003e 6369     		ldr	r3, [r4, #20]
 806 0040 43F00203 		orr	r3, r3, #2
 807 0044 6361     		str	r3, [r4, #20]
 808              	.L107:
 809              		.loc 1 401 0
 810 0046 90E84800 		ldmia	r0, {r3, r6}
 811 004a 1C68     		ldr	r4, [r3]
 812 004c 24F00F04 		bic	r4, r4, #15
 813 0050 1C60     		str	r4, [r3]
 814 0052 047A     		ldrb	r4, [r0, #8]	@ zero_extendqisi2
 815 0054 0F25     		movs	r5, #15
 816 0056 A540     		lsls	r5, r5, r4
 817              		.loc 1 402 0
 818 0058 0024     		movs	r4, #0
 819              		.loc 1 401 0
 820 005a 3560     		str	r5, [r6]
 821              		.loc 1 402 0
 822 005c 1C60     		str	r4, [r3]
 823              		.loc 1 405 0
 824 005e 32B1     		cbz	r2, .L109
 825              		.loc 1 406 0
 826 0060 807A     		ldrb	r0, [r0, #10]	@ zero_extendqisi2
 827              	.LVL42:
 828 0062 FFF7FEFF 		bl	nvicEnableVector
 829              	.LVL43:
 830              		.loc 1 408 0
 831 0066 2046     		mov	r0, r4
 832 0068 F8BD     		pop	{r3, r4, r5, r6, r7, pc}
 833              	.LVL44:
 834              	.L108:
 835              		.loc 1 385 0
 836 006a 2046     		mov	r0, r4
 837              	.LVL45:
 838 006c F8BD     		pop	{r3, r4, r5, r6, r7, pc}
 839              	.LVL46:
 840              	.L109:
 841              		.loc 1 408 0
 842 006e 1046     		mov	r0, r2
ARM GAS  /tmp/ccGNTUjr.s 			page 16


 843              	.LVL47:
 844              		.loc 1 409 0
 845 0070 F8BD     		pop	{r3, r4, r5, r6, r7, pc}
 846              	.L118:
 847 0072 00BF     		.align	2
 848              	.L117:
 849 0074 00000000 		.word	.LANCHOR1
 850 0078 00000000 		.word	.LANCHOR0
 851 007c 00100240 		.word	1073876992
 852              		.cfi_endproc
 853              	.LFE268:
 854              		.size	dmaStreamAllocate, .-dmaStreamAllocate
 855              		.section	.text.dmaStreamRelease,"ax",%progbits
 856              		.align	2
 857              		.p2align 4,,15
 858              		.global	dmaStreamRelease
 859              		.thumb
 860              		.thumb_func
 861              		.type	dmaStreamRelease, %function
 862              	dmaStreamRelease:
 863              	.LFB269:
 864              		.loc 1 424 0
 865              		.cfi_startproc
 866              		@ args = 0, pretend = 0, frame = 0
 867              		@ frame_needed = 0, uses_anonymous_args = 0
 868              	.LVL48:
 869 0000 10B5     		push	{r4, lr}
 870              		.cfi_def_cfa_offset 8
 871              		.cfi_offset 4, -8
 872              		.cfi_offset 14, -4
 873              		.loc 1 424 0
 874 0002 0446     		mov	r4, r0
 875              		.loc 1 433 0
 876 0004 807A     		ldrb	r0, [r0, #10]	@ zero_extendqisi2
 877              	.LVL49:
 878 0006 FFF7FEFF 		bl	nvicDisableVector
 879              	.LVL50:
 880              		.loc 1 436 0
 881 000a 0C49     		ldr	r1, .L123
 882 000c 607A     		ldrb	r0, [r4, #9]	@ zero_extendqisi2
 883 000e 0A68     		ldr	r2, [r1]
 884 0010 0123     		movs	r3, #1
 885 0012 8340     		lsls	r3, r3, r0
 886 0014 22EA0303 		bic	r3, r2, r3
 887              		.loc 1 439 0
 888 0018 5A06     		lsls	r2, r3, #25
 889              		.loc 1 436 0
 890 001a 0B60     		str	r3, [r1]
 891              		.loc 1 439 0
 892 001c 04D1     		bne	.L120
 893              		.loc 1 440 0
 894 001e 0849     		ldr	r1, .L123+4
 895 0020 4A69     		ldr	r2, [r1, #20]
 896 0022 22F00102 		bic	r2, r2, #1
 897 0026 4A61     		str	r2, [r1, #20]
 898              	.L120:
 899              		.loc 1 442 0
ARM GAS  /tmp/ccGNTUjr.s 			page 17


 900 0028 13F4786F 		tst	r3, #3968
 901 002c 04D1     		bne	.L119
 902              		.loc 1 443 0
 903 002e 044A     		ldr	r2, .L123+4
 904 0030 5369     		ldr	r3, [r2, #20]
 905 0032 23F00203 		bic	r3, r3, #2
 906 0036 5361     		str	r3, [r2, #20]
 907              	.L119:
 908 0038 10BD     		pop	{r4, pc}
 909              	.LVL51:
 910              	.L124:
 911 003a 00BF     		.align	2
 912              	.L123:
 913 003c 00000000 		.word	.LANCHOR1
 914 0040 00100240 		.word	1073876992
 915              		.cfi_endproc
 916              	.LFE269:
 917              		.size	dmaStreamRelease, .-dmaStreamRelease
 918              		.global	_stm32_dma_streams
 919 0044 AFF30080 		.section	.bss.dma_isr_redir,"aw",%nobits
 919      AFF30080 
 919      AFF30080 
 920              		.align	2
 921              		.set	.LANCHOR0,. + 0
 922              		.type	dma_isr_redir, %object
 923              		.size	dma_isr_redir, 96
 924              	dma_isr_redir:
 925 0000 00000000 		.space	96
 925      00000000 
 925      00000000 
 925      00000000 
 925      00000000 
 926              		.section	.rodata._stm32_dma_streams,"a",%progbits
 927              		.align	2
 928              		.set	.LANCHOR2,. + 0
 929              		.type	_stm32_dma_streams, %object
 930              		.size	_stm32_dma_streams, 144
 931              	_stm32_dma_streams:
 932 0000 08000240 		.word	1073872904
 933 0004 04000240 		.word	1073872900
 934 0008 00       		.byte	0
 935 0009 00       		.byte	0
 936 000a 0B       		.byte	11
 937 000b 00       		.space	1
 938 000c 1C000240 		.word	1073872924
 939 0010 04000240 		.word	1073872900
 940 0014 04       		.byte	4
 941 0015 01       		.byte	1
 942 0016 0C       		.byte	12
 943 0017 00       		.space	1
 944 0018 30000240 		.word	1073872944
 945 001c 04000240 		.word	1073872900
 946 0020 08       		.byte	8
 947 0021 02       		.byte	2
 948 0022 0D       		.byte	13
 949 0023 00       		.space	1
 950 0024 44000240 		.word	1073872964
ARM GAS  /tmp/ccGNTUjr.s 			page 18


 951 0028 04000240 		.word	1073872900
 952 002c 0C       		.byte	12
 953 002d 03       		.byte	3
 954 002e 0E       		.byte	14
 955 002f 00       		.space	1
 956 0030 58000240 		.word	1073872984
 957 0034 04000240 		.word	1073872900
 958 0038 10       		.byte	16
 959 0039 04       		.byte	4
 960 003a 0F       		.byte	15
 961 003b 00       		.space	1
 962 003c 6C000240 		.word	1073873004
 963 0040 04000240 		.word	1073872900
 964 0044 14       		.byte	20
 965 0045 05       		.byte	5
 966 0046 10       		.byte	16
 967 0047 00       		.space	1
 968 0048 80000240 		.word	1073873024
 969 004c 04000240 		.word	1073872900
 970 0050 18       		.byte	24
 971 0051 06       		.byte	6
 972 0052 11       		.byte	17
 973 0053 00       		.space	1
 974 0054 08040240 		.word	1073873928
 975 0058 04040240 		.word	1073873924
 976 005c 00       		.byte	0
 977 005d 07       		.byte	7
 978 005e 38       		.byte	56
 979 005f 00       		.space	1
 980 0060 1C040240 		.word	1073873948
 981 0064 04040240 		.word	1073873924
 982 0068 04       		.byte	4
 983 0069 08       		.byte	8
 984 006a 39       		.byte	57
 985 006b 00       		.space	1
 986 006c 30040240 		.word	1073873968
 987 0070 04040240 		.word	1073873924
 988 0074 08       		.byte	8
 989 0075 09       		.byte	9
 990 0076 3A       		.byte	58
 991 0077 00       		.space	1
 992 0078 44040240 		.word	1073873988
 993 007c 04040240 		.word	1073873924
 994 0080 0C       		.byte	12
 995 0081 0A       		.byte	10
 996 0082 3B       		.byte	59
 997 0083 00       		.space	1
 998 0084 58040240 		.word	1073874008
 999 0088 04040240 		.word	1073873924
 1000 008c 10       		.byte	16
 1001 008d 0B       		.byte	11
 1002 008e 3C       		.byte	60
 1003 008f 00       		.space	1
 1004              		.section	.bss.dma_streams_mask,"aw",%nobits
 1005              		.align	2
 1006              		.set	.LANCHOR1,. + 0
 1007              		.type	dma_streams_mask, %object
ARM GAS  /tmp/ccGNTUjr.s 			page 19


 1008              		.size	dma_streams_mask, 4
 1009              	dma_streams_mask:
 1010 0000 00000000 		.space	4
 1011              		.text
 1012              	.Letext0:
 1013              		.file 2 "/l/arm2/gcc-arm-none-eabi-4_9-2014q4/lib/gcc/arm-none-eabi/4.9.3/include/stddef.h"
 1014              		.file 3 "/l/arm2/gcc-arm-none-eabi-4_9-2014q4/arm-none-eabi/include/machine/_default_types.h"
 1015              		.file 4 "/l/arm2/gcc-arm-none-eabi-4_9-2014q4/arm-none-eabi/include/stdint.h"
 1016              		.file 5 "../ChibiOS/os/rt/ports/ARMCMx/compilers/GCC/chtypes.h"
 1017              		.file 6 "../ChibiOS/os/rt/include/chsystypes.h"
 1018              		.file 7 "../ChibiOS/os/rt/include/chschd.h"
 1019              		.file 8 "../ChibiOS/os/ext/CMSIS/ST/stm32f303xc.h"
 1020              		.file 9 "../ChibiOS/os/rt/ports/ARMCMx/chcore.h"
 1021              		.file 10 "../ChibiOS/os/rt/ports/ARMCMx/chcore_v7m.h"
 1022              		.file 11 "../ChibiOS/os/rt/include/chtm.h"
 1023              		.file 12 "../ChibiOS/os/rt/include/chmtx.h"
 1024              		.file 13 "../ChibiOS/os/hal/ports/STM32/STM32F3xx/stm32_dma.h"
 1025              		.file 14 "../ChibiOS/os/ext/CMSIS/include/core_cm4.h"
 1026              		.file 15 "../ChibiOS/os/hal/ports/common/ARMCMx/nvic.h"