ARM GAS  /tmp/ccGNTUjr.s 			page 1


   1              		.syntax unified
   2              		.cpu cortex-m4
   3              		.eabi_attribute 27, 3
   4              		.eabi_attribute 28, 1
   5              		.fpu fpv4-sp-d16
   6              		.eabi_attribute 20, 1
   7              		.eabi_attribute 21, 1
   8              		.eabi_attribute 23, 3
   9              		.eabi_attribute 24, 1
  10              		.eabi_attribute 25, 1
  11              		.eabi_attribute 26, 1
  12              		.eabi_attribute 30, 2
  13              		.eabi_attribute 34, 1
  14              		.eabi_attribute 18, 4
  15              		.thumb
  16              		.file	"stm32_dma.c"
  17              		.text
  18              	.Ltext0:
  19              		.cfi_sections	.debug_frame
  20              		.section	.text.Vector6C,"ax",%progbits
  21              		.align	2
  22              		.p2align 4,,15
  23              		.global	Vector6C
  24              		.thumb
  25              		.thumb_func
  26              		.type	Vector6C, %function
  27              	Vector6C:
  28              	.LFB255:
  29              		.file 1 "../ChibiOS/os/hal/ports/STM32/STM32F3xx/stm32_dma.c"
  30              		.loc 1 118 0
  31              		.cfi_startproc
  32              		@ args = 0, pretend = 0, frame = 0
  33              		@ frame_needed = 0, uses_anonymous_args = 0
  34 0000 08B5     		push	{r3, lr}
  35              		.cfi_def_cfa_offset 8
  36              		.cfi_offset 3, -8
  37              		.cfi_offset 14, -4
  38              		.loc 1 123 0
  39 0002 074B     		ldr	r3, .L8
  40              		.loc 1 125 0
  41 0004 074A     		ldr	r2, .L8+4
  42              		.loc 1 123 0
  43 0006 1968     		ldr	r1, [r3]
  44 0008 01F00F01 		and	r1, r1, #15
  45              	.LVL0:
  46              		.loc 1 124 0
  47 000c 5960     		str	r1, [r3, #4]
  48              		.loc 1 125 0
  49 000e 1368     		ldr	r3, [r2]
  50 0010 0BB1     		cbz	r3, .L2
  51              		.loc 1 126 0
  52 0012 5068     		ldr	r0, [r2, #4]
  53 0014 9847     		blx	r3
  54              	.LVL1:
  55              	.L2:
  56              		.loc 1 129 0
  57 0016 BDE80840 		pop	{r3, lr}
ARM GAS  /tmp/ccGNTUjr.s 			page 2


  58              		.cfi_restore 14
  59              		.cfi_restore 3
  60              		.cfi_def_cfa_offset 0
  61              		.loc 1 128 0
  62 001a FFF7FEBF 		b	_port_irq_epilogue
  63              	.LVL2:
  64              	.L9:
  65 001e 00BF     		.align	2
  66              	.L8:
  67 0020 00000240 		.word	1073872896
  68 0024 00000000 		.word	.LANCHOR0
  69              		.cfi_endproc
  70              	.LFE255:
  71              		.size	Vector6C, .-Vector6C
  72 0028 AFF30080 		.section	.text.Vector70,"ax",%progbits
  72      AFF30080 
  73              		.align	2
  74              		.p2align 4,,15
  75              		.global	Vector70
  76              		.thumb
  77              		.thumb_func
  78              		.type	Vector70, %function
  79              	Vector70:
  80              	.LFB256:
  81              		.loc 1 136 0
  82              		.cfi_startproc
  83              		@ args = 0, pretend = 0, frame = 0
  84              		@ frame_needed = 0, uses_anonymous_args = 0
  85              		.loc 1 141 0
  86 0000 074B     		ldr	r3, .L16
  87              		.loc 1 143 0
  88 0002 0848     		ldr	r0, .L16+4
  89              		.loc 1 141 0
  90 0004 1968     		ldr	r1, [r3]
  91              		.loc 1 143 0
  92 0006 8268     		ldr	r2, [r0, #8]
  93              		.loc 1 141 0
  94 0008 C1F30311 		ubfx	r1, r1, #4, #4
  95              	.LVL3:
  96              		.loc 1 136 0
  97 000c 10B5     		push	{r4, lr}
  98              		.cfi_def_cfa_offset 8
  99              		.cfi_offset 4, -8
 100              		.cfi_offset 14, -4
 101              		.loc 1 142 0
 102 000e 0C01     		lsls	r4, r1, #4
 103 0010 5C60     		str	r4, [r3, #4]
 104              		.loc 1 143 0
 105 0012 0AB1     		cbz	r2, .L11
 106              		.loc 1 144 0
 107 0014 C068     		ldr	r0, [r0, #12]
 108 0016 9047     		blx	r2
 109              	.LVL4:
 110              	.L11:
 111              		.loc 1 147 0
 112 0018 BDE81040 		pop	{r4, lr}
 113              		.cfi_restore 14
ARM GAS  /tmp/ccGNTUjr.s 			page 3


 114              		.cfi_restore 4
 115              		.cfi_def_cfa_offset 0
 116              		.loc 1 146 0
 117 001c FFF7FEBF 		b	_port_irq_epilogue
 118              	.LVL5:
 119              	.L17:
 120              		.align	2
 121              	.L16:
 122 0020 00000240 		.word	1073872896
 123 0024 00000000 		.word	.LANCHOR0
 124              		.cfi_endproc
 125              	.LFE256:
 126              		.size	Vector70, .-Vector70
 127 0028 AFF30080 		.section	.text.Vector74,"ax",%progbits
 127      AFF30080 
 128              		.align	2
 129              		.p2align 4,,15
 130              		.global	Vector74
 131              		.thumb
 132              		.thumb_func
 133              		.type	Vector74, %function
 134              	Vector74:
 135              	.LFB257:
 136              		.loc 1 154 0
 137              		.cfi_startproc
 138              		@ args = 0, pretend = 0, frame = 0
 139              		@ frame_needed = 0, uses_anonymous_args = 0
 140              		.loc 1 159 0
 141 0000 074B     		ldr	r3, .L24
 142              		.loc 1 161 0
 143 0002 0848     		ldr	r0, .L24+4
 144              		.loc 1 159 0
 145 0004 1968     		ldr	r1, [r3]
 146              		.loc 1 161 0
 147 0006 0269     		ldr	r2, [r0, #16]
 148              		.loc 1 159 0
 149 0008 C1F30321 		ubfx	r1, r1, #8, #4
 150              	.LVL6:
 151              		.loc 1 154 0
 152 000c 10B5     		push	{r4, lr}
 153              		.cfi_def_cfa_offset 8
 154              		.cfi_offset 4, -8
 155              		.cfi_offset 14, -4
 156              		.loc 1 160 0
 157 000e 0C02     		lsls	r4, r1, #8
 158 0010 5C60     		str	r4, [r3, #4]
 159              		.loc 1 161 0
 160 0012 0AB1     		cbz	r2, .L19
 161              		.loc 1 162 0
 162 0014 4069     		ldr	r0, [r0, #20]
 163 0016 9047     		blx	r2
 164              	.LVL7:
 165              	.L19:
 166              		.loc 1 165 0
 167 0018 BDE81040 		pop	{r4, lr}
 168              		.cfi_restore 14
 169              		.cfi_restore 4
ARM GAS  /tmp/ccGNTUjr.s 			page 4


 170              		.cfi_def_cfa_offset 0
 171              		.loc 1 164 0
 172 001c FFF7FEBF 		b	_port_irq_epilogue
 173              	.LVL8:
 174              	.L25:
 175              		.align	2
 176              	.L24:
 177 0020 00000240 		.word	1073872896
 178 0024 00000000 		.word	.LANCHOR0
 179              		.cfi_endproc
 180              	.LFE257:
 181              		.size	Vector74, .-Vector74
 182 0028 AFF30080 		.section	.text.Vector78,"ax",%progbits
 182      AFF30080 
 183              		.align	2
 184              		.p2align 4,,15
 185              		.global	Vector78
 186              		.thumb
 187              		.thumb_func
 188              		.type	Vector78, %function
 189              	Vector78:
 190              	.LFB258:
 191              		.loc 1 172 0
 192              		.cfi_startproc
 193              		@ args = 0, pretend = 0, frame = 0
 194              		@ frame_needed = 0, uses_anonymous_args = 0
 195              		.loc 1 177 0
 196 0000 074B     		ldr	r3, .L32
 197              		.loc 1 179 0
 198 0002 0848     		ldr	r0, .L32+4
 199              		.loc 1 177 0
 200 0004 1968     		ldr	r1, [r3]
 201              		.loc 1 179 0
 202 0006 8269     		ldr	r2, [r0, #24]
 203              		.loc 1 177 0
 204 0008 C1F30331 		ubfx	r1, r1, #12, #4
 205              	.LVL9:
 206              		.loc 1 172 0
 207 000c 10B5     		push	{r4, lr}
 208              		.cfi_def_cfa_offset 8
 209              		.cfi_offset 4, -8
 210              		.cfi_offset 14, -4
 211              		.loc 1 178 0
 212 000e 0C03     		lsls	r4, r1, #12
 213 0010 5C60     		str	r4, [r3, #4]
 214              		.loc 1 179 0
 215 0012 0AB1     		cbz	r2, .L27
 216              		.loc 1 180 0
 217 0014 C069     		ldr	r0, [r0, #28]
 218 0016 9047     		blx	r2
 219              	.LVL10:
 220              	.L27:
 221              		.loc 1 183 0
 222 0018 BDE81040 		pop	{r4, lr}
 223              		.cfi_restore 14
 224              		.cfi_restore 4
 225              		.cfi_def_cfa_offset 0
ARM GAS  /tmp/ccGNTUjr.s 			page 5


 226              		.loc 1 182 0
 227 001c FFF7FEBF 		b	_port_irq_epilogue
 228              	.LVL11:
 229              	.L33:
 230              		.align	2
 231              	.L32:
 232 0020 00000240 		.word	1073872896
 233 0024 00000000 		.word	.LANCHOR0
 234              		.cfi_endproc
 235              	.LFE258:
 236              		.size	Vector78, .-Vector78
 237 0028 AFF30080 		.section	.text.Vector7C,"ax",%progbits
 237      AFF30080 
 238              		.align	2
 239              		.p2align 4,,15
 240              		.global	Vector7C
 241              		.thumb
 242              		.thumb_func
 243              		.type	Vector7C, %function
 244              	Vector7C:
 245              	.LFB259:
 246              		.loc 1 190 0
 247              		.cfi_startproc
 248              		@ args = 0, pretend = 0, frame = 0
 249              		@ frame_needed = 0, uses_anonymous_args = 0
 250              		.loc 1 195 0
 251 0000 074B     		ldr	r3, .L40
 252              		.loc 1 197 0
 253 0002 0848     		ldr	r0, .L40+4
 254              		.loc 1 195 0
 255 0004 1968     		ldr	r1, [r3]
 256              		.loc 1 197 0
 257 0006 026A     		ldr	r2, [r0, #32]
 258              		.loc 1 195 0
 259 0008 C1F30341 		ubfx	r1, r1, #16, #4
 260              	.LVL12:
 261              		.loc 1 190 0
 262 000c 10B5     		push	{r4, lr}
 263              		.cfi_def_cfa_offset 8
 264              		.cfi_offset 4, -8
 265              		.cfi_offset 14, -4
 266              		.loc 1 196 0
 267 000e 0C04     		lsls	r4, r1, #16
 268 0010 5C60     		str	r4, [r3, #4]
 269              		.loc 1 197 0
 270 0012 0AB1     		cbz	r2, .L35
 271              		.loc 1 198 0
 272 0014 406A     		ldr	r0, [r0, #36]
 273 0016 9047     		blx	r2
 274              	.LVL13:
 275              	.L35:
 276              		.loc 1 201 0
 277 0018 BDE81040 		pop	{r4, lr}
 278              		.cfi_restore 14
 279              		.cfi_restore 4
 280              		.cfi_def_cfa_offset 0
 281              		.loc 1 200 0
ARM GAS  /tmp/ccGNTUjr.s 			page 6


 282 001c FFF7FEBF 		b	_port_irq_epilogue
 283              	.LVL14:
 284              	.L41:
 285              		.align	2
 286              	.L40:
 287 0020 00000240 		.word	1073872896
 288 0024 00000000 		.word	.LANCHOR0
 289              		.cfi_endproc
 290              	.LFE259:
 291              		.size	Vector7C, .-Vector7C
 292 0028 AFF30080 		.section	.text.Vector80,"ax",%progbits
 292      AFF30080 
 293              		.align	2
 294              		.p2align 4,,15
 295              		.global	Vector80
 296              		.thumb
 297              		.thumb_func
 298              		.type	Vector80, %function
 299              	Vector80:
 300              	.LFB260:
 301              		.loc 1 208 0
 302              		.cfi_startproc
 303              		@ args = 0, pretend = 0, frame = 0
 304              		@ frame_needed = 0, uses_anonymous_args = 0
 305              		.loc 1 213 0
 306 0000 074B     		ldr	r3, .L48
 307              		.loc 1 215 0
 308 0002 0848     		ldr	r0, .L48+4
 309              		.loc 1 213 0
 310 0004 1968     		ldr	r1, [r3]
 311              		.loc 1 215 0
 312 0006 826A     		ldr	r2, [r0, #40]
 313              		.loc 1 213 0
 314 0008 C1F30351 		ubfx	r1, r1, #20, #4
 315              	.LVL15:
 316              		.loc 1 208 0
 317 000c 10B5     		push	{r4, lr}
 318              		.cfi_def_cfa_offset 8
 319              		.cfi_offset 4, -8
 320              		.cfi_offset 14, -4
 321              		.loc 1 214 0
 322 000e 0C05     		lsls	r4, r1, #20
 323 0010 5C60     		str	r4, [r3, #4]
 324              		.loc 1 215 0
 325 0012 0AB1     		cbz	r2, .L43
 326              		.loc 1 216 0
 327 0014 C06A     		ldr	r0, [r0, #44]
 328 0016 9047     		blx	r2
 329              	.LVL16:
 330              	.L43:
 331              		.loc 1 219 0
 332 0018 BDE81040 		pop	{r4, lr}
 333              		.cfi_restore 14
 334              		.cfi_restore 4
 335              		.cfi_def_cfa_offset 0
 336              		.loc 1 218 0
 337 001c FFF7FEBF 		b	_port_irq_epilogue
ARM GAS  /tmp/ccGNTUjr.s 			page 7


 338              	.LVL17:
 339              	.L49:
 340              		.align	2
 341              	.L48:
 342 0020 00000240 		.word	1073872896
 343 0024 00000000 		.word	.LANCHOR0
 344              		.cfi_endproc
 345              	.LFE260:
 346              		.size	Vector80, .-Vector80
 347 0028 AFF30080 		.section	.text.Vector84,"ax",%progbits
 347      AFF30080 
 348              		.align	2
 349              		.p2align 4,,15
 350              		.global	Vector84
 351              		.thumb
 352              		.thumb_func
 353              		.type	Vector84, %function
 354              	Vector84:
 355              	.LFB261:
 356              		.loc 1 226 0
 357              		.cfi_startproc
 358              		@ args = 0, pretend = 0, frame = 0
 359              		@ frame_needed = 0, uses_anonymous_args = 0
 360              		.loc 1 231 0
 361 0000 074B     		ldr	r3, .L56
 362              		.loc 1 233 0
 363 0002 0848     		ldr	r0, .L56+4
 364              		.loc 1 231 0
 365 0004 1968     		ldr	r1, [r3]
 366              		.loc 1 233 0
 367 0006 026B     		ldr	r2, [r0, #48]
 368              		.loc 1 231 0
 369 0008 C1F30361 		ubfx	r1, r1, #24, #4
 370              	.LVL18:
 371              		.loc 1 226 0
 372 000c 10B5     		push	{r4, lr}
 373              		.cfi_def_cfa_offset 8
 374              		.cfi_offset 4, -8
 375              		.cfi_offset 14, -4
 376              		.loc 1 232 0
 377 000e 0C06     		lsls	r4, r1, #24
 378 0010 5C60     		str	r4, [r3, #4]
 379              		.loc 1 233 0
 380 0012 0AB1     		cbz	r2, .L51
 381              		.loc 1 234 0
 382 0014 406B     		ldr	r0, [r0, #52]
 383 0016 9047     		blx	r2
 384              	.LVL19:
 385              	.L51:
 386              		.loc 1 237 0
 387 0018 BDE81040 		pop	{r4, lr}
 388              		.cfi_restore 14
 389              		.cfi_restore 4
 390              		.cfi_def_cfa_offset 0
 391              		.loc 1 236 0
 392 001c FFF7FEBF 		b	_port_irq_epilogue
 393              	.LVL20:
ARM GAS  /tmp/ccGNTUjr.s 			page 8


 394              	.L57:
 395              		.align	2
 396              	.L56:
 397 0020 00000240 		.word	1073872896
 398 0024 00000000 		.word	.LANCHOR0
 399              		.cfi_endproc
 400              	.LFE261:
 401              		.size	Vector84, .-Vector84
 402 0028 AFF30080 		.section	.text.Vector120,"ax",%progbits
 402      AFF30080 
 403              		.align	2
 404              		.p2align 4,,15
 405              		.global	Vector120
 406              		.thumb
 407              		.thumb_func
 408              		.type	Vector120, %function
 409              	Vector120:
 410              	.LFB262:
 411              		.loc 1 244 0
 412              		.cfi_startproc
 413              		@ args = 0, pretend = 0, frame = 0
 414              		@ frame_needed = 0, uses_anonymous_args = 0
 415 0000 08B5     		push	{r3, lr}
 416              		.cfi_def_cfa_offset 8
 417              		.cfi_offset 3, -8
 418              		.cfi_offset 14, -4
 419              		.loc 1 249 0
 420 0002 074B     		ldr	r3, .L64
 421              		.loc 1 251 0
 422 0004 0748     		ldr	r0, .L64+4
 423              		.loc 1 249 0
 424 0006 1968     		ldr	r1, [r3]
 425              		.loc 1 251 0
 426 0008 826B     		ldr	r2, [r0, #56]
 427              		.loc 1 249 0
 428 000a 01F00F01 		and	r1, r1, #15
 429              	.LVL21:
 430              		.loc 1 250 0
 431 000e 5960     		str	r1, [r3, #4]
 432              		.loc 1 251 0
 433 0010 0AB1     		cbz	r2, .L59
 434              		.loc 1 252 0
 435 0012 C06B     		ldr	r0, [r0, #60]
 436 0014 9047     		blx	r2
 437              	.LVL22:
 438              	.L59:
 439              		.loc 1 255 0
 440 0016 BDE80840 		pop	{r3, lr}
 441              		.cfi_restore 14
 442              		.cfi_restore 3
 443              		.cfi_def_cfa_offset 0
 444              		.loc 1 254 0
 445 001a FFF7FEBF 		b	_port_irq_epilogue
 446              	.LVL23:
 447              	.L65:
 448 001e 00BF     		.align	2
 449              	.L64:
ARM GAS  /tmp/ccGNTUjr.s 			page 9


 450 0020 00040240 		.word	1073873920
 451 0024 00000000 		.word	.LANCHOR0
 452              		.cfi_endproc
 453              	.LFE262:
 454              		.size	Vector120, .-Vector120
 455 0028 AFF30080 		.section	.text.Vector124,"ax",%progbits
 455      AFF30080 
 456              		.align	2
 457              		.p2align 4,,15
 458              		.global	Vector124
 459              		.thumb
 460              		.thumb_func
 461              		.type	Vector124, %function
 462              	Vector124:
 463              	.LFB263:
 464              		.loc 1 262 0
 465              		.cfi_startproc
 466              		@ args = 0, pretend = 0, frame = 0
 467              		@ frame_needed = 0, uses_anonymous_args = 0
 468              		.loc 1 267 0
 469 0000 074B     		ldr	r3, .L72
 470              		.loc 1 269 0
 471 0002 0848     		ldr	r0, .L72+4
 472              		.loc 1 267 0
 473 0004 1968     		ldr	r1, [r3]
 474              		.loc 1 269 0
 475 0006 026C     		ldr	r2, [r0, #64]
 476              		.loc 1 267 0
 477 0008 C1F30311 		ubfx	r1, r1, #4, #4
 478              	.LVL24:
 479              		.loc 1 262 0
 480 000c 10B5     		push	{r4, lr}
 481              		.cfi_def_cfa_offset 8
 482              		.cfi_offset 4, -8
 483              		.cfi_offset 14, -4
 484              		.loc 1 268 0
 485 000e 0C01     		lsls	r4, r1, #4
 486 0010 5C60     		str	r4, [r3, #4]
 487              		.loc 1 269 0
 488 0012 0AB1     		cbz	r2, .L67
 489              		.loc 1 270 0
 490 0014 406C     		ldr	r0, [r0, #68]
 491 0016 9047     		blx	r2
 492              	.LVL25:
 493              	.L67:
 494              		.loc 1 273 0
 495 0018 BDE81040 		pop	{r4, lr}
 496              		.cfi_restore 14
 497              		.cfi_restore 4
 498              		.cfi_def_cfa_offset 0
 499              		.loc 1 272 0
 500 001c FFF7FEBF 		b	_port_irq_epilogue
 501              	.LVL26:
 502              	.L73:
 503              		.align	2
 504              	.L72:
 505 0020 00040240 		.word	1073873920
ARM GAS  /tmp/ccGNTUjr.s 			page 10


 506 0024 00000000 		.word	.LANCHOR0
 507              		.cfi_endproc
 508              	.LFE263:
 509              		.size	Vector124, .-Vector124
 510 0028 AFF30080 		.section	.text.Vector128,"ax",%progbits
 510      AFF30080 
 511              		.align	2
 512              		.p2align 4,,15
 513              		.global	Vector128
 514              		.thumb
 515              		.thumb_func
 516              		.type	Vector128, %function
 517              	Vector128:
 518              	.LFB264:
 519              		.loc 1 280 0
 520              		.cfi_startproc
 521              		@ args = 0, pretend = 0, frame = 0
 522              		@ frame_needed = 0, uses_anonymous_args = 0
 523              		.loc 1 285 0
 524 0000 074B     		ldr	r3, .L80
 525              		.loc 1 287 0
 526 0002 0848     		ldr	r0, .L80+4
 527              		.loc 1 285 0
 528 0004 1968     		ldr	r1, [r3]
 529              		.loc 1 287 0
 530 0006 826C     		ldr	r2, [r0, #72]
 531              		.loc 1 285 0
 532 0008 C1F30321 		ubfx	r1, r1, #8, #4
 533              	.LVL27:
 534              		.loc 1 280 0
 535 000c 10B5     		push	{r4, lr}
 536              		.cfi_def_cfa_offset 8
 537              		.cfi_offset 4, -8
 538              		.cfi_offset 14, -4
 539              		.loc 1 286 0
 540 000e 0C02     		lsls	r4, r1, #8
 541 0010 5C60     		str	r4, [r3, #4]
 542              		.loc 1 287 0
 543 0012 0AB1     		cbz	r2, .L75
 544              		.loc 1 288 0
 545 0014 C06C     		ldr	r0, [r0, #76]
 546 0016 9047     		blx	r2
 547              	.LVL28:
 548              	.L75:
 549              		.loc 1 291 0
 550 0018 BDE81040 		pop	{r4, lr}
 551              		.cfi_restore 14
 552              		.cfi_restore 4
 553              		.cfi_def_cfa_offset 0
 554              		.loc 1 290 0
 555 001c FFF7FEBF 		b	_port_irq_epilogue
 556              	.LVL29:
 557              	.L81:
 558              		.align	2
 559              	.L80:
 560 0020 00040240 		.word	1073873920
 561 0024 00000000 		.word	.LANCHOR0
ARM GAS  /tmp/ccGNTUjr.s 			page 11


 562              		.cfi_endproc
 563              	.LFE264:
 564              		.size	Vector128, .-Vector128
 565 0028 AFF30080 		.section	.text.Vector12C,"ax",%progbits
 565      AFF30080 
 566              		.align	2
 567              		.p2align 4,,15
 568              		.global	Vector12C
 569              		.thumb
 570              		.thumb_func
 571              		.type	Vector12C, %function
 572              	Vector12C:
 573              	.LFB265:
 574              		.loc 1 298 0
 575              		.cfi_startproc
 576              		@ args = 0, pretend = 0, frame = 0
 577              		@ frame_needed = 0, uses_anonymous_args = 0
 578              		.loc 1 303 0
 579 0000 074B     		ldr	r3, .L88
 580              		.loc 1 305 0
 581 0002 0848     		ldr	r0, .L88+4
 582              		.loc 1 303 0
 583 0004 1968     		ldr	r1, [r3]
 584              		.loc 1 305 0
 585 0006 026D     		ldr	r2, [r0, #80]
 586              		.loc 1 303 0
 587 0008 C1F30331 		ubfx	r1, r1, #12, #4
 588              	.LVL30:
 589              		.loc 1 298 0
 590 000c 10B5     		push	{r4, lr}
 591              		.cfi_def_cfa_offset 8
 592              		.cfi_offset 4, -8
 593              		.cfi_offset 14, -4
 594              		.loc 1 304 0
 595 000e 0C03     		lsls	r4, r1, #12
 596 0010 5C60     		str	r4, [r3, #4]
 597              		.loc 1 305 0
 598 0012 0AB1     		cbz	r2, .L83
 599              		.loc 1 306 0
 600 0014 406D     		ldr	r0, [r0, #84]
 601 0016 9047     		blx	r2
 602              	.LVL31:
 603              	.L83:
 604              		.loc 1 309 0
 605 0018 BDE81040 		pop	{r4, lr}
 606              		.cfi_restore 14
 607              		.cfi_restore 4
 608              		.cfi_def_cfa_offset 0
 609              		.loc 1 308 0
 610 001c FFF7FEBF 		b	_port_irq_epilogue
 611              	.LVL32:
 612              	.L89:
 613              		.align	2
 614              	.L88:
 615 0020 00040240 		.word	1073873920
 616 0024 00000000 		.word	.LANCHOR0
 617              		.cfi_endproc
ARM GAS  /tmp/ccGNTUjr.s 			page 12


 618              	.LFE265:
 619              		.size	Vector12C, .-Vector12C
 620 0028 AFF30080 		.section	.text.Vector130,"ax",%progbits
 620      AFF30080 
 621              		.align	2
 622              		.p2align 4,,15
 623              		.global	Vector130
 624              		.thumb
 625              		.thumb_func
 626              		.type	Vector130, %function
 627              	Vector130:
 628              	.LFB266:
 629              		.loc 1 316 0
 630              		.cfi_startproc
 631              		@ args = 0, pretend = 0, frame = 0
 632              		@ frame_needed = 0, uses_anonymous_args = 0
 633              		.loc 1 321 0
 634 0000 074B     		ldr	r3, .L96
 635              		.loc 1 323 0
 636 0002 0848     		ldr	r0, .L96+4
 637              		.loc 1 321 0
 638 0004 1968     		ldr	r1, [r3]
 639              		.loc 1 323 0
 640 0006 826D     		ldr	r2, [r0, #88]
 641              		.loc 1 321 0
 642 0008 C1F30341 		ubfx	r1, r1, #16, #4
 643              	.LVL33:
 644              		.loc 1 316 0
 645 000c 10B5     		push	{r4, lr}
 646              		.cfi_def_cfa_offset 8
 647              		.cfi_offset 4, -8
 648              		.cfi_offset 14, -4
 649              		.loc 1 322 0
 650 000e 0C04     		lsls	r4, r1, #16
 651 0010 5C60     		str	r4, [r3, #4]
 652              		.loc 1 323 0
 653 0012 0AB1     		cbz	r2, .L91
 654              		.loc 1 324 0
 655 0014 C06D     		ldr	r0, [r0, #92]
 656 0016 9047     		blx	r2
 657              	.LVL34:
 658              	.L91:
 659              		.loc 1 327 0
 660 0018 BDE81040 		pop	{r4, lr}
 661              		.cfi_restore 14
 662              		.cfi_restore 4
 663              		.cfi_def_cfa_offset 0
 664              		.loc 1 326 0
 665 001c FFF7FEBF 		b	_port_irq_epilogue
 666              	.LVL35:
 667              	.L97:
 668              		.align	2
 669              	.L96:
 670 0020 00040240 		.word	1073873920
 671 0024 00000000 		.word	.LANCHOR0
 672              		.cfi_endproc
 673              	.LFE266:
ARM GAS  /tmp/ccGNTUjr.s 			page 13


 674              		.size	Vector130, .-Vector130
 675 0028 AFF30080 		.section	.text.dmaInit,"ax",%progbits
 675      AFF30080 
 676              		.align	2
 677              		.p2align 4,,15
 678              		.global	dmaInit
 679              		.thumb
 680              		.thumb_func
 681              		.type	dmaInit, %function
 682              	dmaInit:
 683              	.LFB267:
 684              		.loc 1 338 0
 685              		.cfi_startproc
 686              		@ args = 0, pretend = 0, frame = 0
 687              		@ frame_needed = 0, uses_anonymous_args = 0
 688              		@ link register save eliminated.
 689              		.loc 1 341 0
 690 0000 0C4B     		ldr	r3, .L102
 691              		.loc 1 338 0
 692 0002 30B4     		push	{r4, r5}
 693              		.cfi_def_cfa_offset 8
 694              		.cfi_offset 4, -8
 695              		.cfi_offset 5, -4
 696              		.loc 1 341 0
 697 0004 0022     		movs	r2, #0
 698 0006 0C4D     		ldr	r5, .L102+4
 699 0008 0C4C     		ldr	r4, .L102+8
 700 000a 1A60     		str	r2, [r3]
 701              	.LVL36:
 702              		.loc 1 343 0
 703 000c 1146     		mov	r1, r2
 704              		.loc 1 342 0
 705 000e 1346     		mov	r3, r2
 706              	.LVL37:
 707              	.L99:
 708              		.loc 1 343 0 discriminator 3
 709 0010 A858     		ldr	r0, [r5, r2]
 710 0012 0160     		str	r1, [r0]
 711              		.loc 1 344 0 discriminator 3
 712 0014 44F83310 		str	r1, [r4, r3, lsl #3]
 713              		.loc 1 342 0 discriminator 3
 714 0018 0133     		adds	r3, r3, #1
 715              	.LVL38:
 716 001a 0C2B     		cmp	r3, #12
 717 001c 02F10C02 		add	r2, r2, #12
 718 0020 F6D1     		bne	.L99
 719              		.loc 1 346 0
 720 0022 0749     		ldr	r1, .L102+12
 721              		.loc 1 348 0
 722 0024 074A     		ldr	r2, .L102+16
 723              		.loc 1 346 0
 724 0026 4FF0FF33 		mov	r3, #-1
 725              	.LVL39:
 726 002a 4B60     		str	r3, [r1, #4]
 727              		.loc 1 350 0
 728 002c 30BC     		pop	{r4, r5}
 729              		.cfi_restore 5
ARM GAS  /tmp/ccGNTUjr.s 			page 14


 730              		.cfi_restore 4
 731              		.cfi_def_cfa_offset 0
 732              		.loc 1 348 0
 733 002e 5360     		str	r3, [r2, #4]
 734              		.loc 1 350 0
 735 0030 7047     		bx	lr
 736              	.L103:
 737 0032 00BF     		.align	2
 738              	.L102:
 739 0034 00000000 		.word	.LANCHOR1
 740 0038 00000000 		.word	.LANCHOR2
 741 003c 00000000 		.word	.LANCHOR0
 742 0040 00000240 		.word	1073872896
 743 0044 00040240 		.word	1073873920
 744              		.cfi_endproc
 745              	.LFE267:
 746              		.size	dmaInit, .-dmaInit
 747 0048 AFF30080 		.section	.text.dmaStreamAllocate,"ax",%progbits
 747      AFF30080 
 748              		.align	2
 749              		.p2align 4,,15
 750              		.global	dmaStreamAllocate
 751              		.thumb
 752              		.thumb_func
 753              		.type	dmaStreamAllocate, %function
 754              	dmaStreamAllocate:
 755              	.LFB268:
 756              		.loc 1 379 0
 757              		.cfi_startproc
 758              		@ args = 0, pretend = 0, frame = 0
 759              		@ frame_needed = 0, uses_anonymous_args = 0
 760              	.LVL40:
 761 0000 F8B5     		push	{r3, r4, r5, r6, r7, lr}
 762              		.cfi_def_cfa_offset 24
 763              		.cfi_offset 3, -24
 764              		.cfi_offset 4, -20
 765              		.cfi_offset 5, -16
 766              		.cfi_offset 6, -12
 767              		.cfi_offset 7, -8
 768              		.cfi_offset 14, -4
 769              		.loc 1 384 0
 770 0002 1C4F     		ldr	r7, .L117
 771 0004 467A     		ldrb	r6, [r0, #9]	@ zero_extendqisi2
 772 0006 3D68     		ldr	r5, [r7]
 773 0008 0124     		movs	r4, #1
 774 000a 04FA06FE 		lsl	lr, r4, r6
 775 000e 1EEA050F 		tst	lr, r5
 776 0012 2AD1     		bne	.L108
 777              		.loc 1 388 0
 778 0014 184C     		ldr	r4, .L117+4
 779              		.loc 1 389 0
 780 0016 04EBC60C 		add	ip, r4, r6, lsl #3
 781              		.loc 1 390 0
 782 001a 4EEA0505 		orr	r5, lr, r5
 783              		.loc 1 389 0
 784 001e CCF80430 		str	r3, [ip, #4]
 785              		.loc 1 393 0
ARM GAS  /tmp/ccGNTUjr.s 			page 15


 786 0022 6B06     		lsls	r3, r5, #25
 787              	.LVL41:
 788              		.loc 1 390 0
 789 0024 3D60     		str	r5, [r7]
 790              		.loc 1 388 0
 791 0026 44F83620 		str	r2, [r4, r6, lsl #3]
 792              		.loc 1 393 0
 793 002a 04D0     		beq	.L106
 794              		.loc 1 394 0
 795 002c 134C     		ldr	r4, .L117+8
 796 002e 6369     		ldr	r3, [r4, #20]
 797 0030 43F00103 		orr	r3, r3, #1
 798 0034 6361     		str	r3, [r4, #20]
 799              	.L106:
 800              		.loc 1 396 0
 801 0036 15F4786F 		tst	r5, #3968
 802 003a 04D0     		beq	.L107
 803              		.loc 1 397 0
 804 003c 0F4C     		ldr	r4, .L117+8
 805 003e 6369     		ldr	r3, [r4, #20]
 806 0040 43F00203 		orr	r3, r3, #2
 807 0044 6361     		str	r3, [r4, #20]
 808              	.L107:
 809              		.loc 1 401 0
 810 0046 90E84800 		ldmia	r0, {r3, r6}
 811 004a 1C68     		ldr	r4, [r3]
 812 004c 24F00F04 		bic	r4, r4, #15
 813 0050 1C60     		str	r4, [r3]
 814 0052 047A     		ldrb	r4, [r0, #8]	@ zero_extendqisi2
 815 0054 0F25     		movs	r5, #15
 816 0056 A540     		lsls	r5, r5, r4
 817              		.loc 1 402 0
 818 0058 0024     		movs	r4, #0
 819              		.loc 1 401 0
 820 005a 3560     		str	r5, [r6]
 821              		.loc 1 402 0
 822 005c 1C60     		str	r4, [r3]
 823              		.loc 1 405 0
 824 005e 32B1     		cbz	r2, .L109
 825              		.loc 1 406 0
 826 0060 807A     		ldrb	r0, [r0, #10]	@ zero_extendqisi2
 827              	.LVL42:
 828 0062 FFF7FEFF 		bl	nvicEnableVector
 829              	.LVL43:
 830              		.loc 1 408 0
 831 0066 2046     		mov	r0, r4
 832 0068 F8BD     		pop	{r3, r4, r5, r6, r7, pc}
 833              	.LVL44:
 834              	.L108:
 835              		.loc 1 385 0
 836 006a 2046     		mov	r0, r4
 837              	.LVL45:
 838 006c F8BD     		pop	{r3, r4, r5, r6, r7, pc}
 839              	.LVL46:
 840              	.L109:
 841              		.loc 1 408 0
 842 006e 1046     		mov	r0, r2
ARM GAS  /tmp/ccGNTUjr.s 			page 16


 843              	.LVL47:
 844              		.loc 1 409 0
 845 0070 F8BD     		pop	{r3, r4, r5, r6, r7, pc}
 846              	.L118:
 847 0072 00BF     		.align	2
 848              	.L117:
 849 0074 00000000 		.word	.LANCHOR1
 850 0078 00000000 		.word	.LANCHOR0
 851 007c 00100240 		.word	1073876992
 852              		.cfi_endproc
 853              	.LFE268:
 854              		.size	dmaStreamAllocate, .-dmaStreamAllocate
 855              		.section	.text.dmaStreamRelease,"ax",%progbits
 856              		.align	2
 857              		.p2align 4,,15
 858              		.global	dmaStreamRelease
 859              		.thumb
 860              		.thumb_func
 861              		.type	dmaStreamRelease, %function
 862              	dmaStreamRelease:
 863              	.LFB269:
 864              		.loc 1 424 0
 865              		.cfi_startproc
 866              		@ args = 0, pretend = 0, frame = 0
 867              		@ frame_needed = 0, uses_anonymous_args = 0
 868              	.LVL48:
 869 0000 10B5     		push	{r4, lr}
 870              		.cfi_def_cfa_offset 8
 871              		.cfi_offset 4, -8
 872              		.cfi_offset 14, -4
 873              		.loc 1 424 0
 874 0002 0446     		mov	r4, r0
 875              		.loc 1 433 0
 876 0004 807A     		ldrb	r0, [r0, #10]	@ zero_extendqisi2
 877              	.LVL49:
 878 0006 FFF7FEFF 		bl	nvicDisableVector
 879              	.LVL50:
 880              		.loc 1 436 0
 881 000a 0C49     		ldr	r1, .L123
 882 000c 607A     		ldrb	r0, [r4, #9]	@ zero_extendqisi2
 883 000e 0A68     		ldr	r2, [r1]
 884 0010 0123     		movs	r3, #1
 885 0012 8340     		lsls	r3, r3, r0
 886 0014 22EA0303 		bic	r3, r2, r3
 887              		.loc 1 439 0
 888 0018 5A06     		lsls	r2, r3, #25
 889              		.loc 1 436 0
 890 001a 0B60     		str	r3, [r1]
 891              		.loc 1 439 0
 892 001c 04D1     		bne	.L120
 893              		.loc 1 440 0
 894 001e 0849     		ldr	r1, .L123+4
 895 0020 4A69     		ldr	r2, [r1, #20]
 896 0022 22F00102 		bic	r2, r2, #1
 897 0026 4A61     		str	r2, [r1, #20]
 898              	.L120:
 899              		.loc 1 442 0
ARM GAS  /tmp/ccGNTUjr.s 			page 17


 900 0028 13F4786F 		tst	r3, #3968
 901 002c 04D1     		bne	.L119
 902              		.loc 1 443 0
 903 002e 044A     		ldr	r2, .L123+4
 904 0030 5369     		ldr	r3, [r2, #20]
 905 0032 23F00203 		bic	r3, r3, #2
 906 0036 5361     		str	r3, [r2, #20]
 907              	.L119:
 908 0038 10BD     		pop	{r4, pc}
 909              	.LVL51:
 910              	.L124:
 911 003a 00BF     		.align	2
 912              	.L123:
 913 003c 00000000 		.word	.LANCHOR1
 914 0040 00100240 		.word	1073876992
 915              		.cfi_endproc
 916              	.LFE269:
 917              		.size	dmaStreamRelease, .-dmaStreamRelease
 918              		.global	_stm32_dma_streams
 919 0044 AFF30080 		.section	.bss.dma_isr_redir,"aw",%nobits
 919      AFF30080 
 919      AFF30080 
 920              		.align	2
 921              		.set	.LANCHOR0,. + 0
 922              		.type	dma_isr_redir, %object
 923              		.size	dma_isr_redir, 96
 924              	dma_isr_redir:
 925 0000 00000000 		.space	96
 925      00000000 
 925      00000000 
 925      00000000 
 925      00000000 
 926              		.section	.rodata._stm32_dma_streams,"a",%progbits
 927              		.align	2
 928              		.set	.LANCHOR2,. + 0
 929              		.type	_stm32_dma_streams, %object
 930              		.size	_stm32_dma_streams, 144
 931              	_stm32_dma_streams:
 932 0000 08000240 		.word	1073872904
 933 0004 04000240 		.word	1073872900
 934 0008 00       		.byte	0
 935 0009 00       		.byte	0
 936 000a 0B       		.byte	11
 937 000b 00       		.space	1
 938 000c 1C000240 		.word	1073872924
 939 0010 04000240 		.word	1073872900
 940 0014 04       		.byte	4
 941 0015 01       		.byte	1
 942 0016 0C       		.byte	12
 943 0017 00       		.space	1
 944 0018 30000240 		.word	1073872944
 945 001c 04000240 		.word	1073872900
 946 0020 08       		.byte	8
 947 0021 02       		.byte	2
 948 0022 0D       		.byte	13
 949 0023 00       		.space	1
 950 0024 44000240 		.word	1073872964
ARM GAS  /tmp/ccGNTUjr.s 			page 18


 951 0028 04000240 		.word	1073872900
 952 002c 0C       		.byte	12
 953 002d 03       		.byte	3
 954 002e 0E       		.byte	14
 955 002f 00       		.space	1
 956 0030 58000240 		.word	1073872984
 957 0034 04000240 		.word	1073872900
 958 0038 10       		.byte	16
 959 0039 04       		.byte	4
 960 003a 0F       		.byte	15
 961 003b 00       		.space	1
 962 003c 6C000240 		.word	1073873004
 963 0040 04000240 		.word	1073872900
 964 0044 14       		.byte	20
 965 0045 05       		.byte	5
 966 0046 10       		.byte	16
 967 0047 00       		.space	1
 968 0048 80000240 		.word	1073873024
 969 004c 04000240 		.word	1073872900
 970 0050 18       		.byte	24
 971 0051 06       		.byte	6
 972 0052 11       		.byte	17
 973 0053 00       		.space	1
 974 0054 08040240 		.word	1073873928
 975 0058 04040240 		.word	1073873924
 976 005c 00       		.byte	0
 977 005d 07       		.byte	7
 978 005e 38       		.byte	56
 979 005f 00       		.space	1
 980 0060 1C040240 		.word	1073873948
 981 0064 04040240 		.word	1073873924
 982 0068 04       		.byte	4
 983 0069 08       		.byte	8
 984 006a 39       		.byte	57
 985 006b 00       		.space	1
 986 006c 30040240 		.word	1073873968
 987 0070 04040240 		.word	1073873924
 988 0074 08       		.byte	8
 989 0075 09       		.byte	9
 990 0076 3A       		.byte	58
 991 0077 00       		.space	1
 992 0078 44040240 		.word	1073873988
 993 007c 04040240 		.word	1073873924
 994 0080 0C       		.byte	12
 995 0081 0A       		.byte	10
 996 0082 3B       		.byte	59
 997 0083 00       		.space	1
 998 0084 58040240 		.word	1073874008
 999 0088 04040240 		.word	1073873924
 1000 008c 10       		.byte	16
 1001 008d 0B       		.byte	11
 1002 008e 3C       		.byte	60
 1003 008f 00       		.space	1
 1004              		.section	.bss.dma_streams_mask,"aw",%nobits
 1005              		.align	2
 1006              		.set	.LANCHOR1,. + 0
 1007              		.type	dma_streams_mask, %object
ARM GAS  /tmp/ccGNTUjr.s 			page 19


 1008              		.size	dma_streams_mask, 4
 1009              	dma_streams_mask:
 1010 0000 00000000 		.space	4
 1011              		.text
 1012              	.Letext0:
 1013              		.file 2 "/l/arm2/gcc-arm-none-eabi-4_9-2014q4/lib/gcc/arm-none-eabi/4.9.3/include/stddef.h"
 1014              		.file 3 "/l/arm2/gcc-arm-none-eabi-4_9-2014q4/arm-none-eabi/include/machine/_default_types.h"
 1015              		.file 4 "/l/arm2/gcc-arm-none-eabi-4_9-2014q4/arm-none-eabi/include/stdint.h"
 1016              		.file 5 "../ChibiOS/os/rt/ports/ARMCMx/compilers/GCC/chtypes.h"
 1017              		.file 6 "../ChibiOS/os/rt/include/chsystypes.h"
 1018              		.file 7 "../ChibiOS/os/rt/include/chschd.h"
 1019              		.file 8 "../ChibiOS/os/ext/CMSIS/ST/stm32f303xc.h"
 1020              		.file 9 "../ChibiOS/os/rt/ports/ARMCMx/chcore.h"
 1021              		.file 10 "../ChibiOS/os/rt/ports/ARMCMx/chcore_v7m.h"
 1022              		.file 11 "../ChibiOS/os/rt/include/chtm.h"
 1023              		.file 12 "../ChibiOS/os/rt/include/chmtx.h"
 1024              		.file 13 "../ChibiOS/os/hal/ports/STM32/STM32F3xx/stm32_dma.h"
 1025              		.file 14 "../ChibiOS/os/ext/CMSIS/include/core_cm4.h"
 1026              		.file 15 "../ChibiOS/os/hal/ports/common/ARMCMx/nvic.h"
 1027              		.section	.debug_info,"",%progbits
 1028              	.Ldebug_info0:
 1029 0000 000E0000 		.4byte	0xe00
 1030 0004 0400     		.2byte	0x4
 1031 0006 00000000 		.4byte	.Ldebug_abbrev0
 1032 000a 04       		.byte	0x4
 1033 000b 01       		.uleb128 0x1
 1034 000c 9F090000 		.4byte	.LASF220
 1035 0010 01       		.byte	0x1
 1036 0011 BE020000 		.4byte	.LASF221
 1037 0015 3E0B0000 		.4byte	.LASF222
 1038 0019 00000000 		.4byte	.Ldebug_ranges0+0
 1039 001d 00000000 		.4byte	0
 1040 0021 00000000 		.4byte	.Ldebug_line0
 1041 0025 02       		.uleb128 0x2
 1042 0026 04       		.byte	0x4
 1043 0027 05       		.byte	0x5
 1044 0028 696E7400 		.ascii	"int\000"
 1045 002c 03       		.uleb128 0x3
 1046 002d 21000000 		.4byte	.LASF2
 1047 0031 02       		.byte	0x2
 1048 0032 D4       		.byte	0xd4
 1049 0033 37000000 		.4byte	0x37
 1050 0037 04       		.uleb128 0x4
 1051 0038 04       		.byte	0x4
 1052 0039 07       		.byte	0x7
 1053 003a 34060000 		.4byte	.LASF0
 1054 003e 04       		.uleb128 0x4
 1055 003f 01       		.byte	0x1
 1056 0040 06       		.byte	0x6
 1057 0041 9A010000 		.4byte	.LASF1
 1058 0045 03       		.uleb128 0x3
 1059 0046 15010000 		.4byte	.LASF3
 1060 004a 03       		.byte	0x3
 1061 004b 1D       		.byte	0x1d
 1062 004c 50000000 		.4byte	0x50
 1063 0050 04       		.uleb128 0x4
 1064 0051 01       		.byte	0x1
ARM GAS  /tmp/ccGNTUjr.s 			page 20


 1065 0052 08       		.byte	0x8
 1066 0053 DC010000 		.4byte	.LASF4
 1067 0057 04       		.uleb128 0x4
 1068 0058 02       		.byte	0x2
 1069 0059 05       		.byte	0x5
 1070 005a B3080000 		.4byte	.LASF5
 1071 005e 04       		.uleb128 0x4
 1072 005f 02       		.byte	0x2
 1073 0060 07       		.byte	0x7
 1074 0061 CB0A0000 		.4byte	.LASF6
 1075 0065 03       		.uleb128 0x3
 1076 0066 0E0B0000 		.4byte	.LASF7
 1077 006a 03       		.byte	0x3
 1078 006b 3F       		.byte	0x3f
 1079 006c 70000000 		.4byte	0x70
 1080 0070 04       		.uleb128 0x4
 1081 0071 04       		.byte	0x4
 1082 0072 05       		.byte	0x5
 1083 0073 31010000 		.4byte	.LASF8
 1084 0077 03       		.uleb128 0x3
 1085 0078 58050000 		.4byte	.LASF9
 1086 007c 03       		.byte	0x3
 1087 007d 41       		.byte	0x41
 1088 007e 82000000 		.4byte	0x82
 1089 0082 04       		.uleb128 0x4
 1090 0083 04       		.byte	0x4
 1091 0084 07       		.byte	0x7
 1092 0085 E5030000 		.4byte	.LASF10
 1093 0089 04       		.uleb128 0x4
 1094 008a 08       		.byte	0x8
 1095 008b 05       		.byte	0x5
 1096 008c 6D050000 		.4byte	.LASF11
 1097 0090 03       		.uleb128 0x3
 1098 0091 D0030000 		.4byte	.LASF12
 1099 0095 03       		.byte	0x3
 1100 0096 5B       		.byte	0x5b
 1101 0097 9B000000 		.4byte	0x9b
 1102 009b 04       		.uleb128 0x4
 1103 009c 08       		.byte	0x8
 1104 009d 07       		.byte	0x7
 1105 009e 81070000 		.4byte	.LASF13
 1106 00a2 03       		.uleb128 0x3
 1107 00a3 AD010000 		.4byte	.LASF14
 1108 00a7 04       		.byte	0x4
 1109 00a8 15       		.byte	0x15
 1110 00a9 45000000 		.4byte	0x45
 1111 00ad 03       		.uleb128 0x3
 1112 00ae 5A000000 		.4byte	.LASF15
 1113 00b2 04       		.byte	0x4
 1114 00b3 2C       		.byte	0x2c
 1115 00b4 65000000 		.4byte	0x65
 1116 00b8 03       		.uleb128 0x3
 1117 00b9 89090000 		.4byte	.LASF16
 1118 00bd 04       		.byte	0x4
 1119 00be 2D       		.byte	0x2d
 1120 00bf 77000000 		.4byte	0x77
 1121 00c3 03       		.uleb128 0x3
ARM GAS  /tmp/ccGNTUjr.s 			page 21


 1122 00c4 BD080000 		.4byte	.LASF17
 1123 00c8 04       		.byte	0x4
 1124 00c9 39       		.byte	0x39
 1125 00ca 90000000 		.4byte	0x90
 1126 00ce 05       		.uleb128 0x5
 1127 00cf AD000000 		.4byte	0xad
 1128 00d3 05       		.uleb128 0x5
 1129 00d4 B8000000 		.4byte	0xb8
 1130 00d8 03       		.uleb128 0x3
 1131 00d9 41060000 		.4byte	.LASF18
 1132 00dd 05       		.byte	0x5
 1133 00de 45       		.byte	0x45
 1134 00df B8000000 		.4byte	0xb8
 1135 00e3 03       		.uleb128 0x3
 1136 00e4 54080000 		.4byte	.LASF19
 1137 00e8 05       		.byte	0x5
 1138 00e9 48       		.byte	0x48
 1139 00ea A2000000 		.4byte	0xa2
 1140 00ee 03       		.uleb128 0x3
 1141 00ef 48010000 		.4byte	.LASF20
 1142 00f3 05       		.byte	0x5
 1143 00f4 49       		.byte	0x49
 1144 00f5 A2000000 		.4byte	0xa2
 1145 00f9 03       		.uleb128 0x3
 1146 00fa 44090000 		.4byte	.LASF21
 1147 00fe 05       		.byte	0x5
 1148 00ff 4A       		.byte	0x4a
 1149 0100 A2000000 		.4byte	0xa2
 1150 0104 03       		.uleb128 0x3
 1151 0105 41000000 		.4byte	.LASF22
 1152 0109 05       		.byte	0x5
 1153 010a 4C       		.byte	0x4c
 1154 010b B8000000 		.4byte	0xb8
 1155 010f 03       		.uleb128 0x3
 1156 0110 AF070000 		.4byte	.LASF23
 1157 0114 05       		.byte	0x5
 1158 0115 4D       		.byte	0x4d
 1159 0116 AD000000 		.4byte	0xad
 1160 011a 03       		.uleb128 0x3
 1161 011b C8010000 		.4byte	.LASF24
 1162 011f 05       		.byte	0x5
 1163 0120 4F       		.byte	0x4f
 1164 0121 B8000000 		.4byte	0xb8
 1165 0125 03       		.uleb128 0x3
 1166 0126 31000000 		.4byte	.LASF25
 1167 012a 06       		.byte	0x6
 1168 012b 33       		.byte	0x33
 1169 012c B8000000 		.4byte	0xb8
 1170 0130 03       		.uleb128 0x3
 1171 0131 E3060000 		.4byte	.LASF26
 1172 0135 06       		.byte	0x6
 1173 0136 3F       		.byte	0x3f
 1174 0137 3B010000 		.4byte	0x13b
 1175 013b 06       		.uleb128 0x6
 1176 013c 58040000 		.4byte	.LASF45
 1177 0140 44       		.byte	0x44
 1178 0141 07       		.byte	0x7
ARM GAS  /tmp/ccGNTUjr.s 			page 22


 1179 0142 BE       		.byte	0xbe
 1180 0143 28020000 		.4byte	0x228
 1181 0147 07       		.uleb128 0x7
 1182 0148 3A010000 		.4byte	.LASF27
 1183 014c 07       		.byte	0x7
 1184 014d BF       		.byte	0xbf
 1185 014e D6080000 		.4byte	0x8d6
 1186 0152 00       		.byte	0
 1187 0153 07       		.uleb128 0x7
 1188 0154 41010000 		.4byte	.LASF28
 1189 0158 07       		.byte	0x7
 1190 0159 C1       		.byte	0xc1
 1191 015a D6080000 		.4byte	0x8d6
 1192 015e 04       		.byte	0x4
 1193 015f 07       		.uleb128 0x7
 1194 0160 91020000 		.4byte	.LASF29
 1195 0164 07       		.byte	0x7
 1196 0165 C3       		.byte	0xc3
 1197 0166 04010000 		.4byte	0x104
 1198 016a 08       		.byte	0x8
 1199 016b 07       		.uleb128 0x7
 1200 016c 3B000000 		.4byte	.LASF30
 1201 0170 07       		.byte	0x7
 1202 0171 C4       		.byte	0xc4
 1203 0172 56070000 		.4byte	0x756
 1204 0176 0C       		.byte	0xc
 1205 0177 07       		.uleb128 0x7
 1206 0178 29010000 		.4byte	.LASF31
 1207 017c 07       		.byte	0x7
 1208 017d C6       		.byte	0xc6
 1209 017e D6080000 		.4byte	0x8d6
 1210 0182 10       		.byte	0x10
 1211 0183 07       		.uleb128 0x7
 1212 0184 A7070000 		.4byte	.LASF32
 1213 0188 07       		.byte	0x7
 1214 0189 C7       		.byte	0xc7
 1215 018a D6080000 		.4byte	0x8d6
 1216 018e 14       		.byte	0x14
 1217 018f 07       		.uleb128 0x7
 1218 0190 1D0B0000 		.4byte	.LASF33
 1219 0194 07       		.byte	0x7
 1220 0195 CE       		.byte	0xce
 1221 0196 14090000 		.4byte	0x914
 1222 019a 18       		.byte	0x18
 1223 019b 07       		.uleb128 0x7
 1224 019c 840B0000 		.4byte	.LASF34
 1225 01a0 07       		.byte	0x7
 1226 01a1 D9       		.byte	0xd9
 1227 01a2 EE000000 		.4byte	0xee
 1228 01a6 1C       		.byte	0x1c
 1229 01a7 07       		.uleb128 0x7
 1230 01a8 1D060000 		.4byte	.LASF35
 1231 01ac 07       		.byte	0x7
 1232 01ad DD       		.byte	0xdd
 1233 01ae E3000000 		.4byte	0xe3
 1234 01b2 1D       		.byte	0x1d
 1235 01b3 07       		.uleb128 0x7
ARM GAS  /tmp/ccGNTUjr.s 			page 23


 1236 01b4 81060000 		.4byte	.LASF36
 1237 01b8 07       		.byte	0x7
 1238 01b9 E2       		.byte	0xe2
 1239 01ba F9000000 		.4byte	0xf9
 1240 01be 1E       		.byte	0x1e
 1241 01bf 08       		.uleb128 0x8
 1242 01c0 705F7500 		.ascii	"p_u\000"
 1243 01c4 07       		.byte	0x7
 1244 01c5 1401     		.2byte	0x114
 1245 01c7 DC080000 		.4byte	0x8dc
 1246 01cb 20       		.byte	0x20
 1247 01cc 09       		.uleb128 0x9
 1248 01cd 00060000 		.4byte	.LASF37
 1249 01d1 07       		.byte	0x7
 1250 01d2 1901     		.2byte	0x119
 1251 01d4 28020000 		.4byte	0x228
 1252 01d8 24       		.byte	0x24
 1253 01d9 09       		.uleb128 0x9
 1254 01da 49000000 		.4byte	.LASF38
 1255 01de 07       		.byte	0x7
 1256 01df 1F01     		.2byte	0x11f
 1257 01e1 4C020000 		.4byte	0x24c
 1258 01e5 28       		.byte	0x28
 1259 01e6 09       		.uleb128 0x9
 1260 01e7 6B0B0000 		.4byte	.LASF39
 1261 01eb 07       		.byte	0x7
 1262 01ec 2301     		.2byte	0x123
 1263 01ee 0F010000 		.4byte	0x10f
 1264 01f2 30       		.byte	0x30
 1265 01f3 09       		.uleb128 0x9
 1266 01f4 5F030000 		.4byte	.LASF40
 1267 01f8 07       		.byte	0x7
 1268 01f9 2901     		.2byte	0x129
 1269 01fb 1A010000 		.4byte	0x11a
 1270 01ff 34       		.byte	0x34
 1271 0200 09       		.uleb128 0x9
 1272 0201 61010000 		.4byte	.LASF41
 1273 0205 07       		.byte	0x7
 1274 0206 3001     		.2byte	0x130
 1275 0208 57090000 		.4byte	0x957
 1276 020c 38       		.byte	0x38
 1277 020d 09       		.uleb128 0x9
 1278 020e FE060000 		.4byte	.LASF42
 1279 0212 07       		.byte	0x7
 1280 0213 3401     		.2byte	0x134
 1281 0215 04010000 		.4byte	0x104
 1282 0219 3C       		.byte	0x3c
 1283 021a 09       		.uleb128 0x9
 1284 021b 49060000 		.4byte	.LASF43
 1285 021f 07       		.byte	0x7
 1286 0220 3A01     		.2byte	0x13a
 1287 0222 FF020000 		.4byte	0x2ff
 1288 0226 40       		.byte	0x40
 1289 0227 00       		.byte	0
 1290 0228 03       		.uleb128 0x3
 1291 0229 5F090000 		.4byte	.LASF44
 1292 022d 06       		.byte	0x6
ARM GAS  /tmp/ccGNTUjr.s 			page 24


 1293 022e 44       		.byte	0x44
 1294 022f 33020000 		.4byte	0x233
 1295 0233 06       		.uleb128 0x6
 1296 0234 F0040000 		.4byte	.LASF46
 1297 0238 04       		.byte	0x4
 1298 0239 07       		.byte	0x7
 1299 023a AC       		.byte	0xac
 1300 023b 4C020000 		.4byte	0x24c
 1301 023f 07       		.uleb128 0x7
 1302 0240 3A010000 		.4byte	.LASF27
 1303 0244 07       		.byte	0x7
 1304 0245 AD       		.byte	0xad
 1305 0246 D6080000 		.4byte	0x8d6
 1306 024a 00       		.byte	0
 1307 024b 00       		.byte	0
 1308 024c 03       		.uleb128 0x3
 1309 024d 51010000 		.4byte	.LASF47
 1310 0251 06       		.byte	0x6
 1311 0252 4B       		.byte	0x4b
 1312 0253 57020000 		.4byte	0x257
 1313 0257 06       		.uleb128 0x6
 1314 0258 B5070000 		.4byte	.LASF48
 1315 025c 08       		.byte	0x8
 1316 025d 07       		.byte	0x7
 1317 025e B3       		.byte	0xb3
 1318 025f 7C020000 		.4byte	0x27c
 1319 0263 07       		.uleb128 0x7
 1320 0264 3A010000 		.4byte	.LASF27
 1321 0268 07       		.byte	0x7
 1322 0269 B4       		.byte	0xb4
 1323 026a D6080000 		.4byte	0x8d6
 1324 026e 00       		.byte	0
 1325 026f 07       		.uleb128 0x7
 1326 0270 41010000 		.4byte	.LASF28
 1327 0274 07       		.byte	0x7
 1328 0275 B5       		.byte	0xb5
 1329 0276 D6080000 		.4byte	0x8d6
 1330 027a 04       		.byte	0x4
 1331 027b 00       		.byte	0
 1332 027c 03       		.uleb128 0x3
 1333 027d AE040000 		.4byte	.LASF49
 1334 0281 06       		.byte	0x6
 1335 0282 52       		.byte	0x52
 1336 0283 87020000 		.4byte	0x287
 1337 0287 0A       		.uleb128 0xa
 1338 0288 6A030000 		.4byte	.LASF50
 1339 028c 1C       		.byte	0x1c
 1340 028d 07       		.byte	0x7
 1341 028e 7201     		.2byte	0x172
 1342 0290 E3020000 		.4byte	0x2e3
 1343 0294 09       		.uleb128 0x9
 1344 0295 32080000 		.4byte	.LASF51
 1345 0299 07       		.byte	0x7
 1346 029a 7301     		.2byte	0x173
 1347 029c 4C020000 		.4byte	0x24c
 1348 02a0 00       		.byte	0
 1349 02a1 09       		.uleb128 0x9
ARM GAS  /tmp/ccGNTUjr.s 			page 25


 1350 02a2 E1080000 		.4byte	.LASF52
 1351 02a6 07       		.byte	0x7
 1352 02a7 7401     		.2byte	0x174
 1353 02a9 04010000 		.4byte	0x104
 1354 02ad 08       		.byte	0x8
 1355 02ae 09       		.uleb128 0x9
 1356 02af 54000000 		.4byte	.LASF53
 1357 02b3 07       		.byte	0x7
 1358 02b4 7601     		.2byte	0x176
 1359 02b6 56070000 		.4byte	0x756
 1360 02ba 0C       		.byte	0xc
 1361 02bb 09       		.uleb128 0x9
 1362 02bc 1C020000 		.4byte	.LASF54
 1363 02c0 07       		.byte	0x7
 1364 02c1 7901     		.2byte	0x179
 1365 02c3 D6080000 		.4byte	0x8d6
 1366 02c7 10       		.byte	0x10
 1367 02c8 09       		.uleb128 0x9
 1368 02c9 7B080000 		.4byte	.LASF55
 1369 02cd 07       		.byte	0x7
 1370 02ce 7A01     		.2byte	0x17a
 1371 02d0 D6080000 		.4byte	0x8d6
 1372 02d4 14       		.byte	0x14
 1373 02d5 09       		.uleb128 0x9
 1374 02d6 FA070000 		.4byte	.LASF56
 1375 02da 07       		.byte	0x7
 1376 02db 7D01     		.2byte	0x17d
 1377 02dd D6080000 		.4byte	0x8d6
 1378 02e1 18       		.byte	0x18
 1379 02e2 00       		.byte	0
 1380 02e3 03       		.uleb128 0x3
 1381 02e4 75000000 		.4byte	.LASF57
 1382 02e8 06       		.byte	0x6
 1383 02e9 57       		.byte	0x57
 1384 02ea EE020000 		.4byte	0x2ee
 1385 02ee 0B       		.uleb128 0xb
 1386 02ef 04       		.byte	0x4
 1387 02f0 F4020000 		.4byte	0x2f4
 1388 02f4 0C       		.uleb128 0xc
 1389 02f5 FF020000 		.4byte	0x2ff
 1390 02f9 0D       		.uleb128 0xd
 1391 02fa FF020000 		.4byte	0x2ff
 1392 02fe 00       		.byte	0
 1393 02ff 0E       		.uleb128 0xe
 1394 0300 04       		.byte	0x4
 1395 0301 03       		.uleb128 0x3
 1396 0302 9E040000 		.4byte	.LASF58
 1397 0306 06       		.byte	0x6
 1398 0307 5C       		.byte	0x5c
 1399 0308 0C030000 		.4byte	0x30c
 1400 030c 0A       		.uleb128 0xa
 1401 030d 40070000 		.4byte	.LASF59
 1402 0311 14       		.byte	0x14
 1403 0312 07       		.byte	0x7
 1404 0313 4D01     		.2byte	0x14d
 1405 0315 5B030000 		.4byte	0x35b
 1406 0319 09       		.uleb128 0x9
ARM GAS  /tmp/ccGNTUjr.s 			page 26


 1407 031a 8D050000 		.4byte	.LASF60
 1408 031e 07       		.byte	0x7
 1409 031f 4E01     		.2byte	0x14e
 1410 0321 5D090000 		.4byte	0x95d
 1411 0325 00       		.byte	0
 1412 0326 09       		.uleb128 0x9
 1413 0327 C9050000 		.4byte	.LASF61
 1414 032b 07       		.byte	0x7
 1415 032c 4F01     		.2byte	0x14f
 1416 032e 5D090000 		.4byte	0x95d
 1417 0332 04       		.byte	0x4
 1418 0333 09       		.uleb128 0x9
 1419 0334 15070000 		.4byte	.LASF62
 1420 0338 07       		.byte	0x7
 1421 0339 5001     		.2byte	0x150
 1422 033b 25010000 		.4byte	0x125
 1423 033f 08       		.byte	0x8
 1424 0340 09       		.uleb128 0x9
 1425 0341 57030000 		.4byte	.LASF63
 1426 0345 07       		.byte	0x7
 1427 0346 5101     		.2byte	0x151
 1428 0348 E3020000 		.4byte	0x2e3
 1429 034c 0C       		.byte	0xc
 1430 034d 09       		.uleb128 0x9
 1431 034e FB000000 		.4byte	.LASF64
 1432 0352 07       		.byte	0x7
 1433 0353 5301     		.2byte	0x153
 1434 0355 FF020000 		.4byte	0x2ff
 1435 0359 10       		.byte	0x10
 1436 035a 00       		.byte	0
 1437 035b 03       		.uleb128 0x3
 1438 035c 62040000 		.4byte	.LASF65
 1439 0360 06       		.byte	0x6
 1440 0361 61       		.byte	0x61
 1441 0362 66030000 		.4byte	0x366
 1442 0366 0A       		.uleb128 0xa
 1443 0367 8F000000 		.4byte	.LASF66
 1444 036b 10       		.byte	0x10
 1445 036c 07       		.byte	0x7
 1446 036d 5D01     		.2byte	0x15d
 1447 036f A8030000 		.4byte	0x3a8
 1448 0373 09       		.uleb128 0x9
 1449 0374 8D050000 		.4byte	.LASF60
 1450 0378 07       		.byte	0x7
 1451 0379 5E01     		.2byte	0x15e
 1452 037b 5D090000 		.4byte	0x95d
 1453 037f 00       		.byte	0
 1454 0380 09       		.uleb128 0x9
 1455 0381 C9050000 		.4byte	.LASF61
 1456 0385 07       		.byte	0x7
 1457 0386 6001     		.2byte	0x160
 1458 0388 5D090000 		.4byte	0x95d
 1459 038c 04       		.byte	0x4
 1460 038d 09       		.uleb128 0x9
 1461 038e 15070000 		.4byte	.LASF62
 1462 0392 07       		.byte	0x7
 1463 0393 6201     		.2byte	0x162
ARM GAS  /tmp/ccGNTUjr.s 			page 27


 1464 0395 25010000 		.4byte	0x125
 1465 0399 08       		.byte	0x8
 1466 039a 09       		.uleb128 0x9
 1467 039b BF0A0000 		.4byte	.LASF67
 1468 039f 07       		.byte	0x7
 1469 03a0 6A01     		.2byte	0x16a
 1470 03a2 25010000 		.4byte	0x125
 1471 03a6 0C       		.byte	0xc
 1472 03a7 00       		.byte	0
 1473 03a8 03       		.uleb128 0x3
 1474 03a9 24020000 		.4byte	.LASF68
 1475 03ad 06       		.byte	0x6
 1476 03ae 66       		.byte	0x66
 1477 03af B3030000 		.4byte	0x3b3
 1478 03b3 0A       		.uleb128 0xa
 1479 03b4 F4080000 		.4byte	.LASF69
 1480 03b8 04       		.byte	0x4
 1481 03b9 07       		.byte	0x7
 1482 03ba 8401     		.2byte	0x184
 1483 03bc CE030000 		.4byte	0x3ce
 1484 03c0 09       		.uleb128 0x9
 1485 03c1 05020000 		.4byte	.LASF70
 1486 03c5 07       		.byte	0x7
 1487 03c6 8C01     		.2byte	0x18c
 1488 03c8 63090000 		.4byte	0x963
 1489 03cc 00       		.byte	0
 1490 03cd 00       		.byte	0
 1491 03ce 03       		.uleb128 0x3
 1492 03cf EB0A0000 		.4byte	.LASF71
 1493 03d3 06       		.byte	0x6
 1494 03d4 6B       		.byte	0x6b
 1495 03d5 D9030000 		.4byte	0x3d9
 1496 03d9 0F       		.uleb128 0xf
 1497 03da 6E090000 		.4byte	.LASF72
 1498 03de D801     		.2byte	0x1d8
 1499 03e0 07       		.byte	0x7
 1500 03e1 A401     		.2byte	0x1a4
 1501 03e3 35040000 		.4byte	0x435
 1502 03e7 09       		.uleb128 0x9
 1503 03e8 4E080000 		.4byte	.LASF73
 1504 03ec 07       		.byte	0x7
 1505 03ed A801     		.2byte	0x1a8
 1506 03ef 7C020000 		.4byte	0x27c
 1507 03f3 00       		.byte	0
 1508 03f4 09       		.uleb128 0x9
 1509 03f5 22090000 		.4byte	.LASF74
 1510 03f9 07       		.byte	0x7
 1511 03fa AC01     		.2byte	0x1ac
 1512 03fc 5B030000 		.4byte	0x35b
 1513 0400 1C       		.byte	0x1c
 1514 0401 08       		.uleb128 0x8
 1515 0402 64626700 		.ascii	"dbg\000"
 1516 0406 07       		.byte	0x7
 1517 0407 B001     		.2byte	0x1b0
 1518 0409 A8030000 		.4byte	0x3a8
 1519 040d 2C       		.byte	0x2c
 1520 040e 09       		.uleb128 0x9
ARM GAS  /tmp/ccGNTUjr.s 			page 28


 1521 040f 0B080000 		.4byte	.LASF75
 1522 0413 07       		.byte	0x7
 1523 0414 B401     		.2byte	0x1b4
 1524 0416 30010000 		.4byte	0x130
 1525 041a 30       		.byte	0x30
 1526 041b 08       		.uleb128 0x8
 1527 041c 746D00   		.ascii	"tm\000"
 1528 041f 07       		.byte	0x7
 1529 0420 B901     		.2byte	0x1b9
 1530 0422 CB080000 		.4byte	0x8cb
 1531 0426 74       		.byte	0x74
 1532 0427 09       		.uleb128 0x9
 1533 0428 25060000 		.4byte	.LASF76
 1534 042c 07       		.byte	0x7
 1535 042d C501     		.2byte	0x1c5
 1536 042f 68090000 		.4byte	0x968
 1537 0433 78       		.byte	0x78
 1538 0434 00       		.byte	0
 1539 0435 10       		.uleb128 0x10
 1540 0436 01       		.byte	0x1
 1541 0437 08       		.byte	0x8
 1542 0438 55       		.byte	0x55
 1543 0439 01060000 		.4byte	0x601
 1544 043d 11       		.uleb128 0x11
 1545 043e BC030000 		.4byte	.LASF77
 1546 0442 72       		.sleb128 -14
 1547 0443 11       		.uleb128 0x11
 1548 0444 11040000 		.4byte	.LASF78
 1549 0448 74       		.sleb128 -12
 1550 0449 11       		.uleb128 0x11
 1551 044a 08050000 		.4byte	.LASF79
 1552 044e 75       		.sleb128 -11
 1553 044f 11       		.uleb128 0x11
 1554 0450 63020000 		.4byte	.LASF80
 1555 0454 76       		.sleb128 -10
 1556 0455 11       		.uleb128 0x11
 1557 0456 D1050000 		.4byte	.LASF81
 1558 045a 7B       		.sleb128 -5
 1559 045b 11       		.uleb128 0x11
 1560 045c 5C080000 		.4byte	.LASF82
 1561 0460 7C       		.sleb128 -4
 1562 0461 11       		.uleb128 0x11
 1563 0462 020B0000 		.4byte	.LASF83
 1564 0466 7E       		.sleb128 -2
 1565 0467 11       		.uleb128 0x11
 1566 0468 7C010000 		.4byte	.LASF84
 1567 046c 7F       		.sleb128 -1
 1568 046d 11       		.uleb128 0x11
 1569 046e DB030000 		.4byte	.LASF85
 1570 0472 00       		.sleb128 0
 1571 0473 11       		.uleb128 0x11
 1572 0474 3A080000 		.4byte	.LASF86
 1573 0478 01       		.sleb128 1
 1574 0479 11       		.uleb128 0x11
 1575 047a 40040000 		.4byte	.LASF87
 1576 047e 02       		.sleb128 2
 1577 047f 11       		.uleb128 0x11
ARM GAS  /tmp/ccGNTUjr.s 			page 29


 1578 0480 00000000 		.4byte	.LASF88
 1579 0484 03       		.sleb128 3
 1580 0485 11       		.uleb128 0x11
 1581 0486 C2000000 		.4byte	.LASF89
 1582 048a 04       		.sleb128 4
 1583 048b 11       		.uleb128 0x11
 1584 048c C6080000 		.4byte	.LASF90
 1585 0490 05       		.sleb128 5
 1586 0491 11       		.uleb128 0x11
 1587 0492 43080000 		.4byte	.LASF91
 1588 0496 06       		.sleb128 6
 1589 0497 11       		.uleb128 0x11
 1590 0498 B1030000 		.4byte	.LASF92
 1591 049c 07       		.sleb128 7
 1592 049d 11       		.uleb128 0x11
 1593 049e D4040000 		.4byte	.LASF93
 1594 04a2 08       		.sleb128 8
 1595 04a3 11       		.uleb128 0x11
 1596 04a4 F70A0000 		.4byte	.LASF94
 1597 04a8 09       		.sleb128 9
 1598 04a9 11       		.uleb128 0x11
 1599 04aa B3020000 		.4byte	.LASF95
 1600 04ae 0A       		.sleb128 10
 1601 04af 11       		.uleb128 0x11
 1602 04b0 33020000 		.4byte	.LASF96
 1603 04b4 0B       		.sleb128 11
 1604 04b5 11       		.uleb128 0x11
 1605 04b6 29090000 		.4byte	.LASF97
 1606 04ba 0C       		.sleb128 12
 1607 04bb 11       		.uleb128 0x11
 1608 04bc 94080000 		.4byte	.LASF98
 1609 04c0 0D       		.sleb128 13
 1610 04c1 11       		.uleb128 0x11
 1611 04c2 27040000 		.4byte	.LASF99
 1612 04c6 0E       		.sleb128 14
 1613 04c7 11       		.uleb128 0x11
 1614 04c8 62000000 		.4byte	.LASF100
 1615 04cc 0F       		.sleb128 15
 1616 04cd 11       		.uleb128 0x11
 1617 04ce 240B0000 		.4byte	.LASF101
 1618 04d2 10       		.sleb128 16
 1619 04d3 11       		.uleb128 0x11
 1620 04d4 8D060000 		.4byte	.LASF102
 1621 04d8 11       		.sleb128 17
 1622 04d9 11       		.uleb128 0x11
 1623 04da E8080000 		.4byte	.LASF103
 1624 04de 12       		.sleb128 18
 1625 04df 11       		.uleb128 0x11
 1626 04e0 FE030000 		.4byte	.LASF104
 1627 04e4 13       		.sleb128 19
 1628 04e5 11       		.uleb128 0x11
 1629 04e6 98020000 		.4byte	.LASF105
 1630 04ea 14       		.sleb128 20
 1631 04eb 11       		.uleb128 0x11
 1632 04ec 78020000 		.4byte	.LASF106
 1633 04f0 15       		.sleb128 21
 1634 04f1 11       		.uleb128 0x11
ARM GAS  /tmp/ccGNTUjr.s 			page 30


 1635 04f2 6E080000 		.4byte	.LASF107
 1636 04f6 16       		.sleb128 22
 1637 04f7 11       		.uleb128 0x11
 1638 04f8 92090000 		.4byte	.LASF108
 1639 04fc 17       		.sleb128 23
 1640 04fd 11       		.uleb128 0x11
 1641 04fe 78030000 		.4byte	.LASF109
 1642 0502 18       		.sleb128 24
 1643 0503 11       		.uleb128 0x11
 1644 0504 4C090000 		.4byte	.LASF110
 1645 0508 19       		.sleb128 25
 1646 0509 11       		.uleb128 0x11
 1647 050a A8050000 		.4byte	.LASF111
 1648 050e 1A       		.sleb128 26
 1649 050f 11       		.uleb128 0x11
 1650 0510 A4030000 		.4byte	.LASF112
 1651 0514 1B       		.sleb128 27
 1652 0515 11       		.uleb128 0x11
 1653 0516 D3000000 		.4byte	.LASF113
 1654 051a 1C       		.sleb128 28
 1655 051b 11       		.uleb128 0x11
 1656 051c C6070000 		.4byte	.LASF114
 1657 0520 1D       		.sleb128 29
 1658 0521 11       		.uleb128 0x11
 1659 0522 0C030000 		.4byte	.LASF115
 1660 0526 1E       		.sleb128 30
 1661 0527 11       		.uleb128 0x11
 1662 0528 4A030000 		.4byte	.LASF116
 1663 052c 1F       		.sleb128 31
 1664 052d 11       		.uleb128 0x11
 1665 052e 0F020000 		.4byte	.LASF117
 1666 0532 20       		.sleb128 32
 1667 0533 11       		.uleb128 0x11
 1668 0534 57060000 		.4byte	.LASF118
 1669 0538 21       		.sleb128 33
 1670 0539 11       		.uleb128 0x11
 1671 053a E3040000 		.4byte	.LASF119
 1672 053e 22       		.sleb128 34
 1673 053f 11       		.uleb128 0x11
 1674 0540 95050000 		.4byte	.LASF120
 1675 0544 23       		.sleb128 35
 1676 0545 11       		.uleb128 0x11
 1677 0546 1F010000 		.4byte	.LASF121
 1678 054a 24       		.sleb128 36
 1679 054b 11       		.uleb128 0x11
 1680 054c D0070000 		.4byte	.LASF122
 1681 0550 25       		.sleb128 37
 1682 0551 11       		.uleb128 0x11
 1683 0552 16030000 		.4byte	.LASF123
 1684 0556 26       		.sleb128 38
 1685 0557 11       		.uleb128 0x11
 1686 0558 89010000 		.4byte	.LASF124
 1687 055c 27       		.sleb128 39
 1688 055d 11       		.uleb128 0x11
 1689 055e 72070000 		.4byte	.LASF125
 1690 0562 28       		.sleb128 40
 1691 0563 11       		.uleb128 0x11
ARM GAS  /tmp/ccGNTUjr.s 			page 31


 1692 0564 51070000 		.4byte	.LASF126
 1693 0568 29       		.sleb128 41
 1694 0569 11       		.uleb128 0x11
 1695 056a FD020000 		.4byte	.LASF127
 1696 056e 2A       		.sleb128 42
 1697 056f 11       		.uleb128 0x11
 1698 0570 1E070000 		.4byte	.LASF128
 1699 0574 2B       		.sleb128 43
 1700 0575 11       		.uleb128 0x11
 1701 0576 C7040000 		.4byte	.LASF129
 1702 057a 2C       		.sleb128 44
 1703 057b 11       		.uleb128 0x11
 1704 057c 20080000 		.4byte	.LASF130
 1705 0580 2D       		.sleb128 45
 1706 0581 11       		.uleb128 0x11
 1707 0582 DE0A0000 		.4byte	.LASF131
 1708 0586 2E       		.sleb128 46
 1709 0587 11       		.uleb128 0x11
 1710 0588 7B050000 		.4byte	.LASF132
 1711 058c 2F       		.sleb128 47
 1712 058d 11       		.uleb128 0x11
 1713 058e B8000000 		.4byte	.LASF133
 1714 0592 33       		.sleb128 51
 1715 0593 11       		.uleb128 0x11
 1716 0594 F5050000 		.4byte	.LASF134
 1717 0598 34       		.sleb128 52
 1718 0599 11       		.uleb128 0x11
 1719 059a 16050000 		.4byte	.LASF135
 1720 059e 35       		.sleb128 53
 1721 059f 11       		.uleb128 0x11
 1722 05a0 B5010000 		.4byte	.LASF136
 1723 05a4 36       		.sleb128 54
 1724 05a5 11       		.uleb128 0x11
 1725 05a6 63050000 		.4byte	.LASF137
 1726 05aa 37       		.sleb128 55
 1727 05ab 11       		.uleb128 0x11
 1728 05ac 8B040000 		.4byte	.LASF138
 1729 05b0 38       		.sleb128 56
 1730 05b1 11       		.uleb128 0x11
 1731 05b2 91030000 		.4byte	.LASF139
 1732 05b6 39       		.sleb128 57
 1733 05b7 11       		.uleb128 0x11
 1734 05b8 710B0000 		.4byte	.LASF140
 1735 05bc 3A       		.sleb128 58
 1736 05bd 11       		.uleb128 0x11
 1737 05be BA060000 		.4byte	.LASF141
 1738 05c2 3B       		.sleb128 59
 1739 05c3 11       		.uleb128 0x11
 1740 05c4 0A060000 		.4byte	.LASF142
 1741 05c8 3C       		.sleb128 60
 1742 05c9 11       		.uleb128 0x11
 1743 05ca E9000000 		.4byte	.LASF143
 1744 05ce 3D       		.sleb128 61
 1745 05cf 11       		.uleb128 0x11
 1746 05d0 98070000 		.4byte	.LASF144
 1747 05d4 C000     		.sleb128 64
 1748 05d6 11       		.uleb128 0x11
ARM GAS  /tmp/ccGNTUjr.s 			page 32


 1749 05d7 EA010000 		.4byte	.LASF145
 1750 05db C100     		.sleb128 65
 1751 05dd 11       		.uleb128 0x11
 1752 05de 600B0000 		.4byte	.LASF146
 1753 05e2 C200     		.sleb128 66
 1754 05e4 11       		.uleb128 0x11
 1755 05e5 DD000000 		.4byte	.LASF147
 1756 05e9 CA00     		.sleb128 74
 1757 05eb 11       		.uleb128 0x11
 1758 05ec BB040000 		.4byte	.LASF148
 1759 05f0 CB00     		.sleb128 75
 1760 05f2 11       		.uleb128 0x11
 1761 05f3 3C050000 		.4byte	.LASF149
 1762 05f7 CC00     		.sleb128 76
 1763 05f9 11       		.uleb128 0x11
 1764 05fa EC050000 		.4byte	.LASF150
 1765 05fe D100     		.sleb128 81
 1766 0600 00       		.byte	0
 1767 0601 04       		.uleb128 0x4
 1768 0602 04       		.byte	0x4
 1769 0603 07       		.byte	0x7
 1770 0604 28000000 		.4byte	.LASF151
 1771 0608 12       		.uleb128 0x12
 1772 0609 10       		.byte	0x10
 1773 060a 08       		.byte	0x8
 1774 060b 6201     		.2byte	0x162
 1775 060d 46060000 		.4byte	0x646
 1776 0611 08       		.uleb128 0x8
 1777 0612 43435200 		.ascii	"CCR\000"
 1778 0616 08       		.byte	0x8
 1779 0617 6401     		.2byte	0x164
 1780 0619 D3000000 		.4byte	0xd3
 1781 061d 00       		.byte	0
 1782 061e 09       		.uleb128 0x9
 1783 061f CD000000 		.4byte	.LASF152
 1784 0623 08       		.byte	0x8
 1785 0624 6501     		.2byte	0x165
 1786 0626 D3000000 		.4byte	0xd3
 1787 062a 04       		.byte	0x4
 1788 062b 09       		.uleb128 0x9
 1789 062c 95010000 		.4byte	.LASF153
 1790 0630 08       		.byte	0x8
 1791 0631 6601     		.2byte	0x166
 1792 0633 D3000000 		.4byte	0xd3
 1793 0637 08       		.byte	0x8
 1794 0638 09       		.uleb128 0x9
 1795 0639 88060000 		.4byte	.LASF154
 1796 063d 08       		.byte	0x8
 1797 063e 6701     		.2byte	0x167
 1798 0640 D3000000 		.4byte	0xd3
 1799 0644 0C       		.byte	0xc
 1800 0645 00       		.byte	0
 1801 0646 13       		.uleb128 0x13
 1802 0647 2C070000 		.4byte	.LASF155
 1803 064b 08       		.byte	0x8
 1804 064c 6801     		.2byte	0x168
 1805 064e 08060000 		.4byte	0x608
ARM GAS  /tmp/ccGNTUjr.s 			page 33


 1806 0652 12       		.uleb128 0x12
 1807 0653 08       		.byte	0x8
 1808 0654 08       		.byte	0x8
 1809 0655 6A01     		.2byte	0x16a
 1810 0657 76060000 		.4byte	0x676
 1811 065b 08       		.uleb128 0x8
 1812 065c 49535200 		.ascii	"ISR\000"
 1813 0660 08       		.byte	0x8
 1814 0661 6C01     		.2byte	0x16c
 1815 0663 D3000000 		.4byte	0xd3
 1816 0667 00       		.byte	0
 1817 0668 09       		.uleb128 0x9
 1818 0669 8C020000 		.4byte	.LASF156
 1819 066d 08       		.byte	0x8
 1820 066e 6D01     		.2byte	0x16d
 1821 0670 D3000000 		.4byte	0xd3
 1822 0674 04       		.byte	0x4
 1823 0675 00       		.byte	0
 1824 0676 13       		.uleb128 0x13
 1825 0677 F9010000 		.4byte	.LASF157
 1826 067b 08       		.byte	0x8
 1827 067c 6E01     		.2byte	0x16e
 1828 067e 52060000 		.4byte	0x652
 1829 0682 12       		.uleb128 0x12
 1830 0683 34       		.byte	0x34
 1831 0684 08       		.byte	0x8
 1832 0685 FC01     		.2byte	0x1fc
 1833 0687 34070000 		.4byte	0x734
 1834 068b 08       		.uleb128 0x8
 1835 068c 435200   		.ascii	"CR\000"
 1836 068f 08       		.byte	0x8
 1837 0690 FE01     		.2byte	0x1fe
 1838 0692 D3000000 		.4byte	0xd3
 1839 0696 00       		.byte	0
 1840 0697 09       		.uleb128 0x9
 1841 0698 8C030000 		.4byte	.LASF158
 1842 069c 08       		.byte	0x8
 1843 069d FF01     		.2byte	0x1ff
 1844 069f D3000000 		.4byte	0xd3
 1845 06a3 04       		.byte	0x4
 1846 06a4 08       		.uleb128 0x8
 1847 06a5 43495200 		.ascii	"CIR\000"
 1848 06a9 08       		.byte	0x8
 1849 06aa 0002     		.2byte	0x200
 1850 06ac D3000000 		.4byte	0xd3
 1851 06b0 08       		.byte	0x8
 1852 06b1 09       		.uleb128 0x9
 1853 06b2 DD050000 		.4byte	.LASF159
 1854 06b6 08       		.byte	0x8
 1855 06b7 0102     		.2byte	0x201
 1856 06b9 D3000000 		.4byte	0xd3
 1857 06bd 0C       		.byte	0xc
 1858 06be 09       		.uleb128 0x9
 1859 06bf D8080000 		.4byte	.LASF160
 1860 06c3 08       		.byte	0x8
 1861 06c4 0202     		.2byte	0x202
 1862 06c6 D3000000 		.4byte	0xd3
ARM GAS  /tmp/ccGNTUjr.s 			page 34


 1863 06ca 10       		.byte	0x10
 1864 06cb 09       		.uleb128 0x9
 1865 06cc 04090000 		.4byte	.LASF161
 1866 06d0 08       		.byte	0x8
 1867 06d1 0302     		.2byte	0x203
 1868 06d3 D3000000 		.4byte	0xd3
 1869 06d7 14       		.byte	0x14
 1870 06d8 09       		.uleb128 0x9
 1871 06d9 74010000 		.4byte	.LASF162
 1872 06dd 08       		.byte	0x8
 1873 06de 0402     		.2byte	0x204
 1874 06e0 D3000000 		.4byte	0xd3
 1875 06e4 18       		.byte	0x18
 1876 06e5 09       		.uleb128 0x9
 1877 06e6 60070000 		.4byte	.LASF163
 1878 06ea 08       		.byte	0x8
 1879 06eb 0502     		.2byte	0x205
 1880 06ed D3000000 		.4byte	0xd3
 1881 06f1 1C       		.byte	0x1c
 1882 06f2 09       		.uleb128 0x9
 1883 06f3 3C030000 		.4byte	.LASF164
 1884 06f7 08       		.byte	0x8
 1885 06f8 0602     		.2byte	0x206
 1886 06fa D3000000 		.4byte	0xd3
 1887 06fe 20       		.byte	0x20
 1888 06ff 08       		.uleb128 0x8
 1889 0700 43535200 		.ascii	"CSR\000"
 1890 0704 08       		.byte	0x8
 1891 0705 0702     		.2byte	0x207
 1892 0707 D3000000 		.4byte	0xd3
 1893 070b 24       		.byte	0x24
 1894 070c 09       		.uleb128 0x9
 1895 070d 00050000 		.4byte	.LASF165
 1896 0711 08       		.byte	0x8
 1897 0712 0802     		.2byte	0x208
 1898 0714 D3000000 		.4byte	0xd3
 1899 0718 28       		.byte	0x28
 1900 0719 09       		.uleb128 0x9
 1901 071a 51060000 		.4byte	.LASF166
 1902 071e 08       		.byte	0x8
 1903 071f 0902     		.2byte	0x209
 1904 0721 D3000000 		.4byte	0xd3
 1905 0725 2C       		.byte	0x2c
 1906 0726 09       		.uleb128 0x9
 1907 0727 CD060000 		.4byte	.LASF167
 1908 072b 08       		.byte	0x8
 1909 072c 0A02     		.2byte	0x20a
 1910 072e D3000000 		.4byte	0xd3
 1911 0732 30       		.byte	0x30
 1912 0733 00       		.byte	0
 1913 0734 13       		.uleb128 0x13
 1914 0735 A7080000 		.4byte	.LASF168
 1915 0739 08       		.byte	0x8
 1916 073a 0B02     		.2byte	0x20b
 1917 073c 82060000 		.4byte	0x682
 1918 0740 03       		.uleb128 0x3
 1919 0741 6B010000 		.4byte	.LASF169
ARM GAS  /tmp/ccGNTUjr.s 			page 35


 1920 0745 09       		.byte	0x9
 1921 0746 85       		.byte	0x85
 1922 0747 FF020000 		.4byte	0x2ff
 1923 074b 03       		.uleb128 0x3
 1924 074c F2020000 		.4byte	.LASF170
 1925 0750 09       		.byte	0x9
 1926 0751 8D       		.byte	0x8d
 1927 0752 C3000000 		.4byte	0xc3
 1928 0756 06       		.uleb128 0x6
 1929 0757 D4010000 		.4byte	.LASF171
 1930 075b 04       		.byte	0x4
 1931 075c 09       		.byte	0x9
 1932 075d A9       		.byte	0xa9
 1933 075e 6F070000 		.4byte	0x76f
 1934 0762 14       		.uleb128 0x14
 1935 0763 72313300 		.ascii	"r13\000"
 1936 0767 09       		.byte	0x9
 1937 0768 AA       		.byte	0xaa
 1938 0769 B0080000 		.4byte	0x8b0
 1939 076d 00       		.byte	0
 1940 076e 00       		.byte	0
 1941 076f 06       		.uleb128 0x6
 1942 0770 09070000 		.4byte	.LASF172
 1943 0774 64       		.byte	0x64
 1944 0775 0A       		.byte	0xa
 1945 0776 F4       		.byte	0xf4
 1946 0777 B0080000 		.4byte	0x8b0
 1947 077b 14       		.uleb128 0x14
 1948 077c 73313600 		.ascii	"s16\000"
 1949 0780 0A       		.byte	0xa
 1950 0781 F6       		.byte	0xf6
 1951 0782 40070000 		.4byte	0x740
 1952 0786 00       		.byte	0
 1953 0787 14       		.uleb128 0x14
 1954 0788 73313700 		.ascii	"s17\000"
 1955 078c 0A       		.byte	0xa
 1956 078d F7       		.byte	0xf7
 1957 078e 40070000 		.4byte	0x740
 1958 0792 04       		.byte	0x4
 1959 0793 14       		.uleb128 0x14
 1960 0794 73313800 		.ascii	"s18\000"
 1961 0798 0A       		.byte	0xa
 1962 0799 F8       		.byte	0xf8
 1963 079a 40070000 		.4byte	0x740
 1964 079e 08       		.byte	0x8
 1965 079f 14       		.uleb128 0x14
 1966 07a0 73313900 		.ascii	"s19\000"
 1967 07a4 0A       		.byte	0xa
 1968 07a5 F9       		.byte	0xf9
 1969 07a6 40070000 		.4byte	0x740
 1970 07aa 0C       		.byte	0xc
 1971 07ab 14       		.uleb128 0x14
 1972 07ac 73323000 		.ascii	"s20\000"
 1973 07b0 0A       		.byte	0xa
 1974 07b1 FA       		.byte	0xfa
 1975 07b2 40070000 		.4byte	0x740
 1976 07b6 10       		.byte	0x10
ARM GAS  /tmp/ccGNTUjr.s 			page 36


 1977 07b7 14       		.uleb128 0x14
 1978 07b8 73323100 		.ascii	"s21\000"
 1979 07bc 0A       		.byte	0xa
 1980 07bd FB       		.byte	0xfb
 1981 07be 40070000 		.4byte	0x740
 1982 07c2 14       		.byte	0x14
 1983 07c3 14       		.uleb128 0x14
 1984 07c4 73323200 		.ascii	"s22\000"
 1985 07c8 0A       		.byte	0xa
 1986 07c9 FC       		.byte	0xfc
 1987 07ca 40070000 		.4byte	0x740
 1988 07ce 18       		.byte	0x18
 1989 07cf 14       		.uleb128 0x14
 1990 07d0 73323300 		.ascii	"s23\000"
 1991 07d4 0A       		.byte	0xa
 1992 07d5 FD       		.byte	0xfd
 1993 07d6 40070000 		.4byte	0x740
 1994 07da 1C       		.byte	0x1c
 1995 07db 14       		.uleb128 0x14
 1996 07dc 73323400 		.ascii	"s24\000"
 1997 07e0 0A       		.byte	0xa
 1998 07e1 FE       		.byte	0xfe
 1999 07e2 40070000 		.4byte	0x740
 2000 07e6 20       		.byte	0x20
 2001 07e7 14       		.uleb128 0x14
 2002 07e8 73323500 		.ascii	"s25\000"
 2003 07ec 0A       		.byte	0xa
 2004 07ed FF       		.byte	0xff
 2005 07ee 40070000 		.4byte	0x740
 2006 07f2 24       		.byte	0x24
 2007 07f3 08       		.uleb128 0x8
 2008 07f4 73323600 		.ascii	"s26\000"
 2009 07f8 0A       		.byte	0xa
 2010 07f9 0001     		.2byte	0x100
 2011 07fb 40070000 		.4byte	0x740
 2012 07ff 28       		.byte	0x28
 2013 0800 08       		.uleb128 0x8
 2014 0801 73323700 		.ascii	"s27\000"
 2015 0805 0A       		.byte	0xa
 2016 0806 0101     		.2byte	0x101
 2017 0808 40070000 		.4byte	0x740
 2018 080c 2C       		.byte	0x2c
 2019 080d 08       		.uleb128 0x8
 2020 080e 73323800 		.ascii	"s28\000"
 2021 0812 0A       		.byte	0xa
 2022 0813 0201     		.2byte	0x102
 2023 0815 40070000 		.4byte	0x740
 2024 0819 30       		.byte	0x30
 2025 081a 08       		.uleb128 0x8
 2026 081b 73323900 		.ascii	"s29\000"
 2027 081f 0A       		.byte	0xa
 2028 0820 0301     		.2byte	0x103
 2029 0822 40070000 		.4byte	0x740
 2030 0826 34       		.byte	0x34
 2031 0827 08       		.uleb128 0x8
 2032 0828 73333000 		.ascii	"s30\000"
 2033 082c 0A       		.byte	0xa
ARM GAS  /tmp/ccGNTUjr.s 			page 37


 2034 082d 0401     		.2byte	0x104
 2035 082f 40070000 		.4byte	0x740
 2036 0833 38       		.byte	0x38
 2037 0834 08       		.uleb128 0x8
 2038 0835 73333100 		.ascii	"s31\000"
 2039 0839 0A       		.byte	0xa
 2040 083a 0501     		.2byte	0x105
 2041 083c 40070000 		.4byte	0x740
 2042 0840 3C       		.byte	0x3c
 2043 0841 08       		.uleb128 0x8
 2044 0842 723400   		.ascii	"r4\000"
 2045 0845 0A       		.byte	0xa
 2046 0846 0701     		.2byte	0x107
 2047 0848 40070000 		.4byte	0x740
 2048 084c 40       		.byte	0x40
 2049 084d 08       		.uleb128 0x8
 2050 084e 723500   		.ascii	"r5\000"
 2051 0851 0A       		.byte	0xa
 2052 0852 0801     		.2byte	0x108
 2053 0854 40070000 		.4byte	0x740
 2054 0858 44       		.byte	0x44
 2055 0859 08       		.uleb128 0x8
 2056 085a 723600   		.ascii	"r6\000"
 2057 085d 0A       		.byte	0xa
 2058 085e 0901     		.2byte	0x109
 2059 0860 40070000 		.4byte	0x740
 2060 0864 48       		.byte	0x48
 2061 0865 08       		.uleb128 0x8
 2062 0866 723700   		.ascii	"r7\000"
 2063 0869 0A       		.byte	0xa
 2064 086a 0A01     		.2byte	0x10a
 2065 086c 40070000 		.4byte	0x740
 2066 0870 4C       		.byte	0x4c
 2067 0871 08       		.uleb128 0x8
 2068 0872 723800   		.ascii	"r8\000"
 2069 0875 0A       		.byte	0xa
 2070 0876 0B01     		.2byte	0x10b
 2071 0878 40070000 		.4byte	0x740
 2072 087c 50       		.byte	0x50
 2073 087d 08       		.uleb128 0x8
 2074 087e 723900   		.ascii	"r9\000"
 2075 0881 0A       		.byte	0xa
 2076 0882 0C01     		.2byte	0x10c
 2077 0884 40070000 		.4byte	0x740
 2078 0888 54       		.byte	0x54
 2079 0889 08       		.uleb128 0x8
 2080 088a 72313000 		.ascii	"r10\000"
 2081 088e 0A       		.byte	0xa
 2082 088f 0D01     		.2byte	0x10d
 2083 0891 40070000 		.4byte	0x740
 2084 0895 58       		.byte	0x58
 2085 0896 08       		.uleb128 0x8
 2086 0897 72313100 		.ascii	"r11\000"
 2087 089b 0A       		.byte	0xa
 2088 089c 0E01     		.2byte	0x10e
 2089 089e 40070000 		.4byte	0x740
 2090 08a2 5C       		.byte	0x5c
ARM GAS  /tmp/ccGNTUjr.s 			page 38


 2091 08a3 08       		.uleb128 0x8
 2092 08a4 6C7200   		.ascii	"lr\000"
 2093 08a7 0A       		.byte	0xa
 2094 08a8 0F01     		.2byte	0x10f
 2095 08aa 40070000 		.4byte	0x740
 2096 08ae 60       		.byte	0x60
 2097 08af 00       		.byte	0
 2098 08b0 0B       		.uleb128 0xb
 2099 08b1 04       		.byte	0x4
 2100 08b2 6F070000 		.4byte	0x76f
 2101 08b6 15       		.uleb128 0x15
 2102 08b7 04       		.byte	0x4
 2103 08b8 0B       		.byte	0xb
 2104 08b9 38       		.byte	0x38
 2105 08ba CB080000 		.4byte	0x8cb
 2106 08be 07       		.uleb128 0x7
 2107 08bf B3060000 		.4byte	.LASF173
 2108 08c3 0B       		.byte	0xb
 2109 08c4 3C       		.byte	0x3c
 2110 08c5 D8000000 		.4byte	0xd8
 2111 08c9 00       		.byte	0
 2112 08ca 00       		.byte	0
 2113 08cb 03       		.uleb128 0x3
 2114 08cc 83080000 		.4byte	.LASF174
 2115 08d0 0B       		.byte	0xb
 2116 08d1 3D       		.byte	0x3d
 2117 08d2 B6080000 		.4byte	0x8b6
 2118 08d6 0B       		.uleb128 0xb
 2119 08d7 04       		.byte	0x4
 2120 08d8 30010000 		.4byte	0x130
 2121 08dc 16       		.uleb128 0x16
 2122 08dd 04       		.byte	0x4
 2123 08de 07       		.byte	0x7
 2124 08df F6       		.byte	0xf6
 2125 08e0 14090000 		.4byte	0x914
 2126 08e4 17       		.uleb128 0x17
 2127 08e5 B80A0000 		.4byte	.LASF175
 2128 08e9 07       		.byte	0x7
 2129 08ea FD       		.byte	0xfd
 2130 08eb 0F010000 		.4byte	0x10f
 2131 08ef 18       		.uleb128 0x18
 2132 08f0 0C010000 		.4byte	.LASF176
 2133 08f4 07       		.byte	0x7
 2134 08f5 0401     		.2byte	0x104
 2135 08f7 0F010000 		.4byte	0x10f
 2136 08fb 18       		.uleb128 0x18
 2137 08fc AC020000 		.4byte	.LASF177
 2138 0900 07       		.byte	0x7
 2139 0901 0B01     		.2byte	0x10b
 2140 0903 FF020000 		.4byte	0x2ff
 2141 0907 18       		.uleb128 0x18
 2142 0908 A6010000 		.4byte	.LASF178
 2143 090c 07       		.byte	0x7
 2144 090d 1201     		.2byte	0x112
 2145 090f 1A010000 		.4byte	0x11a
 2146 0913 00       		.byte	0
 2147 0914 0B       		.uleb128 0xb
ARM GAS  /tmp/ccGNTUjr.s 			page 39


 2148 0915 04       		.byte	0x4
 2149 0916 1A090000 		.4byte	0x91a
 2150 091a 19       		.uleb128 0x19
 2151 091b 1F090000 		.4byte	0x91f
 2152 091f 04       		.uleb128 0x4
 2153 0920 01       		.byte	0x1
 2154 0921 08       		.byte	0x8
 2155 0922 73020000 		.4byte	.LASF179
 2156 0926 06       		.uleb128 0x6
 2157 0927 E6050000 		.4byte	.LASF180
 2158 092b 10       		.byte	0x10
 2159 092c 0C       		.byte	0xc
 2160 092d 39       		.byte	0x39
 2161 092e 57090000 		.4byte	0x957
 2162 0932 07       		.uleb128 0x7
 2163 0933 85050000 		.4byte	.LASF181
 2164 0937 0C       		.byte	0xc
 2165 0938 3A       		.byte	0x3a
 2166 0939 4C020000 		.4byte	0x24c
 2167 093d 00       		.byte	0
 2168 093e 07       		.uleb128 0x7
 2169 093f F3000000 		.4byte	.LASF182
 2170 0943 0C       		.byte	0xc
 2171 0944 3C       		.byte	0x3c
 2172 0945 D6080000 		.4byte	0x8d6
 2173 0949 08       		.byte	0x8
 2174 094a 07       		.uleb128 0x7
 2175 094b 370B0000 		.4byte	.LASF183
 2176 094f 0C       		.byte	0xc
 2177 0950 3E       		.byte	0x3e
 2178 0951 83090000 		.4byte	0x983
 2179 0955 0C       		.byte	0xc
 2180 0956 00       		.byte	0
 2181 0957 0B       		.uleb128 0xb
 2182 0958 04       		.byte	0x4
 2183 0959 26090000 		.4byte	0x926
 2184 095d 0B       		.uleb128 0xb
 2185 095e 04       		.byte	0x4
 2186 095f 01030000 		.4byte	0x301
 2187 0963 05       		.uleb128 0x5
 2188 0964 14090000 		.4byte	0x914
 2189 0968 1A       		.uleb128 0x1a
 2190 0969 4B070000 		.4byte	0x74b
 2191 096d 78090000 		.4byte	0x978
 2192 0971 1B       		.uleb128 0x1b
 2193 0972 01060000 		.4byte	0x601
 2194 0976 2B       		.byte	0x2b
 2195 0977 00       		.byte	0
 2196 0978 03       		.uleb128 0x3
 2197 0979 3C090000 		.4byte	.LASF184
 2198 097d 0C       		.byte	0xc
 2199 097e 34       		.byte	0x34
 2200 097f 26090000 		.4byte	0x926
 2201 0983 0B       		.uleb128 0xb
 2202 0984 04       		.byte	0x4
 2203 0985 78090000 		.4byte	0x978
 2204 0989 15       		.uleb128 0x15
ARM GAS  /tmp/ccGNTUjr.s 			page 40


 2205 098a 0C       		.byte	0xc
 2206 098b 0D       		.byte	0xd
 2207 098c C1       		.byte	0xc1
 2208 098d CE090000 		.4byte	0x9ce
 2209 0991 07       		.uleb128 0x7
 2210 0992 50040000 		.4byte	.LASF185
 2211 0996 0D       		.byte	0xd
 2212 0997 C2       		.byte	0xc2
 2213 0998 CE090000 		.4byte	0x9ce
 2214 099c 00       		.byte	0
 2215 099d 07       		.uleb128 0x7
 2216 099e 180B0000 		.4byte	.LASF186
 2217 09a2 0D       		.byte	0xd
 2218 09a3 C3       		.byte	0xc3
 2219 09a4 D4090000 		.4byte	0x9d4
 2220 09a8 04       		.byte	0x4
 2221 09a9 07       		.uleb128 0x7
 2222 09aa 85020000 		.4byte	.LASF187
 2223 09ae 0D       		.byte	0xd
 2224 09af C4       		.byte	0xc4
 2225 09b0 A2000000 		.4byte	0xa2
 2226 09b4 08       		.byte	0x8
 2227 09b5 07       		.uleb128 0x7
 2228 09b6 68070000 		.4byte	.LASF188
 2229 09ba 0D       		.byte	0xd
 2230 09bb C6       		.byte	0xc6
 2231 09bc A2000000 		.4byte	0xa2
 2232 09c0 09       		.byte	0x9
 2233 09c1 07       		.uleb128 0x7
 2234 09c2 04080000 		.4byte	.LASF189
 2235 09c6 0D       		.byte	0xd
 2236 09c7 C7       		.byte	0xc7
 2237 09c8 A2000000 		.4byte	0xa2
 2238 09cc 0A       		.byte	0xa
 2239 09cd 00       		.byte	0
 2240 09ce 0B       		.uleb128 0xb
 2241 09cf 04       		.byte	0x4
 2242 09d0 46060000 		.4byte	0x646
 2243 09d4 0B       		.uleb128 0xb
 2244 09d5 04       		.byte	0x4
 2245 09d6 D3000000 		.4byte	0xd3
 2246 09da 03       		.uleb128 0x3
 2247 09db 0E000000 		.4byte	.LASF190
 2248 09df 0D       		.byte	0xd
 2249 09e0 C8       		.byte	0xc8
 2250 09e1 89090000 		.4byte	0x989
 2251 09e5 03       		.uleb128 0x3
 2252 09e6 72060000 		.4byte	.LASF191
 2253 09ea 0D       		.byte	0xd
 2254 09eb D1       		.byte	0xd1
 2255 09ec F0090000 		.4byte	0x9f0
 2256 09f0 0B       		.uleb128 0xb
 2257 09f1 04       		.byte	0x4
 2258 09f2 F6090000 		.4byte	0x9f6
 2259 09f6 0C       		.uleb128 0xc
 2260 09f7 060A0000 		.4byte	0xa06
 2261 09fb 0D       		.uleb128 0xd
ARM GAS  /tmp/ccGNTUjr.s 			page 41


 2262 09fc FF020000 		.4byte	0x2ff
 2263 0a00 0D       		.uleb128 0xd
 2264 0a01 B8000000 		.4byte	0xb8
 2265 0a05 00       		.byte	0
 2266 0a06 04       		.uleb128 0x4
 2267 0a07 01       		.byte	0x1
 2268 0a08 02       		.byte	0x2
 2269 0a09 46020000 		.4byte	.LASF192
 2270 0a0d 0B       		.uleb128 0xb
 2271 0a0e 04       		.byte	0x4
 2272 0a0f 130A0000 		.4byte	0xa13
 2273 0a13 19       		.uleb128 0x19
 2274 0a14 DA090000 		.4byte	0x9da
 2275 0a18 15       		.uleb128 0x15
 2276 0a19 08       		.byte	0x8
 2277 0a1a 01       		.byte	0x1
 2278 0a1b 5A       		.byte	0x5a
 2279 0a1c 390A0000 		.4byte	0xa39
 2280 0a20 07       		.uleb128 0x7
 2281 0a21 41030000 		.4byte	.LASF193
 2282 0a25 01       		.byte	0x1
 2283 0a26 5B       		.byte	0x5b
 2284 0a27 E5090000 		.4byte	0x9e5
 2285 0a2b 00       		.byte	0
 2286 0a2c 07       		.uleb128 0x7
 2287 0a2d 0B090000 		.4byte	.LASF194
 2288 0a31 01       		.byte	0x1
 2289 0a32 5C       		.byte	0x5c
 2290 0a33 FF020000 		.4byte	0x2ff
 2291 0a37 04       		.byte	0x4
 2292 0a38 00       		.byte	0
 2293 0a39 03       		.uleb128 0x3
 2294 0a3a D3060000 		.4byte	.LASF195
 2295 0a3e 01       		.byte	0x1
 2296 0a3f 5D       		.byte	0x5d
 2297 0a40 180A0000 		.4byte	0xa18
 2298 0a44 1C       		.uleb128 0x1c
 2299 0a45 A6000000 		.4byte	.LASF196
 2300 0a49 01       		.byte	0x1
 2301 0a4a 76       		.byte	0x76
 2302 0a4b 00000000 		.4byte	.LFB255
 2303 0a4f 28000000 		.4byte	.LFE255-.LFB255
 2304 0a53 01       		.uleb128 0x1
 2305 0a54 9C       		.byte	0x9c
 2306 0a55 720A0000 		.4byte	0xa72
 2307 0a59 1D       		.uleb128 0x1d
 2308 0a5a 5D020000 		.4byte	.LASF198
 2309 0a5e 01       		.byte	0x1
 2310 0a5f 77       		.byte	0x77
 2311 0a60 B8000000 		.4byte	0xb8
 2312 0a64 00000000 		.4byte	.LLST0
 2313 0a68 1E       		.uleb128 0x1e
 2314 0a69 1E000000 		.4byte	.LVL2
 2315 0a6d D80D0000 		.4byte	0xdd8
 2316 0a71 00       		.byte	0
 2317 0a72 1C       		.uleb128 0x1c
 2318 0a73 21050000 		.4byte	.LASF197
ARM GAS  /tmp/ccGNTUjr.s 			page 42


 2319 0a77 01       		.byte	0x1
 2320 0a78 88       		.byte	0x88
 2321 0a79 00000000 		.4byte	.LFB256
 2322 0a7d 28000000 		.4byte	.LFE256-.LFB256
 2323 0a81 01       		.uleb128 0x1
 2324 0a82 9C       		.byte	0x9c
 2325 0a83 A00A0000 		.4byte	0xaa0
 2326 0a87 1D       		.uleb128 0x1d
 2327 0a88 5D020000 		.4byte	.LASF198
 2328 0a8c 01       		.byte	0x1
 2329 0a8d 89       		.byte	0x89
 2330 0a8e B8000000 		.4byte	0xb8
 2331 0a92 13000000 		.4byte	.LLST1
 2332 0a96 1E       		.uleb128 0x1e
 2333 0a97 20000000 		.4byte	.LVL5
 2334 0a9b D80D0000 		.4byte	0xdd8
 2335 0a9f 00       		.byte	0
 2336 0aa0 1C       		.uleb128 0x1c
 2337 0aa1 2A050000 		.4byte	.LASF199
 2338 0aa5 01       		.byte	0x1
 2339 0aa6 9A       		.byte	0x9a
 2340 0aa7 00000000 		.4byte	.LFB257
 2341 0aab 28000000 		.4byte	.LFE257-.LFB257
 2342 0aaf 01       		.uleb128 0x1
 2343 0ab0 9C       		.byte	0x9c
 2344 0ab1 CE0A0000 		.4byte	0xace
 2345 0ab5 1D       		.uleb128 0x1d
 2346 0ab6 5D020000 		.4byte	.LASF198
 2347 0aba 01       		.byte	0x1
 2348 0abb 9B       		.byte	0x9b
 2349 0abc B8000000 		.4byte	0xb8
 2350 0ac0 26000000 		.4byte	.LLST2
 2351 0ac4 1E       		.uleb128 0x1e
 2352 0ac5 20000000 		.4byte	.LVL8
 2353 0ac9 D80D0000 		.4byte	0xdd8
 2354 0acd 00       		.byte	0
 2355 0ace 1C       		.uleb128 0x1c
 2356 0acf 33050000 		.4byte	.LASF200
 2357 0ad3 01       		.byte	0x1
 2358 0ad4 AC       		.byte	0xac
 2359 0ad5 00000000 		.4byte	.LFB258
 2360 0ad9 28000000 		.4byte	.LFE258-.LFB258
 2361 0add 01       		.uleb128 0x1
 2362 0ade 9C       		.byte	0x9c
 2363 0adf FC0A0000 		.4byte	0xafc
 2364 0ae3 1D       		.uleb128 0x1d
 2365 0ae4 5D020000 		.4byte	.LASF198
 2366 0ae8 01       		.byte	0x1
 2367 0ae9 AD       		.byte	0xad
 2368 0aea B8000000 		.4byte	0xb8
 2369 0aee 39000000 		.4byte	.LLST3
 2370 0af2 1E       		.uleb128 0x1e
 2371 0af3 20000000 		.4byte	.LVL11
 2372 0af7 D80D0000 		.4byte	0xdd8
 2373 0afb 00       		.byte	0
 2374 0afc 1C       		.uleb128 0x1c
 2375 0afd 4F050000 		.4byte	.LASF201
ARM GAS  /tmp/ccGNTUjr.s 			page 43


 2376 0b01 01       		.byte	0x1
 2377 0b02 BE       		.byte	0xbe
 2378 0b03 00000000 		.4byte	.LFB259
 2379 0b07 28000000 		.4byte	.LFE259-.LFB259
 2380 0b0b 01       		.uleb128 0x1
 2381 0b0c 9C       		.byte	0x9c
 2382 0b0d 2A0B0000 		.4byte	0xb2a
 2383 0b11 1D       		.uleb128 0x1d
 2384 0b12 5D020000 		.4byte	.LASF198
 2385 0b16 01       		.byte	0x1
 2386 0b17 BF       		.byte	0xbf
 2387 0b18 B8000000 		.4byte	0xb8
 2388 0b1c 4C000000 		.4byte	.LLST4
 2389 0b20 1E       		.uleb128 0x1e
 2390 0b21 20000000 		.4byte	.LVL14
 2391 0b25 D80D0000 		.4byte	0xdd8
 2392 0b29 00       		.byte	0
 2393 0b2a 1C       		.uleb128 0x1c
 2394 0b2b 9F050000 		.4byte	.LASF202
 2395 0b2f 01       		.byte	0x1
 2396 0b30 D0       		.byte	0xd0
 2397 0b31 00000000 		.4byte	.LFB260
 2398 0b35 28000000 		.4byte	.LFE260-.LFB260
 2399 0b39 01       		.uleb128 0x1
 2400 0b3a 9C       		.byte	0x9c
 2401 0b3b 580B0000 		.4byte	0xb58
 2402 0b3f 1D       		.uleb128 0x1d
 2403 0b40 5D020000 		.4byte	.LASF198
 2404 0b44 01       		.byte	0x1
 2405 0b45 D1       		.byte	0xd1
 2406 0b46 B8000000 		.4byte	0xb8
 2407 0b4a 5F000000 		.4byte	.LLST5
 2408 0b4e 1E       		.uleb128 0x1e
 2409 0b4f 20000000 		.4byte	.LVL17
 2410 0b53 D80D0000 		.4byte	0xdd8
 2411 0b57 00       		.byte	0
 2412 0b58 1C       		.uleb128 0x1c
 2413 0b59 C0050000 		.4byte	.LASF203
 2414 0b5d 01       		.byte	0x1
 2415 0b5e E2       		.byte	0xe2
 2416 0b5f 00000000 		.4byte	.LFB261
 2417 0b63 28000000 		.4byte	.LFE261-.LFB261
 2418 0b67 01       		.uleb128 0x1
 2419 0b68 9C       		.byte	0x9c
 2420 0b69 860B0000 		.4byte	0xb86
 2421 0b6d 1D       		.uleb128 0x1d
 2422 0b6e 5D020000 		.4byte	.LASF198
 2423 0b72 01       		.byte	0x1
 2424 0b73 E3       		.byte	0xe3
 2425 0b74 B8000000 		.4byte	0xb8
 2426 0b78 72000000 		.4byte	.LLST6
 2427 0b7c 1E       		.uleb128 0x1e
 2428 0b7d 20000000 		.4byte	.LVL20
 2429 0b81 D80D0000 		.4byte	0xdd8
 2430 0b85 00       		.byte	0
 2431 0b86 1C       		.uleb128 0x1c
 2432 0b87 02010000 		.4byte	.LASF204
ARM GAS  /tmp/ccGNTUjr.s 			page 44


 2433 0b8b 01       		.byte	0x1
 2434 0b8c F4       		.byte	0xf4
 2435 0b8d 00000000 		.4byte	.LFB262
 2436 0b91 28000000 		.4byte	.LFE262-.LFB262
 2437 0b95 01       		.uleb128 0x1
 2438 0b96 9C       		.byte	0x9c
 2439 0b97 B40B0000 		.4byte	0xbb4
 2440 0b9b 1D       		.uleb128 0x1d
 2441 0b9c 5D020000 		.4byte	.LASF198
 2442 0ba0 01       		.byte	0x1
 2443 0ba1 F5       		.byte	0xf5
 2444 0ba2 B8000000 		.4byte	0xb8
 2445 0ba6 85000000 		.4byte	.LLST7
 2446 0baa 1E       		.uleb128 0x1e
 2447 0bab 1E000000 		.4byte	.LVL23
 2448 0baf D80D0000 		.4byte	0xdd8
 2449 0bb3 00       		.byte	0
 2450 0bb4 1F       		.uleb128 0x1f
 2451 0bb5 DC070000 		.4byte	.LASF205
 2452 0bb9 01       		.byte	0x1
 2453 0bba 0601     		.2byte	0x106
 2454 0bbc 00000000 		.4byte	.LFB263
 2455 0bc0 28000000 		.4byte	.LFE263-.LFB263
 2456 0bc4 01       		.uleb128 0x1
 2457 0bc5 9C       		.byte	0x9c
 2458 0bc6 E40B0000 		.4byte	0xbe4
 2459 0bca 20       		.uleb128 0x20
 2460 0bcb 5D020000 		.4byte	.LASF198
 2461 0bcf 01       		.byte	0x1
 2462 0bd0 0701     		.2byte	0x107
 2463 0bd2 B8000000 		.4byte	0xb8
 2464 0bd6 98000000 		.4byte	.LLST8
 2465 0bda 1E       		.uleb128 0x1e
 2466 0bdb 20000000 		.4byte	.LVL26
 2467 0bdf D80D0000 		.4byte	0xdd8
 2468 0be3 00       		.byte	0
 2469 0be4 1F       		.uleb128 0x1f
 2470 0be5 E6070000 		.4byte	.LASF206
 2471 0be9 01       		.byte	0x1
 2472 0bea 1801     		.2byte	0x118
 2473 0bec 00000000 		.4byte	.LFB264
 2474 0bf0 28000000 		.4byte	.LFE264-.LFB264
 2475 0bf4 01       		.uleb128 0x1
 2476 0bf5 9C       		.byte	0x9c
 2477 0bf6 140C0000 		.4byte	0xc14
 2478 0bfa 20       		.uleb128 0x20
 2479 0bfb 5D020000 		.4byte	.LASF198
 2480 0bff 01       		.byte	0x1
 2481 0c00 1901     		.2byte	0x119
 2482 0c02 B8000000 		.4byte	0xb8
 2483 0c06 AB000000 		.4byte	.LLST9
 2484 0c0a 1E       		.uleb128 0x1e
 2485 0c0b 20000000 		.4byte	.LVL29
 2486 0c0f D80D0000 		.4byte	0xdd8
 2487 0c13 00       		.byte	0
 2488 0c14 1F       		.uleb128 0x1f
 2489 0c15 F0070000 		.4byte	.LASF207
ARM GAS  /tmp/ccGNTUjr.s 			page 45


 2490 0c19 01       		.byte	0x1
 2491 0c1a 2A01     		.2byte	0x12a
 2492 0c1c 00000000 		.4byte	.LFB265
 2493 0c20 28000000 		.4byte	.LFE265-.LFB265
 2494 0c24 01       		.uleb128 0x1
 2495 0c25 9C       		.byte	0x9c
 2496 0c26 440C0000 		.4byte	0xc44
 2497 0c2a 20       		.uleb128 0x20
 2498 0c2b 5D020000 		.4byte	.LASF198
 2499 0c2f 01       		.byte	0x1
 2500 0c30 2B01     		.2byte	0x12b
 2501 0c32 B8000000 		.4byte	0xb8
 2502 0c36 BE000000 		.4byte	.LLST10
 2503 0c3a 1E       		.uleb128 0x1e
 2504 0c3b 20000000 		.4byte	.LVL32
 2505 0c3f D80D0000 		.4byte	0xdd8
 2506 0c43 00       		.byte	0
 2507 0c44 1F       		.uleb128 0x1f
 2508 0c45 16080000 		.4byte	.LASF208
 2509 0c49 01       		.byte	0x1
 2510 0c4a 3C01     		.2byte	0x13c
 2511 0c4c 00000000 		.4byte	.LFB266
 2512 0c50 28000000 		.4byte	.LFE266-.LFB266
 2513 0c54 01       		.uleb128 0x1
 2514 0c55 9C       		.byte	0x9c
 2515 0c56 740C0000 		.4byte	0xc74
 2516 0c5a 20       		.uleb128 0x20
 2517 0c5b 5D020000 		.4byte	.LASF198
 2518 0c5f 01       		.byte	0x1
 2519 0c60 3D01     		.2byte	0x13d
 2520 0c62 B8000000 		.4byte	0xb8
 2521 0c66 D1000000 		.4byte	.LLST11
 2522 0c6a 1E       		.uleb128 0x1e
 2523 0c6b 20000000 		.4byte	.LVL35
 2524 0c6f D80D0000 		.4byte	0xdd8
 2525 0c73 00       		.byte	0
 2526 0c74 21       		.uleb128 0x21
 2527 0c75 22030000 		.4byte	.LASF209
 2528 0c79 01       		.byte	0x1
 2529 0c7a 5201     		.2byte	0x152
 2530 0c7c 00000000 		.4byte	.LFB267
 2531 0c80 48000000 		.4byte	.LFE267-.LFB267
 2532 0c84 01       		.uleb128 0x1
 2533 0c85 9C       		.byte	0x9c
 2534 0c86 990C0000 		.4byte	0xc99
 2535 0c8a 22       		.uleb128 0x22
 2536 0c8b 6900     		.ascii	"i\000"
 2537 0c8d 01       		.byte	0x1
 2538 0c8e 5301     		.2byte	0x153
 2539 0c90 25000000 		.4byte	0x25
 2540 0c94 E4000000 		.4byte	.LLST12
 2541 0c98 00       		.byte	0
 2542 0c99 23       		.uleb128 0x23
 2543 0c9a 2A030000 		.4byte	.LASF223
 2544 0c9e 01       		.byte	0x1
 2545 0c9f 7801     		.2byte	0x178
 2546 0ca1 060A0000 		.4byte	0xa06
ARM GAS  /tmp/ccGNTUjr.s 			page 46


 2547 0ca5 00000000 		.4byte	.LFB268
 2548 0ca9 80000000 		.4byte	.LFE268-.LFB268
 2549 0cad 01       		.uleb128 0x1
 2550 0cae 9C       		.byte	0x9c
 2551 0caf 060D0000 		.4byte	0xd06
 2552 0cb3 24       		.uleb128 0x24
 2553 0cb4 F7030000 		.4byte	.LASF210
 2554 0cb8 01       		.byte	0x1
 2555 0cb9 7801     		.2byte	0x178
 2556 0cbb 0D0A0000 		.4byte	0xa0d
 2557 0cbf 03010000 		.4byte	.LLST13
 2558 0cc3 24       		.uleb128 0x24
 2559 0cc4 CF080000 		.4byte	.LASF211
 2560 0cc8 01       		.byte	0x1
 2561 0cc9 7901     		.2byte	0x179
 2562 0ccb B8000000 		.4byte	0xb8
 2563 0ccf 56010000 		.4byte	.LLST14
 2564 0cd3 24       		.uleb128 0x24
 2565 0cd4 C3010000 		.4byte	.LASF212
 2566 0cd8 01       		.byte	0x1
 2567 0cd9 7A01     		.2byte	0x17a
 2568 0cdb E5090000 		.4byte	0x9e5
 2569 0cdf 82010000 		.4byte	.LLST15
 2570 0ce3 24       		.uleb128 0x24
 2571 0ce4 3A040000 		.4byte	.LASF213
 2572 0ce8 01       		.byte	0x1
 2573 0ce9 7B01     		.2byte	0x17b
 2574 0ceb FF020000 		.4byte	0x2ff
 2575 0cef AE010000 		.4byte	.LLST16
 2576 0cf3 25       		.uleb128 0x25
 2577 0cf4 AF000000 		.4byte	.LASF215
 2578 0cf8 160D0000 		.4byte	0xd16
 2579 0cfc 26       		.uleb128 0x26
 2580 0cfd 66000000 		.4byte	.LVL43
 2581 0d01 E00D0000 		.4byte	0xde0
 2582 0d05 00       		.byte	0
 2583 0d06 1A       		.uleb128 0x1a
 2584 0d07 1F090000 		.4byte	0x91f
 2585 0d0b 160D0000 		.4byte	0xd16
 2586 0d0f 1B       		.uleb128 0x1b
 2587 0d10 01060000 		.4byte	0x601
 2588 0d14 11       		.byte	0x11
 2589 0d15 00       		.byte	0
 2590 0d16 19       		.uleb128 0x19
 2591 0d17 060D0000 		.4byte	0xd06
 2592 0d1b 21       		.uleb128 0x21
 2593 0d1c 7E000000 		.4byte	.LASF214
 2594 0d20 01       		.byte	0x1
 2595 0d21 A801     		.2byte	0x1a8
 2596 0d23 00000000 		.4byte	.LFB269
 2597 0d27 44000000 		.4byte	.LFE269-.LFB269
 2598 0d2b 01       		.uleb128 0x1
 2599 0d2c 9C       		.byte	0x9c
 2600 0d2d 540D0000 		.4byte	0xd54
 2601 0d31 24       		.uleb128 0x24
 2602 0d32 F7030000 		.4byte	.LASF210
 2603 0d36 01       		.byte	0x1
ARM GAS  /tmp/ccGNTUjr.s 			page 47


 2604 0d37 A801     		.2byte	0x1a8
 2605 0d39 0D0A0000 		.4byte	0xa0d
 2606 0d3d F2010000 		.4byte	.LLST17
 2607 0d41 25       		.uleb128 0x25
 2608 0d42 AF000000 		.4byte	.LASF215
 2609 0d46 640D0000 		.4byte	0xd64
 2610 0d4a 26       		.uleb128 0x26
 2611 0d4b 0A000000 		.4byte	.LVL50
 2612 0d4f F60D0000 		.4byte	0xdf6
 2613 0d53 00       		.byte	0
 2614 0d54 1A       		.uleb128 0x1a
 2615 0d55 1F090000 		.4byte	0x91f
 2616 0d59 640D0000 		.4byte	0xd64
 2617 0d5d 1B       		.uleb128 0x1b
 2618 0d5e 01060000 		.4byte	0x601
 2619 0d62 10       		.byte	0x10
 2620 0d63 00       		.byte	0
 2621 0d64 19       		.uleb128 0x19
 2622 0d65 540D0000 		.4byte	0xd54
 2623 0d69 27       		.uleb128 0x27
 2624 0d6a 4C020000 		.4byte	.LASF216
 2625 0d6e 01       		.byte	0x1
 2626 0d6f 62       		.byte	0x62
 2627 0d70 B8000000 		.4byte	0xb8
 2628 0d74 05       		.uleb128 0x5
 2629 0d75 03       		.byte	0x3
 2630 0d76 00000000 		.4byte	dma_streams_mask
 2631 0d7a 1A       		.uleb128 0x1a
 2632 0d7b 390A0000 		.4byte	0xa39
 2633 0d7f 8A0D0000 		.4byte	0xd8a
 2634 0d83 1B       		.uleb128 0x1b
 2635 0d84 01060000 		.4byte	0x601
 2636 0d88 0B       		.byte	0xb
 2637 0d89 00       		.byte	0
 2638 0d8a 27       		.uleb128 0x27
 2639 0d8b 64060000 		.4byte	.LASF217
 2640 0d8f 01       		.byte	0x1
 2641 0d90 67       		.byte	0x67
 2642 0d91 7A0D0000 		.4byte	0xd7a
 2643 0d95 05       		.uleb128 0x5
 2644 0d96 03       		.byte	0x3
 2645 0d97 00000000 		.4byte	dma_isr_redir
 2646 0d9b 28       		.uleb128 0x28
 2647 0d9c 15090000 		.4byte	.LASF218
 2648 0da0 0E       		.byte	0xe
 2649 0da1 A706     		.2byte	0x6a7
 2650 0da3 CE000000 		.4byte	0xce
 2651 0da7 29       		.uleb128 0x29
 2652 0da8 636800   		.ascii	"ch\000"
 2653 0dab 07       		.byte	0x7
 2654 0dac EB01     		.2byte	0x1eb
 2655 0dae CE030000 		.4byte	0x3ce
 2656 0db2 1A       		.uleb128 0x1a
 2657 0db3 DA090000 		.4byte	0x9da
 2658 0db7 C20D0000 		.4byte	0xdc2
 2659 0dbb 1B       		.uleb128 0x1b
 2660 0dbc 01060000 		.4byte	0x601
ARM GAS  /tmp/ccGNTUjr.s 			page 48


 2661 0dc0 0B       		.byte	0xb
 2662 0dc1 00       		.byte	0
 2663 0dc2 2A       		.uleb128 0x2a
 2664 0dc3 78040000 		.4byte	.LASF219
 2665 0dc7 01       		.byte	0x1
 2666 0dc8 44       		.byte	0x44
 2667 0dc9 D30D0000 		.4byte	0xdd3
 2668 0dcd 05       		.uleb128 0x5
 2669 0dce 03       		.byte	0x3
 2670 0dcf 00000000 		.4byte	_stm32_dma_streams
 2671 0dd3 19       		.uleb128 0x19
 2672 0dd4 B20D0000 		.4byte	0xdb2
 2673 0dd8 2B       		.uleb128 0x2b
 2674 0dd9 A0060000 		.4byte	.LASF224
 2675 0ddd 0A       		.byte	0xa
 2676 0dde 6501     		.2byte	0x165
 2677 0de0 2C       		.uleb128 0x2c
 2678 0de1 78090000 		.4byte	.LASF225
 2679 0de5 0F       		.byte	0xf
 2680 0de6 4E       		.byte	0x4e
 2681 0de7 F60D0000 		.4byte	0xdf6
 2682 0deb 0D       		.uleb128 0xd
 2683 0dec B8000000 		.4byte	0xb8
 2684 0df0 0D       		.uleb128 0xd
 2685 0df1 B8000000 		.4byte	0xb8
 2686 0df5 00       		.byte	0
 2687 0df6 2D       		.uleb128 0x2d
 2688 0df7 EC060000 		.4byte	.LASF226
 2689 0dfb 0F       		.byte	0xf
 2690 0dfc 4F       		.byte	0x4f
 2691 0dfd 0D       		.uleb128 0xd
 2692 0dfe B8000000 		.4byte	0xb8
 2693 0e02 00       		.byte	0
 2694 0e03 00       		.byte	0
 2695              		.section	.debug_abbrev,"",%progbits
 2696              	.Ldebug_abbrev0:
 2697 0000 01       		.uleb128 0x1
 2698 0001 11       		.uleb128 0x11
 2699 0002 01       		.byte	0x1
 2700 0003 25       		.uleb128 0x25
 2701 0004 0E       		.uleb128 0xe
 2702 0005 13       		.uleb128 0x13
 2703 0006 0B       		.uleb128 0xb
 2704 0007 03       		.uleb128 0x3
 2705 0008 0E       		.uleb128 0xe
 2706 0009 1B       		.uleb128 0x1b
 2707 000a 0E       		.uleb128 0xe
 2708 000b 55       		.uleb128 0x55
 2709 000c 17       		.uleb128 0x17
 2710 000d 11       		.uleb128 0x11
 2711 000e 01       		.uleb128 0x1
 2712 000f 10       		.uleb128 0x10
 2713 0010 17       		.uleb128 0x17
 2714 0011 00       		.byte	0
 2715 0012 00       		.byte	0
 2716 0013 02       		.uleb128 0x2
 2717 0014 24       		.uleb128 0x24
ARM GAS  /tmp/ccGNTUjr.s 			page 49


 2718 0015 00       		.byte	0
 2719 0016 0B       		.uleb128 0xb
 2720 0017 0B       		.uleb128 0xb
 2721 0018 3E       		.uleb128 0x3e
 2722 0019 0B       		.uleb128 0xb
 2723 001a 03       		.uleb128 0x3
 2724 001b 08       		.uleb128 0x8
 2725 001c 00       		.byte	0
 2726 001d 00       		.byte	0
 2727 001e 03       		.uleb128 0x3
 2728 001f 16       		.uleb128 0x16
 2729 0020 00       		.byte	0
 2730 0021 03       		.uleb128 0x3
 2731 0022 0E       		.uleb128 0xe
 2732 0023 3A       		.uleb128 0x3a
 2733 0024 0B       		.uleb128 0xb
 2734 0025 3B       		.uleb128 0x3b
 2735 0026 0B       		.uleb128 0xb
 2736 0027 49       		.uleb128 0x49
 2737 0028 13       		.uleb128 0x13
 2738 0029 00       		.byte	0
 2739 002a 00       		.byte	0
 2740 002b 04       		.uleb128 0x4
 2741 002c 24       		.uleb128 0x24
 2742 002d 00       		.byte	0
 2743 002e 0B       		.uleb128 0xb
 2744 002f 0B       		.uleb128 0xb
 2745 0030 3E       		.uleb128 0x3e
 2746 0031 0B       		.uleb128 0xb
 2747 0032 03       		.uleb128 0x3
 2748 0033 0E       		.uleb128 0xe
 2749 0034 00       		.byte	0
 2750 0035 00       		.byte	0
 2751 0036 05       		.uleb128 0x5
 2752 0037 35       		.uleb128 0x35
 2753 0038 00       		.byte	0
 2754 0039 49       		.uleb128 0x49
 2755 003a 13       		.uleb128 0x13
 2756 003b 00       		.byte	0
 2757 003c 00       		.byte	0
 2758 003d 06       		.uleb128 0x6
 2759 003e 13       		.uleb128 0x13
 2760 003f 01       		.byte	0x1
 2761 0040 03       		.uleb128 0x3
 2762 0041 0E       		.uleb128 0xe
 2763 0042 0B       		.uleb128 0xb
 2764 0043 0B       		.uleb128 0xb
 2765 0044 3A       		.uleb128 0x3a
 2766 0045 0B       		.uleb128 0xb
 2767 0046 3B       		.uleb128 0x3b
 2768 0047 0B       		.uleb128 0xb
 2769 0048 01       		.uleb128 0x1
 2770 0049 13       		.uleb128 0x13
 2771 004a 00       		.byte	0
 2772 004b 00       		.byte	0
 2773 004c 07       		.uleb128 0x7
 2774 004d 0D       		.uleb128 0xd
ARM GAS  /tmp/ccGNTUjr.s 			page 50


 2775 004e 00       		.byte	0
 2776 004f 03       		.uleb128 0x3
 2777 0050 0E       		.uleb128 0xe
 2778 0051 3A       		.uleb128 0x3a
 2779 0052 0B       		.uleb128 0xb
 2780 0053 3B       		.uleb128 0x3b
 2781 0054 0B       		.uleb128 0xb
 2782 0055 49       		.uleb128 0x49
 2783 0056 13       		.uleb128 0x13
 2784 0057 38       		.uleb128 0x38
 2785 0058 0B       		.uleb128 0xb
 2786 0059 00       		.byte	0
 2787 005a 00       		.byte	0
 2788 005b 08       		.uleb128 0x8
 2789 005c 0D       		.uleb128 0xd
 2790 005d 00       		.byte	0
 2791 005e 03       		.uleb128 0x3
 2792 005f 08       		.uleb128 0x8
 2793 0060 3A       		.uleb128 0x3a
 2794 0061 0B       		.uleb128 0xb
 2795 0062 3B       		.uleb128 0x3b
 2796 0063 05       		.uleb128 0x5
 2797 0064 49       		.uleb128 0x49
 2798 0065 13       		.uleb128 0x13
 2799 0066 38       		.uleb128 0x38
 2800 0067 0B       		.uleb128 0xb
 2801 0068 00       		.byte	0
 2802 0069 00       		.byte	0
 2803 006a 09       		.uleb128 0x9
 2804 006b 0D       		.uleb128 0xd
 2805 006c 00       		.byte	0
 2806 006d 03       		.uleb128 0x3
 2807 006e 0E       		.uleb128 0xe
 2808 006f 3A       		.uleb128 0x3a
 2809 0070 0B       		.uleb128 0xb
 2810 0071 3B       		.uleb128 0x3b
 2811 0072 05       		.uleb128 0x5
 2812 0073 49       		.uleb128 0x49
 2813 0074 13       		.uleb128 0x13
 2814 0075 38       		.uleb128 0x38
 2815 0076 0B       		.uleb128 0xb
 2816 0077 00       		.byte	0
 2817 0078 00       		.byte	0
 2818 0079 0A       		.uleb128 0xa
 2819 007a 13       		.uleb128 0x13
 2820 007b 01       		.byte	0x1
 2821 007c 03       		.uleb128 0x3
 2822 007d 0E       		.uleb128 0xe
 2823 007e 0B       		.uleb128 0xb
 2824 007f 0B       		.uleb128 0xb
 2825 0080 3A       		.uleb128 0x3a
 2826 0081 0B       		.uleb128 0xb
 2827 0082 3B       		.uleb128 0x3b
 2828 0083 05       		.uleb128 0x5
 2829 0084 01       		.uleb128 0x1
 2830 0085 13       		.uleb128 0x13
 2831 0086 00       		.byte	0
ARM GAS  /tmp/ccGNTUjr.s 			page 51


 2832 0087 00       		.byte	0
 2833 0088 0B       		.uleb128 0xb
 2834 0089 0F       		.uleb128 0xf
 2835 008a 00       		.byte	0
 2836 008b 0B       		.uleb128 0xb
 2837 008c 0B       		.uleb128 0xb
 2838 008d 49       		.uleb128 0x49
 2839 008e 13       		.uleb128 0x13
 2840 008f 00       		.byte	0
 2841 0090 00       		.byte	0
 2842 0091 0C       		.uleb128 0xc
 2843 0092 15       		.uleb128 0x15
 2844 0093 01       		.byte	0x1
 2845 0094 27       		.uleb128 0x27
 2846 0095 19       		.uleb128 0x19
 2847 0096 01       		.uleb128 0x1
 2848 0097 13       		.uleb128 0x13
 2849 0098 00       		.byte	0
 2850 0099 00       		.byte	0
 2851 009a 0D       		.uleb128 0xd
 2852 009b 05       		.uleb128 0x5
 2853 009c 00       		.byte	0
 2854 009d 49       		.uleb128 0x49
 2855 009e 13       		.uleb128 0x13
 2856 009f 00       		.byte	0
 2857 00a0 00       		.byte	0
 2858 00a1 0E       		.uleb128 0xe
 2859 00a2 0F       		.uleb128 0xf
 2860 00a3 00       		.byte	0
 2861 00a4 0B       		.uleb128 0xb
 2862 00a5 0B       		.uleb128 0xb
 2863 00a6 00       		.byte	0
 2864 00a7 00       		.byte	0
 2865 00a8 0F       		.uleb128 0xf
 2866 00a9 13       		.uleb128 0x13
 2867 00aa 01       		.byte	0x1
 2868 00ab 03       		.uleb128 0x3
 2869 00ac 0E       		.uleb128 0xe
 2870 00ad 0B       		.uleb128 0xb
 2871 00ae 05       		.uleb128 0x5
 2872 00af 3A       		.uleb128 0x3a
 2873 00b0 0B       		.uleb128 0xb
 2874 00b1 3B       		.uleb128 0x3b
 2875 00b2 05       		.uleb128 0x5
 2876 00b3 01       		.uleb128 0x1
 2877 00b4 13       		.uleb128 0x13
 2878 00b5 00       		.byte	0
 2879 00b6 00       		.byte	0
 2880 00b7 10       		.uleb128 0x10
 2881 00b8 04       		.uleb128 0x4
 2882 00b9 01       		.byte	0x1
 2883 00ba 0B       		.uleb128 0xb
 2884 00bb 0B       		.uleb128 0xb
 2885 00bc 3A       		.uleb128 0x3a
 2886 00bd 0B       		.uleb128 0xb
 2887 00be 3B       		.uleb128 0x3b
 2888 00bf 0B       		.uleb128 0xb
ARM GAS  /tmp/ccGNTUjr.s 			page 52


 2889 00c0 01       		.uleb128 0x1
 2890 00c1 13       		.uleb128 0x13
 2891 00c2 00       		.byte	0
 2892 00c3 00       		.byte	0
 2893 00c4 11       		.uleb128 0x11
 2894 00c5 28       		.uleb128 0x28
 2895 00c6 00       		.byte	0
 2896 00c7 03       		.uleb128 0x3
 2897 00c8 0E       		.uleb128 0xe
 2898 00c9 1C       		.uleb128 0x1c
 2899 00ca 0D       		.uleb128 0xd
 2900 00cb 00       		.byte	0
 2901 00cc 00       		.byte	0
 2902 00cd 12       		.uleb128 0x12
 2903 00ce 13       		.uleb128 0x13
 2904 00cf 01       		.byte	0x1
 2905 00d0 0B       		.uleb128 0xb
 2906 00d1 0B       		.uleb128 0xb
 2907 00d2 3A       		.uleb128 0x3a
 2908 00d3 0B       		.uleb128 0xb
 2909 00d4 3B       		.uleb128 0x3b
 2910 00d5 05       		.uleb128 0x5
 2911 00d6 01       		.uleb128 0x1
 2912 00d7 13       		.uleb128 0x13
 2913 00d8 00       		.byte	0
 2914 00d9 00       		.byte	0
 2915 00da 13       		.uleb128 0x13
 2916 00db 16       		.uleb128 0x16
 2917 00dc 00       		.byte	0
 2918 00dd 03       		.uleb128 0x3
 2919 00de 0E       		.uleb128 0xe
 2920 00df 3A       		.uleb128 0x3a
 2921 00e0 0B       		.uleb128 0xb
 2922 00e1 3B       		.uleb128 0x3b
 2923 00e2 05       		.uleb128 0x5
 2924 00e3 49       		.uleb128 0x49
 2925 00e4 13       		.uleb128 0x13
 2926 00e5 00       		.byte	0
 2927 00e6 00       		.byte	0
 2928 00e7 14       		.uleb128 0x14
 2929 00e8 0D       		.uleb128 0xd
 2930 00e9 00       		.byte	0
 2931 00ea 03       		.uleb128 0x3
 2932 00eb 08       		.uleb128 0x8
 2933 00ec 3A       		.uleb128 0x3a
 2934 00ed 0B       		.uleb128 0xb
 2935 00ee 3B       		.uleb128 0x3b
 2936 00ef 0B       		.uleb128 0xb
 2937 00f0 49       		.uleb128 0x49
 2938 00f1 13       		.uleb128 0x13
 2939 00f2 38       		.uleb128 0x38
 2940 00f3 0B       		.uleb128 0xb
 2941 00f4 00       		.byte	0
 2942 00f5 00       		.byte	0
 2943 00f6 15       		.uleb128 0x15
 2944 00f7 13       		.uleb128 0x13
 2945 00f8 01       		.byte	0x1
ARM GAS  /tmp/ccGNTUjr.s 			page 53


 2946 00f9 0B       		.uleb128 0xb
 2947 00fa 0B       		.uleb128 0xb
 2948 00fb 3A       		.uleb128 0x3a
 2949 00fc 0B       		.uleb128 0xb
 2950 00fd 3B       		.uleb128 0x3b
 2951 00fe 0B       		.uleb128 0xb
 2952 00ff 01       		.uleb128 0x1
 2953 0100 13       		.uleb128 0x13
 2954 0101 00       		.byte	0
 2955 0102 00       		.byte	0
 2956 0103 16       		.uleb128 0x16
 2957 0104 17       		.uleb128 0x17
 2958 0105 01       		.byte	0x1
 2959 0106 0B       		.uleb128 0xb
 2960 0107 0B       		.uleb128 0xb
 2961 0108 3A       		.uleb128 0x3a
 2962 0109 0B       		.uleb128 0xb
 2963 010a 3B       		.uleb128 0x3b
 2964 010b 0B       		.uleb128 0xb
 2965 010c 01       		.uleb128 0x1
 2966 010d 13       		.uleb128 0x13
 2967 010e 00       		.byte	0
 2968 010f 00       		.byte	0
 2969 0110 17       		.uleb128 0x17
 2970 0111 0D       		.uleb128 0xd
 2971 0112 00       		.byte	0
 2972 0113 03       		.uleb128 0x3
 2973 0114 0E       		.uleb128 0xe
 2974 0115 3A       		.uleb128 0x3a
 2975 0116 0B       		.uleb128 0xb
 2976 0117 3B       		.uleb128 0x3b
 2977 0118 0B       		.uleb128 0xb
 2978 0119 49       		.uleb128 0x49
 2979 011a 13       		.uleb128 0x13
 2980 011b 00       		.byte	0
 2981 011c 00       		.byte	0
 2982 011d 18       		.uleb128 0x18
 2983 011e 0D       		.uleb128 0xd
 2984 011f 00       		.byte	0
 2985 0120 03       		.uleb128 0x3
 2986 0121 0E       		.uleb128 0xe
 2987 0122 3A       		.uleb128 0x3a
 2988 0123 0B       		.uleb128 0xb
 2989 0124 3B       		.uleb128 0x3b
 2990 0125 05       		.uleb128 0x5
 2991 0126 49       		.uleb128 0x49
 2992 0127 13       		.uleb128 0x13
 2993 0128 00       		.byte	0
 2994 0129 00       		.byte	0
 2995 012a 19       		.uleb128 0x19
 2996 012b 26       		.uleb128 0x26
 2997 012c 00       		.byte	0
 2998 012d 49       		.uleb128 0x49
 2999 012e 13       		.uleb128 0x13
 3000 012f 00       		.byte	0
 3001 0130 00       		.byte	0
 3002 0131 1A       		.uleb128 0x1a
ARM GAS  /tmp/ccGNTUjr.s 			page 54


 3003 0132 01       		.uleb128 0x1
 3004 0133 01       		.byte	0x1
 3005 0134 49       		.uleb128 0x49
 3006 0135 13       		.uleb128 0x13
 3007 0136 01       		.uleb128 0x1
 3008 0137 13       		.uleb128 0x13
 3009 0138 00       		.byte	0
 3010 0139 00       		.byte	0
 3011 013a 1B       		.uleb128 0x1b
 3012 013b 21       		.uleb128 0x21
 3013 013c 00       		.byte	0
 3014 013d 49       		.uleb128 0x49
 3015 013e 13       		.uleb128 0x13
 3016 013f 2F       		.uleb128 0x2f
 3017 0140 0B       		.uleb128 0xb
 3018 0141 00       		.byte	0
 3019 0142 00       		.byte	0
 3020 0143 1C       		.uleb128 0x1c
 3021 0144 2E       		.uleb128 0x2e
 3022 0145 01       		.byte	0x1
 3023 0146 3F       		.uleb128 0x3f
 3024 0147 19       		.uleb128 0x19
 3025 0148 03       		.uleb128 0x3
 3026 0149 0E       		.uleb128 0xe
 3027 014a 3A       		.uleb128 0x3a
 3028 014b 0B       		.uleb128 0xb
 3029 014c 3B       		.uleb128 0x3b
 3030 014d 0B       		.uleb128 0xb
 3031 014e 27       		.uleb128 0x27
 3032 014f 19       		.uleb128 0x19
 3033 0150 11       		.uleb128 0x11
 3034 0151 01       		.uleb128 0x1
 3035 0152 12       		.uleb128 0x12
 3036 0153 06       		.uleb128 0x6
 3037 0154 40       		.uleb128 0x40
 3038 0155 18       		.uleb128 0x18
 3039 0156 9642     		.uleb128 0x2116
 3040 0158 19       		.uleb128 0x19
 3041 0159 01       		.uleb128 0x1
 3042 015a 13       		.uleb128 0x13
 3043 015b 00       		.byte	0
 3044 015c 00       		.byte	0
 3045 015d 1D       		.uleb128 0x1d
 3046 015e 34       		.uleb128 0x34
 3047 015f 00       		.byte	0
 3048 0160 03       		.uleb128 0x3
 3049 0161 0E       		.uleb128 0xe
 3050 0162 3A       		.uleb128 0x3a
 3051 0163 0B       		.uleb128 0xb
 3052 0164 3B       		.uleb128 0x3b
 3053 0165 0B       		.uleb128 0xb
 3054 0166 49       		.uleb128 0x49
 3055 0167 13       		.uleb128 0x13
 3056 0168 02       		.uleb128 0x2
 3057 0169 17       		.uleb128 0x17
 3058 016a 00       		.byte	0
 3059 016b 00       		.byte	0
ARM GAS  /tmp/ccGNTUjr.s 			page 55


 3060 016c 1E       		.uleb128 0x1e
 3061 016d 898201   		.uleb128 0x4109
 3062 0170 00       		.byte	0
 3063 0171 11       		.uleb128 0x11
 3064 0172 01       		.uleb128 0x1
 3065 0173 9542     		.uleb128 0x2115
 3066 0175 19       		.uleb128 0x19
 3067 0176 31       		.uleb128 0x31
 3068 0177 13       		.uleb128 0x13
 3069 0178 00       		.byte	0
 3070 0179 00       		.byte	0
 3071 017a 1F       		.uleb128 0x1f
 3072 017b 2E       		.uleb128 0x2e
 3073 017c 01       		.byte	0x1
 3074 017d 3F       		.uleb128 0x3f
 3075 017e 19       		.uleb128 0x19
 3076 017f 03       		.uleb128 0x3
 3077 0180 0E       		.uleb128 0xe
 3078 0181 3A       		.uleb128 0x3a
 3079 0182 0B       		.uleb128 0xb
 3080 0183 3B       		.uleb128 0x3b
 3081 0184 05       		.uleb128 0x5
 3082 0185 27       		.uleb128 0x27
 3083 0186 19       		.uleb128 0x19
 3084 0187 11       		.uleb128 0x11
 3085 0188 01       		.uleb128 0x1
 3086 0189 12       		.uleb128 0x12
 3087 018a 06       		.uleb128 0x6
 3088 018b 40       		.uleb128 0x40
 3089 018c 18       		.uleb128 0x18
 3090 018d 9642     		.uleb128 0x2116
 3091 018f 19       		.uleb128 0x19
 3092 0190 01       		.uleb128 0x1
 3093 0191 13       		.uleb128 0x13
 3094 0192 00       		.byte	0
 3095 0193 00       		.byte	0
 3096 0194 20       		.uleb128 0x20
 3097 0195 34       		.uleb128 0x34
 3098 0196 00       		.byte	0
 3099 0197 03       		.uleb128 0x3
 3100 0198 0E       		.uleb128 0xe
 3101 0199 3A       		.uleb128 0x3a
 3102 019a 0B       		.uleb128 0xb
 3103 019b 3B       		.uleb128 0x3b
 3104 019c 05       		.uleb128 0x5
 3105 019d 49       		.uleb128 0x49
 3106 019e 13       		.uleb128 0x13
 3107 019f 02       		.uleb128 0x2
 3108 01a0 17       		.uleb128 0x17
 3109 01a1 00       		.byte	0
 3110 01a2 00       		.byte	0
 3111 01a3 21       		.uleb128 0x21
 3112 01a4 2E       		.uleb128 0x2e
 3113 01a5 01       		.byte	0x1
 3114 01a6 3F       		.uleb128 0x3f
 3115 01a7 19       		.uleb128 0x19
 3116 01a8 03       		.uleb128 0x3
ARM GAS  /tmp/ccGNTUjr.s 			page 56


 3117 01a9 0E       		.uleb128 0xe
 3118 01aa 3A       		.uleb128 0x3a
 3119 01ab 0B       		.uleb128 0xb
 3120 01ac 3B       		.uleb128 0x3b
 3121 01ad 05       		.uleb128 0x5
 3122 01ae 27       		.uleb128 0x27
 3123 01af 19       		.uleb128 0x19
 3124 01b0 11       		.uleb128 0x11
 3125 01b1 01       		.uleb128 0x1
 3126 01b2 12       		.uleb128 0x12
 3127 01b3 06       		.uleb128 0x6
 3128 01b4 40       		.uleb128 0x40
 3129 01b5 18       		.uleb128 0x18
 3130 01b6 9742     		.uleb128 0x2117
 3131 01b8 19       		.uleb128 0x19
 3132 01b9 01       		.uleb128 0x1
 3133 01ba 13       		.uleb128 0x13
 3134 01bb 00       		.byte	0
 3135 01bc 00       		.byte	0
 3136 01bd 22       		.uleb128 0x22
 3137 01be 34       		.uleb128 0x34
 3138 01bf 00       		.byte	0
 3139 01c0 03       		.uleb128 0x3
 3140 01c1 08       		.uleb128 0x8
 3141 01c2 3A       		.uleb128 0x3a
 3142 01c3 0B       		.uleb128 0xb
 3143 01c4 3B       		.uleb128 0x3b
 3144 01c5 05       		.uleb128 0x5
 3145 01c6 49       		.uleb128 0x49
 3146 01c7 13       		.uleb128 0x13
 3147 01c8 02       		.uleb128 0x2
 3148 01c9 17       		.uleb128 0x17
 3149 01ca 00       		.byte	0
 3150 01cb 00       		.byte	0
 3151 01cc 23       		.uleb128 0x23
 3152 01cd 2E       		.uleb128 0x2e
 3153 01ce 01       		.byte	0x1
 3154 01cf 3F       		.uleb128 0x3f
 3155 01d0 19       		.uleb128 0x19
 3156 01d1 03       		.uleb128 0x3
 3157 01d2 0E       		.uleb128 0xe
 3158 01d3 3A       		.uleb128 0x3a
 3159 01d4 0B       		.uleb128 0xb
 3160 01d5 3B       		.uleb128 0x3b
 3161 01d6 05       		.uleb128 0x5
 3162 01d7 27       		.uleb128 0x27
 3163 01d8 19       		.uleb128 0x19
 3164 01d9 49       		.uleb128 0x49
 3165 01da 13       		.uleb128 0x13
 3166 01db 11       		.uleb128 0x11
 3167 01dc 01       		.uleb128 0x1
 3168 01dd 12       		.uleb128 0x12
 3169 01de 06       		.uleb128 0x6
 3170 01df 40       		.uleb128 0x40
 3171 01e0 18       		.uleb128 0x18
 3172 01e1 9742     		.uleb128 0x2117
 3173 01e3 19       		.uleb128 0x19
ARM GAS  /tmp/ccGNTUjr.s 			page 57


 3174 01e4 01       		.uleb128 0x1
 3175 01e5 13       		.uleb128 0x13
 3176 01e6 00       		.byte	0
 3177 01e7 00       		.byte	0
 3178 01e8 24       		.uleb128 0x24
 3179 01e9 05       		.uleb128 0x5
 3180 01ea 00       		.byte	0
 3181 01eb 03       		.uleb128 0x3
 3182 01ec 0E       		.uleb128 0xe
 3183 01ed 3A       		.uleb128 0x3a
 3184 01ee 0B       		.uleb128 0xb
 3185 01ef 3B       		.uleb128 0x3b
 3186 01f0 05       		.uleb128 0x5
 3187 01f1 49       		.uleb128 0x49
 3188 01f2 13       		.uleb128 0x13
 3189 01f3 02       		.uleb128 0x2
 3190 01f4 17       		.uleb128 0x17
 3191 01f5 00       		.byte	0
 3192 01f6 00       		.byte	0
 3193 01f7 25       		.uleb128 0x25
 3194 01f8 34       		.uleb128 0x34
 3195 01f9 00       		.byte	0
 3196 01fa 03       		.uleb128 0x3
 3197 01fb 0E       		.uleb128 0xe
 3198 01fc 49       		.uleb128 0x49
 3199 01fd 13       		.uleb128 0x13
 3200 01fe 34       		.uleb128 0x34
 3201 01ff 19       		.uleb128 0x19
 3202 0200 00       		.byte	0
 3203 0201 00       		.byte	0
 3204 0202 26       		.uleb128 0x26
 3205 0203 898201   		.uleb128 0x4109
 3206 0206 00       		.byte	0
 3207 0207 11       		.uleb128 0x11
 3208 0208 01       		.uleb128 0x1
 3209 0209 31       		.uleb128 0x31
 3210 020a 13       		.uleb128 0x13
 3211 020b 00       		.byte	0
 3212 020c 00       		.byte	0
 3213 020d 27       		.uleb128 0x27
 3214 020e 34       		.uleb128 0x34
 3215 020f 00       		.byte	0
 3216 0210 03       		.uleb128 0x3
 3217 0211 0E       		.uleb128 0xe
 3218 0212 3A       		.uleb128 0x3a
 3219 0213 0B       		.uleb128 0xb
 3220 0214 3B       		.uleb128 0x3b
 3221 0215 0B       		.uleb128 0xb
 3222 0216 49       		.uleb128 0x49
 3223 0217 13       		.uleb128 0x13
 3224 0218 02       		.uleb128 0x2
 3225 0219 18       		.uleb128 0x18
 3226 021a 00       		.byte	0
 3227 021b 00       		.byte	0
 3228 021c 28       		.uleb128 0x28
 3229 021d 34       		.uleb128 0x34
 3230 021e 00       		.byte	0
ARM GAS  /tmp/ccGNTUjr.s 			page 58


 3231 021f 03       		.uleb128 0x3
 3232 0220 0E       		.uleb128 0xe
 3233 0221 3A       		.uleb128 0x3a
 3234 0222 0B       		.uleb128 0xb
 3235 0223 3B       		.uleb128 0x3b
 3236 0224 05       		.uleb128 0x5
 3237 0225 49       		.uleb128 0x49
 3238 0226 13       		.uleb128 0x13
 3239 0227 3F       		.uleb128 0x3f
 3240 0228 19       		.uleb128 0x19
 3241 0229 3C       		.uleb128 0x3c
 3242 022a 19       		.uleb128 0x19
 3243 022b 00       		.byte	0
 3244 022c 00       		.byte	0
 3245 022d 29       		.uleb128 0x29
 3246 022e 34       		.uleb128 0x34
 3247 022f 00       		.byte	0
 3248 0230 03       		.uleb128 0x3
 3249 0231 08       		.uleb128 0x8
 3250 0232 3A       		.uleb128 0x3a
 3251 0233 0B       		.uleb128 0xb
 3252 0234 3B       		.uleb128 0x3b
 3253 0235 05       		.uleb128 0x5
 3254 0236 49       		.uleb128 0x49
 3255 0237 13       		.uleb128 0x13
 3256 0238 3F       		.uleb128 0x3f
 3257 0239 19       		.uleb128 0x19
 3258 023a 3C       		.uleb128 0x3c
 3259 023b 19       		.uleb128 0x19
 3260 023c 00       		.byte	0
 3261 023d 00       		.byte	0
 3262 023e 2A       		.uleb128 0x2a
 3263 023f 34       		.uleb128 0x34
 3264 0240 00       		.byte	0
 3265 0241 03       		.uleb128 0x3
 3266 0242 0E       		.uleb128 0xe
 3267 0243 3A       		.uleb128 0x3a
 3268 0244 0B       		.uleb128 0xb
 3269 0245 3B       		.uleb128 0x3b
 3270 0246 0B       		.uleb128 0xb
 3271 0247 49       		.uleb128 0x49
 3272 0248 13       		.uleb128 0x13
 3273 0249 3F       		.uleb128 0x3f
 3274 024a 19       		.uleb128 0x19
 3275 024b 02       		.uleb128 0x2
 3276 024c 18       		.uleb128 0x18
 3277 024d 00       		.byte	0
 3278 024e 00       		.byte	0
 3279 024f 2B       		.uleb128 0x2b
 3280 0250 2E       		.uleb128 0x2e
 3281 0251 00       		.byte	0
 3282 0252 3F       		.uleb128 0x3f
 3283 0253 19       		.uleb128 0x19
 3284 0254 03       		.uleb128 0x3
 3285 0255 0E       		.uleb128 0xe
 3286 0256 3A       		.uleb128 0x3a
 3287 0257 0B       		.uleb128 0xb
ARM GAS  /tmp/ccGNTUjr.s 			page 59


 3288 0258 3B       		.uleb128 0x3b
 3289 0259 05       		.uleb128 0x5
 3290 025a 27       		.uleb128 0x27
 3291 025b 19       		.uleb128 0x19
 3292 025c 3C       		.uleb128 0x3c
 3293 025d 19       		.uleb128 0x19
 3294 025e 00       		.byte	0
 3295 025f 00       		.byte	0
 3296 0260 2C       		.uleb128 0x2c
 3297 0261 2E       		.uleb128 0x2e
 3298 0262 01       		.byte	0x1
 3299 0263 3F       		.uleb128 0x3f
 3300 0264 19       		.uleb128 0x19
 3301 0265 03       		.uleb128 0x3
 3302 0266 0E       		.uleb128 0xe
 3303 0267 3A       		.uleb128 0x3a
 3304 0268 0B       		.uleb128 0xb
 3305 0269 3B       		.uleb128 0x3b
 3306 026a 0B       		.uleb128 0xb
 3307 026b 27       		.uleb128 0x27
 3308 026c 19       		.uleb128 0x19
 3309 026d 3C       		.uleb128 0x3c
 3310 026e 19       		.uleb128 0x19
 3311 026f 01       		.uleb128 0x1
 3312 0270 13       		.uleb128 0x13
 3313 0271 00       		.byte	0
 3314 0272 00       		.byte	0
 3315 0273 2D       		.uleb128 0x2d
 3316 0274 2E       		.uleb128 0x2e
 3317 0275 01       		.byte	0x1
 3318 0276 3F       		.uleb128 0x3f
 3319 0277 19       		.uleb128 0x19
 3320 0278 03       		.uleb128 0x3
 3321 0279 0E       		.uleb128 0xe
 3322 027a 3A       		.uleb128 0x3a
 3323 027b 0B       		.uleb128 0xb
 3324 027c 3B       		.uleb128 0x3b
 3325 027d 0B       		.uleb128 0xb
 3326 027e 27       		.uleb128 0x27
 3327 027f 19       		.uleb128 0x19
 3328 0280 3C       		.uleb128 0x3c
 3329 0281 19       		.uleb128 0x19
 3330 0282 00       		.byte	0
 3331 0283 00       		.byte	0
 3332 0284 00       		.byte	0
 3333              		.section	.debug_loc,"",%progbits
 3334              	.Ldebug_loc0:
 3335              	.LLST0:
 3336 0000 0C000000 		.4byte	.LVL0
 3337 0004 15000000 		.4byte	.LVL1-1
 3338 0008 0100     		.2byte	0x1
 3339 000a 51       		.byte	0x51
 3340 000b 00000000 		.4byte	0
 3341 000f 00000000 		.4byte	0
 3342              	.LLST1:
 3343 0013 0C000000 		.4byte	.LVL3
 3344 0017 17000000 		.4byte	.LVL4-1
ARM GAS  /tmp/ccGNTUjr.s 			page 60


 3345 001b 0100     		.2byte	0x1
 3346 001d 51       		.byte	0x51
 3347 001e 00000000 		.4byte	0
 3348 0022 00000000 		.4byte	0
 3349              	.LLST2:
 3350 0026 0C000000 		.4byte	.LVL6
 3351 002a 17000000 		.4byte	.LVL7-1
 3352 002e 0100     		.2byte	0x1
 3353 0030 51       		.byte	0x51
 3354 0031 00000000 		.4byte	0
 3355 0035 00000000 		.4byte	0
 3356              	.LLST3:
 3357 0039 0C000000 		.4byte	.LVL9
 3358 003d 17000000 		.4byte	.LVL10-1
 3359 0041 0100     		.2byte	0x1
 3360 0043 51       		.byte	0x51
 3361 0044 00000000 		.4byte	0
 3362 0048 00000000 		.4byte	0
 3363              	.LLST4:
 3364 004c 0C000000 		.4byte	.LVL12
 3365 0050 17000000 		.4byte	.LVL13-1
 3366 0054 0100     		.2byte	0x1
 3367 0056 51       		.byte	0x51
 3368 0057 00000000 		.4byte	0
 3369 005b 00000000 		.4byte	0
 3370              	.LLST5:
 3371 005f 0C000000 		.4byte	.LVL15
 3372 0063 17000000 		.4byte	.LVL16-1
 3373 0067 0100     		.2byte	0x1
 3374 0069 51       		.byte	0x51
 3375 006a 00000000 		.4byte	0
 3376 006e 00000000 		.4byte	0
 3377              	.LLST6:
 3378 0072 0C000000 		.4byte	.LVL18
 3379 0076 17000000 		.4byte	.LVL19-1
 3380 007a 0100     		.2byte	0x1
 3381 007c 51       		.byte	0x51
 3382 007d 00000000 		.4byte	0
 3383 0081 00000000 		.4byte	0
 3384              	.LLST7:
 3385 0085 0E000000 		.4byte	.LVL21
 3386 0089 15000000 		.4byte	.LVL22-1
 3387 008d 0100     		.2byte	0x1
 3388 008f 51       		.byte	0x51
 3389 0090 00000000 		.4byte	0
 3390 0094 00000000 		.4byte	0
 3391              	.LLST8:
 3392 0098 0C000000 		.4byte	.LVL24
 3393 009c 17000000 		.4byte	.LVL25-1
 3394 00a0 0100     		.2byte	0x1
 3395 00a2 51       		.byte	0x51
 3396 00a3 00000000 		.4byte	0
 3397 00a7 00000000 		.4byte	0
 3398              	.LLST9:
 3399 00ab 0C000000 		.4byte	.LVL27
 3400 00af 17000000 		.4byte	.LVL28-1
 3401 00b3 0100     		.2byte	0x1
ARM GAS  /tmp/ccGNTUjr.s 			page 61


 3402 00b5 51       		.byte	0x51
 3403 00b6 00000000 		.4byte	0
 3404 00ba 00000000 		.4byte	0
 3405              	.LLST10:
 3406 00be 0C000000 		.4byte	.LVL30
 3407 00c2 17000000 		.4byte	.LVL31-1
 3408 00c6 0100     		.2byte	0x1
 3409 00c8 51       		.byte	0x51
 3410 00c9 00000000 		.4byte	0
 3411 00cd 00000000 		.4byte	0
 3412              	.LLST11:
 3413 00d1 0C000000 		.4byte	.LVL33
 3414 00d5 17000000 		.4byte	.LVL34-1
 3415 00d9 0100     		.2byte	0x1
 3416 00db 51       		.byte	0x51
 3417 00dc 00000000 		.4byte	0
 3418 00e0 00000000 		.4byte	0
 3419              	.LLST12:
 3420 00e4 0C000000 		.4byte	.LVL36
 3421 00e8 10000000 		.4byte	.LVL37
 3422 00ec 0200     		.2byte	0x2
 3423 00ee 30       		.byte	0x30
 3424 00ef 9F       		.byte	0x9f
 3425 00f0 10000000 		.4byte	.LVL37
 3426 00f4 2A000000 		.4byte	.LVL39
 3427 00f8 0100     		.2byte	0x1
 3428 00fa 53       		.byte	0x53
 3429 00fb 00000000 		.4byte	0
 3430 00ff 00000000 		.4byte	0
 3431              	.LLST13:
 3432 0103 00000000 		.4byte	.LVL40
 3433 0107 62000000 		.4byte	.LVL42
 3434 010b 0100     		.2byte	0x1
 3435 010d 50       		.byte	0x50
 3436 010e 62000000 		.4byte	.LVL42
 3437 0112 6A000000 		.4byte	.LVL44
 3438 0116 0400     		.2byte	0x4
 3439 0118 F3       		.byte	0xf3
 3440 0119 01       		.uleb128 0x1
 3441 011a 50       		.byte	0x50
 3442 011b 9F       		.byte	0x9f
 3443 011c 6A000000 		.4byte	.LVL44
 3444 0120 6C000000 		.4byte	.LVL45
 3445 0124 0100     		.2byte	0x1
 3446 0126 50       		.byte	0x50
 3447 0127 6C000000 		.4byte	.LVL45
 3448 012b 6E000000 		.4byte	.LVL46
 3449 012f 0400     		.2byte	0x4
 3450 0131 F3       		.byte	0xf3
 3451 0132 01       		.uleb128 0x1
 3452 0133 50       		.byte	0x50
 3453 0134 9F       		.byte	0x9f
 3454 0135 6E000000 		.4byte	.LVL46
 3455 0139 70000000 		.4byte	.LVL47
 3456 013d 0100     		.2byte	0x1
 3457 013f 50       		.byte	0x50
 3458 0140 70000000 		.4byte	.LVL47
ARM GAS  /tmp/ccGNTUjr.s 			page 62


 3459 0144 80000000 		.4byte	.LFE268
 3460 0148 0400     		.2byte	0x4
 3461 014a F3       		.byte	0xf3
 3462 014b 01       		.uleb128 0x1
 3463 014c 50       		.byte	0x50
 3464 014d 9F       		.byte	0x9f
 3465 014e 00000000 		.4byte	0
 3466 0152 00000000 		.4byte	0
 3467              	.LLST14:
 3468 0156 00000000 		.4byte	.LVL40
 3469 015a 65000000 		.4byte	.LVL43-1
 3470 015e 0100     		.2byte	0x1
 3471 0160 51       		.byte	0x51
 3472 0161 65000000 		.4byte	.LVL43-1
 3473 0165 6A000000 		.4byte	.LVL44
 3474 0169 0400     		.2byte	0x4
 3475 016b F3       		.byte	0xf3
 3476 016c 01       		.uleb128 0x1
 3477 016d 51       		.byte	0x51
 3478 016e 9F       		.byte	0x9f
 3479 016f 6A000000 		.4byte	.LVL44
 3480 0173 80000000 		.4byte	.LFE268
 3481 0177 0100     		.2byte	0x1
 3482 0179 51       		.byte	0x51
 3483 017a 00000000 		.4byte	0
 3484 017e 00000000 		.4byte	0
 3485              	.LLST15:
 3486 0182 00000000 		.4byte	.LVL40
 3487 0186 65000000 		.4byte	.LVL43-1
 3488 018a 0100     		.2byte	0x1
 3489 018c 52       		.byte	0x52
 3490 018d 65000000 		.4byte	.LVL43-1
 3491 0191 6A000000 		.4byte	.LVL44
 3492 0195 0400     		.2byte	0x4
 3493 0197 F3       		.byte	0xf3
 3494 0198 01       		.uleb128 0x1
 3495 0199 52       		.byte	0x52
 3496 019a 9F       		.byte	0x9f
 3497 019b 6A000000 		.4byte	.LVL44
 3498 019f 80000000 		.4byte	.LFE268
 3499 01a3 0100     		.2byte	0x1
 3500 01a5 52       		.byte	0x52
 3501 01a6 00000000 		.4byte	0
 3502 01aa 00000000 		.4byte	0
 3503              	.LLST16:
 3504 01ae 00000000 		.4byte	.LVL40
 3505 01b2 24000000 		.4byte	.LVL41
 3506 01b6 0100     		.2byte	0x1
 3507 01b8 53       		.byte	0x53
 3508 01b9 24000000 		.4byte	.LVL41
 3509 01bd 65000000 		.4byte	.LVL43-1
 3510 01c1 0200     		.2byte	0x2
 3511 01c3 7C       		.byte	0x7c
 3512 01c4 04       		.sleb128 4
 3513 01c5 65000000 		.4byte	.LVL43-1
 3514 01c9 6A000000 		.4byte	.LVL44
 3515 01cd 0400     		.2byte	0x4
ARM GAS  /tmp/ccGNTUjr.s 			page 63


 3516 01cf F3       		.byte	0xf3
 3517 01d0 01       		.uleb128 0x1
 3518 01d1 53       		.byte	0x53
 3519 01d2 9F       		.byte	0x9f
 3520 01d3 6A000000 		.4byte	.LVL44
 3521 01d7 6E000000 		.4byte	.LVL46
 3522 01db 0100     		.2byte	0x1
 3523 01dd 53       		.byte	0x53
 3524 01de 6E000000 		.4byte	.LVL46
 3525 01e2 80000000 		.4byte	.LFE268
 3526 01e6 0200     		.2byte	0x2
 3527 01e8 7C       		.byte	0x7c
 3528 01e9 04       		.sleb128 4
 3529 01ea 00000000 		.4byte	0
 3530 01ee 00000000 		.4byte	0
 3531              	.LLST17:
 3532 01f2 00000000 		.4byte	.LVL48
 3533 01f6 06000000 		.4byte	.LVL49
 3534 01fa 0100     		.2byte	0x1
 3535 01fc 50       		.byte	0x50
 3536 01fd 06000000 		.4byte	.LVL49
 3537 0201 3A000000 		.4byte	.LVL51
 3538 0205 0100     		.2byte	0x1
 3539 0207 54       		.byte	0x54
 3540 0208 3A000000 		.4byte	.LVL51
 3541 020c 44000000 		.4byte	.LFE269
 3542 0210 0400     		.2byte	0x4
 3543 0212 F3       		.byte	0xf3
 3544 0213 01       		.uleb128 0x1
 3545 0214 50       		.byte	0x50
 3546 0215 9F       		.byte	0x9f
 3547 0216 00000000 		.4byte	0
 3548 021a 00000000 		.4byte	0
 3549              		.section	.debug_aranges,"",%progbits
 3550 0000 8C000000 		.4byte	0x8c
 3551 0004 0200     		.2byte	0x2
 3552 0006 00000000 		.4byte	.Ldebug_info0
 3553 000a 04       		.byte	0x4
 3554 000b 00       		.byte	0
 3555 000c 0000     		.2byte	0
 3556 000e 0000     		.2byte	0
 3557 0010 00000000 		.4byte	.LFB255
 3558 0014 28000000 		.4byte	.LFE255-.LFB255
 3559 0018 00000000 		.4byte	.LFB256
 3560 001c 28000000 		.4byte	.LFE256-.LFB256
 3561 0020 00000000 		.4byte	.LFB257
 3562 0024 28000000 		.4byte	.LFE257-.LFB257
 3563 0028 00000000 		.4byte	.LFB258
 3564 002c 28000000 		.4byte	.LFE258-.LFB258
 3565 0030 00000000 		.4byte	.LFB259
 3566 0034 28000000 		.4byte	.LFE259-.LFB259
 3567 0038 00000000 		.4byte	.LFB260
 3568 003c 28000000 		.4byte	.LFE260-.LFB260
 3569 0040 00000000 		.4byte	.LFB261
 3570 0044 28000000 		.4byte	.LFE261-.LFB261
 3571 0048 00000000 		.4byte	.LFB262
 3572 004c 28000000 		.4byte	.LFE262-.LFB262
ARM GAS  /tmp/ccGNTUjr.s 			page 64


 3573 0050 00000000 		.4byte	.LFB263
 3574 0054 28000000 		.4byte	.LFE263-.LFB263
 3575 0058 00000000 		.4byte	.LFB264
 3576 005c 28000000 		.4byte	.LFE264-.LFB264
 3577 0060 00000000 		.4byte	.LFB265
 3578 0064 28000000 		.4byte	.LFE265-.LFB265
 3579 0068 00000000 		.4byte	.LFB266
 3580 006c 28000000 		.4byte	.LFE266-.LFB266
 3581 0070 00000000 		.4byte	.LFB267
 3582 0074 48000000 		.4byte	.LFE267-.LFB267
 3583 0078 00000000 		.4byte	.LFB268
 3584 007c 80000000 		.4byte	.LFE268-.LFB268
 3585 0080 00000000 		.4byte	.LFB269
 3586 0084 44000000 		.4byte	.LFE269-.LFB269
 3587 0088 00000000 		.4byte	0
 3588 008c 00000000 		.4byte	0
 3589              		.section	.debug_ranges,"",%progbits
 3590              	.Ldebug_ranges0:
 3591 0000 00000000 		.4byte	.LFB255
 3592 0004 28000000 		.4byte	.LFE255
 3593 0008 00000000 		.4byte	.LFB256
 3594 000c 28000000 		.4byte	.LFE256
 3595 0010 00000000 		.4byte	.LFB257
 3596 0014 28000000 		.4byte	.LFE257
 3597 0018 00000000 		.4byte	.LFB258
 3598 001c 28000000 		.4byte	.LFE258
 3599 0020 00000000 		.4byte	.LFB259
 3600 0024 28000000 		.4byte	.LFE259
 3601 0028 00000000 		.4byte	.LFB260
 3602 002c 28000000 		.4byte	.LFE260
 3603 0030 00000000 		.4byte	.LFB261
 3604 0034 28000000 		.4byte	.LFE261
 3605 0038 00000000 		.4byte	.LFB262
 3606 003c 28000000 		.4byte	.LFE262
 3607 0040 00000000 		.4byte	.LFB263
 3608 0044 28000000 		.4byte	.LFE263
 3609 0048 00000000 		.4byte	.LFB264
 3610 004c 28000000 		.4byte	.LFE264
 3611 0050 00000000 		.4byte	.LFB265
 3612 0054 28000000 		.4byte	.LFE265
 3613 0058 00000000 		.4byte	.LFB266
 3614 005c 28000000 		.4byte	.LFE266
 3615 0060 00000000 		.4byte	.LFB267
 3616 0064 48000000 		.4byte	.LFE267
 3617 0068 00000000 		.4byte	.LFB268
 3618 006c 80000000 		.4byte	.LFE268
 3619 0070 00000000 		.4byte	.LFB269
 3620 0074 44000000 		.4byte	.LFE269
 3621 0078 00000000 		.4byte	0
 3622 007c 00000000 		.4byte	0
 3623              		.section	.debug_line,"",%progbits
 3624              	.Ldebug_line0:
 3625 0000 48040000 		.section	.debug_str,"MS",%progbits,1
 3625      02009302 
 3625      00000201 
 3625      FB0E0D00 
 3625      01010101 
ARM GAS  /tmp/ccGNTUjr.s 			page 65


 3626              	.LASF88:
 3627 0000 5254435F 		.ascii	"RTC_WKUP_IRQn\000"
 3627      574B5550 
 3627      5F495251 
 3627      6E00
 3628              	.LASF190:
 3629 000e 73746D33 		.ascii	"stm32_dma_stream_t\000"
 3629      325F646D 
 3629      615F7374 
 3629      7265616D 
 3629      5F7400
 3630              	.LASF2:
 3631 0021 73697A65 		.ascii	"size_t\000"
 3631      5F7400
 3632              	.LASF151:
 3633 0028 73697A65 		.ascii	"sizetype\000"
 3633      74797065 
 3633      00
 3634              	.LASF25:
 3635 0031 73797374 		.ascii	"systime_t\000"
 3635      696D655F 
 3635      7400
 3636              	.LASF30:
 3637 003b 705F6374 		.ascii	"p_ctx\000"
 3637      7800
 3638              	.LASF22:
 3639 0041 74707269 		.ascii	"tprio_t\000"
 3639      6F5F7400 
 3640              	.LASF38:
 3641 0049 705F6D73 		.ascii	"p_msgqueue\000"
 3641      67717565 
 3641      756500
 3642              	.LASF53:
 3643 0054 725F6374 		.ascii	"r_ctx\000"
 3643      7800
 3644              	.LASF15:
 3645 005a 696E7433 		.ascii	"int32_t\000"
 3645      325F7400 
 3646              	.LASF100:
 3647 0062 444D4131 		.ascii	"DMA1_Channel5_IRQn\000"
 3647      5F436861 
 3647      6E6E656C 
 3647      355F4952 
 3647      516E00
 3648              	.LASF57:
 3649 0075 76746675 		.ascii	"vtfunc_t\000"
 3649      6E635F74 
 3649      00
 3650              	.LASF214:
 3651 007e 646D6153 		.ascii	"dmaStreamRelease\000"
 3651      74726561 
 3651      6D52656C 
 3651      65617365 
 3651      00
 3652              	.LASF66:
 3653 008f 63685F76 		.ascii	"ch_virtual_timers_list\000"
 3653      69727475 
ARM GAS  /tmp/ccGNTUjr.s 			page 66


 3653      616C5F74 
 3653      696D6572 
 3653      735F6C69 
 3654              	.LASF196:
 3655 00a6 56656374 		.ascii	"Vector6C\000"
 3655      6F723643 
 3655      00
 3656              	.LASF215:
 3657 00af 5F5F6675 		.ascii	"__func__\000"
 3657      6E635F5F 
 3657      00
 3658              	.LASF133:
 3659 00b8 53504933 		.ascii	"SPI3_IRQn\000"
 3659      5F495251 
 3659      6E00
 3660              	.LASF89:
 3661 00c2 464C4153 		.ascii	"FLASH_IRQn\000"
 3661      485F4952 
 3661      516E00
 3662              	.LASF152:
 3663 00cd 434E4454 		.ascii	"CNDTR\000"
 3663      5200
 3664              	.LASF113:
 3665 00d3 54494D32 		.ascii	"TIM2_IRQn\000"
 3665      5F495251 
 3665      6E00
 3666              	.LASF147:
 3667 00dd 5553425F 		.ascii	"USB_HP_IRQn\000"
 3667      48505F49 
 3667      52516E00 
 3668              	.LASF143:
 3669 00e9 41444334 		.ascii	"ADC4_IRQn\000"
 3669      5F495251 
 3669      6E00
 3670              	.LASF182:
 3671 00f3 6D5F6F77 		.ascii	"m_owner\000"
 3671      6E657200 
 3672              	.LASF64:
 3673 00fb 76745F70 		.ascii	"vt_par\000"
 3673      617200
 3674              	.LASF204:
 3675 0102 56656374 		.ascii	"Vector120\000"
 3675      6F723132 
 3675      3000
 3676              	.LASF176:
 3677 010c 65786974 		.ascii	"exitcode\000"
 3677      636F6465 
 3677      00
 3678              	.LASF3:
 3679 0115 5F5F7569 		.ascii	"__uint8_t\000"
 3679      6E74385F 
 3679      7400
 3680              	.LASF121:
 3681 011f 53504932 		.ascii	"SPI2_IRQn\000"
 3681      5F495251 
 3681      6E00
 3682              	.LASF31:
ARM GAS  /tmp/ccGNTUjr.s 			page 67


 3683 0129 705F6E65 		.ascii	"p_newer\000"
 3683      77657200 
 3684              	.LASF8:
 3685 0131 6C6F6E67 		.ascii	"long int\000"
 3685      20696E74 
 3685      00
 3686              	.LASF27:
 3687 013a 705F6E65 		.ascii	"p_next\000"
 3687      787400
 3688              	.LASF28:
 3689 0141 705F7072 		.ascii	"p_prev\000"
 3689      657600
 3690              	.LASF20:
 3691 0148 74737461 		.ascii	"tstate_t\000"
 3691      74655F74 
 3691      00
 3692              	.LASF47:
 3693 0151 74687265 		.ascii	"threads_queue_t\000"
 3693      6164735F 
 3693      71756575 
 3693      655F7400 
 3694              	.LASF41:
 3695 0161 705F6D74 		.ascii	"p_mtxlist\000"
 3695      786C6973 
 3695      7400
 3696              	.LASF169:
 3697 016b 72656761 		.ascii	"regarm_t\000"
 3697      726D5F74 
 3697      00
 3698              	.LASF162:
 3699 0174 41504232 		.ascii	"APB2ENR\000"
 3699      454E5200 
 3700              	.LASF84:
 3701 017c 53797354 		.ascii	"SysTick_IRQn\000"
 3701      69636B5F 
 3701      4952516E 
 3701      00
 3702              	.LASF124:
 3703 0189 55534152 		.ascii	"USART3_IRQn\000"
 3703      54335F49 
 3703      52516E00 
 3704              	.LASF153:
 3705 0195 43504152 		.ascii	"CPAR\000"
 3705      00
 3706              	.LASF1:
 3707 019a 7369676E 		.ascii	"signed char\000"
 3707      65642063 
 3707      68617200 
 3708              	.LASF178:
 3709 01a6 65776D61 		.ascii	"ewmask\000"
 3709      736B00
 3710              	.LASF14:
 3711 01ad 75696E74 		.ascii	"uint8_t\000"
 3711      385F7400 
 3712              	.LASF136:
 3713 01b5 54494D36 		.ascii	"TIM6_DAC_IRQn\000"
 3713      5F444143 
ARM GAS  /tmp/ccGNTUjr.s 			page 68


 3713      5F495251 
 3713      6E00
 3714              	.LASF212:
 3715 01c3 66756E63 		.ascii	"func\000"
 3715      00
 3716              	.LASF24:
 3717 01c8 6576656E 		.ascii	"eventmask_t\000"
 3717      746D6173 
 3717      6B5F7400 
 3718              	.LASF171:
 3719 01d4 636F6E74 		.ascii	"context\000"
 3719      65787400 
 3720              	.LASF4:
 3721 01dc 756E7369 		.ascii	"unsigned char\000"
 3721      676E6564 
 3721      20636861 
 3721      7200
 3722              	.LASF145:
 3723 01ea 434F4D50 		.ascii	"COMP4_5_6_IRQn\000"
 3723      345F355F 
 3723      365F4952 
 3723      516E00
 3724              	.LASF157:
 3725 01f9 444D415F 		.ascii	"DMA_TypeDef\000"
 3725      54797065 
 3725      44656600 
 3726              	.LASF70:
 3727 0205 70616E69 		.ascii	"panic_msg\000"
 3727      635F6D73 
 3727      6700
 3728              	.LASF117:
 3729 020f 49324331 		.ascii	"I2C1_ER_IRQn\000"
 3729      5F45525F 
 3729      4952516E 
 3729      00
 3730              	.LASF54:
 3731 021c 725F6E65 		.ascii	"r_newer\000"
 3731      77657200 
 3732              	.LASF68:
 3733 0224 73797374 		.ascii	"system_debug_t\000"
 3733      656D5F64 
 3733      65627567 
 3733      5F7400
 3734              	.LASF96:
 3735 0233 444D4131 		.ascii	"DMA1_Channel1_IRQn\000"
 3735      5F436861 
 3735      6E6E656C 
 3735      315F4952 
 3735      516E00
 3736              	.LASF192:
 3737 0246 5F426F6F 		.ascii	"_Bool\000"
 3737      6C00
 3738              	.LASF216:
 3739 024c 646D615F 		.ascii	"dma_streams_mask\000"
 3739      73747265 
 3739      616D735F 
 3739      6D61736B 
ARM GAS  /tmp/ccGNTUjr.s 			page 69


 3739      00
 3740              	.LASF198:
 3741 025d 666C6167 		.ascii	"flags\000"
 3741      7300
 3742              	.LASF80:
 3743 0263 55736167 		.ascii	"UsageFault_IRQn\000"
 3743      65466175 
 3743      6C745F49 
 3743      52516E00 
 3744              	.LASF179:
 3745 0273 63686172 		.ascii	"char\000"
 3745      00
 3746              	.LASF106:
 3747 0278 43414E5F 		.ascii	"CAN_RX1_IRQn\000"
 3747      5258315F 
 3747      4952516E 
 3747      00
 3748              	.LASF187:
 3749 0285 69736869 		.ascii	"ishift\000"
 3749      667400
 3750              	.LASF156:
 3751 028c 49464352 		.ascii	"IFCR\000"
 3751      00
 3752              	.LASF29:
 3753 0291 705F7072 		.ascii	"p_prio\000"
 3753      696F00
 3754              	.LASF105:
 3755 0298 5553425F 		.ascii	"USB_LP_CAN_RX0_IRQn\000"
 3755      4C505F43 
 3755      414E5F52 
 3755      58305F49 
 3755      52516E00 
 3756              	.LASF177:
 3757 02ac 77746F62 		.ascii	"wtobjp\000"
 3757      6A7000
 3758              	.LASF95:
 3759 02b3 45585449 		.ascii	"EXTI4_IRQn\000"
 3759      345F4952 
 3759      516E00
 3760              	.LASF221:
 3761 02be 2E2E2F43 		.ascii	"../ChibiOS/os/hal/ports/STM32/STM32F3xx/stm32_dma.c"
 3761      68696269 
 3761      4F532F6F 
 3761      732F6861 
 3761      6C2F706F 
 3762 02f1 00       		.ascii	"\000"
 3763              	.LASF170:
 3764 02f2 73746B61 		.ascii	"stkalign_t\000"
 3764      6C69676E 
 3764      5F7400
 3765              	.LASF127:
 3766 02fd 55534257 		.ascii	"USBWakeUp_IRQn\000"
 3766      616B6555 
 3766      705F4952 
 3766      516E00
 3767              	.LASF115:
 3768 030c 54494D34 		.ascii	"TIM4_IRQn\000"
ARM GAS  /tmp/ccGNTUjr.s 			page 70


 3768      5F495251 
 3768      6E00
 3769              	.LASF123:
 3770 0316 55534152 		.ascii	"USART2_IRQn\000"
 3770      54325F49 
 3770      52516E00 
 3771              	.LASF209:
 3772 0322 646D6149 		.ascii	"dmaInit\000"
 3772      6E697400 
 3773              	.LASF223:
 3774 032a 646D6153 		.ascii	"dmaStreamAllocate\000"
 3774      74726561 
 3774      6D416C6C 
 3774      6F636174 
 3774      6500
 3775              	.LASF164:
 3776 033c 42444352 		.ascii	"BDCR\000"
 3776      00
 3777              	.LASF193:
 3778 0341 646D615F 		.ascii	"dma_func\000"
 3778      66756E63 
 3778      00
 3779              	.LASF116:
 3780 034a 49324331 		.ascii	"I2C1_EV_IRQn\000"
 3780      5F45565F 
 3780      4952516E 
 3780      00
 3781              	.LASF63:
 3782 0357 76745F66 		.ascii	"vt_func\000"
 3782      756E6300 
 3783              	.LASF40:
 3784 035f 705F6570 		.ascii	"p_epending\000"
 3784      656E6469 
 3784      6E6700
 3785              	.LASF50:
 3786 036a 63685F72 		.ascii	"ch_ready_list\000"
 3786      65616479 
 3786      5F6C6973 
 3786      7400
 3787              	.LASF109:
 3788 0378 54494D31 		.ascii	"TIM1_BRK_TIM15_IRQn\000"
 3788      5F42524B 
 3788      5F54494D 
 3788      31355F49 
 3788      52516E00 
 3789              	.LASF158:
 3790 038c 43464752 		.ascii	"CFGR\000"
 3790      00
 3791              	.LASF139:
 3792 0391 444D4132 		.ascii	"DMA2_Channel2_IRQn\000"
 3792      5F436861 
 3792      6E6E656C 
 3792      325F4952 
 3792      516E00
 3793              	.LASF112:
 3794 03a4 54494D31 		.ascii	"TIM1_CC_IRQn\000"
 3794      5F43435F 
ARM GAS  /tmp/ccGNTUjr.s 			page 71


 3794      4952516E 
 3794      00
 3795              	.LASF92:
 3796 03b1 45585449 		.ascii	"EXTI1_IRQn\000"
 3796      315F4952 
 3796      516E00
 3797              	.LASF77:
 3798 03bc 4E6F6E4D 		.ascii	"NonMaskableInt_IRQn\000"
 3798      61736B61 
 3798      626C6549 
 3798      6E745F49 
 3798      52516E00 
 3799              	.LASF12:
 3800 03d0 5F5F7569 		.ascii	"__uint64_t\000"
 3800      6E743634 
 3800      5F7400
 3801              	.LASF85:
 3802 03db 57574447 		.ascii	"WWDG_IRQn\000"
 3802      5F495251 
 3802      6E00
 3803              	.LASF10:
 3804 03e5 6C6F6E67 		.ascii	"long unsigned int\000"
 3804      20756E73 
 3804      69676E65 
 3804      6420696E 
 3804      7400
 3805              	.LASF210:
 3806 03f7 646D6173 		.ascii	"dmastp\000"
 3806      747000
 3807              	.LASF104:
 3808 03fe 5553425F 		.ascii	"USB_HP_CAN_TX_IRQn\000"
 3808      48505F43 
 3808      414E5F54 
 3808      585F4952 
 3808      516E00
 3809              	.LASF78:
 3810 0411 4D656D6F 		.ascii	"MemoryManagement_IRQn\000"
 3810      72794D61 
 3810      6E616765 
 3810      6D656E74 
 3810      5F495251 
 3811              	.LASF99:
 3812 0427 444D4131 		.ascii	"DMA1_Channel4_IRQn\000"
 3812      5F436861 
 3812      6E6E656C 
 3812      345F4952 
 3812      516E00
 3813              	.LASF213:
 3814 043a 70617261 		.ascii	"param\000"
 3814      6D00
 3815              	.LASF87:
 3816 0440 54414D50 		.ascii	"TAMP_STAMP_IRQn\000"
 3816      5F535441 
 3816      4D505F49 
 3816      52516E00 
 3817              	.LASF185:
 3818 0450 6368616E 		.ascii	"channel\000"
ARM GAS  /tmp/ccGNTUjr.s 			page 72


 3818      6E656C00 
 3819              	.LASF45:
 3820 0458 63685F74 		.ascii	"ch_thread\000"
 3820      68726561 
 3820      6400
 3821              	.LASF65:
 3822 0462 76697274 		.ascii	"virtual_timers_list_t\000"
 3822      75616C5F 
 3822      74696D65 
 3822      72735F6C 
 3822      6973745F 
 3823              	.LASF219:
 3824 0478 5F73746D 		.ascii	"_stm32_dma_streams\000"
 3824      33325F64 
 3824      6D615F73 
 3824      74726561 
 3824      6D7300
 3825              	.LASF138:
 3826 048b 444D4132 		.ascii	"DMA2_Channel1_IRQn\000"
 3826      5F436861 
 3826      6E6E656C 
 3826      315F4952 
 3826      516E00
 3827              	.LASF58:
 3828 049e 76697274 		.ascii	"virtual_timer_t\000"
 3828      75616C5F 
 3828      74696D65 
 3828      725F7400 
 3829              	.LASF49:
 3830 04ae 72656164 		.ascii	"ready_list_t\000"
 3830      795F6C69 
 3830      73745F74 
 3830      00
 3831              	.LASF148:
 3832 04bb 5553425F 		.ascii	"USB_LP_IRQn\000"
 3832      4C505F49 
 3832      52516E00 
 3833              	.LASF129:
 3834 04c7 54494D38 		.ascii	"TIM8_UP_IRQn\000"
 3834      5F55505F 
 3834      4952516E 
 3834      00
 3835              	.LASF93:
 3836 04d4 45585449 		.ascii	"EXTI2_TSC_IRQn\000"
 3836      325F5453 
 3836      435F4952 
 3836      516E00
 3837              	.LASF119:
 3838 04e3 49324332 		.ascii	"I2C2_ER_IRQn\000"
 3838      5F45525F 
 3838      4952516E 
 3838      00
 3839              	.LASF46:
 3840 04f0 63685F74 		.ascii	"ch_threads_list\000"
 3840      68726561 
 3840      64735F6C 
 3840      69737400 
ARM GAS  /tmp/ccGNTUjr.s 			page 73


 3841              	.LASF165:
 3842 0500 41484252 		.ascii	"AHBRSTR\000"
 3842      53545200 
 3843              	.LASF79:
 3844 0508 42757346 		.ascii	"BusFault_IRQn\000"
 3844      61756C74 
 3844      5F495251 
 3844      6E00
 3845              	.LASF135:
 3846 0516 55415254 		.ascii	"UART5_IRQn\000"
 3846      355F4952 
 3846      516E00
 3847              	.LASF197:
 3848 0521 56656374 		.ascii	"Vector70\000"
 3848      6F723730 
 3848      00
 3849              	.LASF199:
 3850 052a 56656374 		.ascii	"Vector74\000"
 3850      6F723734 
 3850      00
 3851              	.LASF200:
 3852 0533 56656374 		.ascii	"Vector78\000"
 3852      6F723738 
 3852      00
 3853              	.LASF149:
 3854 053c 55534257 		.ascii	"USBWakeUp_RMP_IRQn\000"
 3854      616B6555 
 3854      705F524D 
 3854      505F4952 
 3854      516E00
 3855              	.LASF201:
 3856 054f 56656374 		.ascii	"Vector7C\000"
 3856      6F723743 
 3856      00
 3857              	.LASF9:
 3858 0558 5F5F7569 		.ascii	"__uint32_t\000"
 3858      6E743332 
 3858      5F7400
 3859              	.LASF137:
 3860 0563 54494D37 		.ascii	"TIM7_IRQn\000"
 3860      5F495251 
 3860      6E00
 3861              	.LASF11:
 3862 056d 6C6F6E67 		.ascii	"long long int\000"
 3862      206C6F6E 
 3862      6720696E 
 3862      7400
 3863              	.LASF132:
 3864 057b 41444333 		.ascii	"ADC3_IRQn\000"
 3864      5F495251 
 3864      6E00
 3865              	.LASF181:
 3866 0585 6D5F7175 		.ascii	"m_queue\000"
 3866      65756500 
 3867              	.LASF60:
 3868 058d 76745F6E 		.ascii	"vt_next\000"
 3868      65787400 
ARM GAS  /tmp/ccGNTUjr.s 			page 74


 3869              	.LASF120:
 3870 0595 53504931 		.ascii	"SPI1_IRQn\000"
 3870      5F495251 
 3870      6E00
 3871              	.LASF202:
 3872 059f 56656374 		.ascii	"Vector80\000"
 3872      6F723830 
 3872      00
 3873              	.LASF111:
 3874 05a8 54494D31 		.ascii	"TIM1_TRG_COM_TIM17_IRQn\000"
 3874      5F545247 
 3874      5F434F4D 
 3874      5F54494D 
 3874      31375F49 
 3875              	.LASF203:
 3876 05c0 56656374 		.ascii	"Vector84\000"
 3876      6F723834 
 3876      00
 3877              	.LASF61:
 3878 05c9 76745F70 		.ascii	"vt_prev\000"
 3878      72657600 
 3879              	.LASF81:
 3880 05d1 53564361 		.ascii	"SVCall_IRQn\000"
 3880      6C6C5F49 
 3880      52516E00 
 3881              	.LASF159:
 3882 05dd 41504232 		.ascii	"APB2RSTR\000"
 3882      52535452 
 3882      00
 3883              	.LASF180:
 3884 05e6 6D757465 		.ascii	"mutex\000"
 3884      7800
 3885              	.LASF150:
 3886 05ec 4650555F 		.ascii	"FPU_IRQn\000"
 3886      4952516E 
 3886      00
 3887              	.LASF134:
 3888 05f5 55415254 		.ascii	"UART4_IRQn\000"
 3888      345F4952 
 3888      516E00
 3889              	.LASF37:
 3890 0600 705F7761 		.ascii	"p_waiting\000"
 3890      6974696E 
 3890      6700
 3891              	.LASF142:
 3892 060a 444D4132 		.ascii	"DMA2_Channel5_IRQn\000"
 3892      5F436861 
 3892      6E6E656C 
 3892      355F4952 
 3892      516E00
 3893              	.LASF35:
 3894 061d 705F666C 		.ascii	"p_flags\000"
 3894      61677300 
 3895              	.LASF76:
 3896 0625 69646C65 		.ascii	"idle_thread_wa\000"
 3896      5F746872 
 3896      6561645F 
ARM GAS  /tmp/ccGNTUjr.s 			page 75


 3896      776100
 3897              	.LASF0:
 3898 0634 756E7369 		.ascii	"unsigned int\000"
 3898      676E6564 
 3898      20696E74 
 3898      00
 3899              	.LASF18:
 3900 0641 7274636E 		.ascii	"rtcnt_t\000"
 3900      745F7400 
 3901              	.LASF43:
 3902 0649 705F6D70 		.ascii	"p_mpool\000"
 3902      6F6F6C00 
 3903              	.LASF166:
 3904 0651 43464752 		.ascii	"CFGR2\000"
 3904      3200
 3905              	.LASF118:
 3906 0657 49324332 		.ascii	"I2C2_EV_IRQn\000"
 3906      5F45565F 
 3906      4952516E 
 3906      00
 3907              	.LASF217:
 3908 0664 646D615F 		.ascii	"dma_isr_redir\000"
 3908      6973725F 
 3908      72656469 
 3908      7200
 3909              	.LASF191:
 3910 0672 73746D33 		.ascii	"stm32_dmaisr_t\000"
 3910      325F646D 
 3910      61697372 
 3910      5F7400
 3911              	.LASF36:
 3912 0681 705F7265 		.ascii	"p_refs\000"
 3912      667300
 3913              	.LASF154:
 3914 0688 434D4152 		.ascii	"CMAR\000"
 3914      00
 3915              	.LASF102:
 3916 068d 444D4131 		.ascii	"DMA1_Channel7_IRQn\000"
 3916      5F436861 
 3916      6E6E656C 
 3916      375F4952 
 3916      516E00
 3917              	.LASF224:
 3918 06a0 5F706F72 		.ascii	"_port_irq_epilogue\000"
 3918      745F6972 
 3918      715F6570 
 3918      696C6F67 
 3918      756500
 3919              	.LASF173:
 3920 06b3 6F666673 		.ascii	"offset\000"
 3920      657400
 3921              	.LASF141:
 3922 06ba 444D4132 		.ascii	"DMA2_Channel4_IRQn\000"
 3922      5F436861 
 3922      6E6E656C 
 3922      345F4952 
 3922      516E00
ARM GAS  /tmp/ccGNTUjr.s 			page 76


 3923              	.LASF167:
 3924 06cd 43464752 		.ascii	"CFGR3\000"
 3924      3300
 3925              	.LASF195:
 3926 06d3 646D615F 		.ascii	"dma_isr_redir_t\000"
 3926      6973725F 
 3926      72656469 
 3926      725F7400 
 3927              	.LASF26:
 3928 06e3 74687265 		.ascii	"thread_t\000"
 3928      61645F74 
 3928      00
 3929              	.LASF226:
 3930 06ec 6E766963 		.ascii	"nvicDisableVector\000"
 3930      44697361 
 3930      626C6556 
 3930      6563746F 
 3930      7200
 3931              	.LASF42:
 3932 06fe 705F7265 		.ascii	"p_realprio\000"
 3932      616C7072 
 3932      696F00
 3933              	.LASF172:
 3934 0709 706F7274 		.ascii	"port_intctx\000"
 3934      5F696E74 
 3934      63747800 
 3935              	.LASF62:
 3936 0715 76745F64 		.ascii	"vt_delta\000"
 3936      656C7461 
 3936      00
 3937              	.LASF128:
 3938 071e 54494D38 		.ascii	"TIM8_BRK_IRQn\000"
 3938      5F42524B 
 3938      5F495251 
 3938      6E00
 3939              	.LASF155:
 3940 072c 444D415F 		.ascii	"DMA_Channel_TypeDef\000"
 3940      4368616E 
 3940      6E656C5F 
 3940      54797065 
 3940      44656600 
 3941              	.LASF59:
 3942 0740 63685F76 		.ascii	"ch_virtual_timer\000"
 3942      69727475 
 3942      616C5F74 
 3942      696D6572 
 3942      00
 3943              	.LASF126:
 3944 0751 5254435F 		.ascii	"RTC_Alarm_IRQn\000"
 3944      416C6172 
 3944      6D5F4952 
 3944      516E00
 3945              	.LASF163:
 3946 0760 41504231 		.ascii	"APB1ENR\000"
 3946      454E5200 
 3947              	.LASF188:
 3948 0768 73656C66 		.ascii	"selfindex\000"
ARM GAS  /tmp/ccGNTUjr.s 			page 77


 3948      696E6465 
 3948      7800
 3949              	.LASF125:
 3950 0772 45585449 		.ascii	"EXTI15_10_IRQn\000"
 3950      31355F31 
 3950      305F4952 
 3950      516E00
 3951              	.LASF13:
 3952 0781 6C6F6E67 		.ascii	"long long unsigned int\000"
 3952      206C6F6E 
 3952      6720756E 
 3952      7369676E 
 3952      65642069 
 3953              	.LASF144:
 3954 0798 434F4D50 		.ascii	"COMP1_2_3_IRQn\000"
 3954      315F325F 
 3954      335F4952 
 3954      516E00
 3955              	.LASF32:
 3956 07a7 705F6F6C 		.ascii	"p_older\000"
 3956      64657200 
 3957              	.LASF23:
 3958 07af 6D73675F 		.ascii	"msg_t\000"
 3958      7400
 3959              	.LASF48:
 3960 07b5 63685F74 		.ascii	"ch_threads_queue\000"
 3960      68726561 
 3960      64735F71 
 3960      75657565 
 3960      00
 3961              	.LASF114:
 3962 07c6 54494D33 		.ascii	"TIM3_IRQn\000"
 3962      5F495251 
 3962      6E00
 3963              	.LASF122:
 3964 07d0 55534152 		.ascii	"USART1_IRQn\000"
 3964      54315F49 
 3964      52516E00 
 3965              	.LASF205:
 3966 07dc 56656374 		.ascii	"Vector124\000"
 3966      6F723132 
 3966      3400
 3967              	.LASF206:
 3968 07e6 56656374 		.ascii	"Vector128\000"
 3968      6F723132 
 3968      3800
 3969              	.LASF207:
 3970 07f0 56656374 		.ascii	"Vector12C\000"
 3970      6F723132 
 3970      4300
 3971              	.LASF56:
 3972 07fa 725F6375 		.ascii	"r_current\000"
 3972      7272656E 
 3972      7400
 3973              	.LASF189:
 3974 0804 76656374 		.ascii	"vector\000"
 3974      6F7200
ARM GAS  /tmp/ccGNTUjr.s 			page 78


 3975              	.LASF75:
 3976 080b 6D61696E 		.ascii	"mainthread\000"
 3976      74687265 
 3976      616400
 3977              	.LASF208:
 3978 0816 56656374 		.ascii	"Vector130\000"
 3978      6F723133 
 3978      3000
 3979              	.LASF130:
 3980 0820 54494D38 		.ascii	"TIM8_TRG_COM_IRQn\000"
 3980      5F545247 
 3980      5F434F4D 
 3980      5F495251 
 3980      6E00
 3981              	.LASF51:
 3982 0832 725F7175 		.ascii	"r_queue\000"
 3982      65756500 
 3983              	.LASF86:
 3984 083a 5056445F 		.ascii	"PVD_IRQn\000"
 3984      4952516E 
 3984      00
 3985              	.LASF91:
 3986 0843 45585449 		.ascii	"EXTI0_IRQn\000"
 3986      305F4952 
 3986      516E00
 3987              	.LASF73:
 3988 084e 726C6973 		.ascii	"rlist\000"
 3988      7400
 3989              	.LASF19:
 3990 0854 746D6F64 		.ascii	"tmode_t\000"
 3990      655F7400 
 3991              	.LASF82:
 3992 085c 44656275 		.ascii	"DebugMonitor_IRQn\000"
 3992      674D6F6E 
 3992      69746F72 
 3992      5F495251 
 3992      6E00
 3993              	.LASF107:
 3994 086e 43414E5F 		.ascii	"CAN_SCE_IRQn\000"
 3994      5343455F 
 3994      4952516E 
 3994      00
 3995              	.LASF55:
 3996 087b 725F6F6C 		.ascii	"r_older\000"
 3996      64657200 
 3997              	.LASF174:
 3998 0883 746D5F63 		.ascii	"tm_calibration_t\000"
 3998      616C6962 
 3998      72617469 
 3998      6F6E5F74 
 3998      00
 3999              	.LASF98:
 4000 0894 444D4131 		.ascii	"DMA1_Channel3_IRQn\000"
 4000      5F436861 
 4000      6E6E656C 
 4000      335F4952 
 4000      516E00
ARM GAS  /tmp/ccGNTUjr.s 			page 79


 4001              	.LASF168:
 4002 08a7 5243435F 		.ascii	"RCC_TypeDef\000"
 4002      54797065 
 4002      44656600 
 4003              	.LASF5:
 4004 08b3 73686F72 		.ascii	"short int\000"
 4004      7420696E 
 4004      7400
 4005              	.LASF17:
 4006 08bd 75696E74 		.ascii	"uint64_t\000"
 4006      36345F74 
 4006      00
 4007              	.LASF90:
 4008 08c6 5243435F 		.ascii	"RCC_IRQn\000"
 4008      4952516E 
 4008      00
 4009              	.LASF211:
 4010 08cf 7072696F 		.ascii	"priority\000"
 4010      72697479 
 4010      00
 4011              	.LASF160:
 4012 08d8 41504231 		.ascii	"APB1RSTR\000"
 4012      52535452 
 4012      00
 4013              	.LASF52:
 4014 08e1 725F7072 		.ascii	"r_prio\000"
 4014      696F00
 4015              	.LASF103:
 4016 08e8 41444331 		.ascii	"ADC1_2_IRQn\000"
 4016      5F325F49 
 4016      52516E00 
 4017              	.LASF69:
 4018 08f4 63685F73 		.ascii	"ch_system_debug\000"
 4018      79737465 
 4018      6D5F6465 
 4018      62756700 
 4019              	.LASF161:
 4020 0904 41484245 		.ascii	"AHBENR\000"
 4020      4E5200
 4021              	.LASF194:
 4022 090b 646D615F 		.ascii	"dma_param\000"
 4022      70617261 
 4022      6D00
 4023              	.LASF218:
 4024 0915 49544D5F 		.ascii	"ITM_RxBuffer\000"
 4024      52784275 
 4024      66666572 
 4024      00
 4025              	.LASF74:
 4026 0922 76746C69 		.ascii	"vtlist\000"
 4026      737400
 4027              	.LASF97:
 4028 0929 444D4131 		.ascii	"DMA1_Channel2_IRQn\000"
 4028      5F436861 
 4028      6E6E656C 
 4028      325F4952 
 4028      516E00
ARM GAS  /tmp/ccGNTUjr.s 			page 80


 4029              	.LASF184:
 4030 093c 6D757465 		.ascii	"mutex_t\000"
 4030      785F7400 
 4031              	.LASF21:
 4032 0944 74726566 		.ascii	"trefs_t\000"
 4032      735F7400 
 4033              	.LASF110:
 4034 094c 54494D31 		.ascii	"TIM1_UP_TIM16_IRQn\000"
 4034      5F55505F 
 4034      54494D31 
 4034      365F4952 
 4034      516E00
 4035              	.LASF44:
 4036 095f 74687265 		.ascii	"threads_list_t\000"
 4036      6164735F 
 4036      6C697374 
 4036      5F7400
 4037              	.LASF72:
 4038 096e 63685F73 		.ascii	"ch_system\000"
 4038      79737465 
 4038      6D00
 4039              	.LASF225:
 4040 0978 6E766963 		.ascii	"nvicEnableVector\000"
 4040      456E6162 
 4040      6C655665 
 4040      63746F72 
 4040      00
 4041              	.LASF16:
 4042 0989 75696E74 		.ascii	"uint32_t\000"
 4042      33325F74 
 4042      00
 4043              	.LASF108:
 4044 0992 45585449 		.ascii	"EXTI9_5_IRQn\000"
 4044      395F355F 
 4044      4952516E 
 4044      00
 4045              	.LASF220:
 4046 099f 474E5520 		.ascii	"GNU C 4.9.3 20141119 (release) [ARM/embedded-4_9-br"
 4046      4320342E 
 4046      392E3320 
 4046      32303134 
 4046      31313139 
 4047 09d2 616E6368 		.ascii	"anch revision 218278] -mcpu=cortex-m4 -mfloat-abi=h"
 4047      20726576 
 4047      6973696F 
 4047      6E203231 
 4047      38323738 
 4048 0a05 61726420 		.ascii	"ard -mfpu=fpv4-sp-d16 -mno-thumb-interwork -mthumb "
 4048      2D6D6670 
 4048      753D6670 
 4048      76342D73 
 4048      702D6431 
 4049 0a38 2D676764 		.ascii	"-ggdb -O2 -fomit-frame-pointer -falign-functions=16"
 4049      62202D4F 
 4049      32202D66 
 4049      6F6D6974 
 4049      2D667261 
ARM GAS  /tmp/ccGNTUjr.s 			page 81


 4050 0a6b 202D6666 		.ascii	" -ffunction-sections -fdata-sections -fno-common -f"
 4050      756E6374 
 4050      696F6E2D 
 4050      73656374 
 4050      696F6E73 
 4051 0a9e 73696E67 		.ascii	"single-precision-constant\000"
 4051      6C652D70 
 4051      72656369 
 4051      73696F6E 
 4051      2D636F6E 
 4052              	.LASF175:
 4053 0ab8 7264796D 		.ascii	"rdymsg\000"
 4053      736700
 4054              	.LASF67:
 4055 0abf 76745F6C 		.ascii	"vt_lasttime\000"
 4055      61737474 
 4055      696D6500 
 4056              	.LASF6:
 4057 0acb 73686F72 		.ascii	"short unsigned int\000"
 4057      7420756E 
 4057      7369676E 
 4057      65642069 
 4057      6E7400
 4058              	.LASF131:
 4059 0ade 54494D38 		.ascii	"TIM8_CC_IRQn\000"
 4059      5F43435F 
 4059      4952516E 
 4059      00
 4060              	.LASF71:
 4061 0aeb 63685F73 		.ascii	"ch_system_t\000"
 4061      79737465 
 4061      6D5F7400 
 4062              	.LASF94:
 4063 0af7 45585449 		.ascii	"EXTI3_IRQn\000"
 4063      335F4952 
 4063      516E00
 4064              	.LASF83:
 4065 0b02 50656E64 		.ascii	"PendSV_IRQn\000"
 4065      53565F49 
 4065      52516E00 
 4066              	.LASF7:
 4067 0b0e 5F5F696E 		.ascii	"__int32_t\000"
 4067      7433325F 
 4067      7400
 4068              	.LASF186:
 4069 0b18 69666372 		.ascii	"ifcr\000"
 4069      00
 4070              	.LASF33:
 4071 0b1d 705F6E61 		.ascii	"p_name\000"
 4071      6D6500
 4072              	.LASF101:
 4073 0b24 444D4131 		.ascii	"DMA1_Channel6_IRQn\000"
 4073      5F436861 
 4073      6E6E656C 
 4073      365F4952 
 4073      516E00
 4074              	.LASF183:
ARM GAS  /tmp/ccGNTUjr.s 			page 82


 4075 0b37 6D5F6E65 		.ascii	"m_next\000"
 4075      787400
 4076              	.LASF222:
 4077 0b3e 2F686F6D 		.ascii	"/home/bhimebau/forge/annsynth/src\000"
 4077      652F6268 
 4077      696D6562 
 4077      61752F66 
 4077      6F726765 
 4078              	.LASF146:
 4079 0b60 434F4D50 		.ascii	"COMP7_IRQn\000"
 4079      375F4952 
 4079      516E00
 4080              	.LASF39:
 4081 0b6b 705F6D73 		.ascii	"p_msg\000"
 4081      6700
 4082              	.LASF140:
 4083 0b71 444D4132 		.ascii	"DMA2_Channel3_IRQn\000"
 4083      5F436861 
 4083      6E6E656C 
 4083      335F4952 
 4083      516E00
 4084              	.LASF34:
 4085 0b84 705F7374 		.ascii	"p_state\000"
 4085      61746500 
 4086              		.ident	"GCC: (GNU Tools for ARM Embedded Processors) 4.9.3 20141119 (release) [ARM/embedded-4_9-br
ARM GAS  /tmp/ccGNTUjr.s 			page 83


DEFINED SYMBOLS
                            *ABS*:00000000 stm32_dma.c
     /tmp/ccGNTUjr.s:21     .text.Vector6C:00000000 $t
     /tmp/ccGNTUjr.s:27     .text.Vector6C:00000000 Vector6C
     /tmp/ccGNTUjr.s:67     .text.Vector6C:00000020 $d
     /tmp/ccGNTUjr.s:73     .text.Vector70:00000000 $t
     /tmp/ccGNTUjr.s:79     .text.Vector70:00000000 Vector70
     /tmp/ccGNTUjr.s:122    .text.Vector70:00000020 $d
     /tmp/ccGNTUjr.s:128    .text.Vector74:00000000 $t
     /tmp/ccGNTUjr.s:134    .text.Vector74:00000000 Vector74
     /tmp/ccGNTUjr.s:177    .text.Vector74:00000020 $d
     /tmp/ccGNTUjr.s:183    .text.Vector78:00000000 $t
     /tmp/ccGNTUjr.s:189    .text.Vector78:00000000 Vector78
     /tmp/ccGNTUjr.s:232    .text.Vector78:00000020 $d
     /tmp/ccGNTUjr.s:238    .text.Vector7C:00000000 $t
     /tmp/ccGNTUjr.s:244    .text.Vector7C:00000000 Vector7C
     /tmp/ccGNTUjr.s:287    .text.Vector7C:00000020 $d
     /tmp/ccGNTUjr.s:293    .text.Vector80:00000000 $t
     /tmp/ccGNTUjr.s:299    .text.Vector80:00000000 Vector80
     /tmp/ccGNTUjr.s:342    .text.Vector80:00000020 $d
     /tmp/ccGNTUjr.s:348    .text.Vector84:00000000 $t
     /tmp/ccGNTUjr.s:354    .text.Vector84:00000000 Vector84
     /tmp/ccGNTUjr.s:397    .text.Vector84:00000020 $d
     /tmp/ccGNTUjr.s:403    .text.Vector120:00000000 $t
     /tmp/ccGNTUjr.s:409    .text.Vector120:00000000 Vector120
     /tmp/ccGNTUjr.s:450    .text.Vector120:00000020 $d
     /tmp/ccGNTUjr.s:456    .text.Vector124:00000000 $t
     /tmp/ccGNTUjr.s:462    .text.Vector124:00000000 Vector124
     /tmp/ccGNTUjr.s:505    .text.Vector124:00000020 $d
     /tmp/ccGNTUjr.s:511    .text.Vector128:00000000 $t
     /tmp/ccGNTUjr.s:517    .text.Vector128:00000000 Vector128
     /tmp/ccGNTUjr.s:560    .text.Vector128:00000020 $d
     /tmp/ccGNTUjr.s:566    .text.Vector12C:00000000 $t
     /tmp/ccGNTUjr.s:572    .text.Vector12C:00000000 Vector12C
     /tmp/ccGNTUjr.s:615    .text.Vector12C:00000020 $d
     /tmp/ccGNTUjr.s:621    .text.Vector130:00000000 $t
     /tmp/ccGNTUjr.s:627    .text.Vector130:00000000 Vector130
     /tmp/ccGNTUjr.s:670    .text.Vector130:00000020 $d
     /tmp/ccGNTUjr.s:676    .text.dmaInit:00000000 $t
     /tmp/ccGNTUjr.s:682    .text.dmaInit:00000000 dmaInit
     /tmp/ccGNTUjr.s:739    .text.dmaInit:00000034 $d
     /tmp/ccGNTUjr.s:748    .text.dmaStreamAllocate:00000000 $t
     /tmp/ccGNTUjr.s:754    .text.dmaStreamAllocate:00000000 dmaStreamAllocate
     /tmp/ccGNTUjr.s:849    .text.dmaStreamAllocate:00000074 $d
     /tmp/ccGNTUjr.s:856    .text.dmaStreamRelease:00000000 $t
     /tmp/ccGNTUjr.s:862    .text.dmaStreamRelease:00000000 dmaStreamRelease
     /tmp/ccGNTUjr.s:913    .text.dmaStreamRelease:0000003c $d
     /tmp/ccGNTUjr.s:931    .rodata._stm32_dma_streams:00000000 _stm32_dma_streams
     /tmp/ccGNTUjr.s:920    .bss.dma_isr_redir:00000000 $d
     /tmp/ccGNTUjr.s:924    .bss.dma_isr_redir:00000000 dma_isr_redir
     /tmp/ccGNTUjr.s:927    .rodata._stm32_dma_streams:00000000 $d
     /tmp/ccGNTUjr.s:1005   .bss.dma_streams_mask:00000000 $d
     /tmp/ccGNTUjr.s:1009   .bss.dma_streams_mask:00000000 dma_streams_mask
                     .debug_frame:00000010 $d
     /tmp/ccGNTUjr.s:72     .text.Vector6C:00000028 $t
     /tmp/ccGNTUjr.s:127    .text.Vector70:00000028 $t
     /tmp/ccGNTUjr.s:182    .text.Vector74:00000028 $t
ARM GAS  /tmp/ccGNTUjr.s 			page 84


     /tmp/ccGNTUjr.s:237    .text.Vector78:00000028 $t
     /tmp/ccGNTUjr.s:292    .text.Vector7C:00000028 $t
     /tmp/ccGNTUjr.s:347    .text.Vector80:00000028 $t
     /tmp/ccGNTUjr.s:402    .text.Vector84:00000028 $t
     /tmp/ccGNTUjr.s:455    .text.Vector120:00000028 $t
     /tmp/ccGNTUjr.s:510    .text.Vector124:00000028 $t
     /tmp/ccGNTUjr.s:565    .text.Vector128:00000028 $t
     /tmp/ccGNTUjr.s:620    .text.Vector12C:00000028 $t
     /tmp/ccGNTUjr.s:675    .text.Vector130:00000028 $t
     /tmp/ccGNTUjr.s:747    .text.dmaInit:00000048 $t
     /tmp/ccGNTUjr.s:919    .text.dmaStreamRelease:00000044 $t

UNDEFINED SYMBOLS
_port_irq_epilogue
nvicEnableVector
nvicDisableVector
