ARM GAS  /tmp/ccd0ipnR.s 			page 1


   1              		.syntax unified
   2              		.cpu cortex-m4
   3              		.eabi_attribute 27, 3
   4              		.eabi_attribute 28, 1
   5              		.fpu fpv4-sp-d16
   6              		.eabi_attribute 20, 1
   7              		.eabi_attribute 21, 1
   8              		.eabi_attribute 23, 3
   9              		.eabi_attribute 24, 1
  10              		.eabi_attribute 25, 1
  11              		.eabi_attribute 26, 1
  12              		.eabi_attribute 30, 2
  13              		.eabi_attribute 34, 1
  14              		.eabi_attribute 18, 4
  15              		.thumb
  16              		.file	"syscalls.c"
  17              		.text
  18              	.Ltext0:
  19              		.cfi_sections	.debug_frame
  20              		.section	.text._read_r,"ax",%progbits
  21              		.align	2
  22              		.p2align 4,,15
  23              		.global	_read_r
  24              		.thumb
  25              		.thumb_func
  26              		.type	_read_r, %function
  27              	_read_r:
  28              	.LFB226:
  29              		.file 1 "../ChibiOS/os/various/syscalls.c"
  30              		.loc 1 71 0
  31              		.cfi_startproc
  32              		@ args = 0, pretend = 0, frame = 0
  33              		@ frame_needed = 0, uses_anonymous_args = 0
  34              		@ link register save eliminated.
  35              	.LVL0:
  36              		.loc 1 84 0
  37 0000 1623     		movs	r3, #22
  38              	.LVL1:
  39 0002 0360     		str	r3, [r0]
  40              		.loc 1 87 0
  41 0004 4FF0FF30 		mov	r0, #-1
  42              	.LVL2:
  43 0008 7047     		bx	lr
  44              		.cfi_endproc
  45              	.LFE226:
  46              		.size	_read_r, .-_read_r
  47 000a 00BFAFF3 		.section	.text._lseek_r,"ax",%progbits
  47      0080
  48              		.align	2
  49              		.p2align 4,,15
  50              		.global	_lseek_r
  51              		.thumb
  52              		.thumb_func
  53              		.type	_lseek_r, %function
  54              	_lseek_r:
  55              	.LFB227:
  56              		.loc 1 92 0
ARM GAS  /tmp/ccd0ipnR.s 			page 2


  57              		.cfi_startproc
  58              		@ args = 0, pretend = 0, frame = 0
  59              		@ frame_needed = 0, uses_anonymous_args = 0
  60              		@ link register save eliminated.
  61              	.LVL3:
  62              		.loc 1 99 0
  63 0000 0020     		movs	r0, #0
  64              	.LVL4:
  65 0002 7047     		bx	lr
  66              		.cfi_endproc
  67              	.LFE227:
  68              		.size	_lseek_r, .-_lseek_r
  69 0004 AFF30080 		.section	.text._write_r,"ax",%progbits
  69      AFF30080 
  69      AFF30080 
  70              		.align	2
  71              		.p2align 4,,15
  72              		.global	_write_r
  73              		.thumb
  74              		.thumb_func
  75              		.type	_write_r, %function
  76              	_write_r:
  77              	.LFB228:
  78              		.loc 1 104 0
  79              		.cfi_startproc
  80              		@ args = 0, pretend = 0, frame = 0
  81              		@ frame_needed = 0, uses_anonymous_args = 0
  82              		@ link register save eliminated.
  83              	.LVL5:
  84              		.loc 1 116 0
  85 0000 1846     		mov	r0, r3
  86              	.LVL6:
  87 0002 7047     		bx	lr
  88              		.cfi_endproc
  89              	.LFE228:
  90              		.size	_write_r, .-_write_r
  91 0004 AFF30080 		.section	.text._close_r,"ax",%progbits
  91      AFF30080 
  91      AFF30080 
  92              		.align	2
  93              		.p2align 4,,15
  94              		.global	_close_r
  95              		.thumb
  96              		.thumb_func
  97              		.type	_close_r, %function
  98              	_close_r:
  99              	.LFB229:
 100              		.loc 1 121 0
 101              		.cfi_startproc
 102              		@ args = 0, pretend = 0, frame = 0
 103              		@ frame_needed = 0, uses_anonymous_args = 0
 104              		@ link register save eliminated.
 105              	.LVL7:
 106              		.loc 1 126 0
 107 0000 0020     		movs	r0, #0
 108              	.LVL8:
 109 0002 7047     		bx	lr
ARM GAS  /tmp/ccd0ipnR.s 			page 3


 110              		.cfi_endproc
 111              	.LFE229:
 112              		.size	_close_r, .-_close_r
 113 0004 AFF30080 		.section	.text._sbrk_r,"ax",%progbits
 113      AFF30080 
 113      AFF30080 
 114              		.align	2
 115              		.p2align 4,,15
 116              		.global	_sbrk_r
 117              		.thumb
 118              		.thumb_func
 119              		.type	_sbrk_r, %function
 120              	_sbrk_r:
 121              	.LFB230:
 122              		.loc 1 131 0
 123              		.cfi_startproc
 124              		@ args = 0, pretend = 0, frame = 0
 125              		@ frame_needed = 0, uses_anonymous_args = 0
 126              	.LVL9:
 127 0000 10B5     		push	{r4, lr}
 128              		.cfi_def_cfa_offset 8
 129              		.cfi_offset 4, -8
 130              		.cfi_offset 14, -4
 131              		.loc 1 131 0
 132 0002 0446     		mov	r4, r0
 133              		.loc 1 137 0
 134 0004 0846     		mov	r0, r1
 135              	.LVL10:
 136 0006 FFF7FEFF 		bl	chCoreAlloc
 137              	.LVL11:
 138              		.loc 1 138 0
 139 000a 00B1     		cbz	r0, .L10
 140              		.loc 1 148 0
 141 000c 10BD     		pop	{r4, pc}
 142              	.LVL12:
 143              	.L10:
 144              		.loc 1 139 0
 145 000e 0C23     		movs	r3, #12
 146 0010 2360     		str	r3, [r4]
 147              		.loc 1 140 0
 148 0012 4FF0FF30 		mov	r0, #-1
 149              	.LVL13:
 150              		.loc 1 148 0
 151 0016 10BD     		pop	{r4, pc}
 152              		.cfi_endproc
 153              	.LFE230:
 154              		.size	_sbrk_r, .-_sbrk_r
 155 0018 AFF30080 		.section	.text._fstat_r,"ax",%progbits
 155      AFF30080 
 156              		.align	2
 157              		.p2align 4,,15
 158              		.global	_fstat_r
 159              		.thumb
 160              		.thumb_func
 161              		.type	_fstat_r, %function
 162              	_fstat_r:
 163              	.LFB231:
ARM GAS  /tmp/ccd0ipnR.s 			page 4


 164              		.loc 1 153 0
 165              		.cfi_startproc
 166              		@ args = 0, pretend = 0, frame = 0
 167              		@ frame_needed = 0, uses_anonymous_args = 0
 168              	.LVL14:
 169 0000 10B5     		push	{r4, lr}
 170              		.cfi_def_cfa_offset 8
 171              		.cfi_offset 4, -8
 172              		.cfi_offset 14, -4
 173              		.loc 1 157 0
 174 0002 1046     		mov	r0, r2
 175              	.LVL15:
 176              		.loc 1 153 0
 177 0004 1446     		mov	r4, r2
 178              		.loc 1 157 0
 179 0006 0021     		movs	r1, #0
 180              	.LVL16:
 181 0008 3C22     		movs	r2, #60
 182              	.LVL17:
 183 000a FFF7FEFF 		bl	memset
 184              	.LVL18:
 185              		.loc 1 158 0
 186 000e 4FF40053 		mov	r3, #8192
 187 0012 6360     		str	r3, [r4, #4]
 188              		.loc 1 160 0
 189 0014 0020     		movs	r0, #0
 190 0016 10BD     		pop	{r4, pc}
 191              		.cfi_endproc
 192              	.LFE231:
 193              		.size	_fstat_r, .-_fstat_r
 194 0018 AFF30080 		.section	.text._isatty_r,"ax",%progbits
 194      AFF30080 
 195              		.align	2
 196              		.p2align 4,,15
 197              		.global	_isatty_r
 198              		.thumb
 199              		.thumb_func
 200              		.type	_isatty_r, %function
 201              	_isatty_r:
 202              	.LFB232:
 203              		.loc 1 165 0
 204              		.cfi_startproc
 205              		@ args = 0, pretend = 0, frame = 0
 206              		@ frame_needed = 0, uses_anonymous_args = 0
 207              		@ link register save eliminated.
 208              	.LVL19:
 209              		.loc 1 170 0
 210 0000 0120     		movs	r0, #1
 211              	.LVL20:
 212 0002 7047     		bx	lr
 213              		.cfi_endproc
 214              	.LFE232:
 215              		.size	_isatty_r, .-_isatty_r
 216 0004 AFF30080 		.text
 216      AFF30080 
 216      AFF30080 
 217              	.Letext0:
ARM GAS  /tmp/ccd0ipnR.s 			page 5


 218              		.file 2 "/l/arm2/gcc-arm-none-eabi-4_9-2014q4/lib/gcc/arm-none-eabi/4.9.3/include/stddef.h"
 219              		.file 3 "/l/arm2/gcc-arm-none-eabi-4_9-2014q4/arm-none-eabi/include/machine/_default_types.h"
 220              		.file 4 "/l/arm2/gcc-arm-none-eabi-4_9-2014q4/arm-none-eabi/include/sys/lock.h"
 221              		.file 5 "/l/arm2/gcc-arm-none-eabi-4_9-2014q4/arm-none-eabi/include/sys/_types.h"
 222              		.file 6 "/l/arm2/gcc-arm-none-eabi-4_9-2014q4/arm-none-eabi/include/sys/reent.h"
 223              		.file 7 "/l/arm2/gcc-arm-none-eabi-4_9-2014q4/arm-none-eabi/include/sys/types.h"
 224              		.file 8 "/l/arm2/gcc-arm-none-eabi-4_9-2014q4/arm-none-eabi/include/sys/stat.h"
 225              		.file 9 "/l/arm2/gcc-arm-none-eabi-4_9-2014q4/arm-none-eabi/include/stdint.h"
 226              		.file 10 "../ChibiOS/os/rt/ports/ARMCMx/compilers/GCC/chtypes.h"
 227              		.file 11 "../ChibiOS/os/rt/include/chsystypes.h"
 228              		.file 12 "../ChibiOS/os/rt/include/chschd.h"
 229              		.file 13 "../ChibiOS/os/rt/ports/ARMCMx/chcore.h"
 230              		.file 14 "../ChibiOS/os/rt/ports/ARMCMx/chcore_v7m.h"
 231              		.file 15 "../ChibiOS/os/rt/include/chtm.h"
 232              		.file 16 "../ChibiOS/os/rt/include/chmtx.h"
 233              		.file 17 "../ChibiOS/os/ext/CMSIS/include/core_cm4.h"
 234              		.file 18 "../ChibiOS/os/rt/include/chmemcore.h"
 235              		.section	.debug_info,"",%progbits
 236              	.Ldebug_info0:
 237 0000 24120000 		.4byte	0x1224
 238 0004 0400     		.2byte	0x4
 239 0006 00000000 		.4byte	.Ldebug_abbrev0
 240 000a 04       		.byte	0x4
 241 000b 01       		.uleb128 0x1
 242 000c 3D080000 		.4byte	.LASF240
 243 0010 01       		.byte	0x1
 244 0011 53030000 		.4byte	.LASF241
 245 0015 080A0000 		.4byte	.LASF242
 246 0019 00000000 		.4byte	.Ldebug_ranges0+0
 247 001d 00000000 		.4byte	0
 248 0021 00000000 		.4byte	.Ldebug_line0
 249 0025 02       		.uleb128 0x2
 250 0026 00000000 		.4byte	.LASF2
 251 002a 02       		.byte	0x2
 252 002b D4       		.byte	0xd4
 253 002c 30000000 		.4byte	0x30
 254 0030 03       		.uleb128 0x3
 255 0031 04       		.byte	0x4
 256 0032 07       		.byte	0x7
 257 0033 21050000 		.4byte	.LASF0
 258 0037 04       		.uleb128 0x4
 259 0038 04       		.byte	0x4
 260 0039 05       		.byte	0x5
 261 003a 696E7400 		.ascii	"int\000"
 262 003e 03       		.uleb128 0x3
 263 003f 01       		.byte	0x1
 264 0040 06       		.byte	0x6
 265 0041 F5010000 		.4byte	.LASF1
 266 0045 02       		.uleb128 0x2
 267 0046 29010000 		.4byte	.LASF3
 268 004a 03       		.byte	0x3
 269 004b 1D       		.byte	0x1d
 270 004c 50000000 		.4byte	0x50
 271 0050 03       		.uleb128 0x3
 272 0051 01       		.byte	0x1
 273 0052 08       		.byte	0x8
 274 0053 49020000 		.4byte	.LASF4
ARM GAS  /tmp/ccd0ipnR.s 			page 6


 275 0057 03       		.uleb128 0x3
 276 0058 02       		.byte	0x2
 277 0059 05       		.byte	0x5
 278 005a 76070000 		.4byte	.LASF5
 279 005e 03       		.uleb128 0x3
 280 005f 02       		.byte	0x2
 281 0060 07       		.byte	0x7
 282 0061 6E090000 		.4byte	.LASF6
 283 0065 02       		.uleb128 0x2
 284 0066 A8090000 		.4byte	.LASF7
 285 006a 03       		.byte	0x3
 286 006b 3F       		.byte	0x3f
 287 006c 70000000 		.4byte	0x70
 288 0070 03       		.uleb128 0x3
 289 0071 04       		.byte	0x4
 290 0072 05       		.byte	0x5
 291 0073 6B010000 		.4byte	.LASF8
 292 0077 02       		.uleb128 0x2
 293 0078 66040000 		.4byte	.LASF9
 294 007c 03       		.byte	0x3
 295 007d 41       		.byte	0x41
 296 007e 82000000 		.4byte	0x82
 297 0082 03       		.uleb128 0x3
 298 0083 04       		.byte	0x4
 299 0084 07       		.byte	0x7
 300 0085 79030000 		.4byte	.LASF10
 301 0089 03       		.uleb128 0x3
 302 008a 08       		.byte	0x8
 303 008b 05       		.byte	0x5
 304 008c 7C040000 		.4byte	.LASF11
 305 0090 02       		.uleb128 0x2
 306 0091 42030000 		.4byte	.LASF12
 307 0095 03       		.byte	0x3
 308 0096 5B       		.byte	0x5b
 309 0097 9B000000 		.4byte	0x9b
 310 009b 03       		.uleb128 0x3
 311 009c 08       		.byte	0x8
 312 009d 07       		.byte	0x7
 313 009e 6D060000 		.4byte	.LASF13
 314 00a2 02       		.uleb128 0x2
 315 00a3 CE030000 		.4byte	.LASF14
 316 00a7 04       		.byte	0x4
 317 00a8 07       		.byte	0x7
 318 00a9 37000000 		.4byte	0x37
 319 00ad 02       		.uleb128 0x2
 320 00ae 36080000 		.4byte	.LASF15
 321 00b2 05       		.byte	0x5
 322 00b3 10       		.byte	0x10
 323 00b4 70000000 		.4byte	0x70
 324 00b8 02       		.uleb128 0x2
 325 00b9 33010000 		.4byte	.LASF16
 326 00bd 05       		.byte	0x5
 327 00be 14       		.byte	0x14
 328 00bf 57000000 		.4byte	0x57
 329 00c3 02       		.uleb128 0x2
 330 00c4 F5070000 		.4byte	.LASF17
 331 00c8 05       		.byte	0x5
ARM GAS  /tmp/ccd0ipnR.s 			page 7


 332 00c9 18       		.byte	0x18
 333 00ca 5E000000 		.4byte	0x5e
 334 00ce 02       		.uleb128 0x2
 335 00cf B1000000 		.4byte	.LASF18
 336 00d3 05       		.byte	0x5
 337 00d4 1B       		.byte	0x1b
 338 00d5 5E000000 		.4byte	0x5e
 339 00d9 02       		.uleb128 0x2
 340 00da 3F060000 		.4byte	.LASF19
 341 00de 05       		.byte	0x5
 342 00df 27       		.byte	0x27
 343 00e0 70000000 		.4byte	0x70
 344 00e4 05       		.uleb128 0x5
 345 00e5 26070000 		.4byte	.LASF20
 346 00e9 02       		.byte	0x2
 347 00ea 6101     		.2byte	0x161
 348 00ec 30000000 		.4byte	0x30
 349 00f0 06       		.uleb128 0x6
 350 00f1 04       		.byte	0x4
 351 00f2 05       		.byte	0x5
 352 00f3 4A       		.byte	0x4a
 353 00f4 0F010000 		.4byte	0x10f
 354 00f8 07       		.uleb128 0x7
 355 00f9 1A010000 		.4byte	.LASF21
 356 00fd 05       		.byte	0x5
 357 00fe 4C       		.byte	0x4c
 358 00ff E4000000 		.4byte	0xe4
 359 0103 07       		.uleb128 0x7
 360 0104 47060000 		.4byte	.LASF22
 361 0108 05       		.byte	0x5
 362 0109 4D       		.byte	0x4d
 363 010a 0F010000 		.4byte	0x10f
 364 010e 00       		.byte	0
 365 010f 08       		.uleb128 0x8
 366 0110 50000000 		.4byte	0x50
 367 0114 1F010000 		.4byte	0x11f
 368 0118 09       		.uleb128 0x9
 369 0119 1F010000 		.4byte	0x11f
 370 011d 03       		.byte	0x3
 371 011e 00       		.byte	0
 372 011f 03       		.uleb128 0x3
 373 0120 04       		.byte	0x4
 374 0121 07       		.byte	0x7
 375 0122 07000000 		.4byte	.LASF23
 376 0126 0A       		.uleb128 0xa
 377 0127 08       		.byte	0x8
 378 0128 05       		.byte	0x5
 379 0129 47       		.byte	0x47
 380 012a 47010000 		.4byte	0x147
 381 012e 0B       		.uleb128 0xb
 382 012f C8050000 		.4byte	.LASF24
 383 0133 05       		.byte	0x5
 384 0134 49       		.byte	0x49
 385 0135 37000000 		.4byte	0x37
 386 0139 00       		.byte	0
 387 013a 0B       		.uleb128 0xb
 388 013b 10000000 		.4byte	.LASF25
ARM GAS  /tmp/ccd0ipnR.s 			page 8


 389 013f 05       		.byte	0x5
 390 0140 4E       		.byte	0x4e
 391 0141 F0000000 		.4byte	0xf0
 392 0145 04       		.byte	0x4
 393 0146 00       		.byte	0
 394 0147 02       		.uleb128 0x2
 395 0148 0E070000 		.4byte	.LASF26
 396 014c 05       		.byte	0x5
 397 014d 4F       		.byte	0x4f
 398 014e 26010000 		.4byte	0x126
 399 0152 02       		.uleb128 0x2
 400 0153 FE060000 		.4byte	.LASF27
 401 0157 05       		.byte	0x5
 402 0158 53       		.byte	0x53
 403 0159 A2000000 		.4byte	0xa2
 404 015d 0C       		.uleb128 0xc
 405 015e 04       		.byte	0x4
 406 015f 02       		.uleb128 0x2
 407 0160 1D080000 		.4byte	.LASF28
 408 0164 06       		.byte	0x6
 409 0165 16       		.byte	0x16
 410 0166 82000000 		.4byte	0x82
 411 016a 0D       		.uleb128 0xd
 412 016b 23040000 		.4byte	.LASF33
 413 016f 18       		.byte	0x18
 414 0170 06       		.byte	0x6
 415 0171 2D       		.byte	0x2d
 416 0172 BD010000 		.4byte	0x1bd
 417 0176 0B       		.uleb128 0xb
 418 0177 2D070000 		.4byte	.LASF29
 419 017b 06       		.byte	0x6
 420 017c 2F       		.byte	0x2f
 421 017d BD010000 		.4byte	0x1bd
 422 0181 00       		.byte	0
 423 0182 0E       		.uleb128 0xe
 424 0183 5F6B00   		.ascii	"_k\000"
 425 0186 06       		.byte	0x6
 426 0187 30       		.byte	0x30
 427 0188 37000000 		.4byte	0x37
 428 018c 04       		.byte	0x4
 429 018d 0B       		.uleb128 0xb
 430 018e 3B040000 		.4byte	.LASF30
 431 0192 06       		.byte	0x6
 432 0193 30       		.byte	0x30
 433 0194 37000000 		.4byte	0x37
 434 0198 08       		.byte	0x8
 435 0199 0B       		.uleb128 0xb
 436 019a 02050000 		.4byte	.LASF31
 437 019e 06       		.byte	0x6
 438 019f 30       		.byte	0x30
 439 01a0 37000000 		.4byte	0x37
 440 01a4 0C       		.byte	0xc
 441 01a5 0B       		.uleb128 0xb
 442 01a6 0E030000 		.4byte	.LASF32
 443 01aa 06       		.byte	0x6
 444 01ab 30       		.byte	0x30
 445 01ac 37000000 		.4byte	0x37
ARM GAS  /tmp/ccd0ipnR.s 			page 9


 446 01b0 10       		.byte	0x10
 447 01b1 0E       		.uleb128 0xe
 448 01b2 5F7800   		.ascii	"_x\000"
 449 01b5 06       		.byte	0x6
 450 01b6 31       		.byte	0x31
 451 01b7 C3010000 		.4byte	0x1c3
 452 01bb 14       		.byte	0x14
 453 01bc 00       		.byte	0
 454 01bd 0F       		.uleb128 0xf
 455 01be 04       		.byte	0x4
 456 01bf 6A010000 		.4byte	0x16a
 457 01c3 08       		.uleb128 0x8
 458 01c4 5F010000 		.4byte	0x15f
 459 01c8 D3010000 		.4byte	0x1d3
 460 01cc 09       		.uleb128 0x9
 461 01cd 1F010000 		.4byte	0x11f
 462 01d1 00       		.byte	0
 463 01d2 00       		.byte	0
 464 01d3 0D       		.uleb128 0xd
 465 01d4 C1000000 		.4byte	.LASF34
 466 01d8 24       		.byte	0x24
 467 01d9 06       		.byte	0x6
 468 01da 35       		.byte	0x35
 469 01db 4C020000 		.4byte	0x24c
 470 01df 0B       		.uleb128 0xb
 471 01e0 DD000000 		.4byte	.LASF35
 472 01e4 06       		.byte	0x6
 473 01e5 37       		.byte	0x37
 474 01e6 37000000 		.4byte	0x37
 475 01ea 00       		.byte	0
 476 01eb 0B       		.uleb128 0xb
 477 01ec F2090000 		.4byte	.LASF36
 478 01f0 06       		.byte	0x6
 479 01f1 38       		.byte	0x38
 480 01f2 37000000 		.4byte	0x37
 481 01f6 04       		.byte	0x4
 482 01f7 0B       		.uleb128 0xb
 483 01f8 81090000 		.4byte	.LASF37
 484 01fc 06       		.byte	0x6
 485 01fd 39       		.byte	0x39
 486 01fe 37000000 		.4byte	0x37
 487 0202 08       		.byte	0x8
 488 0203 0B       		.uleb128 0xb
 489 0204 73050000 		.4byte	.LASF38
 490 0208 06       		.byte	0x6
 491 0209 3A       		.byte	0x3a
 492 020a 37000000 		.4byte	0x37
 493 020e 0C       		.byte	0xc
 494 020f 0B       		.uleb128 0xb
 495 0210 CD010000 		.4byte	.LASF39
 496 0214 06       		.byte	0x6
 497 0215 3B       		.byte	0x3b
 498 0216 37000000 		.4byte	0x37
 499 021a 10       		.byte	0x10
 500 021b 0B       		.uleb128 0xb
 501 021c A9070000 		.4byte	.LASF40
 502 0220 06       		.byte	0x6
ARM GAS  /tmp/ccd0ipnR.s 			page 10


 503 0221 3C       		.byte	0x3c
 504 0222 37000000 		.4byte	0x37
 505 0226 14       		.byte	0x14
 506 0227 0B       		.uleb128 0xb
 507 0228 E6050000 		.4byte	.LASF41
 508 022c 06       		.byte	0x6
 509 022d 3D       		.byte	0x3d
 510 022e 37000000 		.4byte	0x37
 511 0232 18       		.byte	0x18
 512 0233 0B       		.uleb128 0xb
 513 0234 02060000 		.4byte	.LASF42
 514 0238 06       		.byte	0x6
 515 0239 3E       		.byte	0x3e
 516 023a 37000000 		.4byte	0x37
 517 023e 1C       		.byte	0x1c
 518 023f 0B       		.uleb128 0xb
 519 0240 D3090000 		.4byte	.LASF43
 520 0244 06       		.byte	0x6
 521 0245 3F       		.byte	0x3f
 522 0246 37000000 		.4byte	0x37
 523 024a 20       		.byte	0x20
 524 024b 00       		.byte	0
 525 024c 10       		.uleb128 0x10
 526 024d 47010000 		.4byte	.LASF44
 527 0251 0801     		.2byte	0x108
 528 0253 06       		.byte	0x6
 529 0254 48       		.byte	0x48
 530 0255 8C020000 		.4byte	0x28c
 531 0259 0B       		.uleb128 0xb
 532 025a CB090000 		.4byte	.LASF45
 533 025e 06       		.byte	0x6
 534 025f 49       		.byte	0x49
 535 0260 8C020000 		.4byte	0x28c
 536 0264 00       		.byte	0
 537 0265 0B       		.uleb128 0xb
 538 0266 8C060000 		.4byte	.LASF46
 539 026a 06       		.byte	0x6
 540 026b 4A       		.byte	0x4a
 541 026c 8C020000 		.4byte	0x28c
 542 0270 80       		.byte	0x80
 543 0271 11       		.uleb128 0x11
 544 0272 89070000 		.4byte	.LASF47
 545 0276 06       		.byte	0x6
 546 0277 4C       		.byte	0x4c
 547 0278 5F010000 		.4byte	0x15f
 548 027c 0001     		.2byte	0x100
 549 027e 11       		.uleb128 0x11
 550 027f DD070000 		.4byte	.LASF48
 551 0283 06       		.byte	0x6
 552 0284 4F       		.byte	0x4f
 553 0285 5F010000 		.4byte	0x15f
 554 0289 0401     		.2byte	0x104
 555 028b 00       		.byte	0
 556 028c 08       		.uleb128 0x8
 557 028d 5D010000 		.4byte	0x15d
 558 0291 9C020000 		.4byte	0x29c
 559 0295 09       		.uleb128 0x9
ARM GAS  /tmp/ccd0ipnR.s 			page 11


 560 0296 1F010000 		.4byte	0x11f
 561 029a 1F       		.byte	0x1f
 562 029b 00       		.byte	0
 563 029c 10       		.uleb128 0x10
 564 029d C0050000 		.4byte	.LASF49
 565 02a1 9001     		.2byte	0x190
 566 02a3 06       		.byte	0x6
 567 02a4 5B       		.byte	0x5b
 568 02a5 DA020000 		.4byte	0x2da
 569 02a9 0B       		.uleb128 0xb
 570 02aa 2D070000 		.4byte	.LASF29
 571 02ae 06       		.byte	0x6
 572 02af 5C       		.byte	0x5c
 573 02b0 DA020000 		.4byte	0x2da
 574 02b4 00       		.byte	0
 575 02b5 0B       		.uleb128 0xb
 576 02b6 C8070000 		.4byte	.LASF50
 577 02ba 06       		.byte	0x6
 578 02bb 5D       		.byte	0x5d
 579 02bc 37000000 		.4byte	0x37
 580 02c0 04       		.byte	0x4
 581 02c1 0B       		.uleb128 0xb
 582 02c2 9B020000 		.4byte	.LASF51
 583 02c6 06       		.byte	0x6
 584 02c7 5F       		.byte	0x5f
 585 02c8 E0020000 		.4byte	0x2e0
 586 02cc 08       		.byte	0x8
 587 02cd 0B       		.uleb128 0xb
 588 02ce 47010000 		.4byte	.LASF44
 589 02d2 06       		.byte	0x6
 590 02d3 60       		.byte	0x60
 591 02d4 4C020000 		.4byte	0x24c
 592 02d8 88       		.byte	0x88
 593 02d9 00       		.byte	0
 594 02da 0F       		.uleb128 0xf
 595 02db 04       		.byte	0x4
 596 02dc 9C020000 		.4byte	0x29c
 597 02e0 08       		.uleb128 0x8
 598 02e1 F0020000 		.4byte	0x2f0
 599 02e5 F0020000 		.4byte	0x2f0
 600 02e9 09       		.uleb128 0x9
 601 02ea 1F010000 		.4byte	0x11f
 602 02ee 1F       		.byte	0x1f
 603 02ef 00       		.byte	0
 604 02f0 0F       		.uleb128 0xf
 605 02f1 04       		.byte	0x4
 606 02f2 F6020000 		.4byte	0x2f6
 607 02f6 12       		.uleb128 0x12
 608 02f7 0D       		.uleb128 0xd
 609 02f8 CD070000 		.4byte	.LASF52
 610 02fc 08       		.byte	0x8
 611 02fd 06       		.byte	0x6
 612 02fe 73       		.byte	0x73
 613 02ff 1C030000 		.4byte	0x31c
 614 0303 0B       		.uleb128 0xb
 615 0304 C8060000 		.4byte	.LASF53
 616 0308 06       		.byte	0x6
ARM GAS  /tmp/ccd0ipnR.s 			page 12


 617 0309 74       		.byte	0x74
 618 030a 1C030000 		.4byte	0x31c
 619 030e 00       		.byte	0
 620 030f 0B       		.uleb128 0xb
 621 0310 85010000 		.4byte	.LASF54
 622 0314 06       		.byte	0x6
 623 0315 75       		.byte	0x75
 624 0316 37000000 		.4byte	0x37
 625 031a 04       		.byte	0x4
 626 031b 00       		.byte	0
 627 031c 0F       		.uleb128 0xf
 628 031d 04       		.byte	0x4
 629 031e 50000000 		.4byte	0x50
 630 0322 0D       		.uleb128 0xd
 631 0323 8B030000 		.4byte	.LASF55
 632 0327 68       		.byte	0x68
 633 0328 06       		.byte	0x6
 634 0329 B3       		.byte	0xb3
 635 032a 4C040000 		.4byte	0x44c
 636 032e 0E       		.uleb128 0xe
 637 032f 5F7000   		.ascii	"_p\000"
 638 0332 06       		.byte	0x6
 639 0333 B4       		.byte	0xb4
 640 0334 1C030000 		.4byte	0x31c
 641 0338 00       		.byte	0
 642 0339 0E       		.uleb128 0xe
 643 033a 5F7200   		.ascii	"_r\000"
 644 033d 06       		.byte	0x6
 645 033e B5       		.byte	0xb5
 646 033f 37000000 		.4byte	0x37
 647 0343 04       		.byte	0x4
 648 0344 0E       		.uleb128 0xe
 649 0345 5F7700   		.ascii	"_w\000"
 650 0348 06       		.byte	0x6
 651 0349 B6       		.byte	0xb6
 652 034a 37000000 		.4byte	0x37
 653 034e 08       		.byte	0x8
 654 034f 0B       		.uleb128 0xb
 655 0350 B2050000 		.4byte	.LASF56
 656 0354 06       		.byte	0x6
 657 0355 B7       		.byte	0xb7
 658 0356 57000000 		.4byte	0x57
 659 035a 0C       		.byte	0xc
 660 035b 0B       		.uleb128 0xb
 661 035c 41010000 		.4byte	.LASF57
 662 0360 06       		.byte	0x6
 663 0361 B8       		.byte	0xb8
 664 0362 57000000 		.4byte	0x57
 665 0366 0E       		.byte	0xe
 666 0367 0E       		.uleb128 0xe
 667 0368 5F626600 		.ascii	"_bf\000"
 668 036c 06       		.byte	0x6
 669 036d B9       		.byte	0xb9
 670 036e F7020000 		.4byte	0x2f7
 671 0372 10       		.byte	0x10
 672 0373 0B       		.uleb128 0xb
 673 0374 B3070000 		.4byte	.LASF58
ARM GAS  /tmp/ccd0ipnR.s 			page 13


 674 0378 06       		.byte	0x6
 675 0379 BA       		.byte	0xba
 676 037a 37000000 		.4byte	0x37
 677 037e 18       		.byte	0x18
 678 037f 0B       		.uleb128 0xb
 679 0380 EF020000 		.4byte	.LASF59
 680 0384 06       		.byte	0x6
 681 0385 C1       		.byte	0xc1
 682 0386 5D010000 		.4byte	0x15d
 683 038a 1C       		.byte	0x1c
 684 038b 0B       		.uleb128 0xb
 685 038c 2D000000 		.4byte	.LASF60
 686 0390 06       		.byte	0x6
 687 0391 C3       		.byte	0xc3
 688 0392 AF050000 		.4byte	0x5af
 689 0396 20       		.byte	0x20
 690 0397 0B       		.uleb128 0xb
 691 0398 50000000 		.4byte	.LASF61
 692 039c 06       		.byte	0x6
 693 039d C5       		.byte	0xc5
 694 039e DE050000 		.4byte	0x5de
 695 03a2 24       		.byte	0x24
 696 03a3 0B       		.uleb128 0xb
 697 03a4 29060000 		.4byte	.LASF62
 698 03a8 06       		.byte	0x6
 699 03a9 C8       		.byte	0xc8
 700 03aa 02060000 		.4byte	0x602
 701 03ae 28       		.byte	0x28
 702 03af 0B       		.uleb128 0xb
 703 03b0 A0020000 		.4byte	.LASF63
 704 03b4 06       		.byte	0x6
 705 03b5 C9       		.byte	0xc9
 706 03b6 1C060000 		.4byte	0x61c
 707 03ba 2C       		.byte	0x2c
 708 03bb 0E       		.uleb128 0xe
 709 03bc 5F756200 		.ascii	"_ub\000"
 710 03c0 06       		.byte	0x6
 711 03c1 CC       		.byte	0xcc
 712 03c2 F7020000 		.4byte	0x2f7
 713 03c6 30       		.byte	0x30
 714 03c7 0E       		.uleb128 0xe
 715 03c8 5F757000 		.ascii	"_up\000"
 716 03cc 06       		.byte	0x6
 717 03cd CD       		.byte	0xcd
 718 03ce 1C030000 		.4byte	0x31c
 719 03d2 38       		.byte	0x38
 720 03d3 0E       		.uleb128 0xe
 721 03d4 5F757200 		.ascii	"_ur\000"
 722 03d8 06       		.byte	0x6
 723 03d9 CE       		.byte	0xce
 724 03da 37000000 		.4byte	0x37
 725 03de 3C       		.byte	0x3c
 726 03df 0B       		.uleb128 0xb
 727 03e0 82050000 		.4byte	.LASF64
 728 03e4 06       		.byte	0x6
 729 03e5 D1       		.byte	0xd1
 730 03e6 22060000 		.4byte	0x622
ARM GAS  /tmp/ccd0ipnR.s 			page 14


 731 03ea 40       		.byte	0x40
 732 03eb 0B       		.uleb128 0xb
 733 03ec D7000000 		.4byte	.LASF65
 734 03f0 06       		.byte	0x6
 735 03f1 D2       		.byte	0xd2
 736 03f2 32060000 		.4byte	0x632
 737 03f6 43       		.byte	0x43
 738 03f7 0E       		.uleb128 0xe
 739 03f8 5F6C6200 		.ascii	"_lb\000"
 740 03fc 06       		.byte	0x6
 741 03fd D5       		.byte	0xd5
 742 03fe F7020000 		.4byte	0x2f7
 743 0402 44       		.byte	0x44
 744 0403 0B       		.uleb128 0xb
 745 0404 BF060000 		.4byte	.LASF66
 746 0408 06       		.byte	0x6
 747 0409 D8       		.byte	0xd8
 748 040a 37000000 		.4byte	0x37
 749 040e 4C       		.byte	0x4c
 750 040f 0B       		.uleb128 0xb
 751 0410 2B030000 		.4byte	.LASF67
 752 0414 06       		.byte	0x6
 753 0415 D9       		.byte	0xd9
 754 0416 AD000000 		.4byte	0xad
 755 041a 50       		.byte	0x50
 756 041b 0B       		.uleb128 0xb
 757 041c 33070000 		.4byte	.LASF68
 758 0420 06       		.byte	0x6
 759 0421 DC       		.byte	0xdc
 760 0422 6A040000 		.4byte	0x46a
 761 0426 54       		.byte	0x54
 762 0427 0B       		.uleb128 0xb
 763 0428 F7000000 		.4byte	.LASF69
 764 042c 06       		.byte	0x6
 765 042d E0       		.byte	0xe0
 766 042e 52010000 		.4byte	0x152
 767 0432 58       		.byte	0x58
 768 0433 0B       		.uleb128 0xb
 769 0434 9E050000 		.4byte	.LASF70
 770 0438 06       		.byte	0x6
 771 0439 E2       		.byte	0xe2
 772 043a 47010000 		.4byte	0x147
 773 043e 5C       		.byte	0x5c
 774 043f 0B       		.uleb128 0xb
 775 0440 9E030000 		.4byte	.LASF71
 776 0444 06       		.byte	0x6
 777 0445 E3       		.byte	0xe3
 778 0446 37000000 		.4byte	0x37
 779 044a 64       		.byte	0x64
 780 044b 00       		.byte	0
 781 044c 13       		.uleb128 0x13
 782 044d 37000000 		.4byte	0x37
 783 0451 6A040000 		.4byte	0x46a
 784 0455 14       		.uleb128 0x14
 785 0456 6A040000 		.4byte	0x46a
 786 045a 14       		.uleb128 0x14
 787 045b 5D010000 		.4byte	0x15d
ARM GAS  /tmp/ccd0ipnR.s 			page 15


 788 045f 14       		.uleb128 0x14
 789 0460 A2050000 		.4byte	0x5a2
 790 0464 14       		.uleb128 0x14
 791 0465 37000000 		.4byte	0x37
 792 0469 00       		.byte	0
 793 046a 0F       		.uleb128 0xf
 794 046b 04       		.byte	0x4
 795 046c 70040000 		.4byte	0x470
 796 0470 15       		.uleb128 0x15
 797 0471 71020000 		.4byte	.LASF72
 798 0475 2804     		.2byte	0x428
 799 0477 06       		.byte	0x6
 800 0478 3902     		.2byte	0x239
 801 047a A2050000 		.4byte	0x5a2
 802 047e 16       		.uleb128 0x16
 803 047f E0030000 		.4byte	.LASF73
 804 0483 06       		.byte	0x6
 805 0484 3B02     		.2byte	0x23b
 806 0486 37000000 		.4byte	0x37
 807 048a 00       		.byte	0
 808 048b 16       		.uleb128 0x16
 809 048c B5020000 		.4byte	.LASF74
 810 0490 06       		.byte	0x6
 811 0491 4002     		.2byte	0x240
 812 0493 89060000 		.4byte	0x689
 813 0497 04       		.byte	0x4
 814 0498 16       		.uleb128 0x16
 815 0499 B7060000 		.4byte	.LASF75
 816 049d 06       		.byte	0x6
 817 049e 4002     		.2byte	0x240
 818 04a0 89060000 		.4byte	0x689
 819 04a4 08       		.byte	0x8
 820 04a5 16       		.uleb128 0x16
 821 04a6 88050000 		.4byte	.LASF76
 822 04aa 06       		.byte	0x6
 823 04ab 4002     		.2byte	0x240
 824 04ad 89060000 		.4byte	0x689
 825 04b1 0C       		.byte	0xc
 826 04b2 16       		.uleb128 0x16
 827 04b3 C3070000 		.4byte	.LASF77
 828 04b7 06       		.byte	0x6
 829 04b8 4202     		.2byte	0x242
 830 04ba 37000000 		.4byte	0x37
 831 04be 10       		.byte	0x10
 832 04bf 16       		.uleb128 0x16
 833 04c0 71040000 		.4byte	.LASF78
 834 04c4 06       		.byte	0x6
 835 04c5 4302     		.2byte	0x243
 836 04c7 6B080000 		.4byte	0x86b
 837 04cb 14       		.byte	0x14
 838 04cc 16       		.uleb128 0x16
 839 04cd D6010000 		.4byte	.LASF79
 840 04d1 06       		.byte	0x6
 841 04d2 4502     		.2byte	0x245
 842 04d4 37000000 		.4byte	0x37
 843 04d8 30       		.byte	0x30
 844 04d9 16       		.uleb128 0x16
ARM GAS  /tmp/ccd0ipnR.s 			page 16


 845 04da C9040000 		.4byte	.LASF80
 846 04de 06       		.byte	0x6
 847 04df 4602     		.2byte	0x246
 848 04e1 D3050000 		.4byte	0x5d3
 849 04e5 34       		.byte	0x34
 850 04e6 16       		.uleb128 0x16
 851 04e7 93030000 		.4byte	.LASF81
 852 04eb 06       		.byte	0x6
 853 04ec 4802     		.2byte	0x248
 854 04ee 37000000 		.4byte	0x37
 855 04f2 38       		.byte	0x38
 856 04f3 16       		.uleb128 0x16
 857 04f4 43040000 		.4byte	.LASF82
 858 04f8 06       		.byte	0x6
 859 04f9 4A02     		.2byte	0x24a
 860 04fb 86080000 		.4byte	0x886
 861 04ff 3C       		.byte	0x3c
 862 0500 16       		.uleb128 0x16
 863 0501 2E080000 		.4byte	.LASF83
 864 0505 06       		.byte	0x6
 865 0506 4D02     		.2byte	0x24d
 866 0508 BD010000 		.4byte	0x1bd
 867 050c 40       		.byte	0x40
 868 050d 16       		.uleb128 0x16
 869 050e 7B010000 		.4byte	.LASF84
 870 0512 06       		.byte	0x6
 871 0513 4E02     		.2byte	0x24e
 872 0515 37000000 		.4byte	0x37
 873 0519 44       		.byte	0x44
 874 051a 16       		.uleb128 0x16
 875 051b 74030000 		.4byte	.LASF85
 876 051f 06       		.byte	0x6
 877 0520 4F02     		.2byte	0x24f
 878 0522 BD010000 		.4byte	0x1bd
 879 0526 48       		.byte	0x48
 880 0527 16       		.uleb128 0x16
 881 0528 D9040000 		.4byte	.LASF86
 882 052c 06       		.byte	0x6
 883 052d 5002     		.2byte	0x250
 884 052f 8C080000 		.4byte	0x88c
 885 0533 4C       		.byte	0x4c
 886 0534 16       		.uleb128 0x16
 887 0535 72000000 		.4byte	.LASF87
 888 0539 06       		.byte	0x6
 889 053a 5302     		.2byte	0x253
 890 053c 37000000 		.4byte	0x37
 891 0540 50       		.byte	0x50
 892 0541 16       		.uleb128 0x16
 893 0542 33030000 		.4byte	.LASF88
 894 0546 06       		.byte	0x6
 895 0547 5402     		.2byte	0x254
 896 0549 A2050000 		.4byte	0x5a2
 897 054d 54       		.byte	0x54
 898 054e 16       		.uleb128 0x16
 899 054f 7D050000 		.4byte	.LASF89
 900 0553 06       		.byte	0x6
 901 0554 7702     		.2byte	0x277
ARM GAS  /tmp/ccd0ipnR.s 			page 17


 902 0556 49080000 		.4byte	0x849
 903 055a 58       		.byte	0x58
 904 055b 17       		.uleb128 0x17
 905 055c C0050000 		.4byte	.LASF49
 906 0560 06       		.byte	0x6
 907 0561 7B02     		.2byte	0x27b
 908 0563 DA020000 		.4byte	0x2da
 909 0567 4801     		.2byte	0x148
 910 0569 17       		.uleb128 0x17
 911 056a 4D040000 		.4byte	.LASF90
 912 056e 06       		.byte	0x6
 913 056f 7C02     		.2byte	0x27c
 914 0571 9C020000 		.4byte	0x29c
 915 0575 4C01     		.2byte	0x14c
 916 0577 17       		.uleb128 0x17
 917 0578 21030000 		.4byte	.LASF91
 918 057c 06       		.byte	0x6
 919 057d 8002     		.2byte	0x280
 920 057f 9D080000 		.4byte	0x89d
 921 0583 DC02     		.2byte	0x2dc
 922 0585 17       		.uleb128 0x17
 923 0586 A1040000 		.4byte	.LASF92
 924 058a 06       		.byte	0x6
 925 058b 8502     		.2byte	0x285
 926 058d 4E060000 		.4byte	0x64e
 927 0591 E002     		.2byte	0x2e0
 928 0593 17       		.uleb128 0x17
 929 0594 22000000 		.4byte	.LASF93
 930 0598 06       		.byte	0x6
 931 0599 8602     		.2byte	0x286
 932 059b A9080000 		.4byte	0x8a9
 933 059f EC02     		.2byte	0x2ec
 934 05a1 00       		.byte	0
 935 05a2 0F       		.uleb128 0xf
 936 05a3 04       		.byte	0x4
 937 05a4 A8050000 		.4byte	0x5a8
 938 05a8 03       		.uleb128 0x3
 939 05a9 01       		.byte	0x1
 940 05aa 08       		.byte	0x8
 941 05ab 8F020000 		.4byte	.LASF94
 942 05af 0F       		.uleb128 0xf
 943 05b0 04       		.byte	0x4
 944 05b1 4C040000 		.4byte	0x44c
 945 05b5 13       		.uleb128 0x13
 946 05b6 37000000 		.4byte	0x37
 947 05ba D3050000 		.4byte	0x5d3
 948 05be 14       		.uleb128 0x14
 949 05bf 6A040000 		.4byte	0x46a
 950 05c3 14       		.uleb128 0x14
 951 05c4 5D010000 		.4byte	0x15d
 952 05c8 14       		.uleb128 0x14
 953 05c9 D3050000 		.4byte	0x5d3
 954 05cd 14       		.uleb128 0x14
 955 05ce 37000000 		.4byte	0x37
 956 05d2 00       		.byte	0
 957 05d3 0F       		.uleb128 0xf
 958 05d4 04       		.byte	0x4
ARM GAS  /tmp/ccd0ipnR.s 			page 18


 959 05d5 D9050000 		.4byte	0x5d9
 960 05d9 18       		.uleb128 0x18
 961 05da A8050000 		.4byte	0x5a8
 962 05de 0F       		.uleb128 0xf
 963 05df 04       		.byte	0x4
 964 05e0 B5050000 		.4byte	0x5b5
 965 05e4 13       		.uleb128 0x13
 966 05e5 D9000000 		.4byte	0xd9
 967 05e9 02060000 		.4byte	0x602
 968 05ed 14       		.uleb128 0x14
 969 05ee 6A040000 		.4byte	0x46a
 970 05f2 14       		.uleb128 0x14
 971 05f3 5D010000 		.4byte	0x15d
 972 05f7 14       		.uleb128 0x14
 973 05f8 D9000000 		.4byte	0xd9
 974 05fc 14       		.uleb128 0x14
 975 05fd 37000000 		.4byte	0x37
 976 0601 00       		.byte	0
 977 0602 0F       		.uleb128 0xf
 978 0603 04       		.byte	0x4
 979 0604 E4050000 		.4byte	0x5e4
 980 0608 13       		.uleb128 0x13
 981 0609 37000000 		.4byte	0x37
 982 060d 1C060000 		.4byte	0x61c
 983 0611 14       		.uleb128 0x14
 984 0612 6A040000 		.4byte	0x46a
 985 0616 14       		.uleb128 0x14
 986 0617 5D010000 		.4byte	0x15d
 987 061b 00       		.byte	0
 988 061c 0F       		.uleb128 0xf
 989 061d 04       		.byte	0x4
 990 061e 08060000 		.4byte	0x608
 991 0622 08       		.uleb128 0x8
 992 0623 50000000 		.4byte	0x50
 993 0627 32060000 		.4byte	0x632
 994 062b 09       		.uleb128 0x9
 995 062c 1F010000 		.4byte	0x11f
 996 0630 02       		.byte	0x2
 997 0631 00       		.byte	0
 998 0632 08       		.uleb128 0x8
 999 0633 50000000 		.4byte	0x50
 1000 0637 42060000 		.4byte	0x642
 1001 063b 09       		.uleb128 0x9
 1002 063c 1F010000 		.4byte	0x11f
 1003 0640 00       		.byte	0
 1004 0641 00       		.byte	0
 1005 0642 05       		.uleb128 0x5
 1006 0643 07070000 		.4byte	.LASF95
 1007 0647 06       		.byte	0x6
 1008 0648 1D01     		.2byte	0x11d
 1009 064a 22030000 		.4byte	0x322
 1010 064e 19       		.uleb128 0x19
 1011 064f EF040000 		.4byte	.LASF96
 1012 0653 0C       		.byte	0xc
 1013 0654 06       		.byte	0x6
 1014 0655 2101     		.2byte	0x121
 1015 0657 83060000 		.4byte	0x683
ARM GAS  /tmp/ccd0ipnR.s 			page 19


 1016 065b 16       		.uleb128 0x16
 1017 065c 2D070000 		.4byte	.LASF29
 1018 0660 06       		.byte	0x6
 1019 0661 2301     		.2byte	0x123
 1020 0663 83060000 		.4byte	0x683
 1021 0667 00       		.byte	0
 1022 0668 16       		.uleb128 0x16
 1023 0669 92040000 		.4byte	.LASF97
 1024 066d 06       		.byte	0x6
 1025 066e 2401     		.2byte	0x124
 1026 0670 37000000 		.4byte	0x37
 1027 0674 04       		.byte	0x4
 1028 0675 16       		.uleb128 0x16
 1029 0676 E3040000 		.4byte	.LASF98
 1030 067a 06       		.byte	0x6
 1031 067b 2501     		.2byte	0x125
 1032 067d 89060000 		.4byte	0x689
 1033 0681 08       		.byte	0x8
 1034 0682 00       		.byte	0
 1035 0683 0F       		.uleb128 0xf
 1036 0684 04       		.byte	0x4
 1037 0685 4E060000 		.4byte	0x64e
 1038 0689 0F       		.uleb128 0xf
 1039 068a 04       		.byte	0x4
 1040 068b 42060000 		.4byte	0x642
 1041 068f 19       		.uleb128 0x19
 1042 0690 AF060000 		.4byte	.LASF99
 1043 0694 0E       		.byte	0xe
 1044 0695 06       		.byte	0x6
 1045 0696 3D01     		.2byte	0x13d
 1046 0698 C4060000 		.4byte	0x6c4
 1047 069c 16       		.uleb128 0x16
 1048 069d 23060000 		.4byte	.LASF100
 1049 06a1 06       		.byte	0x6
 1050 06a2 3E01     		.2byte	0x13e
 1051 06a4 C4060000 		.4byte	0x6c4
 1052 06a8 00       		.byte	0
 1053 06a9 16       		.uleb128 0x16
 1054 06aa FD000000 		.4byte	.LASF101
 1055 06ae 06       		.byte	0x6
 1056 06af 3F01     		.2byte	0x13f
 1057 06b1 C4060000 		.4byte	0x6c4
 1058 06b5 06       		.byte	0x6
 1059 06b6 16       		.uleb128 0x16
 1060 06b7 5D090000 		.4byte	.LASF102
 1061 06bb 06       		.byte	0x6
 1062 06bc 4001     		.2byte	0x140
 1063 06be 5E000000 		.4byte	0x5e
 1064 06c2 0C       		.byte	0xc
 1065 06c3 00       		.byte	0
 1066 06c4 08       		.uleb128 0x8
 1067 06c5 5E000000 		.4byte	0x5e
 1068 06c9 D4060000 		.4byte	0x6d4
 1069 06cd 09       		.uleb128 0x9
 1070 06ce 1F010000 		.4byte	0x11f
 1071 06d2 02       		.byte	0x2
 1072 06d3 00       		.byte	0
ARM GAS  /tmp/ccd0ipnR.s 			page 20


 1073 06d4 1A       		.uleb128 0x1a
 1074 06d5 D0       		.byte	0xd0
 1075 06d6 06       		.byte	0x6
 1076 06d7 5802     		.2byte	0x258
 1077 06d9 D5070000 		.4byte	0x7d5
 1078 06dd 16       		.uleb128 0x16
 1079 06de E8010000 		.4byte	.LASF103
 1080 06e2 06       		.byte	0x6
 1081 06e3 5A02     		.2byte	0x25a
 1082 06e5 30000000 		.4byte	0x30
 1083 06e9 00       		.byte	0
 1084 06ea 16       		.uleb128 0x16
 1085 06eb D7060000 		.4byte	.LASF104
 1086 06ef 06       		.byte	0x6
 1087 06f0 5B02     		.2byte	0x25b
 1088 06f2 A2050000 		.4byte	0x5a2
 1089 06f6 04       		.byte	0x4
 1090 06f7 16       		.uleb128 0x16
 1091 06f8 65000000 		.4byte	.LASF105
 1092 06fc 06       		.byte	0x6
 1093 06fd 5C02     		.2byte	0x25c
 1094 06ff D5070000 		.4byte	0x7d5
 1095 0703 08       		.byte	0x8
 1096 0704 16       		.uleb128 0x16
 1097 0705 92010000 		.4byte	.LASF106
 1098 0709 06       		.byte	0x6
 1099 070a 5D02     		.2byte	0x25d
 1100 070c D3010000 		.4byte	0x1d3
 1101 0710 24       		.byte	0x24
 1102 0711 16       		.uleb128 0x16
 1103 0712 BA040000 		.4byte	.LASF107
 1104 0716 06       		.byte	0x6
 1105 0717 5E02     		.2byte	0x25e
 1106 0719 37000000 		.4byte	0x37
 1107 071d 48       		.byte	0x48
 1108 071e 16       		.uleb128 0x16
 1109 071f A7050000 		.4byte	.LASF108
 1110 0723 06       		.byte	0x6
 1111 0724 5F02     		.2byte	0x25f
 1112 0726 9B000000 		.4byte	0x9b
 1113 072a 50       		.byte	0x50
 1114 072b 16       		.uleb128 0x16
 1115 072c 21070000 		.4byte	.LASF109
 1116 0730 06       		.byte	0x6
 1117 0731 6002     		.2byte	0x260
 1118 0733 8F060000 		.4byte	0x68f
 1119 0737 58       		.byte	0x58
 1120 0738 16       		.uleb128 0x16
 1121 0739 69070000 		.4byte	.LASF110
 1122 073d 06       		.byte	0x6
 1123 073e 6102     		.2byte	0x261
 1124 0740 47010000 		.4byte	0x147
 1125 0744 68       		.byte	0x68
 1126 0745 16       		.uleb128 0x16
 1127 0746 5F060000 		.4byte	.LASF111
 1128 074a 06       		.byte	0x6
 1129 074b 6202     		.2byte	0x262
ARM GAS  /tmp/ccd0ipnR.s 			page 21


 1130 074d 47010000 		.4byte	0x147
 1131 0751 70       		.byte	0x70
 1132 0752 16       		.uleb128 0x16
 1133 0753 90050000 		.4byte	.LASF112
 1134 0757 06       		.byte	0x6
 1135 0758 6302     		.2byte	0x263
 1136 075a 47010000 		.4byte	0x147
 1137 075e 78       		.byte	0x78
 1138 075f 16       		.uleb128 0x16
 1139 0760 E6000000 		.4byte	.LASF113
 1140 0764 06       		.byte	0x6
 1141 0765 6402     		.2byte	0x264
 1142 0767 E5070000 		.4byte	0x7e5
 1143 076b 80       		.byte	0x80
 1144 076c 16       		.uleb128 0x16
 1145 076d 0E040000 		.4byte	.LASF114
 1146 0771 06       		.byte	0x6
 1147 0772 6502     		.2byte	0x265
 1148 0774 F5070000 		.4byte	0x7f5
 1149 0778 88       		.byte	0x88
 1150 0779 16       		.uleb128 0x16
 1151 077a FB090000 		.4byte	.LASF115
 1152 077e 06       		.byte	0x6
 1153 077f 6602     		.2byte	0x266
 1154 0781 37000000 		.4byte	0x37
 1155 0785 A0       		.byte	0xa0
 1156 0786 16       		.uleb128 0x16
 1157 0787 5D010000 		.4byte	.LASF116
 1158 078b 06       		.byte	0x6
 1159 078c 6702     		.2byte	0x267
 1160 078e 47010000 		.4byte	0x147
 1161 0792 A4       		.byte	0xa4
 1162 0793 16       		.uleb128 0x16
 1163 0794 E4060000 		.4byte	.LASF117
 1164 0798 06       		.byte	0x6
 1165 0799 6802     		.2byte	0x268
 1166 079b 47010000 		.4byte	0x147
 1167 079f AC       		.byte	0xac
 1168 07a0 16       		.uleb128 0x16
 1169 07a1 97090000 		.4byte	.LASF118
 1170 07a5 06       		.byte	0x6
 1171 07a6 6902     		.2byte	0x269
 1172 07a8 47010000 		.4byte	0x147
 1173 07ac B4       		.byte	0xb4
 1174 07ad 16       		.uleb128 0x16
 1175 07ae 64050000 		.4byte	.LASF119
 1176 07b2 06       		.byte	0x6
 1177 07b3 6A02     		.2byte	0x26a
 1178 07b5 47010000 		.4byte	0x147
 1179 07b9 BC       		.byte	0xbc
 1180 07ba 16       		.uleb128 0x16
 1181 07bb C6000000 		.4byte	.LASF120
 1182 07bf 06       		.byte	0x6
 1183 07c0 6B02     		.2byte	0x26b
 1184 07c2 47010000 		.4byte	0x147
 1185 07c6 C4       		.byte	0xc4
 1186 07c7 16       		.uleb128 0x16
ARM GAS  /tmp/ccd0ipnR.s 			page 22


 1187 07c8 4F050000 		.4byte	.LASF121
 1188 07cc 06       		.byte	0x6
 1189 07cd 6C02     		.2byte	0x26c
 1190 07cf 37000000 		.4byte	0x37
 1191 07d3 CC       		.byte	0xcc
 1192 07d4 00       		.byte	0
 1193 07d5 08       		.uleb128 0x8
 1194 07d6 A8050000 		.4byte	0x5a8
 1195 07da E5070000 		.4byte	0x7e5
 1196 07de 09       		.uleb128 0x9
 1197 07df 1F010000 		.4byte	0x11f
 1198 07e3 19       		.byte	0x19
 1199 07e4 00       		.byte	0
 1200 07e5 08       		.uleb128 0x8
 1201 07e6 A8050000 		.4byte	0x5a8
 1202 07ea F5070000 		.4byte	0x7f5
 1203 07ee 09       		.uleb128 0x9
 1204 07ef 1F010000 		.4byte	0x11f
 1205 07f3 07       		.byte	0x7
 1206 07f4 00       		.byte	0
 1207 07f5 08       		.uleb128 0x8
 1208 07f6 A8050000 		.4byte	0x5a8
 1209 07fa 05080000 		.4byte	0x805
 1210 07fe 09       		.uleb128 0x9
 1211 07ff 1F010000 		.4byte	0x11f
 1212 0803 17       		.byte	0x17
 1213 0804 00       		.byte	0
 1214 0805 1A       		.uleb128 0x1a
 1215 0806 F0       		.byte	0xf0
 1216 0807 06       		.byte	0x6
 1217 0808 7102     		.2byte	0x271
 1218 080a 29080000 		.4byte	0x829
 1219 080e 16       		.uleb128 0x16
 1220 080f FD070000 		.4byte	.LASF122
 1221 0813 06       		.byte	0x6
 1222 0814 7402     		.2byte	0x274
 1223 0816 29080000 		.4byte	0x829
 1224 081a 00       		.byte	0
 1225 081b 16       		.uleb128 0x16
 1226 081c A9040000 		.4byte	.LASF123
 1227 0820 06       		.byte	0x6
 1228 0821 7502     		.2byte	0x275
 1229 0823 39080000 		.4byte	0x839
 1230 0827 78       		.byte	0x78
 1231 0828 00       		.byte	0
 1232 0829 08       		.uleb128 0x8
 1233 082a 1C030000 		.4byte	0x31c
 1234 082e 39080000 		.4byte	0x839
 1235 0832 09       		.uleb128 0x9
 1236 0833 1F010000 		.4byte	0x11f
 1237 0837 1D       		.byte	0x1d
 1238 0838 00       		.byte	0
 1239 0839 08       		.uleb128 0x8
 1240 083a 30000000 		.4byte	0x30
 1241 083e 49080000 		.4byte	0x849
 1242 0842 09       		.uleb128 0x9
 1243 0843 1F010000 		.4byte	0x11f
ARM GAS  /tmp/ccd0ipnR.s 			page 23


 1244 0847 1D       		.byte	0x1d
 1245 0848 00       		.byte	0
 1246 0849 1B       		.uleb128 0x1b
 1247 084a F0       		.byte	0xf0
 1248 084b 06       		.byte	0x6
 1249 084c 5602     		.2byte	0x256
 1250 084e 6B080000 		.4byte	0x86b
 1251 0852 1C       		.uleb128 0x1c
 1252 0853 71020000 		.4byte	.LASF72
 1253 0857 06       		.byte	0x6
 1254 0858 6D02     		.2byte	0x26d
 1255 085a D4060000 		.4byte	0x6d4
 1256 085e 1C       		.uleb128 0x1c
 1257 085f B9000000 		.4byte	.LASF124
 1258 0863 06       		.byte	0x6
 1259 0864 7602     		.2byte	0x276
 1260 0866 05080000 		.4byte	0x805
 1261 086a 00       		.byte	0
 1262 086b 08       		.uleb128 0x8
 1263 086c A8050000 		.4byte	0x5a8
 1264 0870 7B080000 		.4byte	0x87b
 1265 0874 09       		.uleb128 0x9
 1266 0875 1F010000 		.4byte	0x11f
 1267 0879 18       		.byte	0x18
 1268 087a 00       		.byte	0
 1269 087b 1D       		.uleb128 0x1d
 1270 087c 86080000 		.4byte	0x886
 1271 0880 14       		.uleb128 0x14
 1272 0881 6A040000 		.4byte	0x46a
 1273 0885 00       		.byte	0
 1274 0886 0F       		.uleb128 0xf
 1275 0887 04       		.byte	0x4
 1276 0888 7B080000 		.4byte	0x87b
 1277 088c 0F       		.uleb128 0xf
 1278 088d 04       		.byte	0x4
 1279 088e BD010000 		.4byte	0x1bd
 1280 0892 1D       		.uleb128 0x1d
 1281 0893 9D080000 		.4byte	0x89d
 1282 0897 14       		.uleb128 0x14
 1283 0898 37000000 		.4byte	0x37
 1284 089c 00       		.byte	0
 1285 089d 0F       		.uleb128 0xf
 1286 089e 04       		.byte	0x4
 1287 089f A3080000 		.4byte	0x8a3
 1288 08a3 0F       		.uleb128 0xf
 1289 08a4 04       		.byte	0x4
 1290 08a5 92080000 		.4byte	0x892
 1291 08a9 08       		.uleb128 0x8
 1292 08aa 42060000 		.4byte	0x642
 1293 08ae B9080000 		.4byte	0x8b9
 1294 08b2 09       		.uleb128 0x9
 1295 08b3 1F010000 		.4byte	0x11f
 1296 08b7 02       		.byte	0x2
 1297 08b8 00       		.byte	0
 1298 08b9 02       		.uleb128 0x2
 1299 08ba F0000000 		.4byte	.LASF125
 1300 08be 07       		.byte	0x7
ARM GAS  /tmp/ccd0ipnR.s 			page 24


 1301 08bf 7A       		.byte	0x7a
 1302 08c0 70000000 		.4byte	0x70
 1303 08c4 02       		.uleb128 0x2
 1304 08c5 37050000 		.4byte	.LASF126
 1305 08c9 07       		.byte	0x7
 1306 08ca 92       		.byte	0x92
 1307 08cb A2050000 		.4byte	0x5a2
 1308 08cf 02       		.uleb128 0x2
 1309 08d0 4D030000 		.4byte	.LASF127
 1310 08d4 07       		.byte	0x7
 1311 08d5 9B       		.byte	0x9b
 1312 08d6 5E000000 		.4byte	0x5e
 1313 08da 02       		.uleb128 0x2
 1314 08db D9050000 		.4byte	.LASF128
 1315 08df 07       		.byte	0x7
 1316 08e0 B8       		.byte	0xb8
 1317 08e1 AD000000 		.4byte	0xad
 1318 08e5 02       		.uleb128 0x2
 1319 08e6 A3000000 		.4byte	.LASF129
 1320 08ea 07       		.byte	0x7
 1321 08eb B9       		.byte	0xb9
 1322 08ec B8000000 		.4byte	0xb8
 1323 08f0 02       		.uleb128 0x2
 1324 08f1 3B010000 		.4byte	.LASF130
 1325 08f5 07       		.byte	0x7
 1326 08f6 BA       		.byte	0xba
 1327 08f7 C3000000 		.4byte	0xc3
 1328 08fb 02       		.uleb128 0x2
 1329 08fc E5090000 		.4byte	.LASF131
 1330 0900 07       		.byte	0x7
 1331 0901 BB       		.byte	0xbb
 1332 0902 CE000000 		.4byte	0xce
 1333 0906 02       		.uleb128 0x2
 1334 0907 DF050000 		.4byte	.LASF132
 1335 090b 07       		.byte	0x7
 1336 090c D9       		.byte	0xd9
 1337 090d 30000000 		.4byte	0x30
 1338 0911 02       		.uleb128 0x2
 1339 0912 A9000000 		.4byte	.LASF133
 1340 0916 07       		.byte	0x7
 1341 0917 DE       		.byte	0xde
 1342 0918 5E000000 		.4byte	0x5e
 1343 091c 0D       		.uleb128 0xd
 1344 091d 56040000 		.4byte	.LASF134
 1345 0921 3C       		.byte	0x3c
 1346 0922 08       		.byte	0x8
 1347 0923 1A       		.byte	0x1a
 1348 0924 F5090000 		.4byte	0x9f5
 1349 0928 0B       		.uleb128 0xb
 1350 0929 2F060000 		.4byte	.LASF135
 1351 092d 08       		.byte	0x8
 1352 092e 1C       		.byte	0x1c
 1353 092f E5080000 		.4byte	0x8e5
 1354 0933 00       		.byte	0
 1355 0934 0B       		.uleb128 0xb
 1356 0935 BA090000 		.4byte	.LASF136
 1357 0939 08       		.byte	0x8
ARM GAS  /tmp/ccd0ipnR.s 			page 25


 1358 093a 1D       		.byte	0x1d
 1359 093b CF080000 		.4byte	0x8cf
 1360 093f 02       		.byte	0x2
 1361 0940 0B       		.uleb128 0xb
 1362 0941 ED070000 		.4byte	.LASF137
 1363 0945 08       		.byte	0x8
 1364 0946 1E       		.byte	0x1e
 1365 0947 06090000 		.4byte	0x906
 1366 094b 04       		.byte	0x4
 1367 094c 0B       		.uleb128 0xb
 1368 094d D0050000 		.4byte	.LASF138
 1369 0951 08       		.byte	0x8
 1370 0952 1F       		.byte	0x1f
 1371 0953 11090000 		.4byte	0x911
 1372 0957 08       		.byte	0x8
 1373 0958 0B       		.uleb128 0xb
 1374 0959 1A020000 		.4byte	.LASF139
 1375 095d 08       		.byte	0x8
 1376 095e 20       		.byte	0x20
 1377 095f F0080000 		.4byte	0x8f0
 1378 0963 0A       		.byte	0xa
 1379 0964 0B       		.uleb128 0xb
 1380 0965 3B030000 		.4byte	.LASF140
 1381 0969 08       		.byte	0x8
 1382 096a 21       		.byte	0x21
 1383 096b FB080000 		.4byte	0x8fb
 1384 096f 0C       		.byte	0xc
 1385 0970 0B       		.uleb128 0xb
 1386 0971 57020000 		.4byte	.LASF141
 1387 0975 08       		.byte	0x8
 1388 0976 22       		.byte	0x22
 1389 0977 E5080000 		.4byte	0x8e5
 1390 097b 0E       		.byte	0xe
 1391 097c 0B       		.uleb128 0xb
 1392 097d A6030000 		.4byte	.LASF142
 1393 0981 08       		.byte	0x8
 1394 0982 23       		.byte	0x23
 1395 0983 DA080000 		.4byte	0x8da
 1396 0987 10       		.byte	0x10
 1397 0988 0B       		.uleb128 0xb
 1398 0989 F9050000 		.4byte	.LASF143
 1399 098d 08       		.byte	0x8
 1400 098e 31       		.byte	0x31
 1401 098f B9080000 		.4byte	0x8b9
 1402 0993 14       		.byte	0x14
 1403 0994 0B       		.uleb128 0xb
 1404 0995 10020000 		.4byte	.LASF144
 1405 0999 08       		.byte	0x8
 1406 099a 32       		.byte	0x32
 1407 099b 70000000 		.4byte	0x70
 1408 099f 18       		.byte	0x18
 1409 09a0 0B       		.uleb128 0xb
 1410 09a1 47070000 		.4byte	.LASF145
 1411 09a5 08       		.byte	0x8
 1412 09a6 33       		.byte	0x33
 1413 09a7 B9080000 		.4byte	0x8b9
 1414 09ab 1C       		.byte	0x1c
ARM GAS  /tmp/ccd0ipnR.s 			page 26


 1415 09ac 0B       		.uleb128 0xb
 1416 09ad 04040000 		.4byte	.LASF146
 1417 09b1 08       		.byte	0x8
 1418 09b2 34       		.byte	0x34
 1419 09b3 70000000 		.4byte	0x70
 1420 09b7 20       		.byte	0x20
 1421 09b8 0B       		.uleb128 0xb
 1422 09b9 D9020000 		.4byte	.LASF147
 1423 09bd 08       		.byte	0x8
 1424 09be 35       		.byte	0x35
 1425 09bf B9080000 		.4byte	0x8b9
 1426 09c3 24       		.byte	0x24
 1427 09c4 0B       		.uleb128 0xb
 1428 09c5 21020000 		.4byte	.LASF148
 1429 09c9 08       		.byte	0x8
 1430 09ca 36       		.byte	0x36
 1431 09cb 70000000 		.4byte	0x70
 1432 09cf 28       		.byte	0x28
 1433 09d0 0B       		.uleb128 0xb
 1434 09d1 5B040000 		.4byte	.LASF149
 1435 09d5 08       		.byte	0x8
 1436 09d6 37       		.byte	0x37
 1437 09d7 70000000 		.4byte	0x70
 1438 09db 2C       		.byte	0x2c
 1439 09dc 0B       		.uleb128 0xb
 1440 09dd 3B000000 		.4byte	.LASF150
 1441 09e1 08       		.byte	0x8
 1442 09e2 38       		.byte	0x38
 1443 09e3 70000000 		.4byte	0x70
 1444 09e7 30       		.byte	0x30
 1445 09e8 0B       		.uleb128 0xb
 1446 09e9 2B020000 		.4byte	.LASF151
 1447 09ed 08       		.byte	0x8
 1448 09ee 39       		.byte	0x39
 1449 09ef F5090000 		.4byte	0x9f5
 1450 09f3 34       		.byte	0x34
 1451 09f4 00       		.byte	0
 1452 09f5 08       		.uleb128 0x8
 1453 09f6 70000000 		.4byte	0x70
 1454 09fa 050A0000 		.4byte	0xa05
 1455 09fe 09       		.uleb128 0x9
 1456 09ff 1F010000 		.4byte	0x11f
 1457 0a03 01       		.byte	0x1
 1458 0a04 00       		.byte	0
 1459 0a05 02       		.uleb128 0x2
 1460 0a06 08020000 		.4byte	.LASF152
 1461 0a0a 09       		.byte	0x9
 1462 0a0b 15       		.byte	0x15
 1463 0a0c 45000000 		.4byte	0x45
 1464 0a10 02       		.uleb128 0x2
 1465 0a11 5D000000 		.4byte	.LASF153
 1466 0a15 09       		.byte	0x9
 1467 0a16 2C       		.byte	0x2c
 1468 0a17 65000000 		.4byte	0x65
 1469 0a1b 02       		.uleb128 0x2
 1470 0a1c 25080000 		.4byte	.LASF154
 1471 0a20 09       		.byte	0x9
ARM GAS  /tmp/ccd0ipnR.s 			page 27


 1472 0a21 2D       		.byte	0x2d
 1473 0a22 77000000 		.4byte	0x77
 1474 0a26 02       		.uleb128 0x2
 1475 0a27 80070000 		.4byte	.LASF155
 1476 0a2b 09       		.byte	0x9
 1477 0a2c 39       		.byte	0x39
 1478 0a2d 90000000 		.4byte	0x90
 1479 0a31 1E       		.uleb128 0x1e
 1480 0a32 100A0000 		.4byte	0xa10
 1481 0a36 02       		.uleb128 0x2
 1482 0a37 3F050000 		.4byte	.LASF156
 1483 0a3b 0A       		.byte	0xa
 1484 0a3c 45       		.byte	0x45
 1485 0a3d 1B0A0000 		.4byte	0xa1b
 1486 0a41 02       		.uleb128 0x2
 1487 0a42 3F070000 		.4byte	.LASF157
 1488 0a46 0A       		.byte	0xa
 1489 0a47 48       		.byte	0x48
 1490 0a48 050A0000 		.4byte	0xa05
 1491 0a4c 02       		.uleb128 0x2
 1492 0a4d A1010000 		.4byte	.LASF158
 1493 0a51 0A       		.byte	0xa
 1494 0a52 49       		.byte	0x49
 1495 0a53 050A0000 		.4byte	0xa05
 1496 0a57 02       		.uleb128 0x2
 1497 0a58 D1020000 		.4byte	.LASF159
 1498 0a5c 0A       		.byte	0xa
 1499 0a5d 4A       		.byte	0x4a
 1500 0a5e 050A0000 		.4byte	0xa05
 1501 0a62 02       		.uleb128 0x2
 1502 0a63 33000000 		.4byte	.LASF160
 1503 0a67 0A       		.byte	0xa
 1504 0a68 4C       		.byte	0x4c
 1505 0a69 1B0A0000 		.4byte	0xa1b
 1506 0a6d 02       		.uleb128 0x2
 1507 0a6e 98060000 		.4byte	.LASF161
 1508 0a72 0A       		.byte	0xa
 1509 0a73 4D       		.byte	0x4d
 1510 0a74 100A0000 		.4byte	0xa10
 1511 0a78 02       		.uleb128 0x2
 1512 0a79 35020000 		.4byte	.LASF162
 1513 0a7d 0A       		.byte	0xa
 1514 0a7e 4F       		.byte	0x4f
 1515 0a7f 1B0A0000 		.4byte	0xa1b
 1516 0a83 02       		.uleb128 0x2
 1517 0a84 18000000 		.4byte	.LASF163
 1518 0a88 0B       		.byte	0xb
 1519 0a89 33       		.byte	0x33
 1520 0a8a 1B0A0000 		.4byte	0xa1b
 1521 0a8e 02       		.uleb128 0x2
 1522 0a8f F0050000 		.4byte	.LASF164
 1523 0a93 0B       		.byte	0xb
 1524 0a94 3F       		.byte	0x3f
 1525 0a95 990A0000 		.4byte	0xa99
 1526 0a99 0D       		.uleb128 0xd
 1527 0a9a AE030000 		.4byte	.LASF165
 1528 0a9e 44       		.byte	0x44
ARM GAS  /tmp/ccd0ipnR.s 			page 28


 1529 0a9f 0C       		.byte	0xc
 1530 0aa0 BE       		.byte	0xbe
 1531 0aa1 860B0000 		.4byte	0xb86
 1532 0aa5 0B       		.uleb128 0xb
 1533 0aa6 74010000 		.4byte	.LASF166
 1534 0aaa 0C       		.byte	0xc
 1535 0aab BF       		.byte	0xbf
 1536 0aac 270F0000 		.4byte	0xf27
 1537 0ab0 00       		.byte	0
 1538 0ab1 0B       		.uleb128 0xb
 1539 0ab2 8B010000 		.4byte	.LASF167
 1540 0ab6 0C       		.byte	0xc
 1541 0ab7 C1       		.byte	0xc1
 1542 0ab8 270F0000 		.4byte	0xf27
 1543 0abc 04       		.byte	0x4
 1544 0abd 0B       		.uleb128 0xb
 1545 0abe A7020000 		.4byte	.LASF168
 1546 0ac2 0C       		.byte	0xc
 1547 0ac3 C3       		.byte	0xc3
 1548 0ac4 620A0000 		.4byte	0xa62
 1549 0ac8 08       		.byte	0x8
 1550 0ac9 0B       		.uleb128 0xb
 1551 0aca 27000000 		.4byte	.LASF169
 1552 0ace 0C       		.byte	0xc
 1553 0acf C4       		.byte	0xc4
 1554 0ad0 A70D0000 		.4byte	0xda7
 1555 0ad4 0C       		.byte	0xc
 1556 0ad5 0B       		.uleb128 0xb
 1557 0ad6 55010000 		.4byte	.LASF170
 1558 0ada 0C       		.byte	0xc
 1559 0adb C6       		.byte	0xc6
 1560 0adc 270F0000 		.4byte	0xf27
 1561 0ae0 10       		.byte	0x10
 1562 0ae1 0B       		.uleb128 0xb
 1563 0ae2 84060000 		.4byte	.LASF171
 1564 0ae6 0C       		.byte	0xc
 1565 0ae7 C7       		.byte	0xc7
 1566 0ae8 270F0000 		.4byte	0xf27
 1567 0aec 14       		.byte	0x14
 1568 0aed 0B       		.uleb128 0xb
 1569 0aee DE090000 		.4byte	.LASF172
 1570 0af2 0C       		.byte	0xc
 1571 0af3 CE       		.byte	0xce
 1572 0af4 D3050000 		.4byte	0x5d3
 1573 0af8 18       		.byte	0x18
 1574 0af9 0B       		.uleb128 0xb
 1575 0afa 300A0000 		.4byte	.LASF173
 1576 0afe 0C       		.byte	0xc
 1577 0aff D9       		.byte	0xd9
 1578 0b00 4C0A0000 		.4byte	0xa4c
 1579 0b04 1C       		.byte	0x1c
 1580 0b05 0B       		.uleb128 0xb
 1581 0b06 12010000 		.4byte	.LASF174
 1582 0b0a 0C       		.byte	0xc
 1583 0b0b DD       		.byte	0xdd
 1584 0b0c 410A0000 		.4byte	0xa41
 1585 0b10 1D       		.byte	0x1d
ARM GAS  /tmp/ccd0ipnR.s 			page 29


 1586 0b11 0B       		.uleb128 0xb
 1587 0b12 5D050000 		.4byte	.LASF175
 1588 0b16 0C       		.byte	0xc
 1589 0b17 E2       		.byte	0xe2
 1590 0b18 570A0000 		.4byte	0xa57
 1591 0b1c 1E       		.byte	0x1e
 1592 0b1d 1F       		.uleb128 0x1f
 1593 0b1e 705F7500 		.ascii	"p_u\000"
 1594 0b22 0C       		.byte	0xc
 1595 0b23 1401     		.2byte	0x114
 1596 0b25 2D0F0000 		.4byte	0xf2d
 1597 0b29 20       		.byte	0x20
 1598 0b2a 16       		.uleb128 0x16
 1599 0b2b 08050000 		.4byte	.LASF176
 1600 0b2f 0C       		.byte	0xc
 1601 0b30 1901     		.2byte	0x119
 1602 0b32 860B0000 		.4byte	0xb86
 1603 0b36 24       		.byte	0x24
 1604 0b37 16       		.uleb128 0x16
 1605 0b38 45000000 		.4byte	.LASF177
 1606 0b3c 0C       		.byte	0xc
 1607 0b3d 1F01     		.2byte	0x11f
 1608 0b3f AA0B0000 		.4byte	0xbaa
 1609 0b43 28       		.byte	0x28
 1610 0b44 16       		.uleb128 0x16
 1611 0b45 2A0A0000 		.4byte	.LASF178
 1612 0b49 0C       		.byte	0xc
 1613 0b4a 2301     		.2byte	0x123
 1614 0b4c 6D0A0000 		.4byte	0xa6d
 1615 0b50 30       		.byte	0x30
 1616 0b51 16       		.uleb128 0x16
 1617 0b52 03030000 		.4byte	.LASF179
 1618 0b56 0C       		.byte	0xc
 1619 0b57 2901     		.2byte	0x129
 1620 0b59 780A0000 		.4byte	0xa78
 1621 0b5d 34       		.byte	0x34
 1622 0b5e 16       		.uleb128 0x16
 1623 0b5f BA010000 		.4byte	.LASF180
 1624 0b63 0C       		.byte	0xc
 1625 0b64 3001     		.2byte	0x130
 1626 0b66 960F0000 		.4byte	0xf96
 1627 0b6a 38       		.byte	0x38
 1628 0b6b 16       		.uleb128 0x16
 1629 0b6c 0C060000 		.4byte	.LASF181
 1630 0b70 0C       		.byte	0xc
 1631 0b71 3401     		.2byte	0x134
 1632 0b73 620A0000 		.4byte	0xa62
 1633 0b77 3C       		.byte	0x3c
 1634 0b78 16       		.uleb128 0x16
 1635 0b79 47050000 		.4byte	.LASF182
 1636 0b7d 0C       		.byte	0xc
 1637 0b7e 3A01     		.2byte	0x13a
 1638 0b80 5D010000 		.4byte	0x15d
 1639 0b84 40       		.byte	0x40
 1640 0b85 00       		.byte	0
 1641 0b86 02       		.uleb128 0x2
 1642 0b87 04080000 		.4byte	.LASF183
ARM GAS  /tmp/ccd0ipnR.s 			page 30


 1643 0b8b 0B       		.byte	0xb
 1644 0b8c 44       		.byte	0x44
 1645 0b8d 910B0000 		.4byte	0xb91
 1646 0b91 0D       		.uleb128 0xd
 1647 0b92 2B040000 		.4byte	.LASF184
 1648 0b96 04       		.byte	0x4
 1649 0b97 0C       		.byte	0xc
 1650 0b98 AC       		.byte	0xac
 1651 0b99 AA0B0000 		.4byte	0xbaa
 1652 0b9d 0B       		.uleb128 0xb
 1653 0b9e 74010000 		.4byte	.LASF166
 1654 0ba2 0C       		.byte	0xc
 1655 0ba3 AD       		.byte	0xad
 1656 0ba4 270F0000 		.4byte	0xf27
 1657 0ba8 00       		.byte	0
 1658 0ba9 00       		.byte	0
 1659 0baa 02       		.uleb128 0x2
 1660 0bab AA010000 		.4byte	.LASF185
 1661 0baf 0B       		.byte	0xb
 1662 0bb0 4B       		.byte	0x4b
 1663 0bb1 B50B0000 		.4byte	0xbb5
 1664 0bb5 0D       		.uleb128 0xd
 1665 0bb6 9E060000 		.4byte	.LASF186
 1666 0bba 08       		.byte	0x8
 1667 0bbb 0C       		.byte	0xc
 1668 0bbc B3       		.byte	0xb3
 1669 0bbd DA0B0000 		.4byte	0xbda
 1670 0bc1 0B       		.uleb128 0xb
 1671 0bc2 74010000 		.4byte	.LASF166
 1672 0bc6 0C       		.byte	0xc
 1673 0bc7 B4       		.byte	0xb4
 1674 0bc8 270F0000 		.4byte	0xf27
 1675 0bcc 00       		.byte	0
 1676 0bcd 0B       		.uleb128 0xb
 1677 0bce 8B010000 		.4byte	.LASF167
 1678 0bd2 0C       		.byte	0xc
 1679 0bd3 B5       		.byte	0xb5
 1680 0bd4 270F0000 		.4byte	0xf27
 1681 0bd8 04       		.byte	0x4
 1682 0bd9 00       		.byte	0
 1683 0bda 02       		.uleb128 0x2
 1684 0bdb F7030000 		.4byte	.LASF187
 1685 0bdf 0B       		.byte	0xb
 1686 0be0 52       		.byte	0x52
 1687 0be1 E50B0000 		.4byte	0xbe5
 1688 0be5 19       		.uleb128 0x19
 1689 0be6 13030000 		.4byte	.LASF188
 1690 0bea 1C       		.byte	0x1c
 1691 0beb 0C       		.byte	0xc
 1692 0bec 7201     		.2byte	0x172
 1693 0bee 410C0000 		.4byte	0xc41
 1694 0bf2 16       		.uleb128 0x16
 1695 0bf3 19070000 		.4byte	.LASF189
 1696 0bf7 0C       		.byte	0xc
 1697 0bf8 7301     		.2byte	0x173
 1698 0bfa AA0B0000 		.4byte	0xbaa
 1699 0bfe 00       		.byte	0
ARM GAS  /tmp/ccd0ipnR.s 			page 31


 1700 0bff 16       		.uleb128 0x16
 1701 0c00 92070000 		.4byte	.LASF190
 1702 0c04 0C       		.byte	0xc
 1703 0c05 7401     		.2byte	0x174
 1704 0c07 620A0000 		.4byte	0xa62
 1705 0c0b 08       		.byte	0x8
 1706 0c0c 16       		.uleb128 0x16
 1707 0c0d 57000000 		.4byte	.LASF191
 1708 0c11 0C       		.byte	0xc
 1709 0c12 7601     		.2byte	0x176
 1710 0c14 A70D0000 		.4byte	0xda7
 1711 0c18 0C       		.byte	0xc
 1712 0c19 16       		.uleb128 0x16
 1713 0c1a 78020000 		.4byte	.LASF192
 1714 0c1e 0C       		.byte	0xc
 1715 0c1f 7901     		.2byte	0x179
 1716 0c21 270F0000 		.4byte	0xf27
 1717 0c25 10       		.byte	0x10
 1718 0c26 16       		.uleb128 0x16
 1719 0c27 50070000 		.4byte	.LASF193
 1720 0c2b 0C       		.byte	0xc
 1721 0c2c 7A01     		.2byte	0x17a
 1722 0c2e 270F0000 		.4byte	0xf27
 1723 0c32 14       		.byte	0x14
 1724 0c33 16       		.uleb128 0x16
 1725 0c34 C1090000 		.4byte	.LASF194
 1726 0c38 0C       		.byte	0xc
 1727 0c39 7D01     		.2byte	0x17d
 1728 0c3b 270F0000 		.4byte	0xf27
 1729 0c3f 18       		.byte	0x18
 1730 0c40 00       		.byte	0
 1731 0c41 02       		.uleb128 0x2
 1732 0c42 7A000000 		.4byte	.LASF195
 1733 0c46 0B       		.byte	0xb
 1734 0c47 57       		.byte	0x57
 1735 0c48 4C0C0000 		.4byte	0xc4c
 1736 0c4c 0F       		.uleb128 0xf
 1737 0c4d 04       		.byte	0x4
 1738 0c4e 520C0000 		.4byte	0xc52
 1739 0c52 1D       		.uleb128 0x1d
 1740 0c53 5D0C0000 		.4byte	0xc5d
 1741 0c57 14       		.uleb128 0x14
 1742 0c58 5D010000 		.4byte	0x15d
 1743 0c5c 00       		.byte	0
 1744 0c5d 02       		.uleb128 0x2
 1745 0c5e E7030000 		.4byte	.LASF196
 1746 0c62 0B       		.byte	0xb
 1747 0c63 5C       		.byte	0x5c
 1748 0c64 680C0000 		.4byte	0xc68
 1749 0c68 19       		.uleb128 0x19
 1750 0c69 4E060000 		.4byte	.LASF197
 1751 0c6d 14       		.byte	0x14
 1752 0c6e 0C       		.byte	0xc
 1753 0c6f 4D01     		.2byte	0x14d
 1754 0c71 B70C0000 		.4byte	0xcb7
 1755 0c75 16       		.uleb128 0x16
 1756 0c76 99040000 		.4byte	.LASF198
ARM GAS  /tmp/ccd0ipnR.s 			page 32


 1757 0c7a 0C       		.byte	0xc
 1758 0c7b 4E01     		.2byte	0x14e
 1759 0c7d 9C0F0000 		.4byte	0xf9c
 1760 0c81 00       		.byte	0
 1761 0c82 16       		.uleb128 0x16
 1762 0c83 B2040000 		.4byte	.LASF199
 1763 0c87 0C       		.byte	0xc
 1764 0c88 4F01     		.2byte	0x14f
 1765 0c8a 9C0F0000 		.4byte	0xf9c
 1766 0c8e 04       		.byte	0x4
 1767 0c8f 16       		.uleb128 0x16
 1768 0c90 36060000 		.4byte	.LASF200
 1769 0c94 0C       		.byte	0xc
 1770 0c95 5001     		.2byte	0x150
 1771 0c97 830A0000 		.4byte	0xa83
 1772 0c9b 08       		.byte	0x8
 1773 0c9c 16       		.uleb128 0x16
 1774 0c9d E7020000 		.4byte	.LASF201
 1775 0ca1 0C       		.byte	0xc
 1776 0ca2 5101     		.2byte	0x151
 1777 0ca4 410C0000 		.4byte	0xc41
 1778 0ca8 0C       		.byte	0xc
 1779 0ca9 16       		.uleb128 0x16
 1780 0caa 0B010000 		.4byte	.LASF202
 1781 0cae 0C       		.byte	0xc
 1782 0caf 5301     		.2byte	0x153
 1783 0cb1 5D010000 		.4byte	0x15d
 1784 0cb5 10       		.byte	0x10
 1785 0cb6 00       		.byte	0
 1786 0cb7 02       		.uleb128 0x2
 1787 0cb8 B8030000 		.4byte	.LASF203
 1788 0cbc 0B       		.byte	0xb
 1789 0cbd 61       		.byte	0x61
 1790 0cbe C20C0000 		.4byte	0xcc2
 1791 0cc2 19       		.uleb128 0x19
 1792 0cc3 8C000000 		.4byte	.LASF204
 1793 0cc7 10       		.byte	0x10
 1794 0cc8 0C       		.byte	0xc
 1795 0cc9 5D01     		.2byte	0x15d
 1796 0ccb 040D0000 		.4byte	0xd04
 1797 0ccf 16       		.uleb128 0x16
 1798 0cd0 99040000 		.4byte	.LASF198
 1799 0cd4 0C       		.byte	0xc
 1800 0cd5 5E01     		.2byte	0x15e
 1801 0cd7 9C0F0000 		.4byte	0xf9c
 1802 0cdb 00       		.byte	0
 1803 0cdc 16       		.uleb128 0x16
 1804 0cdd B2040000 		.4byte	.LASF199
 1805 0ce1 0C       		.byte	0xc
 1806 0ce2 6001     		.2byte	0x160
 1807 0ce4 9C0F0000 		.4byte	0xf9c
 1808 0ce8 04       		.byte	0x4
 1809 0ce9 16       		.uleb128 0x16
 1810 0cea 36060000 		.4byte	.LASF200
 1811 0cee 0C       		.byte	0xc
 1812 0cef 6201     		.2byte	0x162
 1813 0cf1 830A0000 		.4byte	0xa83
ARM GAS  /tmp/ccd0ipnR.s 			page 33


 1814 0cf5 08       		.byte	0x8
 1815 0cf6 16       		.uleb128 0x16
 1816 0cf7 62090000 		.4byte	.LASF205
 1817 0cfb 0C       		.byte	0xc
 1818 0cfc 6A01     		.2byte	0x16a
 1819 0cfe 830A0000 		.4byte	0xa83
 1820 0d02 0C       		.byte	0xc
 1821 0d03 00       		.byte	0
 1822 0d04 02       		.uleb128 0x2
 1823 0d05 80020000 		.4byte	.LASF206
 1824 0d09 0B       		.byte	0xb
 1825 0d0a 66       		.byte	0x66
 1826 0d0b 0F0D0000 		.4byte	0xd0f
 1827 0d0f 19       		.uleb128 0x19
 1828 0d10 99070000 		.4byte	.LASF207
 1829 0d14 04       		.byte	0x4
 1830 0d15 0C       		.byte	0xc
 1831 0d16 8401     		.2byte	0x184
 1832 0d18 2A0D0000 		.4byte	0xd2a
 1833 0d1c 16       		.uleb128 0x16
 1834 0d1d 5F020000 		.4byte	.LASF208
 1835 0d21 0C       		.byte	0xc
 1836 0d22 8C01     		.2byte	0x18c
 1837 0d24 A20F0000 		.4byte	0xfa2
 1838 0d28 00       		.byte	0
 1839 0d29 00       		.byte	0
 1840 0d2a 02       		.uleb128 0x2
 1841 0d2b 8B090000 		.4byte	.LASF209
 1842 0d2f 0B       		.byte	0xb
 1843 0d30 6B       		.byte	0x6b
 1844 0d31 350D0000 		.4byte	0xd35
 1845 0d35 15       		.uleb128 0x15
 1846 0d36 13080000 		.4byte	.LASF210
 1847 0d3a D801     		.2byte	0x1d8
 1848 0d3c 0C       		.byte	0xc
 1849 0d3d A401     		.2byte	0x1a4
 1850 0d3f 910D0000 		.4byte	0xd91
 1851 0d43 16       		.uleb128 0x16
 1852 0d44 39070000 		.4byte	.LASF211
 1853 0d48 0C       		.byte	0xc
 1854 0d49 A801     		.2byte	0x1a8
 1855 0d4b DA0B0000 		.4byte	0xbda
 1856 0d4f 00       		.byte	0
 1857 0d50 16       		.uleb128 0x16
 1858 0d51 BC070000 		.4byte	.LASF212
 1859 0d55 0C       		.byte	0xc
 1860 0d56 AC01     		.2byte	0x1ac
 1861 0d58 B70C0000 		.4byte	0xcb7
 1862 0d5c 1C       		.byte	0x1c
 1863 0d5d 1F       		.uleb128 0x1f
 1864 0d5e 64626700 		.ascii	"dbg\000"
 1865 0d62 0C       		.byte	0xc
 1866 0d63 B001     		.2byte	0x1b0
 1867 0d65 040D0000 		.4byte	0xd04
 1868 0d69 2C       		.byte	0x2c
 1869 0d6a 16       		.uleb128 0x16
 1870 0d6b F3060000 		.4byte	.LASF213
ARM GAS  /tmp/ccd0ipnR.s 			page 34


 1871 0d6f 0C       		.byte	0xc
 1872 0d70 B401     		.2byte	0x1b4
 1873 0d72 8E0A0000 		.4byte	0xa8e
 1874 0d76 30       		.byte	0x30
 1875 0d77 1F       		.uleb128 0x1f
 1876 0d78 746D00   		.ascii	"tm\000"
 1877 0d7b 0C       		.byte	0xc
 1878 0d7c B901     		.2byte	0x1b9
 1879 0d7e 1C0F0000 		.4byte	0xf1c
 1880 0d82 74       		.byte	0x74
 1881 0d83 16       		.uleb128 0x16
 1882 0d84 12050000 		.4byte	.LASF214
 1883 0d88 0C       		.byte	0xc
 1884 0d89 C501     		.2byte	0x1c5
 1885 0d8b A70F0000 		.4byte	0xfa7
 1886 0d8f 78       		.byte	0x78
 1887 0d90 00       		.byte	0
 1888 0d91 02       		.uleb128 0x2
 1889 0d92 C4010000 		.4byte	.LASF215
 1890 0d96 0D       		.byte	0xd
 1891 0d97 85       		.byte	0x85
 1892 0d98 5D010000 		.4byte	0x15d
 1893 0d9c 02       		.uleb128 0x2
 1894 0d9d C6020000 		.4byte	.LASF216
 1895 0da1 0D       		.byte	0xd
 1896 0da2 8D       		.byte	0x8d
 1897 0da3 260A0000 		.4byte	0xa26
 1898 0da7 0D       		.uleb128 0xd
 1899 0da8 41020000 		.4byte	.LASF217
 1900 0dac 04       		.byte	0x4
 1901 0dad 0D       		.byte	0xd
 1902 0dae A9       		.byte	0xa9
 1903 0daf C00D0000 		.4byte	0xdc0
 1904 0db3 0E       		.uleb128 0xe
 1905 0db4 72313300 		.ascii	"r13\000"
 1906 0db8 0D       		.byte	0xd
 1907 0db9 AA       		.byte	0xaa
 1908 0dba 010F0000 		.4byte	0xf01
 1909 0dbe 00       		.byte	0
 1910 0dbf 00       		.byte	0
 1911 0dc0 0D       		.uleb128 0xd
 1912 0dc1 17060000 		.4byte	.LASF218
 1913 0dc5 64       		.byte	0x64
 1914 0dc6 0E       		.byte	0xe
 1915 0dc7 F4       		.byte	0xf4
 1916 0dc8 010F0000 		.4byte	0xf01
 1917 0dcc 0E       		.uleb128 0xe
 1918 0dcd 73313600 		.ascii	"s16\000"
 1919 0dd1 0E       		.byte	0xe
 1920 0dd2 F6       		.byte	0xf6
 1921 0dd3 910D0000 		.4byte	0xd91
 1922 0dd7 00       		.byte	0
 1923 0dd8 0E       		.uleb128 0xe
 1924 0dd9 73313700 		.ascii	"s17\000"
 1925 0ddd 0E       		.byte	0xe
 1926 0dde F7       		.byte	0xf7
 1927 0ddf 910D0000 		.4byte	0xd91
ARM GAS  /tmp/ccd0ipnR.s 			page 35


 1928 0de3 04       		.byte	0x4
 1929 0de4 0E       		.uleb128 0xe
 1930 0de5 73313800 		.ascii	"s18\000"
 1931 0de9 0E       		.byte	0xe
 1932 0dea F8       		.byte	0xf8
 1933 0deb 910D0000 		.4byte	0xd91
 1934 0def 08       		.byte	0x8
 1935 0df0 0E       		.uleb128 0xe
 1936 0df1 73313900 		.ascii	"s19\000"
 1937 0df5 0E       		.byte	0xe
 1938 0df6 F9       		.byte	0xf9
 1939 0df7 910D0000 		.4byte	0xd91
 1940 0dfb 0C       		.byte	0xc
 1941 0dfc 0E       		.uleb128 0xe
 1942 0dfd 73323000 		.ascii	"s20\000"
 1943 0e01 0E       		.byte	0xe
 1944 0e02 FA       		.byte	0xfa
 1945 0e03 910D0000 		.4byte	0xd91
 1946 0e07 10       		.byte	0x10
 1947 0e08 0E       		.uleb128 0xe
 1948 0e09 73323100 		.ascii	"s21\000"
 1949 0e0d 0E       		.byte	0xe
 1950 0e0e FB       		.byte	0xfb
 1951 0e0f 910D0000 		.4byte	0xd91
 1952 0e13 14       		.byte	0x14
 1953 0e14 0E       		.uleb128 0xe
 1954 0e15 73323200 		.ascii	"s22\000"
 1955 0e19 0E       		.byte	0xe
 1956 0e1a FC       		.byte	0xfc
 1957 0e1b 910D0000 		.4byte	0xd91
 1958 0e1f 18       		.byte	0x18
 1959 0e20 0E       		.uleb128 0xe
 1960 0e21 73323300 		.ascii	"s23\000"
 1961 0e25 0E       		.byte	0xe
 1962 0e26 FD       		.byte	0xfd
 1963 0e27 910D0000 		.4byte	0xd91
 1964 0e2b 1C       		.byte	0x1c
 1965 0e2c 0E       		.uleb128 0xe
 1966 0e2d 73323400 		.ascii	"s24\000"
 1967 0e31 0E       		.byte	0xe
 1968 0e32 FE       		.byte	0xfe
 1969 0e33 910D0000 		.4byte	0xd91
 1970 0e37 20       		.byte	0x20
 1971 0e38 0E       		.uleb128 0xe
 1972 0e39 73323500 		.ascii	"s25\000"
 1973 0e3d 0E       		.byte	0xe
 1974 0e3e FF       		.byte	0xff
 1975 0e3f 910D0000 		.4byte	0xd91
 1976 0e43 24       		.byte	0x24
 1977 0e44 1F       		.uleb128 0x1f
 1978 0e45 73323600 		.ascii	"s26\000"
 1979 0e49 0E       		.byte	0xe
 1980 0e4a 0001     		.2byte	0x100
 1981 0e4c 910D0000 		.4byte	0xd91
 1982 0e50 28       		.byte	0x28
 1983 0e51 1F       		.uleb128 0x1f
 1984 0e52 73323700 		.ascii	"s27\000"
ARM GAS  /tmp/ccd0ipnR.s 			page 36


 1985 0e56 0E       		.byte	0xe
 1986 0e57 0101     		.2byte	0x101
 1987 0e59 910D0000 		.4byte	0xd91
 1988 0e5d 2C       		.byte	0x2c
 1989 0e5e 1F       		.uleb128 0x1f
 1990 0e5f 73323800 		.ascii	"s28\000"
 1991 0e63 0E       		.byte	0xe
 1992 0e64 0201     		.2byte	0x102
 1993 0e66 910D0000 		.4byte	0xd91
 1994 0e6a 30       		.byte	0x30
 1995 0e6b 1F       		.uleb128 0x1f
 1996 0e6c 73323900 		.ascii	"s29\000"
 1997 0e70 0E       		.byte	0xe
 1998 0e71 0301     		.2byte	0x103
 1999 0e73 910D0000 		.4byte	0xd91
 2000 0e77 34       		.byte	0x34
 2001 0e78 1F       		.uleb128 0x1f
 2002 0e79 73333000 		.ascii	"s30\000"
 2003 0e7d 0E       		.byte	0xe
 2004 0e7e 0401     		.2byte	0x104
 2005 0e80 910D0000 		.4byte	0xd91
 2006 0e84 38       		.byte	0x38
 2007 0e85 1F       		.uleb128 0x1f
 2008 0e86 73333100 		.ascii	"s31\000"
 2009 0e8a 0E       		.byte	0xe
 2010 0e8b 0501     		.2byte	0x105
 2011 0e8d 910D0000 		.4byte	0xd91
 2012 0e91 3C       		.byte	0x3c
 2013 0e92 1F       		.uleb128 0x1f
 2014 0e93 723400   		.ascii	"r4\000"
 2015 0e96 0E       		.byte	0xe
 2016 0e97 0701     		.2byte	0x107
 2017 0e99 910D0000 		.4byte	0xd91
 2018 0e9d 40       		.byte	0x40
 2019 0e9e 1F       		.uleb128 0x1f
 2020 0e9f 723500   		.ascii	"r5\000"
 2021 0ea2 0E       		.byte	0xe
 2022 0ea3 0801     		.2byte	0x108
 2023 0ea5 910D0000 		.4byte	0xd91
 2024 0ea9 44       		.byte	0x44
 2025 0eaa 1F       		.uleb128 0x1f
 2026 0eab 723600   		.ascii	"r6\000"
 2027 0eae 0E       		.byte	0xe
 2028 0eaf 0901     		.2byte	0x109
 2029 0eb1 910D0000 		.4byte	0xd91
 2030 0eb5 48       		.byte	0x48
 2031 0eb6 1F       		.uleb128 0x1f
 2032 0eb7 723700   		.ascii	"r7\000"
 2033 0eba 0E       		.byte	0xe
 2034 0ebb 0A01     		.2byte	0x10a
 2035 0ebd 910D0000 		.4byte	0xd91
 2036 0ec1 4C       		.byte	0x4c
 2037 0ec2 1F       		.uleb128 0x1f
 2038 0ec3 723800   		.ascii	"r8\000"
 2039 0ec6 0E       		.byte	0xe
 2040 0ec7 0B01     		.2byte	0x10b
 2041 0ec9 910D0000 		.4byte	0xd91
ARM GAS  /tmp/ccd0ipnR.s 			page 37


 2042 0ecd 50       		.byte	0x50
 2043 0ece 1F       		.uleb128 0x1f
 2044 0ecf 723900   		.ascii	"r9\000"
 2045 0ed2 0E       		.byte	0xe
 2046 0ed3 0C01     		.2byte	0x10c
 2047 0ed5 910D0000 		.4byte	0xd91
 2048 0ed9 54       		.byte	0x54
 2049 0eda 1F       		.uleb128 0x1f
 2050 0edb 72313000 		.ascii	"r10\000"
 2051 0edf 0E       		.byte	0xe
 2052 0ee0 0D01     		.2byte	0x10d
 2053 0ee2 910D0000 		.4byte	0xd91
 2054 0ee6 58       		.byte	0x58
 2055 0ee7 1F       		.uleb128 0x1f
 2056 0ee8 72313100 		.ascii	"r11\000"
 2057 0eec 0E       		.byte	0xe
 2058 0eed 0E01     		.2byte	0x10e
 2059 0eef 910D0000 		.4byte	0xd91
 2060 0ef3 5C       		.byte	0x5c
 2061 0ef4 1F       		.uleb128 0x1f
 2062 0ef5 6C7200   		.ascii	"lr\000"
 2063 0ef8 0E       		.byte	0xe
 2064 0ef9 0F01     		.2byte	0x10f
 2065 0efb 910D0000 		.4byte	0xd91
 2066 0eff 60       		.byte	0x60
 2067 0f00 00       		.byte	0
 2068 0f01 0F       		.uleb128 0xf
 2069 0f02 04       		.byte	0x4
 2070 0f03 C00D0000 		.4byte	0xdc0
 2071 0f07 0A       		.uleb128 0xa
 2072 0f08 04       		.byte	0x4
 2073 0f09 0F       		.byte	0xf
 2074 0f0a 38       		.byte	0x38
 2075 0f0b 1C0F0000 		.4byte	0xf1c
 2076 0f0f 0B       		.uleb128 0xb
 2077 0f10 B9050000 		.4byte	.LASF219
 2078 0f14 0F       		.byte	0xf
 2079 0f15 3C       		.byte	0x3c
 2080 0f16 360A0000 		.4byte	0xa36
 2081 0f1a 00       		.byte	0
 2082 0f1b 00       		.byte	0
 2083 0f1c 02       		.uleb128 0x2
 2084 0f1d 58070000 		.4byte	.LASF220
 2085 0f21 0F       		.byte	0xf
 2086 0f22 3D       		.byte	0x3d
 2087 0f23 070F0000 		.4byte	0xf07
 2088 0f27 0F       		.uleb128 0xf
 2089 0f28 04       		.byte	0x4
 2090 0f29 8E0A0000 		.4byte	0xa8e
 2091 0f2d 06       		.uleb128 0x6
 2092 0f2e 04       		.byte	0x4
 2093 0f2f 0C       		.byte	0xc
 2094 0f30 F6       		.byte	0xf6
 2095 0f31 650F0000 		.4byte	0xf65
 2096 0f35 07       		.uleb128 0x7
 2097 0f36 56090000 		.4byte	.LASF221
 2098 0f3a 0C       		.byte	0xc
ARM GAS  /tmp/ccd0ipnR.s 			page 38


 2099 0f3b FD       		.byte	0xfd
 2100 0f3c 6D0A0000 		.4byte	0xa6d
 2101 0f40 1C       		.uleb128 0x1c
 2102 0f41 20010000 		.4byte	.LASF222
 2103 0f45 0C       		.byte	0xc
 2104 0f46 0401     		.2byte	0x104
 2105 0f48 6D0A0000 		.4byte	0xa6d
 2106 0f4c 1C       		.uleb128 0x1c
 2107 0f4d AE020000 		.4byte	.LASF223
 2108 0f51 0C       		.byte	0xc
 2109 0f52 0B01     		.2byte	0x10b
 2110 0f54 5D010000 		.4byte	0x15d
 2111 0f58 1C       		.uleb128 0x1c
 2112 0f59 01020000 		.4byte	.LASF224
 2113 0f5d 0C       		.byte	0xc
 2114 0f5e 1201     		.2byte	0x112
 2115 0f60 780A0000 		.4byte	0xa78
 2116 0f64 00       		.byte	0
 2117 0f65 0D       		.uleb128 0xd
 2118 0f66 E9040000 		.4byte	.LASF225
 2119 0f6a 10       		.byte	0x10
 2120 0f6b 10       		.byte	0x10
 2121 0f6c 39       		.byte	0x39
 2122 0f6d 960F0000 		.4byte	0xf96
 2123 0f71 0B       		.uleb128 0xb
 2124 0f72 8A040000 		.4byte	.LASF226
 2125 0f76 10       		.byte	0x10
 2126 0f77 3A       		.byte	0x3a
 2127 0f78 AA0B0000 		.4byte	0xbaa
 2128 0f7c 00       		.byte	0
 2129 0f7d 0B       		.uleb128 0xb
 2130 0f7e 03010000 		.4byte	.LASF227
 2131 0f82 10       		.byte	0x10
 2132 0f83 3C       		.byte	0x3c
 2133 0f84 270F0000 		.4byte	0xf27
 2134 0f88 08       		.byte	0x8
 2135 0f89 0B       		.uleb128 0xb
 2136 0f8a EB090000 		.4byte	.LASF228
 2137 0f8e 10       		.byte	0x10
 2138 0f8f 3E       		.byte	0x3e
 2139 0f90 C20F0000 		.4byte	0xfc2
 2140 0f94 0C       		.byte	0xc
 2141 0f95 00       		.byte	0
 2142 0f96 0F       		.uleb128 0xf
 2143 0f97 04       		.byte	0x4
 2144 0f98 650F0000 		.4byte	0xf65
 2145 0f9c 0F       		.uleb128 0xf
 2146 0f9d 04       		.byte	0x4
 2147 0f9e 5D0C0000 		.4byte	0xc5d
 2148 0fa2 1E       		.uleb128 0x1e
 2149 0fa3 D3050000 		.4byte	0x5d3
 2150 0fa7 08       		.uleb128 0x8
 2151 0fa8 9C0D0000 		.4byte	0xd9c
 2152 0fac B70F0000 		.4byte	0xfb7
 2153 0fb0 09       		.uleb128 0x9
 2154 0fb1 1F010000 		.4byte	0x11f
 2155 0fb5 2B       		.byte	0x2b
ARM GAS  /tmp/ccd0ipnR.s 			page 39


 2156 0fb6 00       		.byte	0
 2157 0fb7 02       		.uleb128 0x2
 2158 0fb8 E5070000 		.4byte	.LASF229
 2159 0fbc 10       		.byte	0x10
 2160 0fbd 34       		.byte	0x34
 2161 0fbe 650F0000 		.4byte	0xf65
 2162 0fc2 0F       		.uleb128 0xf
 2163 0fc3 04       		.byte	0x4
 2164 0fc4 B70F0000 		.4byte	0xfb7
 2165 0fc8 20       		.uleb128 0x20
 2166 0fc9 B2090000 		.4byte	.LASF231
 2167 0fcd 01       		.byte	0x1
 2168 0fce 46       		.byte	0x46
 2169 0fcf 37000000 		.4byte	0x37
 2170 0fd3 00000000 		.4byte	.LFB226
 2171 0fd7 0A000000 		.4byte	.LFE226-.LFB226
 2172 0fdb 01       		.uleb128 0x1
 2173 0fdc 9C       		.byte	0x9c
 2174 0fdd 18100000 		.4byte	0x1018
 2175 0fe1 21       		.uleb128 0x21
 2176 0fe2 7200     		.ascii	"r\000"
 2177 0fe4 01       		.byte	0x1
 2178 0fe5 46       		.byte	0x46
 2179 0fe6 6A040000 		.4byte	0x46a
 2180 0fea 00000000 		.4byte	.LLST0
 2181 0fee 22       		.uleb128 0x22
 2182 0fef E2020000 		.4byte	.LASF230
 2183 0ff3 01       		.byte	0x1
 2184 0ff4 46       		.byte	0x46
 2185 0ff5 37000000 		.4byte	0x37
 2186 0ff9 01       		.uleb128 0x1
 2187 0ffa 51       		.byte	0x51
 2188 0ffb 23       		.uleb128 0x23
 2189 0ffc 70747200 		.ascii	"ptr\000"
 2190 1000 01       		.byte	0x1
 2191 1001 46       		.byte	0x46
 2192 1002 A2050000 		.4byte	0x5a2
 2193 1006 01       		.uleb128 0x1
 2194 1007 52       		.byte	0x52
 2195 1008 21       		.uleb128 0x21
 2196 1009 6C656E00 		.ascii	"len\000"
 2197 100d 01       		.byte	0x1
 2198 100e 46       		.byte	0x46
 2199 100f 37000000 		.4byte	0x37
 2200 1013 21000000 		.4byte	.LLST1
 2201 1017 00       		.byte	0
 2202 1018 20       		.uleb128 0x20
 2203 1019 D4070000 		.4byte	.LASF232
 2204 101d 01       		.byte	0x1
 2205 101e 5B       		.byte	0x5b
 2206 101f 37000000 		.4byte	0x37
 2207 1023 00000000 		.4byte	.LFB227
 2208 1027 04000000 		.4byte	.LFE227-.LFB227
 2209 102b 01       		.uleb128 0x1
 2210 102c 9C       		.byte	0x9c
 2211 102d 66100000 		.4byte	0x1066
 2212 1031 21       		.uleb128 0x21
ARM GAS  /tmp/ccd0ipnR.s 			page 40


 2213 1032 7200     		.ascii	"r\000"
 2214 1034 01       		.byte	0x1
 2215 1035 5B       		.byte	0x5b
 2216 1036 6A040000 		.4byte	0x46a
 2217 103a 42000000 		.4byte	.LLST2
 2218 103e 22       		.uleb128 0x22
 2219 103f E2020000 		.4byte	.LASF230
 2220 1043 01       		.byte	0x1
 2221 1044 5B       		.byte	0x5b
 2222 1045 37000000 		.4byte	0x37
 2223 1049 01       		.uleb128 0x1
 2224 104a 51       		.byte	0x51
 2225 104b 23       		.uleb128 0x23
 2226 104c 70747200 		.ascii	"ptr\000"
 2227 1050 01       		.byte	0x1
 2228 1051 5B       		.byte	0x5b
 2229 1052 37000000 		.4byte	0x37
 2230 1056 01       		.uleb128 0x1
 2231 1057 52       		.byte	0x52
 2232 1058 23       		.uleb128 0x23
 2233 1059 64697200 		.ascii	"dir\000"
 2234 105d 01       		.byte	0x1
 2235 105e 5B       		.byte	0x5b
 2236 105f 37000000 		.4byte	0x37
 2237 1063 01       		.uleb128 0x1
 2238 1064 53       		.byte	0x53
 2239 1065 00       		.byte	0
 2240 1066 20       		.uleb128 0x20
 2241 1067 2E050000 		.4byte	.LASF233
 2242 106b 01       		.byte	0x1
 2243 106c 67       		.byte	0x67
 2244 106d 37000000 		.4byte	0x37
 2245 1071 00000000 		.4byte	.LFB228
 2246 1075 04000000 		.4byte	.LFE228-.LFB228
 2247 1079 01       		.uleb128 0x1
 2248 107a 9C       		.byte	0x9c
 2249 107b B4100000 		.4byte	0x10b4
 2250 107f 21       		.uleb128 0x21
 2251 1080 7200     		.ascii	"r\000"
 2252 1082 01       		.byte	0x1
 2253 1083 67       		.byte	0x67
 2254 1084 6A040000 		.4byte	0x46a
 2255 1088 63000000 		.4byte	.LLST3
 2256 108c 22       		.uleb128 0x22
 2257 108d E2020000 		.4byte	.LASF230
 2258 1091 01       		.byte	0x1
 2259 1092 67       		.byte	0x67
 2260 1093 37000000 		.4byte	0x37
 2261 1097 01       		.uleb128 0x1
 2262 1098 51       		.byte	0x51
 2263 1099 23       		.uleb128 0x23
 2264 109a 70747200 		.ascii	"ptr\000"
 2265 109e 01       		.byte	0x1
 2266 109f 67       		.byte	0x67
 2267 10a0 A2050000 		.4byte	0x5a2
 2268 10a4 01       		.uleb128 0x1
 2269 10a5 52       		.byte	0x52
ARM GAS  /tmp/ccd0ipnR.s 			page 41


 2270 10a6 23       		.uleb128 0x23
 2271 10a7 6C656E00 		.ascii	"len\000"
 2272 10ab 01       		.byte	0x1
 2273 10ac 67       		.byte	0x67
 2274 10ad 37000000 		.4byte	0x37
 2275 10b1 01       		.uleb128 0x1
 2276 10b2 53       		.byte	0x53
 2277 10b3 00       		.byte	0
 2278 10b4 20       		.uleb128 0x20
 2279 10b5 1A040000 		.4byte	.LASF234
 2280 10b9 01       		.byte	0x1
 2281 10ba 78       		.byte	0x78
 2282 10bb 37000000 		.4byte	0x37
 2283 10bf 00000000 		.4byte	.LFB229
 2284 10c3 04000000 		.4byte	.LFE229-.LFB229
 2285 10c7 01       		.uleb128 0x1
 2286 10c8 9C       		.byte	0x9c
 2287 10c9 E8100000 		.4byte	0x10e8
 2288 10cd 21       		.uleb128 0x21
 2289 10ce 7200     		.ascii	"r\000"
 2290 10d0 01       		.byte	0x1
 2291 10d1 78       		.byte	0x78
 2292 10d2 6A040000 		.4byte	0x46a
 2293 10d6 84000000 		.4byte	.LLST4
 2294 10da 22       		.uleb128 0x22
 2295 10db E2020000 		.4byte	.LASF230
 2296 10df 01       		.byte	0x1
 2297 10e0 78       		.byte	0x78
 2298 10e1 37000000 		.4byte	0x37
 2299 10e5 01       		.uleb128 0x1
 2300 10e6 51       		.byte	0x51
 2301 10e7 00       		.byte	0
 2302 10e8 20       		.uleb128 0x20
 2303 10e9 69020000 		.4byte	.LASF235
 2304 10ed 01       		.byte	0x1
 2305 10ee 82       		.byte	0x82
 2306 10ef C4080000 		.4byte	0x8c4
 2307 10f3 00000000 		.4byte	.LFB230
 2308 10f7 18000000 		.4byte	.LFE230-.LFB230
 2309 10fb 01       		.uleb128 0x1
 2310 10fc 9C       		.byte	0x9c
 2311 10fd 45110000 		.4byte	0x1145
 2312 1101 21       		.uleb128 0x21
 2313 1102 7200     		.ascii	"r\000"
 2314 1104 01       		.byte	0x1
 2315 1105 82       		.byte	0x82
 2316 1106 6A040000 		.4byte	0x46a
 2317 110a A5000000 		.4byte	.LLST5
 2318 110e 24       		.uleb128 0x24
 2319 110f 58050000 		.4byte	.LASF236
 2320 1113 01       		.byte	0x1
 2321 1114 82       		.byte	0x82
 2322 1115 37000000 		.4byte	0x37
 2323 1119 C3000000 		.4byte	.LLST6
 2324 111d 25       		.uleb128 0x25
 2325 111e 7000     		.ascii	"p\000"
 2326 1120 01       		.byte	0x1
ARM GAS  /tmp/ccd0ipnR.s 			page 42


 2327 1121 85       		.byte	0x85
 2328 1122 5D010000 		.4byte	0x15d
 2329 1126 E4000000 		.4byte	.LLST7
 2330 112a 26       		.uleb128 0x26
 2331 112b 83000000 		.4byte	.LASF243
 2332 112f 45110000 		.4byte	0x1145
 2333 1133 27       		.uleb128 0x27
 2334 1134 0A000000 		.4byte	.LVL11
 2335 1138 F9110000 		.4byte	0x11f9
 2336 113c 28       		.uleb128 0x28
 2337 113d 01       		.uleb128 0x1
 2338 113e 50       		.byte	0x50
 2339 113f 03       		.uleb128 0x3
 2340 1140 F3       		.byte	0xf3
 2341 1141 01       		.uleb128 0x1
 2342 1142 51       		.byte	0x51
 2343 1143 00       		.byte	0
 2344 1144 00       		.byte	0
 2345 1145 18       		.uleb128 0x18
 2346 1146 E5070000 		.4byte	0x7e5
 2347 114a 20       		.uleb128 0x20
 2348 114b CE060000 		.4byte	.LASF237
 2349 114f 01       		.byte	0x1
 2350 1150 98       		.byte	0x98
 2351 1151 37000000 		.4byte	0x37
 2352 1155 00000000 		.4byte	.LFB231
 2353 1159 18000000 		.4byte	.LFE231-.LFB231
 2354 115d 01       		.uleb128 0x1
 2355 115e 9C       		.byte	0x9c
 2356 115f A9110000 		.4byte	0x11a9
 2357 1163 21       		.uleb128 0x21
 2358 1164 7200     		.ascii	"r\000"
 2359 1166 01       		.byte	0x1
 2360 1167 98       		.byte	0x98
 2361 1168 6A040000 		.4byte	0x46a
 2362 116c F7000000 		.4byte	.LLST8
 2363 1170 24       		.uleb128 0x24
 2364 1171 E2020000 		.4byte	.LASF230
 2365 1175 01       		.byte	0x1
 2366 1176 98       		.byte	0x98
 2367 1177 37000000 		.4byte	0x37
 2368 117b 18010000 		.4byte	.LLST9
 2369 117f 21       		.uleb128 0x21
 2370 1180 737400   		.ascii	"st\000"
 2371 1183 01       		.byte	0x1
 2372 1184 98       		.byte	0x98
 2373 1185 A9110000 		.4byte	0x11a9
 2374 1189 39010000 		.4byte	.LLST10
 2375 118d 27       		.uleb128 0x27
 2376 118e 0E000000 		.4byte	.LVL18
 2377 1192 0E120000 		.4byte	0x120e
 2378 1196 28       		.uleb128 0x28
 2379 1197 01       		.uleb128 0x1
 2380 1198 52       		.byte	0x52
 2381 1199 02       		.uleb128 0x2
 2382 119a 08       		.byte	0x8
 2383 119b 3C       		.byte	0x3c
ARM GAS  /tmp/ccd0ipnR.s 			page 43


 2384 119c 28       		.uleb128 0x28
 2385 119d 01       		.uleb128 0x1
 2386 119e 51       		.byte	0x51
 2387 119f 01       		.uleb128 0x1
 2388 11a0 30       		.byte	0x30
 2389 11a1 28       		.uleb128 0x28
 2390 11a2 01       		.uleb128 0x1
 2391 11a3 50       		.byte	0x50
 2392 11a4 02       		.uleb128 0x2
 2393 11a5 74       		.byte	0x74
 2394 11a6 00       		.sleb128 0
 2395 11a7 00       		.byte	0
 2396 11a8 00       		.byte	0
 2397 11a9 0F       		.uleb128 0xf
 2398 11aa 04       		.byte	0x4
 2399 11ab 1C090000 		.4byte	0x91c
 2400 11af 20       		.uleb128 0x20
 2401 11b0 BC020000 		.4byte	.LASF238
 2402 11b4 01       		.byte	0x1
 2403 11b5 A4       		.byte	0xa4
 2404 11b6 37000000 		.4byte	0x37
 2405 11ba 00000000 		.4byte	.LFB232
 2406 11be 04000000 		.4byte	.LFE232-.LFB232
 2407 11c2 01       		.uleb128 0x1
 2408 11c3 9C       		.byte	0x9c
 2409 11c4 E2110000 		.4byte	0x11e2
 2410 11c8 21       		.uleb128 0x21
 2411 11c9 7200     		.ascii	"r\000"
 2412 11cb 01       		.byte	0x1
 2413 11cc A4       		.byte	0xa4
 2414 11cd 6A040000 		.4byte	0x46a
 2415 11d1 62010000 		.4byte	.LLST11
 2416 11d5 23       		.uleb128 0x23
 2417 11d6 666400   		.ascii	"fd\000"
 2418 11d9 01       		.byte	0x1
 2419 11da A4       		.byte	0xa4
 2420 11db 37000000 		.4byte	0x37
 2421 11df 01       		.uleb128 0x1
 2422 11e0 51       		.byte	0x51
 2423 11e1 00       		.byte	0
 2424 11e2 29       		.uleb128 0x29
 2425 11e3 F5040000 		.4byte	.LASF239
 2426 11e7 11       		.byte	0x11
 2427 11e8 A706     		.2byte	0x6a7
 2428 11ea 310A0000 		.4byte	0xa31
 2429 11ee 2A       		.uleb128 0x2a
 2430 11ef 636800   		.ascii	"ch\000"
 2431 11f2 0C       		.byte	0xc
 2432 11f3 EB01     		.2byte	0x1eb
 2433 11f5 2A0D0000 		.4byte	0xd2a
 2434 11f9 2B       		.uleb128 0x2b
 2435 11fa F7020000 		.4byte	.LASF244
 2436 11fe 12       		.byte	0x12
 2437 11ff 62       		.byte	0x62
 2438 1200 5D010000 		.4byte	0x15d
 2439 1204 0E120000 		.4byte	0x120e
 2440 1208 14       		.uleb128 0x14
ARM GAS  /tmp/ccd0ipnR.s 			page 44


 2441 1209 25000000 		.4byte	0x25
 2442 120d 00       		.byte	0
 2443 120e 2C       		.uleb128 0x2c
 2444 120f 94020000 		.4byte	.LASF245
 2445 1213 5D010000 		.4byte	0x15d
 2446 1217 14       		.uleb128 0x14
 2447 1218 5D010000 		.4byte	0x15d
 2448 121c 14       		.uleb128 0x14
 2449 121d 37000000 		.4byte	0x37
 2450 1221 14       		.uleb128 0x14
 2451 1222 1F010000 		.4byte	0x11f
 2452 1226 00       		.byte	0
 2453 1227 00       		.byte	0
 2454              		.section	.debug_abbrev,"",%progbits
 2455              	.Ldebug_abbrev0:
 2456 0000 01       		.uleb128 0x1
 2457 0001 11       		.uleb128 0x11
 2458 0002 01       		.byte	0x1
 2459 0003 25       		.uleb128 0x25
 2460 0004 0E       		.uleb128 0xe
 2461 0005 13       		.uleb128 0x13
 2462 0006 0B       		.uleb128 0xb
 2463 0007 03       		.uleb128 0x3
 2464 0008 0E       		.uleb128 0xe
 2465 0009 1B       		.uleb128 0x1b
 2466 000a 0E       		.uleb128 0xe
 2467 000b 55       		.uleb128 0x55
 2468 000c 17       		.uleb128 0x17
 2469 000d 11       		.uleb128 0x11
 2470 000e 01       		.uleb128 0x1
 2471 000f 10       		.uleb128 0x10
 2472 0010 17       		.uleb128 0x17
 2473 0011 00       		.byte	0
 2474 0012 00       		.byte	0
 2475 0013 02       		.uleb128 0x2
 2476 0014 16       		.uleb128 0x16
 2477 0015 00       		.byte	0
 2478 0016 03       		.uleb128 0x3
 2479 0017 0E       		.uleb128 0xe
 2480 0018 3A       		.uleb128 0x3a
 2481 0019 0B       		.uleb128 0xb
 2482 001a 3B       		.uleb128 0x3b
 2483 001b 0B       		.uleb128 0xb
 2484 001c 49       		.uleb128 0x49
 2485 001d 13       		.uleb128 0x13
 2486 001e 00       		.byte	0
 2487 001f 00       		.byte	0
 2488 0020 03       		.uleb128 0x3
 2489 0021 24       		.uleb128 0x24
 2490 0022 00       		.byte	0
 2491 0023 0B       		.uleb128 0xb
 2492 0024 0B       		.uleb128 0xb
 2493 0025 3E       		.uleb128 0x3e
 2494 0026 0B       		.uleb128 0xb
 2495 0027 03       		.uleb128 0x3
 2496 0028 0E       		.uleb128 0xe
 2497 0029 00       		.byte	0
ARM GAS  /tmp/ccd0ipnR.s 			page 45


 2498 002a 00       		.byte	0
 2499 002b 04       		.uleb128 0x4
 2500 002c 24       		.uleb128 0x24
 2501 002d 00       		.byte	0
 2502 002e 0B       		.uleb128 0xb
 2503 002f 0B       		.uleb128 0xb
 2504 0030 3E       		.uleb128 0x3e
 2505 0031 0B       		.uleb128 0xb
 2506 0032 03       		.uleb128 0x3
 2507 0033 08       		.uleb128 0x8
 2508 0034 00       		.byte	0
 2509 0035 00       		.byte	0
 2510 0036 05       		.uleb128 0x5
 2511 0037 16       		.uleb128 0x16
 2512 0038 00       		.byte	0
 2513 0039 03       		.uleb128 0x3
 2514 003a 0E       		.uleb128 0xe
 2515 003b 3A       		.uleb128 0x3a
 2516 003c 0B       		.uleb128 0xb
 2517 003d 3B       		.uleb128 0x3b
 2518 003e 05       		.uleb128 0x5
 2519 003f 49       		.uleb128 0x49
 2520 0040 13       		.uleb128 0x13
 2521 0041 00       		.byte	0
 2522 0042 00       		.byte	0
 2523 0043 06       		.uleb128 0x6
 2524 0044 17       		.uleb128 0x17
 2525 0045 01       		.byte	0x1
 2526 0046 0B       		.uleb128 0xb
 2527 0047 0B       		.uleb128 0xb
 2528 0048 3A       		.uleb128 0x3a
 2529 0049 0B       		.uleb128 0xb
 2530 004a 3B       		.uleb128 0x3b
 2531 004b 0B       		.uleb128 0xb
 2532 004c 01       		.uleb128 0x1
 2533 004d 13       		.uleb128 0x13
 2534 004e 00       		.byte	0
 2535 004f 00       		.byte	0
 2536 0050 07       		.uleb128 0x7
 2537 0051 0D       		.uleb128 0xd
 2538 0052 00       		.byte	0
 2539 0053 03       		.uleb128 0x3
 2540 0054 0E       		.uleb128 0xe
 2541 0055 3A       		.uleb128 0x3a
 2542 0056 0B       		.uleb128 0xb
 2543 0057 3B       		.uleb128 0x3b
 2544 0058 0B       		.uleb128 0xb
 2545 0059 49       		.uleb128 0x49
 2546 005a 13       		.uleb128 0x13
 2547 005b 00       		.byte	0
 2548 005c 00       		.byte	0
 2549 005d 08       		.uleb128 0x8
 2550 005e 01       		.uleb128 0x1
 2551 005f 01       		.byte	0x1
 2552 0060 49       		.uleb128 0x49
 2553 0061 13       		.uleb128 0x13
 2554 0062 01       		.uleb128 0x1
ARM GAS  /tmp/ccd0ipnR.s 			page 46


 2555 0063 13       		.uleb128 0x13
 2556 0064 00       		.byte	0
 2557 0065 00       		.byte	0
 2558 0066 09       		.uleb128 0x9
 2559 0067 21       		.uleb128 0x21
 2560 0068 00       		.byte	0
 2561 0069 49       		.uleb128 0x49
 2562 006a 13       		.uleb128 0x13
 2563 006b 2F       		.uleb128 0x2f
 2564 006c 0B       		.uleb128 0xb
 2565 006d 00       		.byte	0
 2566 006e 00       		.byte	0
 2567 006f 0A       		.uleb128 0xa
 2568 0070 13       		.uleb128 0x13
 2569 0071 01       		.byte	0x1
 2570 0072 0B       		.uleb128 0xb
 2571 0073 0B       		.uleb128 0xb
 2572 0074 3A       		.uleb128 0x3a
 2573 0075 0B       		.uleb128 0xb
 2574 0076 3B       		.uleb128 0x3b
 2575 0077 0B       		.uleb128 0xb
 2576 0078 01       		.uleb128 0x1
 2577 0079 13       		.uleb128 0x13
 2578 007a 00       		.byte	0
 2579 007b 00       		.byte	0
 2580 007c 0B       		.uleb128 0xb
 2581 007d 0D       		.uleb128 0xd
 2582 007e 00       		.byte	0
 2583 007f 03       		.uleb128 0x3
 2584 0080 0E       		.uleb128 0xe
 2585 0081 3A       		.uleb128 0x3a
 2586 0082 0B       		.uleb128 0xb
 2587 0083 3B       		.uleb128 0x3b
 2588 0084 0B       		.uleb128 0xb
 2589 0085 49       		.uleb128 0x49
 2590 0086 13       		.uleb128 0x13
 2591 0087 38       		.uleb128 0x38
 2592 0088 0B       		.uleb128 0xb
 2593 0089 00       		.byte	0
 2594 008a 00       		.byte	0
 2595 008b 0C       		.uleb128 0xc
 2596 008c 0F       		.uleb128 0xf
 2597 008d 00       		.byte	0
 2598 008e 0B       		.uleb128 0xb
 2599 008f 0B       		.uleb128 0xb
 2600 0090 00       		.byte	0
 2601 0091 00       		.byte	0
 2602 0092 0D       		.uleb128 0xd
 2603 0093 13       		.uleb128 0x13
 2604 0094 01       		.byte	0x1
 2605 0095 03       		.uleb128 0x3
 2606 0096 0E       		.uleb128 0xe
 2607 0097 0B       		.uleb128 0xb
 2608 0098 0B       		.uleb128 0xb
 2609 0099 3A       		.uleb128 0x3a
 2610 009a 0B       		.uleb128 0xb
 2611 009b 3B       		.uleb128 0x3b
ARM GAS  /tmp/ccd0ipnR.s 			page 47


 2612 009c 0B       		.uleb128 0xb
 2613 009d 01       		.uleb128 0x1
 2614 009e 13       		.uleb128 0x13
 2615 009f 00       		.byte	0
 2616 00a0 00       		.byte	0
 2617 00a1 0E       		.uleb128 0xe
 2618 00a2 0D       		.uleb128 0xd
 2619 00a3 00       		.byte	0
 2620 00a4 03       		.uleb128 0x3
 2621 00a5 08       		.uleb128 0x8
 2622 00a6 3A       		.uleb128 0x3a
 2623 00a7 0B       		.uleb128 0xb
 2624 00a8 3B       		.uleb128 0x3b
 2625 00a9 0B       		.uleb128 0xb
 2626 00aa 49       		.uleb128 0x49
 2627 00ab 13       		.uleb128 0x13
 2628 00ac 38       		.uleb128 0x38
 2629 00ad 0B       		.uleb128 0xb
 2630 00ae 00       		.byte	0
 2631 00af 00       		.byte	0
 2632 00b0 0F       		.uleb128 0xf
 2633 00b1 0F       		.uleb128 0xf
 2634 00b2 00       		.byte	0
 2635 00b3 0B       		.uleb128 0xb
 2636 00b4 0B       		.uleb128 0xb
 2637 00b5 49       		.uleb128 0x49
 2638 00b6 13       		.uleb128 0x13
 2639 00b7 00       		.byte	0
 2640 00b8 00       		.byte	0
 2641 00b9 10       		.uleb128 0x10
 2642 00ba 13       		.uleb128 0x13
 2643 00bb 01       		.byte	0x1
 2644 00bc 03       		.uleb128 0x3
 2645 00bd 0E       		.uleb128 0xe
 2646 00be 0B       		.uleb128 0xb
 2647 00bf 05       		.uleb128 0x5
 2648 00c0 3A       		.uleb128 0x3a
 2649 00c1 0B       		.uleb128 0xb
 2650 00c2 3B       		.uleb128 0x3b
 2651 00c3 0B       		.uleb128 0xb
 2652 00c4 01       		.uleb128 0x1
 2653 00c5 13       		.uleb128 0x13
 2654 00c6 00       		.byte	0
 2655 00c7 00       		.byte	0
 2656 00c8 11       		.uleb128 0x11
 2657 00c9 0D       		.uleb128 0xd
 2658 00ca 00       		.byte	0
 2659 00cb 03       		.uleb128 0x3
 2660 00cc 0E       		.uleb128 0xe
 2661 00cd 3A       		.uleb128 0x3a
 2662 00ce 0B       		.uleb128 0xb
 2663 00cf 3B       		.uleb128 0x3b
 2664 00d0 0B       		.uleb128 0xb
 2665 00d1 49       		.uleb128 0x49
 2666 00d2 13       		.uleb128 0x13
 2667 00d3 38       		.uleb128 0x38
 2668 00d4 05       		.uleb128 0x5
ARM GAS  /tmp/ccd0ipnR.s 			page 48


 2669 00d5 00       		.byte	0
 2670 00d6 00       		.byte	0
 2671 00d7 12       		.uleb128 0x12
 2672 00d8 15       		.uleb128 0x15
 2673 00d9 00       		.byte	0
 2674 00da 27       		.uleb128 0x27
 2675 00db 19       		.uleb128 0x19
 2676 00dc 00       		.byte	0
 2677 00dd 00       		.byte	0
 2678 00de 13       		.uleb128 0x13
 2679 00df 15       		.uleb128 0x15
 2680 00e0 01       		.byte	0x1
 2681 00e1 27       		.uleb128 0x27
 2682 00e2 19       		.uleb128 0x19
 2683 00e3 49       		.uleb128 0x49
 2684 00e4 13       		.uleb128 0x13
 2685 00e5 01       		.uleb128 0x1
 2686 00e6 13       		.uleb128 0x13
 2687 00e7 00       		.byte	0
 2688 00e8 00       		.byte	0
 2689 00e9 14       		.uleb128 0x14
 2690 00ea 05       		.uleb128 0x5
 2691 00eb 00       		.byte	0
 2692 00ec 49       		.uleb128 0x49
 2693 00ed 13       		.uleb128 0x13
 2694 00ee 00       		.byte	0
 2695 00ef 00       		.byte	0
 2696 00f0 15       		.uleb128 0x15
 2697 00f1 13       		.uleb128 0x13
 2698 00f2 01       		.byte	0x1
 2699 00f3 03       		.uleb128 0x3
 2700 00f4 0E       		.uleb128 0xe
 2701 00f5 0B       		.uleb128 0xb
 2702 00f6 05       		.uleb128 0x5
 2703 00f7 3A       		.uleb128 0x3a
 2704 00f8 0B       		.uleb128 0xb
 2705 00f9 3B       		.uleb128 0x3b
 2706 00fa 05       		.uleb128 0x5
 2707 00fb 01       		.uleb128 0x1
 2708 00fc 13       		.uleb128 0x13
 2709 00fd 00       		.byte	0
 2710 00fe 00       		.byte	0
 2711 00ff 16       		.uleb128 0x16
 2712 0100 0D       		.uleb128 0xd
 2713 0101 00       		.byte	0
 2714 0102 03       		.uleb128 0x3
 2715 0103 0E       		.uleb128 0xe
 2716 0104 3A       		.uleb128 0x3a
 2717 0105 0B       		.uleb128 0xb
 2718 0106 3B       		.uleb128 0x3b
 2719 0107 05       		.uleb128 0x5
 2720 0108 49       		.uleb128 0x49
 2721 0109 13       		.uleb128 0x13
 2722 010a 38       		.uleb128 0x38
 2723 010b 0B       		.uleb128 0xb
 2724 010c 00       		.byte	0
 2725 010d 00       		.byte	0
ARM GAS  /tmp/ccd0ipnR.s 			page 49


 2726 010e 17       		.uleb128 0x17
 2727 010f 0D       		.uleb128 0xd
 2728 0110 00       		.byte	0
 2729 0111 03       		.uleb128 0x3
 2730 0112 0E       		.uleb128 0xe
 2731 0113 3A       		.uleb128 0x3a
 2732 0114 0B       		.uleb128 0xb
 2733 0115 3B       		.uleb128 0x3b
 2734 0116 05       		.uleb128 0x5
 2735 0117 49       		.uleb128 0x49
 2736 0118 13       		.uleb128 0x13
 2737 0119 38       		.uleb128 0x38
 2738 011a 05       		.uleb128 0x5
 2739 011b 00       		.byte	0
 2740 011c 00       		.byte	0
 2741 011d 18       		.uleb128 0x18
 2742 011e 26       		.uleb128 0x26
 2743 011f 00       		.byte	0
 2744 0120 49       		.uleb128 0x49
 2745 0121 13       		.uleb128 0x13
 2746 0122 00       		.byte	0
 2747 0123 00       		.byte	0
 2748 0124 19       		.uleb128 0x19
 2749 0125 13       		.uleb128 0x13
 2750 0126 01       		.byte	0x1
 2751 0127 03       		.uleb128 0x3
 2752 0128 0E       		.uleb128 0xe
 2753 0129 0B       		.uleb128 0xb
 2754 012a 0B       		.uleb128 0xb
 2755 012b 3A       		.uleb128 0x3a
 2756 012c 0B       		.uleb128 0xb
 2757 012d 3B       		.uleb128 0x3b
 2758 012e 05       		.uleb128 0x5
 2759 012f 01       		.uleb128 0x1
 2760 0130 13       		.uleb128 0x13
 2761 0131 00       		.byte	0
 2762 0132 00       		.byte	0
 2763 0133 1A       		.uleb128 0x1a
 2764 0134 13       		.uleb128 0x13
 2765 0135 01       		.byte	0x1
 2766 0136 0B       		.uleb128 0xb
 2767 0137 0B       		.uleb128 0xb
 2768 0138 3A       		.uleb128 0x3a
 2769 0139 0B       		.uleb128 0xb
 2770 013a 3B       		.uleb128 0x3b
 2771 013b 05       		.uleb128 0x5
 2772 013c 01       		.uleb128 0x1
 2773 013d 13       		.uleb128 0x13
 2774 013e 00       		.byte	0
 2775 013f 00       		.byte	0
 2776 0140 1B       		.uleb128 0x1b
 2777 0141 17       		.uleb128 0x17
 2778 0142 01       		.byte	0x1
 2779 0143 0B       		.uleb128 0xb
 2780 0144 0B       		.uleb128 0xb
 2781 0145 3A       		.uleb128 0x3a
 2782 0146 0B       		.uleb128 0xb
ARM GAS  /tmp/ccd0ipnR.s 			page 50


 2783 0147 3B       		.uleb128 0x3b
 2784 0148 05       		.uleb128 0x5
 2785 0149 01       		.uleb128 0x1
 2786 014a 13       		.uleb128 0x13
 2787 014b 00       		.byte	0
 2788 014c 00       		.byte	0
 2789 014d 1C       		.uleb128 0x1c
 2790 014e 0D       		.uleb128 0xd
 2791 014f 00       		.byte	0
 2792 0150 03       		.uleb128 0x3
 2793 0151 0E       		.uleb128 0xe
 2794 0152 3A       		.uleb128 0x3a
 2795 0153 0B       		.uleb128 0xb
 2796 0154 3B       		.uleb128 0x3b
 2797 0155 05       		.uleb128 0x5
 2798 0156 49       		.uleb128 0x49
 2799 0157 13       		.uleb128 0x13
 2800 0158 00       		.byte	0
 2801 0159 00       		.byte	0
 2802 015a 1D       		.uleb128 0x1d
 2803 015b 15       		.uleb128 0x15
 2804 015c 01       		.byte	0x1
 2805 015d 27       		.uleb128 0x27
 2806 015e 19       		.uleb128 0x19
 2807 015f 01       		.uleb128 0x1
 2808 0160 13       		.uleb128 0x13
 2809 0161 00       		.byte	0
 2810 0162 00       		.byte	0
 2811 0163 1E       		.uleb128 0x1e
 2812 0164 35       		.uleb128 0x35
 2813 0165 00       		.byte	0
 2814 0166 49       		.uleb128 0x49
 2815 0167 13       		.uleb128 0x13
 2816 0168 00       		.byte	0
 2817 0169 00       		.byte	0
 2818 016a 1F       		.uleb128 0x1f
 2819 016b 0D       		.uleb128 0xd
 2820 016c 00       		.byte	0
 2821 016d 03       		.uleb128 0x3
 2822 016e 08       		.uleb128 0x8
 2823 016f 3A       		.uleb128 0x3a
 2824 0170 0B       		.uleb128 0xb
 2825 0171 3B       		.uleb128 0x3b
 2826 0172 05       		.uleb128 0x5
 2827 0173 49       		.uleb128 0x49
 2828 0174 13       		.uleb128 0x13
 2829 0175 38       		.uleb128 0x38
 2830 0176 0B       		.uleb128 0xb
 2831 0177 00       		.byte	0
 2832 0178 00       		.byte	0
 2833 0179 20       		.uleb128 0x20
 2834 017a 2E       		.uleb128 0x2e
 2835 017b 01       		.byte	0x1
 2836 017c 3F       		.uleb128 0x3f
 2837 017d 19       		.uleb128 0x19
 2838 017e 03       		.uleb128 0x3
 2839 017f 0E       		.uleb128 0xe
ARM GAS  /tmp/ccd0ipnR.s 			page 51


 2840 0180 3A       		.uleb128 0x3a
 2841 0181 0B       		.uleb128 0xb
 2842 0182 3B       		.uleb128 0x3b
 2843 0183 0B       		.uleb128 0xb
 2844 0184 27       		.uleb128 0x27
 2845 0185 19       		.uleb128 0x19
 2846 0186 49       		.uleb128 0x49
 2847 0187 13       		.uleb128 0x13
 2848 0188 11       		.uleb128 0x11
 2849 0189 01       		.uleb128 0x1
 2850 018a 12       		.uleb128 0x12
 2851 018b 06       		.uleb128 0x6
 2852 018c 40       		.uleb128 0x40
 2853 018d 18       		.uleb128 0x18
 2854 018e 9742     		.uleb128 0x2117
 2855 0190 19       		.uleb128 0x19
 2856 0191 01       		.uleb128 0x1
 2857 0192 13       		.uleb128 0x13
 2858 0193 00       		.byte	0
 2859 0194 00       		.byte	0
 2860 0195 21       		.uleb128 0x21
 2861 0196 05       		.uleb128 0x5
 2862 0197 00       		.byte	0
 2863 0198 03       		.uleb128 0x3
 2864 0199 08       		.uleb128 0x8
 2865 019a 3A       		.uleb128 0x3a
 2866 019b 0B       		.uleb128 0xb
 2867 019c 3B       		.uleb128 0x3b
 2868 019d 0B       		.uleb128 0xb
 2869 019e 49       		.uleb128 0x49
 2870 019f 13       		.uleb128 0x13
 2871 01a0 02       		.uleb128 0x2
 2872 01a1 17       		.uleb128 0x17
 2873 01a2 00       		.byte	0
 2874 01a3 00       		.byte	0
 2875 01a4 22       		.uleb128 0x22
 2876 01a5 05       		.uleb128 0x5
 2877 01a6 00       		.byte	0
 2878 01a7 03       		.uleb128 0x3
 2879 01a8 0E       		.uleb128 0xe
 2880 01a9 3A       		.uleb128 0x3a
 2881 01aa 0B       		.uleb128 0xb
 2882 01ab 3B       		.uleb128 0x3b
 2883 01ac 0B       		.uleb128 0xb
 2884 01ad 49       		.uleb128 0x49
 2885 01ae 13       		.uleb128 0x13
 2886 01af 02       		.uleb128 0x2
 2887 01b0 18       		.uleb128 0x18
 2888 01b1 00       		.byte	0
 2889 01b2 00       		.byte	0
 2890 01b3 23       		.uleb128 0x23
 2891 01b4 05       		.uleb128 0x5
 2892 01b5 00       		.byte	0
 2893 01b6 03       		.uleb128 0x3
 2894 01b7 08       		.uleb128 0x8
 2895 01b8 3A       		.uleb128 0x3a
 2896 01b9 0B       		.uleb128 0xb
ARM GAS  /tmp/ccd0ipnR.s 			page 52


 2897 01ba 3B       		.uleb128 0x3b
 2898 01bb 0B       		.uleb128 0xb
 2899 01bc 49       		.uleb128 0x49
 2900 01bd 13       		.uleb128 0x13
 2901 01be 02       		.uleb128 0x2
 2902 01bf 18       		.uleb128 0x18
 2903 01c0 00       		.byte	0
 2904 01c1 00       		.byte	0
 2905 01c2 24       		.uleb128 0x24
 2906 01c3 05       		.uleb128 0x5
 2907 01c4 00       		.byte	0
 2908 01c5 03       		.uleb128 0x3
 2909 01c6 0E       		.uleb128 0xe
 2910 01c7 3A       		.uleb128 0x3a
 2911 01c8 0B       		.uleb128 0xb
 2912 01c9 3B       		.uleb128 0x3b
 2913 01ca 0B       		.uleb128 0xb
 2914 01cb 49       		.uleb128 0x49
 2915 01cc 13       		.uleb128 0x13
 2916 01cd 02       		.uleb128 0x2
 2917 01ce 17       		.uleb128 0x17
 2918 01cf 00       		.byte	0
 2919 01d0 00       		.byte	0
 2920 01d1 25       		.uleb128 0x25
 2921 01d2 34       		.uleb128 0x34
 2922 01d3 00       		.byte	0
 2923 01d4 03       		.uleb128 0x3
 2924 01d5 08       		.uleb128 0x8
 2925 01d6 3A       		.uleb128 0x3a
 2926 01d7 0B       		.uleb128 0xb
 2927 01d8 3B       		.uleb128 0x3b
 2928 01d9 0B       		.uleb128 0xb
 2929 01da 49       		.uleb128 0x49
 2930 01db 13       		.uleb128 0x13
 2931 01dc 02       		.uleb128 0x2
 2932 01dd 17       		.uleb128 0x17
 2933 01de 00       		.byte	0
 2934 01df 00       		.byte	0
 2935 01e0 26       		.uleb128 0x26
 2936 01e1 34       		.uleb128 0x34
 2937 01e2 00       		.byte	0
 2938 01e3 03       		.uleb128 0x3
 2939 01e4 0E       		.uleb128 0xe
 2940 01e5 49       		.uleb128 0x49
 2941 01e6 13       		.uleb128 0x13
 2942 01e7 34       		.uleb128 0x34
 2943 01e8 19       		.uleb128 0x19
 2944 01e9 00       		.byte	0
 2945 01ea 00       		.byte	0
 2946 01eb 27       		.uleb128 0x27
 2947 01ec 898201   		.uleb128 0x4109
 2948 01ef 01       		.byte	0x1
 2949 01f0 11       		.uleb128 0x11
 2950 01f1 01       		.uleb128 0x1
 2951 01f2 31       		.uleb128 0x31
 2952 01f3 13       		.uleb128 0x13
 2953 01f4 00       		.byte	0
ARM GAS  /tmp/ccd0ipnR.s 			page 53


 2954 01f5 00       		.byte	0
 2955 01f6 28       		.uleb128 0x28
 2956 01f7 8A8201   		.uleb128 0x410a
 2957 01fa 00       		.byte	0
 2958 01fb 02       		.uleb128 0x2
 2959 01fc 18       		.uleb128 0x18
 2960 01fd 9142     		.uleb128 0x2111
 2961 01ff 18       		.uleb128 0x18
 2962 0200 00       		.byte	0
 2963 0201 00       		.byte	0
 2964 0202 29       		.uleb128 0x29
 2965 0203 34       		.uleb128 0x34
 2966 0204 00       		.byte	0
 2967 0205 03       		.uleb128 0x3
 2968 0206 0E       		.uleb128 0xe
 2969 0207 3A       		.uleb128 0x3a
 2970 0208 0B       		.uleb128 0xb
 2971 0209 3B       		.uleb128 0x3b
 2972 020a 05       		.uleb128 0x5
 2973 020b 49       		.uleb128 0x49
 2974 020c 13       		.uleb128 0x13
 2975 020d 3F       		.uleb128 0x3f
 2976 020e 19       		.uleb128 0x19
 2977 020f 3C       		.uleb128 0x3c
 2978 0210 19       		.uleb128 0x19
 2979 0211 00       		.byte	0
 2980 0212 00       		.byte	0
 2981 0213 2A       		.uleb128 0x2a
 2982 0214 34       		.uleb128 0x34
 2983 0215 00       		.byte	0
 2984 0216 03       		.uleb128 0x3
 2985 0217 08       		.uleb128 0x8
 2986 0218 3A       		.uleb128 0x3a
 2987 0219 0B       		.uleb128 0xb
 2988 021a 3B       		.uleb128 0x3b
 2989 021b 05       		.uleb128 0x5
 2990 021c 49       		.uleb128 0x49
 2991 021d 13       		.uleb128 0x13
 2992 021e 3F       		.uleb128 0x3f
 2993 021f 19       		.uleb128 0x19
 2994 0220 3C       		.uleb128 0x3c
 2995 0221 19       		.uleb128 0x19
 2996 0222 00       		.byte	0
 2997 0223 00       		.byte	0
 2998 0224 2B       		.uleb128 0x2b
 2999 0225 2E       		.uleb128 0x2e
 3000 0226 01       		.byte	0x1
 3001 0227 3F       		.uleb128 0x3f
 3002 0228 19       		.uleb128 0x19
 3003 0229 03       		.uleb128 0x3
 3004 022a 0E       		.uleb128 0xe
 3005 022b 3A       		.uleb128 0x3a
 3006 022c 0B       		.uleb128 0xb
 3007 022d 3B       		.uleb128 0x3b
 3008 022e 0B       		.uleb128 0xb
 3009 022f 27       		.uleb128 0x27
 3010 0230 19       		.uleb128 0x19
ARM GAS  /tmp/ccd0ipnR.s 			page 54


 3011 0231 49       		.uleb128 0x49
 3012 0232 13       		.uleb128 0x13
 3013 0233 3C       		.uleb128 0x3c
 3014 0234 19       		.uleb128 0x19
 3015 0235 01       		.uleb128 0x1
 3016 0236 13       		.uleb128 0x13
 3017 0237 00       		.byte	0
 3018 0238 00       		.byte	0
 3019 0239 2C       		.uleb128 0x2c
 3020 023a 2E       		.uleb128 0x2e
 3021 023b 01       		.byte	0x1
 3022 023c 3F       		.uleb128 0x3f
 3023 023d 19       		.uleb128 0x19
 3024 023e 03       		.uleb128 0x3
 3025 023f 0E       		.uleb128 0xe
 3026 0240 27       		.uleb128 0x27
 3027 0241 19       		.uleb128 0x19
 3028 0242 49       		.uleb128 0x49
 3029 0243 13       		.uleb128 0x13
 3030 0244 34       		.uleb128 0x34
 3031 0245 19       		.uleb128 0x19
 3032 0246 3C       		.uleb128 0x3c
 3033 0247 19       		.uleb128 0x19
 3034 0248 00       		.byte	0
 3035 0249 00       		.byte	0
 3036 024a 00       		.byte	0
 3037              		.section	.debug_loc,"",%progbits
 3038              	.Ldebug_loc0:
 3039              	.LLST0:
 3040 0000 00000000 		.4byte	.LVL0
 3041 0004 08000000 		.4byte	.LVL2
 3042 0008 0100     		.2byte	0x1
 3043 000a 50       		.byte	0x50
 3044 000b 08000000 		.4byte	.LVL2
 3045 000f 0A000000 		.4byte	.LFE226
 3046 0013 0400     		.2byte	0x4
 3047 0015 F3       		.byte	0xf3
 3048 0016 01       		.uleb128 0x1
 3049 0017 50       		.byte	0x50
 3050 0018 9F       		.byte	0x9f
 3051 0019 00000000 		.4byte	0
 3052 001d 00000000 		.4byte	0
 3053              	.LLST1:
 3054 0021 00000000 		.4byte	.LVL0
 3055 0025 02000000 		.4byte	.LVL1
 3056 0029 0100     		.2byte	0x1
 3057 002b 53       		.byte	0x53
 3058 002c 02000000 		.4byte	.LVL1
 3059 0030 0A000000 		.4byte	.LFE226
 3060 0034 0400     		.2byte	0x4
 3061 0036 F3       		.byte	0xf3
 3062 0037 01       		.uleb128 0x1
 3063 0038 53       		.byte	0x53
 3064 0039 9F       		.byte	0x9f
 3065 003a 00000000 		.4byte	0
 3066 003e 00000000 		.4byte	0
 3067              	.LLST2:
ARM GAS  /tmp/ccd0ipnR.s 			page 55


 3068 0042 00000000 		.4byte	.LVL3
 3069 0046 02000000 		.4byte	.LVL4
 3070 004a 0100     		.2byte	0x1
 3071 004c 50       		.byte	0x50
 3072 004d 02000000 		.4byte	.LVL4
 3073 0051 04000000 		.4byte	.LFE227
 3074 0055 0400     		.2byte	0x4
 3075 0057 F3       		.byte	0xf3
 3076 0058 01       		.uleb128 0x1
 3077 0059 50       		.byte	0x50
 3078 005a 9F       		.byte	0x9f
 3079 005b 00000000 		.4byte	0
 3080 005f 00000000 		.4byte	0
 3081              	.LLST3:
 3082 0063 00000000 		.4byte	.LVL5
 3083 0067 02000000 		.4byte	.LVL6
 3084 006b 0100     		.2byte	0x1
 3085 006d 50       		.byte	0x50
 3086 006e 02000000 		.4byte	.LVL6
 3087 0072 04000000 		.4byte	.LFE228
 3088 0076 0400     		.2byte	0x4
 3089 0078 F3       		.byte	0xf3
 3090 0079 01       		.uleb128 0x1
 3091 007a 50       		.byte	0x50
 3092 007b 9F       		.byte	0x9f
 3093 007c 00000000 		.4byte	0
 3094 0080 00000000 		.4byte	0
 3095              	.LLST4:
 3096 0084 00000000 		.4byte	.LVL7
 3097 0088 02000000 		.4byte	.LVL8
 3098 008c 0100     		.2byte	0x1
 3099 008e 50       		.byte	0x50
 3100 008f 02000000 		.4byte	.LVL8
 3101 0093 04000000 		.4byte	.LFE229
 3102 0097 0400     		.2byte	0x4
 3103 0099 F3       		.byte	0xf3
 3104 009a 01       		.uleb128 0x1
 3105 009b 50       		.byte	0x50
 3106 009c 9F       		.byte	0x9f
 3107 009d 00000000 		.4byte	0
 3108 00a1 00000000 		.4byte	0
 3109              	.LLST5:
 3110 00a5 00000000 		.4byte	.LVL9
 3111 00a9 06000000 		.4byte	.LVL10
 3112 00ad 0100     		.2byte	0x1
 3113 00af 50       		.byte	0x50
 3114 00b0 06000000 		.4byte	.LVL10
 3115 00b4 18000000 		.4byte	.LFE230
 3116 00b8 0100     		.2byte	0x1
 3117 00ba 54       		.byte	0x54
 3118 00bb 00000000 		.4byte	0
 3119 00bf 00000000 		.4byte	0
 3120              	.LLST6:
 3121 00c3 00000000 		.4byte	.LVL9
 3122 00c7 09000000 		.4byte	.LVL11-1
 3123 00cb 0100     		.2byte	0x1
 3124 00cd 51       		.byte	0x51
ARM GAS  /tmp/ccd0ipnR.s 			page 56


 3125 00ce 09000000 		.4byte	.LVL11-1
 3126 00d2 18000000 		.4byte	.LFE230
 3127 00d6 0400     		.2byte	0x4
 3128 00d8 F3       		.byte	0xf3
 3129 00d9 01       		.uleb128 0x1
 3130 00da 51       		.byte	0x51
 3131 00db 9F       		.byte	0x9f
 3132 00dc 00000000 		.4byte	0
 3133 00e0 00000000 		.4byte	0
 3134              	.LLST7:
 3135 00e4 0A000000 		.4byte	.LVL11
 3136 00e8 16000000 		.4byte	.LVL13
 3137 00ec 0100     		.2byte	0x1
 3138 00ee 50       		.byte	0x50
 3139 00ef 00000000 		.4byte	0
 3140 00f3 00000000 		.4byte	0
 3141              	.LLST8:
 3142 00f7 00000000 		.4byte	.LVL14
 3143 00fb 04000000 		.4byte	.LVL15
 3144 00ff 0100     		.2byte	0x1
 3145 0101 50       		.byte	0x50
 3146 0102 04000000 		.4byte	.LVL15
 3147 0106 18000000 		.4byte	.LFE231
 3148 010a 0400     		.2byte	0x4
 3149 010c F3       		.byte	0xf3
 3150 010d 01       		.uleb128 0x1
 3151 010e 50       		.byte	0x50
 3152 010f 9F       		.byte	0x9f
 3153 0110 00000000 		.4byte	0
 3154 0114 00000000 		.4byte	0
 3155              	.LLST9:
 3156 0118 00000000 		.4byte	.LVL14
 3157 011c 08000000 		.4byte	.LVL16
 3158 0120 0100     		.2byte	0x1
 3159 0122 51       		.byte	0x51
 3160 0123 08000000 		.4byte	.LVL16
 3161 0127 18000000 		.4byte	.LFE231
 3162 012b 0400     		.2byte	0x4
 3163 012d F3       		.byte	0xf3
 3164 012e 01       		.uleb128 0x1
 3165 012f 51       		.byte	0x51
 3166 0130 9F       		.byte	0x9f
 3167 0131 00000000 		.4byte	0
 3168 0135 00000000 		.4byte	0
 3169              	.LLST10:
 3170 0139 00000000 		.4byte	.LVL14
 3171 013d 0A000000 		.4byte	.LVL17
 3172 0141 0100     		.2byte	0x1
 3173 0143 52       		.byte	0x52
 3174 0144 0A000000 		.4byte	.LVL17
 3175 0148 0D000000 		.4byte	.LVL18-1
 3176 014c 0100     		.2byte	0x1
 3177 014e 50       		.byte	0x50
 3178 014f 0D000000 		.4byte	.LVL18-1
 3179 0153 18000000 		.4byte	.LFE231
 3180 0157 0100     		.2byte	0x1
 3181 0159 54       		.byte	0x54
ARM GAS  /tmp/ccd0ipnR.s 			page 57


 3182 015a 00000000 		.4byte	0
 3183 015e 00000000 		.4byte	0
 3184              	.LLST11:
 3185 0162 00000000 		.4byte	.LVL19
 3186 0166 02000000 		.4byte	.LVL20
 3187 016a 0100     		.2byte	0x1
 3188 016c 50       		.byte	0x50
 3189 016d 02000000 		.4byte	.LVL20
 3190 0171 04000000 		.4byte	.LFE232
 3191 0175 0400     		.2byte	0x4
 3192 0177 F3       		.byte	0xf3
 3193 0178 01       		.uleb128 0x1
 3194 0179 50       		.byte	0x50
 3195 017a 9F       		.byte	0x9f
 3196 017b 00000000 		.4byte	0
 3197 017f 00000000 		.4byte	0
 3198              		.section	.debug_aranges,"",%progbits
 3199 0000 4C000000 		.4byte	0x4c
 3200 0004 0200     		.2byte	0x2
 3201 0006 00000000 		.4byte	.Ldebug_info0
 3202 000a 04       		.byte	0x4
 3203 000b 00       		.byte	0
 3204 000c 0000     		.2byte	0
 3205 000e 0000     		.2byte	0
 3206 0010 00000000 		.4byte	.LFB226
 3207 0014 0A000000 		.4byte	.LFE226-.LFB226
 3208 0018 00000000 		.4byte	.LFB227
 3209 001c 04000000 		.4byte	.LFE227-.LFB227
 3210 0020 00000000 		.4byte	.LFB228
 3211 0024 04000000 		.4byte	.LFE228-.LFB228
 3212 0028 00000000 		.4byte	.LFB229
 3213 002c 04000000 		.4byte	.LFE229-.LFB229
 3214 0030 00000000 		.4byte	.LFB230
 3215 0034 18000000 		.4byte	.LFE230-.LFB230
 3216 0038 00000000 		.4byte	.LFB231
 3217 003c 18000000 		.4byte	.LFE231-.LFB231
 3218 0040 00000000 		.4byte	.LFB232
 3219 0044 04000000 		.4byte	.LFE232-.LFB232
 3220 0048 00000000 		.4byte	0
 3221 004c 00000000 		.4byte	0
 3222              		.section	.debug_ranges,"",%progbits
 3223              	.Ldebug_ranges0:
 3224 0000 00000000 		.4byte	.LFB226
 3225 0004 0A000000 		.4byte	.LFE226
 3226 0008 00000000 		.4byte	.LFB227
 3227 000c 04000000 		.4byte	.LFE227
 3228 0010 00000000 		.4byte	.LFB228
 3229 0014 04000000 		.4byte	.LFE228
 3230 0018 00000000 		.4byte	.LFB229
 3231 001c 04000000 		.4byte	.LFE229
 3232 0020 00000000 		.4byte	.LFB230
 3233 0024 18000000 		.4byte	.LFE230
 3234 0028 00000000 		.4byte	.LFB231
 3235 002c 18000000 		.4byte	.LFE231
 3236 0030 00000000 		.4byte	.LFB232
 3237 0034 04000000 		.4byte	.LFE232
 3238 0038 00000000 		.4byte	0
ARM GAS  /tmp/ccd0ipnR.s 			page 58


 3239 003c 00000000 		.4byte	0
 3240              		.section	.debug_line,"",%progbits
 3241              	.Ldebug_line0:
 3242 0000 29030000 		.section	.debug_str,"MS",%progbits,1
 3242      02009902 
 3242      00000201 
 3242      FB0E0D00 
 3242      01010101 
 3243              	.LASF2:
 3244 0000 73697A65 		.ascii	"size_t\000"
 3244      5F7400
 3245              	.LASF23:
 3246 0007 73697A65 		.ascii	"sizetype\000"
 3246      74797065 
 3246      00
 3247              	.LASF25:
 3248 0010 5F5F7661 		.ascii	"__value\000"
 3248      6C756500 
 3249              	.LASF163:
 3250 0018 73797374 		.ascii	"systime_t\000"
 3250      696D655F 
 3250      7400
 3251              	.LASF93:
 3252 0022 5F5F7366 		.ascii	"__sf\000"
 3252      00
 3253              	.LASF169:
 3254 0027 705F6374 		.ascii	"p_ctx\000"
 3254      7800
 3255              	.LASF60:
 3256 002d 5F726561 		.ascii	"_read\000"
 3256      6400
 3257              	.LASF160:
 3258 0033 74707269 		.ascii	"tprio_t\000"
 3258      6F5F7400 
 3259              	.LASF150:
 3260 003b 73745F62 		.ascii	"st_blocks\000"
 3260      6C6F636B 
 3260      7300
 3261              	.LASF177:
 3262 0045 705F6D73 		.ascii	"p_msgqueue\000"
 3262      67717565 
 3262      756500
 3263              	.LASF61:
 3264 0050 5F777269 		.ascii	"_write\000"
 3264      746500
 3265              	.LASF191:
 3266 0057 725F6374 		.ascii	"r_ctx\000"
 3266      7800
 3267              	.LASF153:
 3268 005d 696E7433 		.ascii	"int32_t\000"
 3268      325F7400 
 3269              	.LASF105:
 3270 0065 5F617363 		.ascii	"_asctime_buf\000"
 3270      74696D65 
 3270      5F627566 
 3270      00
 3271              	.LASF87:
ARM GAS  /tmp/ccd0ipnR.s 			page 59


 3272 0072 5F637674 		.ascii	"_cvtlen\000"
 3272      6C656E00 
 3273              	.LASF195:
 3274 007a 76746675 		.ascii	"vtfunc_t\000"
 3274      6E635F74 
 3274      00
 3275              	.LASF243:
 3276 0083 5F5F6675 		.ascii	"__func__\000"
 3276      6E635F5F 
 3276      00
 3277              	.LASF204:
 3278 008c 63685F76 		.ascii	"ch_virtual_timers_list\000"
 3278      69727475 
 3278      616C5F74 
 3278      696D6572 
 3278      735F6C69 
 3279              	.LASF129:
 3280 00a3 6465765F 		.ascii	"dev_t\000"
 3280      7400
 3281              	.LASF133:
 3282 00a9 6E6C696E 		.ascii	"nlink_t\000"
 3282      6B5F7400 
 3283              	.LASF18:
 3284 00b1 5F5F6769 		.ascii	"__gid_t\000"
 3284      645F7400 
 3285              	.LASF124:
 3286 00b9 5F756E75 		.ascii	"_unused\000"
 3286      73656400 
 3287              	.LASF34:
 3288 00c1 5F5F746D 		.ascii	"__tm\000"
 3288      00
 3289              	.LASF120:
 3290 00c6 5F776373 		.ascii	"_wcsrtombs_state\000"
 3290      72746F6D 
 3290      62735F73 
 3290      74617465 
 3290      00
 3291              	.LASF65:
 3292 00d7 5F6E6275 		.ascii	"_nbuf\000"
 3292      6600
 3293              	.LASF35:
 3294 00dd 5F5F746D 		.ascii	"__tm_sec\000"
 3294      5F736563 
 3294      00
 3295              	.LASF113:
 3296 00e6 5F6C3634 		.ascii	"_l64a_buf\000"
 3296      615F6275 
 3296      6600
 3297              	.LASF125:
 3298 00f0 74696D65 		.ascii	"time_t\000"
 3298      5F7400
 3299              	.LASF69:
 3300 00f7 5F6C6F63 		.ascii	"_lock\000"
 3300      6B00
 3301              	.LASF101:
 3302 00fd 5F6D756C 		.ascii	"_mult\000"
 3302      7400
ARM GAS  /tmp/ccd0ipnR.s 			page 60


 3303              	.LASF227:
 3304 0103 6D5F6F77 		.ascii	"m_owner\000"
 3304      6E657200 
 3305              	.LASF202:
 3306 010b 76745F70 		.ascii	"vt_par\000"
 3306      617200
 3307              	.LASF174:
 3308 0112 705F666C 		.ascii	"p_flags\000"
 3308      61677300 
 3309              	.LASF21:
 3310 011a 5F5F7763 		.ascii	"__wch\000"
 3310      6800
 3311              	.LASF222:
 3312 0120 65786974 		.ascii	"exitcode\000"
 3312      636F6465 
 3312      00
 3313              	.LASF3:
 3314 0129 5F5F7569 		.ascii	"__uint8_t\000"
 3314      6E74385F 
 3314      7400
 3315              	.LASF16:
 3316 0133 5F5F6465 		.ascii	"__dev_t\000"
 3316      765F7400 
 3317              	.LASF130:
 3318 013b 7569645F 		.ascii	"uid_t\000"
 3318      7400
 3319              	.LASF57:
 3320 0141 5F66696C 		.ascii	"_file\000"
 3320      6500
 3321              	.LASF44:
 3322 0147 5F6F6E5F 		.ascii	"_on_exit_args\000"
 3322      65786974 
 3322      5F617267 
 3322      7300
 3323              	.LASF170:
 3324 0155 705F6E65 		.ascii	"p_newer\000"
 3324      77657200 
 3325              	.LASF116:
 3326 015d 5F6D6272 		.ascii	"_mbrlen_state\000"
 3326      6C656E5F 
 3326      73746174 
 3326      6500
 3327              	.LASF8:
 3328 016b 6C6F6E67 		.ascii	"long int\000"
 3328      20696E74 
 3328      00
 3329              	.LASF166:
 3330 0174 705F6E65 		.ascii	"p_next\000"
 3330      787400
 3331              	.LASF84:
 3332 017b 5F726573 		.ascii	"_result_k\000"
 3332      756C745F 
 3332      6B00
 3333              	.LASF54:
 3334 0185 5F73697A 		.ascii	"_size\000"
 3334      6500
 3335              	.LASF167:
ARM GAS  /tmp/ccd0ipnR.s 			page 61


 3336 018b 705F7072 		.ascii	"p_prev\000"
 3336      657600
 3337              	.LASF106:
 3338 0192 5F6C6F63 		.ascii	"_localtime_buf\000"
 3338      616C7469 
 3338      6D655F62 
 3338      756600
 3339              	.LASF158:
 3340 01a1 74737461 		.ascii	"tstate_t\000"
 3340      74655F74 
 3340      00
 3341              	.LASF185:
 3342 01aa 74687265 		.ascii	"threads_queue_t\000"
 3342      6164735F 
 3342      71756575 
 3342      655F7400 
 3343              	.LASF180:
 3344 01ba 705F6D74 		.ascii	"p_mtxlist\000"
 3344      786C6973 
 3344      7400
 3345              	.LASF215:
 3346 01c4 72656761 		.ascii	"regarm_t\000"
 3346      726D5F74 
 3346      00
 3347              	.LASF39:
 3348 01cd 5F5F746D 		.ascii	"__tm_mon\000"
 3348      5F6D6F6E 
 3348      00
 3349              	.LASF79:
 3350 01d6 5F637572 		.ascii	"_current_category\000"
 3350      72656E74 
 3350      5F636174 
 3350      65676F72 
 3350      7900
 3351              	.LASF103:
 3352 01e8 5F756E75 		.ascii	"_unused_rand\000"
 3352      7365645F 
 3352      72616E64 
 3352      00
 3353              	.LASF1:
 3354 01f5 7369676E 		.ascii	"signed char\000"
 3354      65642063 
 3354      68617200 
 3355              	.LASF224:
 3356 0201 65776D61 		.ascii	"ewmask\000"
 3356      736B00
 3357              	.LASF152:
 3358 0208 75696E74 		.ascii	"uint8_t\000"
 3358      385F7400 
 3359              	.LASF144:
 3360 0210 73745F73 		.ascii	"st_spare1\000"
 3360      70617265 
 3360      3100
 3361              	.LASF139:
 3362 021a 73745F75 		.ascii	"st_uid\000"
 3362      696400
 3363              	.LASF148:
ARM GAS  /tmp/ccd0ipnR.s 			page 62


 3364 0221 73745F73 		.ascii	"st_spare3\000"
 3364      70617265 
 3364      3300
 3365              	.LASF151:
 3366 022b 73745F73 		.ascii	"st_spare4\000"
 3366      70617265 
 3366      3400
 3367              	.LASF162:
 3368 0235 6576656E 		.ascii	"eventmask_t\000"
 3368      746D6173 
 3368      6B5F7400 
 3369              	.LASF217:
 3370 0241 636F6E74 		.ascii	"context\000"
 3370      65787400 
 3371              	.LASF4:
 3372 0249 756E7369 		.ascii	"unsigned char\000"
 3372      676E6564 
 3372      20636861 
 3372      7200
 3373              	.LASF141:
 3374 0257 73745F72 		.ascii	"st_rdev\000"
 3374      64657600 
 3375              	.LASF208:
 3376 025f 70616E69 		.ascii	"panic_msg\000"
 3376      635F6D73 
 3376      6700
 3377              	.LASF235:
 3378 0269 5F736272 		.ascii	"_sbrk_r\000"
 3378      6B5F7200 
 3379              	.LASF72:
 3380 0271 5F726565 		.ascii	"_reent\000"
 3380      6E7400
 3381              	.LASF192:
 3382 0278 725F6E65 		.ascii	"r_newer\000"
 3382      77657200 
 3383              	.LASF206:
 3384 0280 73797374 		.ascii	"system_debug_t\000"
 3384      656D5F64 
 3384      65627567 
 3384      5F7400
 3385              	.LASF94:
 3386 028f 63686172 		.ascii	"char\000"
 3386      00
 3387              	.LASF245:
 3388 0294 6D656D73 		.ascii	"memset\000"
 3388      657400
 3389              	.LASF51:
 3390 029b 5F666E73 		.ascii	"_fns\000"
 3390      00
 3391              	.LASF63:
 3392 02a0 5F636C6F 		.ascii	"_close\000"
 3392      736500
 3393              	.LASF168:
 3394 02a7 705F7072 		.ascii	"p_prio\000"
 3394      696F00
 3395              	.LASF223:
 3396 02ae 77746F62 		.ascii	"wtobjp\000"
ARM GAS  /tmp/ccd0ipnR.s 			page 63


 3396      6A7000
 3397              	.LASF74:
 3398 02b5 5F737464 		.ascii	"_stdin\000"
 3398      696E00
 3399              	.LASF238:
 3400 02bc 5F697361 		.ascii	"_isatty_r\000"
 3400      7474795F 
 3400      7200
 3401              	.LASF216:
 3402 02c6 73746B61 		.ascii	"stkalign_t\000"
 3402      6C69676E 
 3402      5F7400
 3403              	.LASF159:
 3404 02d1 74726566 		.ascii	"trefs_t\000"
 3404      735F7400 
 3405              	.LASF147:
 3406 02d9 73745F63 		.ascii	"st_ctime\000"
 3406      74696D65 
 3406      00
 3407              	.LASF230:
 3408 02e2 66696C65 		.ascii	"file\000"
 3408      00
 3409              	.LASF201:
 3410 02e7 76745F66 		.ascii	"vt_func\000"
 3410      756E6300 
 3411              	.LASF59:
 3412 02ef 5F636F6F 		.ascii	"_cookie\000"
 3412      6B696500 
 3413              	.LASF244:
 3414 02f7 6368436F 		.ascii	"chCoreAlloc\000"
 3414      7265416C 
 3414      6C6F6300 
 3415              	.LASF179:
 3416 0303 705F6570 		.ascii	"p_epending\000"
 3416      656E6469 
 3416      6E6700
 3417              	.LASF32:
 3418 030e 5F776473 		.ascii	"_wds\000"
 3418      00
 3419              	.LASF188:
 3420 0313 63685F72 		.ascii	"ch_ready_list\000"
 3420      65616479 
 3420      5F6C6973 
 3420      7400
 3421              	.LASF91:
 3422 0321 5F736967 		.ascii	"_sig_func\000"
 3422      5F66756E 
 3422      6300
 3423              	.LASF67:
 3424 032b 5F6F6666 		.ascii	"_offset\000"
 3424      73657400 
 3425              	.LASF88:
 3426 0333 5F637674 		.ascii	"_cvtbuf\000"
 3426      62756600 
 3427              	.LASF140:
 3428 033b 73745F67 		.ascii	"st_gid\000"
 3428      696400
ARM GAS  /tmp/ccd0ipnR.s 			page 64


 3429              	.LASF12:
 3430 0342 5F5F7569 		.ascii	"__uint64_t\000"
 3430      6E743634 
 3430      5F7400
 3431              	.LASF127:
 3432 034d 696E6F5F 		.ascii	"ino_t\000"
 3432      7400
 3433              	.LASF241:
 3434 0353 2E2E2F43 		.ascii	"../ChibiOS/os/various/syscalls.c\000"
 3434      68696269 
 3434      4F532F6F 
 3434      732F7661 
 3434      72696F75 
 3435              	.LASF85:
 3436 0374 5F703573 		.ascii	"_p5s\000"
 3436      00
 3437              	.LASF10:
 3438 0379 6C6F6E67 		.ascii	"long unsigned int\000"
 3438      20756E73 
 3438      69676E65 
 3438      6420696E 
 3438      7400
 3439              	.LASF55:
 3440 038b 5F5F7346 		.ascii	"__sFILE\000"
 3440      494C4500 
 3441              	.LASF81:
 3442 0393 5F5F7364 		.ascii	"__sdidinit\000"
 3442      6964696E 
 3442      697400
 3443              	.LASF71:
 3444 039e 5F666C61 		.ascii	"_flags2\000"
 3444      67733200 
 3445              	.LASF142:
 3446 03a6 73745F73 		.ascii	"st_size\000"
 3446      697A6500 
 3447              	.LASF165:
 3448 03ae 63685F74 		.ascii	"ch_thread\000"
 3448      68726561 
 3448      6400
 3449              	.LASF203:
 3450 03b8 76697274 		.ascii	"virtual_timers_list_t\000"
 3450      75616C5F 
 3450      74696D65 
 3450      72735F6C 
 3450      6973745F 
 3451              	.LASF14:
 3452 03ce 5F4C4F43 		.ascii	"_LOCK_RECURSIVE_T\000"
 3452      4B5F5245 
 3452      43555253 
 3452      4956455F 
 3452      5400
 3453              	.LASF73:
 3454 03e0 5F657272 		.ascii	"_errno\000"
 3454      6E6F00
 3455              	.LASF196:
 3456 03e7 76697274 		.ascii	"virtual_timer_t\000"
 3456      75616C5F 
ARM GAS  /tmp/ccd0ipnR.s 			page 65


 3456      74696D65 
 3456      725F7400 
 3457              	.LASF187:
 3458 03f7 72656164 		.ascii	"ready_list_t\000"
 3458      795F6C69 
 3458      73745F74 
 3458      00
 3459              	.LASF146:
 3460 0404 73745F73 		.ascii	"st_spare2\000"
 3460      70617265 
 3460      3200
 3461              	.LASF114:
 3462 040e 5F736967 		.ascii	"_signal_buf\000"
 3462      6E616C5F 
 3462      62756600 
 3463              	.LASF234:
 3464 041a 5F636C6F 		.ascii	"_close_r\000"
 3464      73655F72 
 3464      00
 3465              	.LASF33:
 3466 0423 5F426967 		.ascii	"_Bigint\000"
 3466      696E7400 
 3467              	.LASF184:
 3468 042b 63685F74 		.ascii	"ch_threads_list\000"
 3468      68726561 
 3468      64735F6C 
 3468      69737400 
 3469              	.LASF30:
 3470 043b 5F6D6178 		.ascii	"_maxwds\000"
 3470      77647300 
 3471              	.LASF82:
 3472 0443 5F5F636C 		.ascii	"__cleanup\000"
 3472      65616E75 
 3472      7000
 3473              	.LASF90:
 3474 044d 5F617465 		.ascii	"_atexit0\000"
 3474      78697430 
 3474      00
 3475              	.LASF134:
 3476 0456 73746174 		.ascii	"stat\000"
 3476      00
 3477              	.LASF149:
 3478 045b 73745F62 		.ascii	"st_blksize\000"
 3478      6C6B7369 
 3478      7A6500
 3479              	.LASF9:
 3480 0466 5F5F7569 		.ascii	"__uint32_t\000"
 3480      6E743332 
 3480      5F7400
 3481              	.LASF78:
 3482 0471 5F656D65 		.ascii	"_emergency\000"
 3482      7267656E 
 3482      637900
 3483              	.LASF11:
 3484 047c 6C6F6E67 		.ascii	"long long int\000"
 3484      206C6F6E 
 3484      6720696E 
ARM GAS  /tmp/ccd0ipnR.s 			page 66


 3484      7400
 3485              	.LASF226:
 3486 048a 6D5F7175 		.ascii	"m_queue\000"
 3486      65756500 
 3487              	.LASF97:
 3488 0492 5F6E696F 		.ascii	"_niobs\000"
 3488      627300
 3489              	.LASF198:
 3490 0499 76745F6E 		.ascii	"vt_next\000"
 3490      65787400 
 3491              	.LASF92:
 3492 04a1 5F5F7367 		.ascii	"__sglue\000"
 3492      6C756500 
 3493              	.LASF123:
 3494 04a9 5F6E6D61 		.ascii	"_nmalloc\000"
 3494      6C6C6F63 
 3494      00
 3495              	.LASF199:
 3496 04b2 76745F70 		.ascii	"vt_prev\000"
 3496      72657600 
 3497              	.LASF107:
 3498 04ba 5F67616D 		.ascii	"_gamma_signgam\000"
 3498      6D615F73 
 3498      69676E67 
 3498      616D00
 3499              	.LASF80:
 3500 04c9 5F637572 		.ascii	"_current_locale\000"
 3500      72656E74 
 3500      5F6C6F63 
 3500      616C6500 
 3501              	.LASF86:
 3502 04d9 5F667265 		.ascii	"_freelist\000"
 3502      656C6973 
 3502      7400
 3503              	.LASF98:
 3504 04e3 5F696F62 		.ascii	"_iobs\000"
 3504      7300
 3505              	.LASF225:
 3506 04e9 6D757465 		.ascii	"mutex\000"
 3506      7800
 3507              	.LASF96:
 3508 04ef 5F676C75 		.ascii	"_glue\000"
 3508      6500
 3509              	.LASF239:
 3510 04f5 49544D5F 		.ascii	"ITM_RxBuffer\000"
 3510      52784275 
 3510      66666572 
 3510      00
 3511              	.LASF31:
 3512 0502 5F736967 		.ascii	"_sign\000"
 3512      6E00
 3513              	.LASF176:
 3514 0508 705F7761 		.ascii	"p_waiting\000"
 3514      6974696E 
 3514      6700
 3515              	.LASF214:
 3516 0512 69646C65 		.ascii	"idle_thread_wa\000"
ARM GAS  /tmp/ccd0ipnR.s 			page 67


 3516      5F746872 
 3516      6561645F 
 3516      776100
 3517              	.LASF0:
 3518 0521 756E7369 		.ascii	"unsigned int\000"
 3518      676E6564 
 3518      20696E74 
 3518      00
 3519              	.LASF233:
 3520 052e 5F777269 		.ascii	"_write_r\000"
 3520      74655F72 
 3520      00
 3521              	.LASF126:
 3522 0537 63616464 		.ascii	"caddr_t\000"
 3522      725F7400 
 3523              	.LASF156:
 3524 053f 7274636E 		.ascii	"rtcnt_t\000"
 3524      745F7400 
 3525              	.LASF182:
 3526 0547 705F6D70 		.ascii	"p_mpool\000"
 3526      6F6F6C00 
 3527              	.LASF121:
 3528 054f 5F685F65 		.ascii	"_h_errno\000"
 3528      72726E6F 
 3528      00
 3529              	.LASF236:
 3530 0558 696E6372 		.ascii	"incr\000"
 3530      00
 3531              	.LASF175:
 3532 055d 705F7265 		.ascii	"p_refs\000"
 3532      667300
 3533              	.LASF119:
 3534 0564 5F776372 		.ascii	"_wcrtomb_state\000"
 3534      746F6D62 
 3534      5F737461 
 3534      746500
 3535              	.LASF38:
 3536 0573 5F5F746D 		.ascii	"__tm_mday\000"
 3536      5F6D6461 
 3536      7900
 3537              	.LASF89:
 3538 057d 5F6E6577 		.ascii	"_new\000"
 3538      00
 3539              	.LASF64:
 3540 0582 5F756275 		.ascii	"_ubuf\000"
 3540      6600
 3541              	.LASF76:
 3542 0588 5F737464 		.ascii	"_stderr\000"
 3542      65727200 
 3543              	.LASF112:
 3544 0590 5F776374 		.ascii	"_wctomb_state\000"
 3544      6F6D625F 
 3544      73746174 
 3544      6500
 3545              	.LASF70:
 3546 059e 5F6D6273 		.ascii	"_mbstate\000"
 3546      74617465 
ARM GAS  /tmp/ccd0ipnR.s 			page 68


 3546      00
 3547              	.LASF108:
 3548 05a7 5F72616E 		.ascii	"_rand_next\000"
 3548      645F6E65 
 3548      787400
 3549              	.LASF56:
 3550 05b2 5F666C61 		.ascii	"_flags\000"
 3550      677300
 3551              	.LASF219:
 3552 05b9 6F666673 		.ascii	"offset\000"
 3552      657400
 3553              	.LASF49:
 3554 05c0 5F617465 		.ascii	"_atexit\000"
 3554      78697400 
 3555              	.LASF24:
 3556 05c8 5F5F636F 		.ascii	"__count\000"
 3556      756E7400 
 3557              	.LASF138:
 3558 05d0 73745F6E 		.ascii	"st_nlink\000"
 3558      6C696E6B 
 3558      00
 3559              	.LASF128:
 3560 05d9 6F66665F 		.ascii	"off_t\000"
 3560      7400
 3561              	.LASF132:
 3562 05df 6D6F6465 		.ascii	"mode_t\000"
 3562      5F7400
 3563              	.LASF41:
 3564 05e6 5F5F746D 		.ascii	"__tm_wday\000"
 3564      5F776461 
 3564      7900
 3565              	.LASF164:
 3566 05f0 74687265 		.ascii	"thread_t\000"
 3566      61645F74 
 3566      00
 3567              	.LASF143:
 3568 05f9 73745F61 		.ascii	"st_atime\000"
 3568      74696D65 
 3568      00
 3569              	.LASF42:
 3570 0602 5F5F746D 		.ascii	"__tm_yday\000"
 3570      5F796461 
 3570      7900
 3571              	.LASF181:
 3572 060c 705F7265 		.ascii	"p_realprio\000"
 3572      616C7072 
 3572      696F00
 3573              	.LASF218:
 3574 0617 706F7274 		.ascii	"port_intctx\000"
 3574      5F696E74 
 3574      63747800 
 3575              	.LASF100:
 3576 0623 5F736565 		.ascii	"_seed\000"
 3576      6400
 3577              	.LASF62:
 3578 0629 5F736565 		.ascii	"_seek\000"
 3578      6B00
ARM GAS  /tmp/ccd0ipnR.s 			page 69


 3579              	.LASF135:
 3580 062f 73745F64 		.ascii	"st_dev\000"
 3580      657600
 3581              	.LASF200:
 3582 0636 76745F64 		.ascii	"vt_delta\000"
 3582      656C7461 
 3582      00
 3583              	.LASF19:
 3584 063f 5F66706F 		.ascii	"_fpos_t\000"
 3584      735F7400 
 3585              	.LASF22:
 3586 0647 5F5F7763 		.ascii	"__wchb\000"
 3586      686200
 3587              	.LASF197:
 3588 064e 63685F76 		.ascii	"ch_virtual_timer\000"
 3588      69727475 
 3588      616C5F74 
 3588      696D6572 
 3588      00
 3589              	.LASF111:
 3590 065f 5F6D6274 		.ascii	"_mbtowc_state\000"
 3590      6F77635F 
 3590      73746174 
 3590      6500
 3591              	.LASF13:
 3592 066d 6C6F6E67 		.ascii	"long long unsigned int\000"
 3592      206C6F6E 
 3592      6720756E 
 3592      7369676E 
 3592      65642069 
 3593              	.LASF171:
 3594 0684 705F6F6C 		.ascii	"p_older\000"
 3594      64657200 
 3595              	.LASF46:
 3596 068c 5F64736F 		.ascii	"_dso_handle\000"
 3596      5F68616E 
 3596      646C6500 
 3597              	.LASF161:
 3598 0698 6D73675F 		.ascii	"msg_t\000"
 3598      7400
 3599              	.LASF186:
 3600 069e 63685F74 		.ascii	"ch_threads_queue\000"
 3600      68726561 
 3600      64735F71 
 3600      75657565 
 3600      00
 3601              	.LASF99:
 3602 06af 5F72616E 		.ascii	"_rand48\000"
 3602      64343800 
 3603              	.LASF75:
 3604 06b7 5F737464 		.ascii	"_stdout\000"
 3604      6F757400 
 3605              	.LASF66:
 3606 06bf 5F626C6B 		.ascii	"_blksize\000"
 3606      73697A65 
 3606      00
 3607              	.LASF53:
ARM GAS  /tmp/ccd0ipnR.s 			page 70


 3608 06c8 5F626173 		.ascii	"_base\000"
 3608      6500
 3609              	.LASF237:
 3610 06ce 5F667374 		.ascii	"_fstat_r\000"
 3610      61745F72 
 3610      00
 3611              	.LASF104:
 3612 06d7 5F737472 		.ascii	"_strtok_last\000"
 3612      746F6B5F 
 3612      6C617374 
 3612      00
 3613              	.LASF117:
 3614 06e4 5F6D6272 		.ascii	"_mbrtowc_state\000"
 3614      746F7763 
 3614      5F737461 
 3614      746500
 3615              	.LASF213:
 3616 06f3 6D61696E 		.ascii	"mainthread\000"
 3616      74687265 
 3616      616400
 3617              	.LASF27:
 3618 06fe 5F666C6F 		.ascii	"_flock_t\000"
 3618      636B5F74 
 3618      00
 3619              	.LASF95:
 3620 0707 5F5F4649 		.ascii	"__FILE\000"
 3620      4C4500
 3621              	.LASF26:
 3622 070e 5F6D6273 		.ascii	"_mbstate_t\000"
 3622      74617465 
 3622      5F7400
 3623              	.LASF189:
 3624 0719 725F7175 		.ascii	"r_queue\000"
 3624      65756500 
 3625              	.LASF109:
 3626 0721 5F723438 		.ascii	"_r48\000"
 3626      00
 3627              	.LASF20:
 3628 0726 77696E74 		.ascii	"wint_t\000"
 3628      5F7400
 3629              	.LASF29:
 3630 072d 5F6E6578 		.ascii	"_next\000"
 3630      7400
 3631              	.LASF68:
 3632 0733 5F646174 		.ascii	"_data\000"
 3632      6100
 3633              	.LASF211:
 3634 0739 726C6973 		.ascii	"rlist\000"
 3634      7400
 3635              	.LASF157:
 3636 073f 746D6F64 		.ascii	"tmode_t\000"
 3636      655F7400 
 3637              	.LASF145:
 3638 0747 73745F6D 		.ascii	"st_mtime\000"
 3638      74696D65 
 3638      00
 3639              	.LASF193:
ARM GAS  /tmp/ccd0ipnR.s 			page 71


 3640 0750 725F6F6C 		.ascii	"r_older\000"
 3640      64657200 
 3641              	.LASF220:
 3642 0758 746D5F63 		.ascii	"tm_calibration_t\000"
 3642      616C6962 
 3642      72617469 
 3642      6F6E5F74 
 3642      00
 3643              	.LASF110:
 3644 0769 5F6D626C 		.ascii	"_mblen_state\000"
 3644      656E5F73 
 3644      74617465 
 3644      00
 3645              	.LASF5:
 3646 0776 73686F72 		.ascii	"short int\000"
 3646      7420696E 
 3646      7400
 3647              	.LASF155:
 3648 0780 75696E74 		.ascii	"uint64_t\000"
 3648      36345F74 
 3648      00
 3649              	.LASF47:
 3650 0789 5F666E74 		.ascii	"_fntypes\000"
 3650      79706573 
 3650      00
 3651              	.LASF190:
 3652 0792 725F7072 		.ascii	"r_prio\000"
 3652      696F00
 3653              	.LASF207:
 3654 0799 63685F73 		.ascii	"ch_system_debug\000"
 3654      79737465 
 3654      6D5F6465 
 3654      62756700 
 3655              	.LASF40:
 3656 07a9 5F5F746D 		.ascii	"__tm_year\000"
 3656      5F796561 
 3656      7200
 3657              	.LASF58:
 3658 07b3 5F6C6266 		.ascii	"_lbfsize\000"
 3658      73697A65 
 3658      00
 3659              	.LASF212:
 3660 07bc 76746C69 		.ascii	"vtlist\000"
 3660      737400
 3661              	.LASF77:
 3662 07c3 5F696E63 		.ascii	"_inc\000"
 3662      00
 3663              	.LASF50:
 3664 07c8 5F696E64 		.ascii	"_ind\000"
 3664      00
 3665              	.LASF52:
 3666 07cd 5F5F7362 		.ascii	"__sbuf\000"
 3666      756600
 3667              	.LASF232:
 3668 07d4 5F6C7365 		.ascii	"_lseek_r\000"
 3668      656B5F72 
 3668      00
ARM GAS  /tmp/ccd0ipnR.s 			page 72


 3669              	.LASF48:
 3670 07dd 5F69735F 		.ascii	"_is_cxa\000"
 3670      63786100 
 3671              	.LASF229:
 3672 07e5 6D757465 		.ascii	"mutex_t\000"
 3672      785F7400 
 3673              	.LASF137:
 3674 07ed 73745F6D 		.ascii	"st_mode\000"
 3674      6F646500 
 3675              	.LASF17:
 3676 07f5 5F5F7569 		.ascii	"__uid_t\000"
 3676      645F7400 
 3677              	.LASF122:
 3678 07fd 5F6E6578 		.ascii	"_nextf\000"
 3678      746600
 3679              	.LASF183:
 3680 0804 74687265 		.ascii	"threads_list_t\000"
 3680      6164735F 
 3680      6C697374 
 3680      5F7400
 3681              	.LASF210:
 3682 0813 63685F73 		.ascii	"ch_system\000"
 3682      79737465 
 3682      6D00
 3683              	.LASF28:
 3684 081d 5F5F554C 		.ascii	"__ULong\000"
 3684      6F6E6700 
 3685              	.LASF154:
 3686 0825 75696E74 		.ascii	"uint32_t\000"
 3686      33325F74 
 3686      00
 3687              	.LASF83:
 3688 082e 5F726573 		.ascii	"_result\000"
 3688      756C7400 
 3689              	.LASF15:
 3690 0836 5F6F6666 		.ascii	"_off_t\000"
 3690      5F7400
 3691              	.LASF240:
 3692 083d 474E5520 		.ascii	"GNU C 4.9.3 20141119 (release) [ARM/embedded-4_9-br"
 3692      4320342E 
 3692      392E3320 
 3692      32303134 
 3692      31313139 
 3693 0870 616E6368 		.ascii	"anch revision 218278] -mcpu=cortex-m4 -mfloat-abi=h"
 3693      20726576 
 3693      6973696F 
 3693      6E203231 
 3693      38323738 
 3694 08a3 61726420 		.ascii	"ard -mfpu=fpv4-sp-d16 -mno-thumb-interwork -mthumb "
 3694      2D6D6670 
 3694      753D6670 
 3694      76342D73 
 3694      702D6431 
 3695 08d6 2D676764 		.ascii	"-ggdb -O2 -fomit-frame-pointer -falign-functions=16"
 3695      62202D4F 
 3695      32202D66 
 3695      6F6D6974 
ARM GAS  /tmp/ccd0ipnR.s 			page 73


 3695      2D667261 
 3696 0909 202D6666 		.ascii	" -ffunction-sections -fdata-sections -fno-common -f"
 3696      756E6374 
 3696      696F6E2D 
 3696      73656374 
 3696      696F6E73 
 3697 093c 73696E67 		.ascii	"single-precision-constant\000"
 3697      6C652D70 
 3697      72656369 
 3697      73696F6E 
 3697      2D636F6E 
 3698              	.LASF221:
 3699 0956 7264796D 		.ascii	"rdymsg\000"
 3699      736700
 3700              	.LASF102:
 3701 095d 5F616464 		.ascii	"_add\000"
 3701      00
 3702              	.LASF205:
 3703 0962 76745F6C 		.ascii	"vt_lasttime\000"
 3703      61737474 
 3703      696D6500 
 3704              	.LASF6:
 3705 096e 73686F72 		.ascii	"short unsigned int\000"
 3705      7420756E 
 3705      7369676E 
 3705      65642069 
 3705      6E7400
 3706              	.LASF37:
 3707 0981 5F5F746D 		.ascii	"__tm_hour\000"
 3707      5F686F75 
 3707      7200
 3708              	.LASF209:
 3709 098b 63685F73 		.ascii	"ch_system_t\000"
 3709      79737465 
 3709      6D5F7400 
 3710              	.LASF118:
 3711 0997 5F6D6273 		.ascii	"_mbsrtowcs_state\000"
 3711      72746F77 
 3711      63735F73 
 3711      74617465 
 3711      00
 3712              	.LASF7:
 3713 09a8 5F5F696E 		.ascii	"__int32_t\000"
 3713      7433325F 
 3713      7400
 3714              	.LASF231:
 3715 09b2 5F726561 		.ascii	"_read_r\000"
 3715      645F7200 
 3716              	.LASF136:
 3717 09ba 73745F69 		.ascii	"st_ino\000"
 3717      6E6F00
 3718              	.LASF194:
 3719 09c1 725F6375 		.ascii	"r_current\000"
 3719      7272656E 
 3719      7400
 3720              	.LASF45:
 3721 09cb 5F666E61 		.ascii	"_fnargs\000"
ARM GAS  /tmp/ccd0ipnR.s 			page 74


 3721      72677300 
 3722              	.LASF43:
 3723 09d3 5F5F746D 		.ascii	"__tm_isdst\000"
 3723      5F697364 
 3723      737400
 3724              	.LASF172:
 3725 09de 705F6E61 		.ascii	"p_name\000"
 3725      6D6500
 3726              	.LASF131:
 3727 09e5 6769645F 		.ascii	"gid_t\000"
 3727      7400
 3728              	.LASF228:
 3729 09eb 6D5F6E65 		.ascii	"m_next\000"
 3729      787400
 3730              	.LASF36:
 3731 09f2 5F5F746D 		.ascii	"__tm_min\000"
 3731      5F6D696E 
 3731      00
 3732              	.LASF115:
 3733 09fb 5F676574 		.ascii	"_getdate_err\000"
 3733      64617465 
 3733      5F657272 
 3733      00
 3734              	.LASF242:
 3735 0a08 2F686F6D 		.ascii	"/home/bhimebau/forge/annsynth/src\000"
 3735      652F6268 
 3735      696D6562 
 3735      61752F66 
 3735      6F726765 
 3736              	.LASF178:
 3737 0a2a 705F6D73 		.ascii	"p_msg\000"
 3737      6700
 3738              	.LASF173:
 3739 0a30 705F7374 		.ascii	"p_state\000"
 3739      61746500 
 3740              		.ident	"GCC: (GNU Tools for ARM Embedded Processors) 4.9.3 20141119 (release) [ARM/embedded-4_9-br
ARM GAS  /tmp/ccd0ipnR.s 			page 75


DEFINED SYMBOLS
                            *ABS*:00000000 syscalls.c
     /tmp/ccd0ipnR.s:21     .text._read_r:00000000 $t
     /tmp/ccd0ipnR.s:27     .text._read_r:00000000 _read_r
     /tmp/ccd0ipnR.s:48     .text._lseek_r:00000000 $t
     /tmp/ccd0ipnR.s:54     .text._lseek_r:00000000 _lseek_r
     /tmp/ccd0ipnR.s:70     .text._write_r:00000000 $t
     /tmp/ccd0ipnR.s:76     .text._write_r:00000000 _write_r
     /tmp/ccd0ipnR.s:92     .text._close_r:00000000 $t
     /tmp/ccd0ipnR.s:98     .text._close_r:00000000 _close_r
     /tmp/ccd0ipnR.s:114    .text._sbrk_r:00000000 $t
     /tmp/ccd0ipnR.s:120    .text._sbrk_r:00000000 _sbrk_r
     /tmp/ccd0ipnR.s:156    .text._fstat_r:00000000 $t
     /tmp/ccd0ipnR.s:162    .text._fstat_r:00000000 _fstat_r
     /tmp/ccd0ipnR.s:195    .text._isatty_r:00000000 $t
     /tmp/ccd0ipnR.s:201    .text._isatty_r:00000000 _isatty_r
                     .debug_frame:00000010 $d

UNDEFINED SYMBOLS
chCoreAlloc
memset
