ARM GAS  /tmp/ccJSNrXs.s 			page 1


   1              		.syntax unified
   2              		.cpu cortex-m4
   3              		.eabi_attribute 27, 3
   4              		.eabi_attribute 28, 1
   5              		.fpu fpv4-sp-d16
   6              		.eabi_attribute 20, 1
   7              		.eabi_attribute 21, 1
   8              		.eabi_attribute 23, 3
   9              		.eabi_attribute 24, 1
  10              		.eabi_attribute 25, 1
  11              		.eabi_attribute 26, 1
  12              		.eabi_attribute 30, 2
  13              		.eabi_attribute 34, 1
  14              		.eabi_attribute 18, 4
  15              		.thumb
  16              		.file	"testpools.c"
  17              		.text
  18              	.Ltext0:
  19              		.cfi_sections	.debug_frame
  20              		.section	.text.null_provider,"ax",%progbits
  21              		.align	2
  22              		.p2align 4,,15
  23              		.thumb
  24              		.thumb_func
  25              		.type	null_provider, %function
  26              	null_provider:
  27              	.LFB226:
  28              		.file 1 "../ChibiOS/test/rt/testpools.c"
  29              		.loc 1 60 0
  30              		.cfi_startproc
  31              		@ args = 0, pretend = 0, frame = 0
  32              		@ frame_needed = 0, uses_anonymous_args = 0
  33              		@ link register save eliminated.
  34              	.LVL0:
  35              		.loc 1 64 0
  36 0000 0020     		movs	r0, #0
  37              	.LVL1:
  38 0002 7047     		bx	lr
  39              		.cfi_endproc
  40              	.LFE226:
  41              		.size	null_provider, .-null_provider
  42 0004 AFF30080 		.section	.text.pools1_setup,"ax",%progbits
  42      AFF30080 
  42      AFF30080 
  43              		.align	2
  44              		.p2align 4,,15
  45              		.thumb
  46              		.thumb_func
  47              		.type	pools1_setup, %function
  48              	pools1_setup:
  49              	.LFB227:
  50              		.loc 1 66 0
  51              		.cfi_startproc
  52              		@ args = 0, pretend = 0, frame = 0
  53              		@ frame_needed = 0, uses_anonymous_args = 0
  54              		@ link register save eliminated.
  55              		.loc 1 68 0
ARM GAS  /tmp/ccJSNrXs.s 			page 2


  56 0000 0248     		ldr	r0, .L3
  57 0002 4FF4E871 		mov	r1, #464
  58 0006 0022     		movs	r2, #0
  59 0008 FFF7FEBF 		b	chPoolObjectInit
  60              	.LVL2:
  61              	.L4:
  62              		.align	2
  63              	.L3:
  64 000c 00000000 		.word	.LANCHOR0
  65              		.cfi_endproc
  66              	.LFE227:
  67              		.size	pools1_setup, .-pools1_setup
  68              		.section	.text.pools1_execute,"ax",%progbits
  69              		.align	2
  70              		.p2align 4,,15
  71              		.thumb
  72              		.thumb_func
  73              		.type	pools1_execute, %function
  74              	pools1_execute:
  75              	.LFB228:
  76              		.loc 1 71 0
  77              		.cfi_startproc
  78              		@ args = 0, pretend = 0, frame = 0
  79              		@ frame_needed = 0, uses_anonymous_args = 0
  80 0000 38B5     		push	{r3, r4, r5, lr}
  81              		.cfi_def_cfa_offset 16
  82              		.cfi_offset 3, -16
  83              		.cfi_offset 4, -12
  84              		.cfi_offset 5, -8
  85              		.cfi_offset 14, -4
  86              		.loc 1 75 0
  87 0002 2B4B     		ldr	r3, .L19
  88 0004 2B48     		ldr	r0, .L19+4
  89 0006 1D68     		ldr	r5, [r3]
  90 0008 0522     		movs	r2, #5
  91 000a 2946     		mov	r1, r5
  92 000c FFF7FEFF 		bl	chPoolLoadArray
  93              	.LVL3:
  94 0010 0524     		movs	r4, #5
  95              	.LVL4:
  96              	.L8:
  97              		.loc 1 79 0
  98 0012 2848     		ldr	r0, .L19+4
  99 0014 FFF7FEFF 		bl	chPoolAlloc
 100              	.LVL5:
 101 0018 011C     		adds	r1, r0, #0
 102 001a 18BF     		it	ne
 103 001c 0121     		movne	r1, #1
 104 001e 0120     		movs	r0, #1
 105 0020 FFF7FEFF 		bl	_test_assert
 106              	.LVL6:
 107 0024 90BB     		cbnz	r0, .L5
 108              		.loc 1 78 0 discriminator 2
 109 0026 013C     		subs	r4, r4, #1
 110              	.LVL7:
 111 0028 F3D1     		bne	.L8
 112              		.loc 1 82 0
ARM GAS  /tmp/ccJSNrXs.s 			page 3


 113 002a 2248     		ldr	r0, .L19+4
 114 002c FFF7FEFF 		bl	chPoolAlloc
 115              	.LVL8:
 116 0030 B0FA80F1 		clz	r1, r0
 117 0034 0220     		movs	r0, #2
 118 0036 4909     		lsrs	r1, r1, #5
 119 0038 FFF7FEFF 		bl	_test_assert
 120              	.LVL9:
 121 003c 30BB     		cbnz	r0, .L5
 122 003e 1C4C     		ldr	r4, .L19
 123              	.LVL10:
 124              	.LBB4:
 125              	.LBB5:
 126              		.loc 1 86 0
 127 0040 1C48     		ldr	r0, .L19+4
 128              	.LBE5:
 129              	.LBE4:
 130              		.loc 1 82 0
 131 0042 2946     		mov	r1, r5
 132 0044 04F11005 		add	r5, r4, #16
 133              	.LBB8:
 134              	.LBB6:
 135              		.loc 1 86 0
 136 0048 FFF7FEFF 		bl	chPoolFree
 137              	.LVL11:
 138              		.loc 1 85 0
 139 004c AC42     		cmp	r4, r5
 140 004e 06D0     		beq	.L12
 141              	.L17:
 142 0050 54F8041F 		ldr	r1, [r4, #4]!
 143              		.loc 1 86 0
 144 0054 1748     		ldr	r0, .L19+4
 145 0056 FFF7FEFF 		bl	chPoolFree
 146              	.LVL12:
 147              		.loc 1 85 0
 148 005a AC42     		cmp	r4, r5
 149 005c F8D1     		bne	.L17
 150              	.L12:
 151 005e 0524     		movs	r4, #5
 152              	.L10:
 153              	.LVL13:
 154              		.loc 1 90 0
 155 0060 1448     		ldr	r0, .L19+4
 156 0062 FFF7FEFF 		bl	chPoolAlloc
 157              	.LVL14:
 158 0066 011C     		adds	r1, r0, #0
 159 0068 18BF     		it	ne
 160 006a 0121     		movne	r1, #1
 161 006c 0320     		movs	r0, #3
 162 006e FFF7FEFF 		bl	_test_assert
 163              	.LVL15:
 164 0072 58B9     		cbnz	r0, .L5
 165              		.loc 1 89 0
 166 0074 013C     		subs	r4, r4, #1
 167              	.LVL16:
 168 0076 F3D1     		bne	.L10
 169              		.loc 1 93 0
ARM GAS  /tmp/ccJSNrXs.s 			page 4


 170 0078 0E48     		ldr	r0, .L19+4
 171 007a FFF7FEFF 		bl	chPoolAlloc
 172              	.LVL17:
 173 007e B0FA80F1 		clz	r1, r0
 174 0082 0420     		movs	r0, #4
 175 0084 4909     		lsrs	r1, r1, #5
 176 0086 FFF7FEFF 		bl	_test_assert
 177              	.LVL18:
 178 008a 00B1     		cbz	r0, .L18
 179              	.LVL19:
 180              	.L5:
 181 008c 38BD     		pop	{r3, r4, r5, pc}
 182              	.LVL20:
 183              	.L18:
 184              		.loc 1 96 0
 185 008e 1021     		movs	r1, #16
 186 0090 0848     		ldr	r0, .L19+4
 187 0092 094A     		ldr	r2, .L19+8
 188 0094 FFF7FEFF 		bl	chPoolObjectInit
 189              	.LVL21:
 190              		.loc 1 97 0
 191 0098 0648     		ldr	r0, .L19+4
 192 009a FFF7FEFF 		bl	chPoolAlloc
 193              	.LVL22:
 194              	.LBE6:
 195              	.LBE8:
 196              		.loc 1 98 0
 197 009e BDE83840 		pop	{r3, r4, r5, lr}
 198              		.cfi_restore 14
 199              		.cfi_restore 5
 200              		.cfi_restore 4
 201              		.cfi_restore 3
 202              		.cfi_def_cfa_offset 0
 203              	.LVL23:
 204              	.LBB9:
 205              	.LBB7:
 206              		.loc 1 97 0
 207 00a2 B0FA80F1 		clz	r1, r0
 208 00a6 0520     		movs	r0, #5
 209 00a8 4909     		lsrs	r1, r1, #5
 210 00aa FFF7FEBF 		b	_test_assert
 211              	.LVL24:
 212              	.L20:
 213 00ae 00BF     		.align	2
 214              	.L19:
 215 00b0 00000000 		.word	wa
 216 00b4 00000000 		.word	.LANCHOR0
 217 00b8 00000000 		.word	null_provider
 218              	.LBE7:
 219              	.LBE9:
 220              		.cfi_endproc
 221              	.LFE228:
 222              		.size	pools1_execute, .-pools1_execute
 223              		.global	patternpools
 224              		.global	testpools1
 225 00bc AFF30080 		.section	.rodata.str1.4,"aMS",%progbits,1
 226              		.align	2
ARM GAS  /tmp/ccJSNrXs.s 			page 5


 227              	.LC0:
 228 0000 4D656D6F 		.ascii	"Memory Pools, queue/dequeue\000"
 228      72792050 
 228      6F6F6C73 
 228      2C207175 
 228      6575652F 
 229              		.section	.rodata.patternpools,"a",%progbits
 230              		.align	2
 231              		.type	patternpools, %object
 232              		.size	patternpools, 8
 233              	patternpools:
 234 0000 00000000 		.word	testpools1
 235 0004 00000000 		.word	0
 236              		.section	.data.mp1,"aw",%progbits
 237              		.align	2
 238              		.set	.LANCHOR0,. + 0
 239              		.type	mp1, %object
 240              		.size	mp1, 12
 241              	mp1:
 242 0000 00000000 		.word	0
 243 0004 D0010000 		.word	464
 244 0008 00000000 		.word	0
 245              		.section	.rodata.testpools1,"a",%progbits
 246              		.align	2
 247              		.type	testpools1, %object
 248              		.size	testpools1, 16
 249              	testpools1:
 250 0000 00000000 		.word	.LC0
 251 0004 00000000 		.word	pools1_setup
 252 0008 00000000 		.word	0
 253 000c 00000000 		.word	pools1_execute
 254              		.text
 255              	.Letext0:
 256              		.file 2 "/l/arm2/gcc-arm-none-eabi-4_9-2014q4/lib/gcc/arm-none-eabi/4.9.3/include/stddef.h"
 257              		.file 3 "/l/arm2/gcc-arm-none-eabi-4_9-2014q4/arm-none-eabi/include/machine/_default_types.h"
 258              		.file 4 "/l/arm2/gcc-arm-none-eabi-4_9-2014q4/arm-none-eabi/include/stdint.h"
 259              		.file 5 "../ChibiOS/os/rt/ports/ARMCMx/compilers/GCC/chtypes.h"
 260              		.file 6 "../ChibiOS/os/rt/include/chsystypes.h"
 261              		.file 7 "../ChibiOS/os/rt/include/chschd.h"
 262              		.file 8 "../ChibiOS/os/rt/ports/ARMCMx/chcore.h"
 263              		.file 9 "../ChibiOS/os/rt/ports/ARMCMx/chcore_v7m.h"
 264              		.file 10 "../ChibiOS/os/rt/include/chtm.h"
 265              		.file 11 "../ChibiOS/os/rt/include/chmtx.h"
 266              		.file 12 "../ChibiOS/os/rt/include/chmemcore.h"
 267              		.file 13 "../ChibiOS/os/rt/include/chmempools.h"
 268              		.file 14 "../ChibiOS/test/rt/test.h"
 269              		.file 15 "../ChibiOS/os/ext/CMSIS/include/core_cm4.h"