ARM GAS  /tmp/ccW4P4fb.s 			page 1


   1              		.syntax unified
   2              		.cpu cortex-m4
   3              		.eabi_attribute 27, 3
   4              		.eabi_attribute 28, 1
   5              		.fpu fpv4-sp-d16
   6              		.eabi_attribute 20, 1
   7              		.eabi_attribute 21, 1
   8              		.eabi_attribute 23, 3
   9              		.eabi_attribute 24, 1
  10              		.eabi_attribute 25, 1
  11              		.eabi_attribute 26, 1
  12              		.eabi_attribute 30, 2
  13              		.eabi_attribute 34, 1
  14              		.eabi_attribute 18, 4
  15              		.thumb
  16              		.file	"testevt.c"
  17              		.text
  18              	.Ltext0:
  19              		.cfi_sections	.debug_frame
  20              		.section	.text.h3,"ax",%progbits
  21              		.align	2
  22              		.p2align 4,,15
  23              		.thumb
  24              		.thumb_func
  25              		.type	h3, %function
  26              	h3:
  27              	.LFB229:
  28              		.file 1 "../ChibiOS/test/rt/testevt.c"
  29              		.loc 1 82 0
  30              		.cfi_startproc
  31              		@ args = 0, pretend = 0, frame = 0
  32              		@ frame_needed = 0, uses_anonymous_args = 0
  33              		@ link register save eliminated.
  34              	.LVL0:
  35              		.loc 1 82 0
  36 0000 4320     		movs	r0, #67
  37              	.LVL1:
  38 0002 FFF7FEBF 		b	test_emit_token
  39              	.LVL2:
  40              		.cfi_endproc
  41              	.LFE229:
  42              		.size	h3, .-h3
  43 0006 00BFAFF3 		.section	.text.h2,"ax",%progbits
  43      0080AFF3 
  43      0080
  44              		.align	2
  45              		.p2align 4,,15
  46              		.thumb
  47              		.thumb_func
  48              		.type	h2, %function
  49              	h2:
  50              	.LFB228:
  51              		.loc 1 81 0
  52              		.cfi_startproc
  53              		@ args = 0, pretend = 0, frame = 0
  54              		@ frame_needed = 0, uses_anonymous_args = 0
  55              		@ link register save eliminated.
ARM GAS  /tmp/ccW4P4fb.s 			page 2


  56              	.LVL3:
  57              		.loc 1 81 0
  58 0000 4220     		movs	r0, #66
  59              	.LVL4:
  60 0002 FFF7FEBF 		b	test_emit_token
  61              	.LVL5:
  62              		.cfi_endproc
  63              	.LFE228:
  64              		.size	h2, .-h2
  65 0006 00BFAFF3 		.section	.text.h1,"ax",%progbits
  65      0080AFF3 
  65      0080
  66              		.align	2
  67              		.p2align 4,,15
  68              		.thumb
  69              		.thumb_func
  70              		.type	h1, %function
  71              	h1:
  72              	.LFB227:
  73              		.loc 1 80 0
  74              		.cfi_startproc
  75              		@ args = 0, pretend = 0, frame = 0
  76              		@ frame_needed = 0, uses_anonymous_args = 0
  77              		@ link register save eliminated.
  78              	.LVL6:
  79              		.loc 1 80 0
  80 0000 4120     		movs	r0, #65
  81              	.LVL7:
  82 0002 FFF7FEBF 		b	test_emit_token
  83              	.LVL8:
  84              		.cfi_endproc
  85              	.LFE227:
  86              		.size	h1, .-h1
  87 0006 00BFAFF3 		.section	.text.evt1_execute,"ax",%progbits
  87      0080AFF3 
  87      0080
  88              		.align	2
  89              		.p2align 4,,15
  90              		.thumb
  91              		.thumb_func
  92              		.type	evt1_execute, %function
  93              	evt1_execute:
  94              	.LFB230:
  95              		.loc 1 85 0
  96              		.cfi_startproc
  97              		@ args = 0, pretend = 0, frame = 40
  98              		@ frame_needed = 0, uses_anonymous_args = 0
  99              	.LVL9:
 100 0000 10B5     		push	{r4, lr}
 101              		.cfi_def_cfa_offset 8
 102              		.cfi_offset 4, -8
 103              		.cfi_offset 14, -4
 104              	.LBB126:
 105              	.LBB127:
 106              		.file 2 "../ChibiOS/os/rt/include/chevents.h"
 107              		.loc 2 172 0
 108 0002 1F4C     		ldr	r4, .L10
ARM GAS  /tmp/ccW4P4fb.s 			page 3


 109              	.LBE127:
 110              	.LBE126:
 111              		.loc 1 85 0
 112 0004 8AB0     		sub	sp, sp, #40
 113              		.cfi_def_cfa_offset 48
 114              	.LBB129:
 115              	.LBB130:
 116              		.loc 2 193 0
 117 0006 2046     		mov	r0, r4
 118 0008 6946     		mov	r1, sp
 119 000a 0122     		movs	r2, #1
 120 000c 4FF0FF33 		mov	r3, #-1
 121              	.LBE130:
 122              	.LBE129:
 123              	.LBB132:
 124              	.LBB128:
 125              		.loc 2 172 0
 126 0010 2460     		str	r4, [r4]
 127              	.LVL10:
 128              	.LBE128:
 129              	.LBE132:
 130              	.LBB133:
 131              	.LBB131:
 132              		.loc 2 193 0
 133 0012 FFF7FEFF 		bl	chEvtRegisterMaskWithFlags
 134              	.LVL11:
 135              	.LBE131:
 136              	.LBE133:
 137              	.LBB134:
 138              	.LBB135:
 139 0016 2046     		mov	r0, r4
 140 0018 05A9     		add	r1, sp, #20
 141              	.LVL12:
 142 001a 0222     		movs	r2, #2
 143 001c 4FF0FF33 		mov	r3, #-1
 144 0020 FFF7FEFF 		bl	chEvtRegisterMaskWithFlags
 145              	.LVL13:
 146              	.LBE135:
 147              	.LBE134:
 148              	.LBB136:
 149              	.LBB137:
 150              		.loc 2 226 0
 151 0024 2168     		ldr	r1, [r4]
 152              	.LBE137:
 153              	.LBE136:
 154              		.loc 1 94 0
 155 0026 091B     		subs	r1, r1, r4
 156 0028 18BF     		it	ne
 157 002a 0121     		movne	r1, #1
 158 002c 0120     		movs	r0, #1
 159 002e FFF7FEFF 		bl	_test_assert
 160              	.LVL14:
 161 0032 08B1     		cbz	r0, .L9
 162              	.L4:
 163              		.loc 1 105 0
 164 0034 0AB0     		add	sp, sp, #40
 165              		.cfi_remember_state
ARM GAS  /tmp/ccW4P4fb.s 			page 4


 166              		.cfi_def_cfa_offset 8
 167              	.LVL15:
 168              		@ sp needed
 169 0036 10BD     		pop	{r4, pc}
 170              	.LVL16:
 171              	.L9:
 172              		.cfi_restore_state
 173              		.loc 1 95 0
 174 0038 6946     		mov	r1, sp
 175 003a 2046     		mov	r0, r4
 176 003c FFF7FEFF 		bl	chEvtUnregister
 177              	.LVL17:
 178              	.LBB138:
 179              	.LBB139:
 180              		.loc 2 226 0
 181 0040 2168     		ldr	r1, [r4]
 182              	.LBE139:
 183              	.LBE138:
 184              		.loc 1 96 0
 185 0042 091B     		subs	r1, r1, r4
 186 0044 18BF     		it	ne
 187 0046 0121     		movne	r1, #1
 188 0048 0220     		movs	r0, #2
 189 004a FFF7FEFF 		bl	_test_assert
 190              	.LVL18:
 191 004e 0028     		cmp	r0, #0
 192 0050 F0D1     		bne	.L4
 193              		.loc 1 97 0
 194 0052 05A9     		add	r1, sp, #20
 195              	.LVL19:
 196 0054 2046     		mov	r0, r4
 197 0056 FFF7FEFF 		bl	chEvtUnregister
 198              	.LVL20:
 199              		.loc 1 98 0
 200 005a 2168     		ldr	r1, [r4]
 201 005c 0320     		movs	r0, #3
 202 005e 091B     		subs	r1, r1, r4
 203 0060 B1FA81F1 		clz	r1, r1
 204 0064 4909     		lsrs	r1, r1, #5
 205 0066 FFF7FEFF 		bl	_test_assert
 206              	.LVL21:
 207 006a 0028     		cmp	r0, #0
 208 006c E2D1     		bne	.L4
 209              		.loc 1 103 0
 210 006e 0548     		ldr	r0, .L10+4
 211 0070 0721     		movs	r1, #7
 212 0072 FFF7FEFF 		bl	chEvtDispatch
 213              	.LVL22:
 214              		.loc 1 104 0
 215 0076 0449     		ldr	r1, .L10+8
 216 0078 0420     		movs	r0, #4
 217 007a FFF7FEFF 		bl	_test_assert_sequence
 218              	.LVL23:
 219 007e D9E7     		b	.L4
 220              	.L11:
 221              		.align	2
 222              	.L10:
ARM GAS  /tmp/ccW4P4fb.s 			page 5


 223 0080 00000000 		.word	.LANCHOR0
 224 0084 00000000 		.word	.LANCHOR1
 225 0088 00000000 		.word	.LC0
 226              		.cfi_endproc
 227              	.LFE230:
 228              		.size	evt1_execute, .-evt1_execute
 229 008c AFF30080 		.section	.text.evt1_setup,"ax",%progbits
 230              		.align	2
 231              		.p2align 4,,15
 232              		.thumb
 233              		.thumb_func
 234              		.type	evt1_setup, %function
 235              	evt1_setup:
 236              	.LFB226:
 237              		.loc 1 75 0
 238              		.cfi_startproc
 239              		@ args = 0, pretend = 0, frame = 0
 240              		@ frame_needed = 0, uses_anonymous_args = 0
 241              		@ link register save eliminated.
 242              		.loc 1 77 0
 243 0000 4FF0FF30 		mov	r0, #-1
 244 0004 FFF7FEBF 		b	chEvtGetAndClearEvents
 245              	.LVL24:
 246              		.cfi_endproc
 247              	.LFE226:
 248              		.size	evt1_setup, .-evt1_setup
 249 0008 AFF30080 		.section	.text.evt2_setup,"ax",%progbits
 249      AFF30080 
 250              		.align	2
 251              		.p2align 4,,15
 252              		.thumb
 253              		.thumb_func
 254              		.type	evt2_setup, %function
 255              	evt2_setup:
 256              	.LFB231:
 257              		.loc 1 128 0
 258              		.cfi_startproc
 259              		@ args = 0, pretend = 0, frame = 0
 260              		@ frame_needed = 0, uses_anonymous_args = 0
 261              		@ link register save eliminated.
 262              		.loc 1 130 0
 263 0000 4FF0FF30 		mov	r0, #-1
 264 0004 FFF7FEBF 		b	chEvtGetAndClearEvents
 265              	.LVL25:
 266              		.cfi_endproc
 267              	.LFE231:
 268              		.size	evt2_setup, .-evt2_setup
 269 0008 AFF30080 		.section	.text.evt3_setup,"ax",%progbits
 269      AFF30080 
 270              		.align	2
 271              		.p2align 4,,15
 272              		.thumb
 273              		.thumb_func
 274              		.type	evt3_setup, %function
 275              	evt3_setup:
 276              	.LFB235:
 277              		.loc 1 249 0
ARM GAS  /tmp/ccW4P4fb.s 			page 6


 278              		.cfi_startproc
 279              		@ args = 0, pretend = 0, frame = 0
 280              		@ frame_needed = 0, uses_anonymous_args = 0
 281              		@ link register save eliminated.
 282              		.loc 1 251 0
 283 0000 4FF0FF30 		mov	r0, #-1
 284 0004 FFF7FEBF 		b	chEvtGetAndClearEvents
 285              	.LVL26:
 286              		.cfi_endproc
 287              	.LFE235:
 288              		.size	evt3_setup, .-evt3_setup
 289 0008 AFF30080 		.section	.text.evt2_execute,"ax",%progbits
 289      AFF30080 
 290              		.align	2
 291              		.p2align 4,,15
 292              		.thumb
 293              		.thumb_func
 294              		.type	evt2_execute, %function
 295              	evt2_execute:
 296              	.LFB234:
 297              		.loc 1 149 0
 298              		.cfi_startproc
 299              		@ args = 0, pretend = 0, frame = 40
 300              		@ frame_needed = 0, uses_anonymous_args = 0
 301 0000 2DE9F04F 		push	{r4, r5, r6, r7, r8, r9, r10, fp, lr}
 302              		.cfi_def_cfa_offset 36
 303              		.cfi_offset 4, -36
 304              		.cfi_offset 5, -32
 305              		.cfi_offset 6, -28
 306              		.cfi_offset 7, -24
 307              		.cfi_offset 8, -20
 308              		.cfi_offset 9, -16
 309              		.cfi_offset 10, -12
 310              		.cfi_offset 11, -8
 311              		.cfi_offset 14, -4
 312              		.loc 1 157 0
 313 0004 0720     		movs	r0, #7
 314              		.loc 1 149 0
 315 0006 8DB0     		sub	sp, sp, #52
 316              		.cfi_def_cfa_offset 88
 317              		.loc 1 157 0
 318 0008 FFF7FEFF 		bl	chEvtAddEvents
 319              	.LVL27:
 320              		.loc 1 158 0
 321 000c 4FF0FF30 		mov	r0, #-1
 322 0010 FFF7FEFF 		bl	chEvtWaitOne
 323              	.LVL28:
 324              		.loc 1 159 0
 325 0014 A0F10101 		sub	r1, r0, #1
 326 0018 0120     		movs	r0, #1
 327              	.LVL29:
 328 001a B1FA81F1 		clz	r1, r1
 329              	.LVL30:
 330 001e 4909     		lsrs	r1, r1, #5
 331 0020 FFF7FEFF 		bl	_test_assert
 332              	.LVL31:
 333 0024 10B1     		cbz	r0, .L19
ARM GAS  /tmp/ccW4P4fb.s 			page 7


 334              	.L15:
 335              		.loc 1 224 0
 336 0026 0DB0     		add	sp, sp, #52
 337              		.cfi_remember_state
 338              		.cfi_def_cfa_offset 36
 339              		@ sp needed
 340 0028 BDE8F08F 		pop	{r4, r5, r6, r7, r8, r9, r10, fp, pc}
 341              	.L19:
 342              		.cfi_restore_state
 343              		.loc 1 160 0
 344 002c 4FF0FF30 		mov	r0, #-1
 345 0030 FFF7FEFF 		bl	chEvtWaitOne
 346              	.LVL32:
 347              		.loc 1 161 0
 348 0034 A0F10201 		sub	r1, r0, #2
 349 0038 0220     		movs	r0, #2
 350              	.LVL33:
 351 003a B1FA81F1 		clz	r1, r1
 352              	.LVL34:
 353 003e 4909     		lsrs	r1, r1, #5
 354 0040 FFF7FEFF 		bl	_test_assert
 355              	.LVL35:
 356 0044 0028     		cmp	r0, #0
 357 0046 EED1     		bne	.L15
 358              		.loc 1 162 0
 359 0048 4FF0FF30 		mov	r0, #-1
 360 004c FFF7FEFF 		bl	chEvtWaitOne
 361              	.LVL36:
 362              		.loc 1 163 0
 363 0050 A0F10401 		sub	r1, r0, #4
 364 0054 0320     		movs	r0, #3
 365              	.LVL37:
 366 0056 B1FA81F1 		clz	r1, r1
 367              	.LVL38:
 368 005a 4909     		lsrs	r1, r1, #5
 369 005c FFF7FEFF 		bl	_test_assert
 370              	.LVL39:
 371 0060 0028     		cmp	r0, #0
 372 0062 E0D1     		bne	.L15
 373              		.loc 1 164 0
 374 0064 4FF0FF30 		mov	r0, #-1
 375 0068 FFF7FEFF 		bl	chEvtGetAndClearEvents
 376              	.LVL40:
 377              		.loc 1 165 0
 378 006c B0FA80F1 		clz	r1, r0
 379 0070 0420     		movs	r0, #4
 380              	.LVL41:
 381 0072 4909     		lsrs	r1, r1, #5
 382 0074 FFF7FEFF 		bl	_test_assert
 383              	.LVL42:
 384 0078 0446     		mov	r4, r0
 385 007a 0028     		cmp	r0, #0
 386 007c D3D1     		bne	.L15
 387              		.loc 1 170 0
 388 007e FFF7FEFF 		bl	test_wait_tick
 389              	.LVL43:
 390              	.LBB140:
ARM GAS  /tmp/ccW4P4fb.s 			page 8


 391              	.LBB141:
 392              	.LBB142:
 393              	.LBB143:
 394              	.LBB144:
 395              	.LBB145:
 396              		.file 3 "../ChibiOS/os/ext/CMSIS/include/core_cmFunc.h"
 397              		.loc 3 546 0
 398 0082 4FF02009 		mov	r9, #32
 399              	@ 546 "../ChibiOS/os/ext/CMSIS/include/core_cmFunc.h" 1
 400 0086 89F31188 		MSR basepri, r9
 401              	@ 0 "" 2
 402              		.thumb
 403              	.LBE145:
 404              	.LBE144:
 405              	.LBE143:
 406              	.LBE142:
 407              	.LBB146:
 408              	.LBB147:
 409              	.LBB148:
 410              	.LBB149:
 411              		.file 4 "../ChibiOS/os/hal/ports/STM32/LLD/TIMv1/st_lld.h"
 412              		.loc 4 128 0
 413 008a 4FF08048 		mov	r8, #1073741824
 414 008e D8F82450 		ldr	r5, [r8, #36]
 415              	.LVL44:
 416              	.LBE149:
 417              	.LBE148:
 418              	.LBE147:
 419              	.LBE146:
 420              	.LBB150:
 421              	.LBB151:
 422              	.LBB152:
 423              	.LBB153:
 424              	.LBB154:
 425              		.loc 3 546 0
 426              	@ 546 "../ChibiOS/os/ext/CMSIS/include/core_cmFunc.h" 1
 427 0092 84F31188 		MSR basepri, r4
 428              	@ 0 "" 2
 429              	.LVL45:
 430              		.thumb
 431              	.LBE154:
 432              	.LBE153:
 433              	.LBE152:
 434              	.LBE151:
 435              	.LBE150:
 436              	.LBE141:
 437              	.LBE140:
 438              	.LBB155:
 439              	.LBB156:
 440              	.LBB157:
 441              	.LBB158:
 442              		.file 5 "../ChibiOS/os/rt/include/chthreads.h"
 443              		.loc 5 179 0
 444 0096 764F     		ldr	r7, .L20
 445              	.LBE158:
 446              	.LBE157:
 447              	.LBE156:
ARM GAS  /tmp/ccW4P4fb.s 			page 9


 448              	.LBE155:
 449              		.loc 1 172 0
 450 0098 DFF8F0A1 		ldr	r10, .L20+28
 451              	.LBB162:
 452              	.LBB161:
 453              	.LBB160:
 454              	.LBB159:
 455              		.loc 5 179 0
 456 009c B969     		ldr	r1, [r7, #24]
 457              	.LBE159:
 458              	.LBE160:
 459              	.LBE161:
 460              	.LBE162:
 461              		.loc 1 172 0
 462 009e DAF80060 		ldr	r6, [r10]
 463 00a2 8A68     		ldr	r2, [r1, #8]
 464 00a4 734B     		ldr	r3, .L20+4
 465 00a6 0091     		str	r1, [sp]
 466 00a8 013A     		subs	r2, r2, #1
 467 00aa 4FF4E871 		mov	r1, #464
 468 00ae 3046     		mov	r0, r6
 469 00b0 FFF7FEFF 		bl	chThdCreateStatic
 470              	.LVL46:
 471 00b4 704C     		ldr	r4, .L20+8
 472 00b6 2060     		str	r0, [r4]
 473              		.loc 1 174 0
 474 00b8 4FF0FF30 		mov	r0, #-1
 475 00bc FFF7FEFF 		bl	chEvtWaitOne
 476              	.LVL47:
 477              		.loc 1 175 0
 478 00c0 05F5FA71 		add	r1, r5, #500
 479              	.LVL48:
 480              		.loc 1 174 0
 481 00c4 8346     		mov	fp, r0
 482              	.LVL49:
 483              		.loc 1 175 0
 484 00c6 05F22622 		addw	r2, r5, #550
 485 00ca 0520     		movs	r0, #5
 486              	.LVL50:
 487 00cc FFF7FEFF 		bl	_test_assert_time_window
 488              	.LVL51:
 489 00d0 0028     		cmp	r0, #0
 490 00d2 A8D1     		bne	.L15
 491              		.loc 1 176 0
 492 00d4 ABF10101 		sub	r1, fp, #1
 493 00d8 0620     		movs	r0, #6
 494 00da B1FA81F1 		clz	r1, r1
 495 00de 4909     		lsrs	r1, r1, #5
 496 00e0 FFF7FEFF 		bl	_test_assert
 497              	.LVL52:
 498 00e4 0028     		cmp	r0, #0
 499 00e6 9ED1     		bne	.L15
 500              		.loc 1 177 0
 501 00e8 4FF0FF30 		mov	r0, #-1
 502 00ec FFF7FEFF 		bl	chEvtGetAndClearEvents
 503              	.LVL53:
 504              		.loc 1 178 0
ARM GAS  /tmp/ccW4P4fb.s 			page 10


 505 00f0 B0FA80F1 		clz	r1, r0
 506 00f4 0720     		movs	r0, #7
 507              	.LVL54:
 508 00f6 4909     		lsrs	r1, r1, #5
 509 00f8 FFF7FEFF 		bl	_test_assert
 510              	.LVL55:
 511 00fc 0028     		cmp	r0, #0
 512 00fe 92D1     		bne	.L15
 513              		.loc 1 179 0
 514 0100 FFF7FEFF 		bl	test_wait_threads
 515              	.LVL56:
 516              		.loc 1 184 0
 517 0104 0520     		movs	r0, #5
 518 0106 FFF7FEFF 		bl	chEvtAddEvents
 519              	.LVL57:
 520              		.loc 1 185 0
 521 010a 4FF0FF30 		mov	r0, #-1
 522 010e FFF7FEFF 		bl	chEvtWaitAny
 523              	.LVL58:
 524              		.loc 1 186 0
 525 0112 451F     		subs	r5, r0, #5
 526              	.LVL59:
 527 0114 6942     		rsbs	r1, r5, #0
 528 0116 6941     		adcs	r1, r1, r5
 529 0118 0820     		movs	r0, #8
 530              	.LVL60:
 531 011a FFF7FEFF 		bl	_test_assert
 532              	.LVL61:
 533 011e 0028     		cmp	r0, #0
 534 0120 81D1     		bne	.L15
 535              		.loc 1 187 0
 536 0122 4FF0FF30 		mov	r0, #-1
 537 0126 FFF7FEFF 		bl	chEvtGetAndClearEvents
 538              	.LVL62:
 539              		.loc 1 188 0
 540 012a B0FA80F1 		clz	r1, r0
 541 012e 0920     		movs	r0, #9
 542              	.LVL63:
 543 0130 4909     		lsrs	r1, r1, #5
 544 0132 FFF7FEFF 		bl	_test_assert
 545              	.LVL64:
 546 0136 8346     		mov	fp, r0
 547 0138 0028     		cmp	r0, #0
 548 013a 7FF474AF 		bne	.L15
 549              		.loc 1 193 0
 550 013e FFF7FEFF 		bl	test_wait_tick
 551              	.LVL65:
 552              	.LBB163:
 553              	.LBB164:
 554              	.LBB165:
 555              	.LBB166:
 556              	.LBB167:
 557              	.LBB168:
 558              		.loc 3 546 0
 559              	@ 546 "../ChibiOS/os/ext/CMSIS/include/core_cmFunc.h" 1
 560 0142 89F31188 		MSR basepri, r9
 561              	@ 0 "" 2
ARM GAS  /tmp/ccW4P4fb.s 			page 11


 562              		.thumb
 563              	.LBE168:
 564              	.LBE167:
 565              	.LBE166:
 566              	.LBE165:
 567              	.LBB169:
 568              	.LBB170:
 569              	.LBB171:
 570              	.LBB172:
 571              		.loc 4 128 0
 572 0146 D8F82450 		ldr	r5, [r8, #36]
 573              	.LVL66:
 574              	.LBE172:
 575              	.LBE171:
 576              	.LBE170:
 577              	.LBE169:
 578              	.LBB173:
 579              	.LBB174:
 580              	.LBB175:
 581              	.LBB176:
 582              	.LBB177:
 583              		.loc 3 546 0
 584              	@ 546 "../ChibiOS/os/ext/CMSIS/include/core_cmFunc.h" 1
 585 014a 8BF31188 		MSR basepri, fp
 586              	@ 0 "" 2
 587              	.LVL67:
 588              		.thumb
 589              	.LBE177:
 590              	.LBE176:
 591              	.LBE175:
 592              	.LBE174:
 593              	.LBE173:
 594              	.LBE164:
 595              	.LBE163:
 596              	.LBB178:
 597              	.LBB179:
 598              	.LBB180:
 599              	.LBB181:
 600              		.loc 5 179 0
 601 014e B969     		ldr	r1, [r7, #24]
 602              	.LBE181:
 603              	.LBE180:
 604              	.LBE179:
 605              	.LBE178:
 606              		.loc 1 195 0
 607 0150 484B     		ldr	r3, .L20+4
 608 0152 8A68     		ldr	r2, [r1, #8]
 609 0154 0091     		str	r1, [sp]
 610 0156 013A     		subs	r2, r2, #1
 611 0158 4FF4E871 		mov	r1, #464
 612 015c 3046     		mov	r0, r6
 613 015e FFF7FEFF 		bl	chThdCreateStatic
 614              	.LVL68:
 615 0162 2060     		str	r0, [r4]
 616              		.loc 1 197 0
 617 0164 4FF0FF30 		mov	r0, #-1
 618 0168 FFF7FEFF 		bl	chEvtWaitAny
ARM GAS  /tmp/ccW4P4fb.s 			page 12


 619              	.LVL69:
 620              		.loc 1 198 0
 621 016c 05F5FA71 		add	r1, r5, #500
 622              	.LVL70:
 623              		.loc 1 197 0
 624 0170 0646     		mov	r6, r0
 625              	.LVL71:
 626              		.loc 1 198 0
 627 0172 05F22622 		addw	r2, r5, #550
 628 0176 0A20     		movs	r0, #10
 629              	.LVL72:
 630 0178 FFF7FEFF 		bl	_test_assert_time_window
 631              	.LVL73:
 632 017c 0028     		cmp	r0, #0
 633 017e 7FF452AF 		bne	.L15
 634              		.loc 1 199 0
 635 0182 701E     		subs	r0, r6, #1
 636 0184 4142     		rsbs	r1, r0, #0
 637 0186 4141     		adcs	r1, r1, r0
 638 0188 0B20     		movs	r0, #11
 639 018a FFF7FEFF 		bl	_test_assert
 640              	.LVL74:
 641 018e 0028     		cmp	r0, #0
 642 0190 7FF449AF 		bne	.L15
 643              		.loc 1 200 0
 644 0194 4FF0FF30 		mov	r0, #-1
 645 0198 FFF7FEFF 		bl	chEvtGetAndClearEvents
 646              	.LVL75:
 647              		.loc 1 201 0
 648 019c B0FA80F1 		clz	r1, r0
 649 01a0 0C20     		movs	r0, #12
 650              	.LVL76:
 651 01a2 4909     		lsrs	r1, r1, #5
 652 01a4 FFF7FEFF 		bl	_test_assert
 653              	.LVL77:
 654 01a8 8146     		mov	r9, r0
 655 01aa 0028     		cmp	r0, #0
 656 01ac 7FF43BAF 		bne	.L15
 657              	.LBB182:
 658              	.LBB183:
 659              		.loc 2 172 0
 660 01b0 324E     		ldr	r6, .L20+12
 661              	.LBE183:
 662              	.LBE182:
 663              	.LBB185:
 664              	.LBB186:
 665 01b2 334D     		ldr	r5, .L20+16
 666              	.LVL78:
 667              	.LBE186:
 668              	.LBE185:
 669              		.loc 1 202 0
 670 01b4 FFF7FEFF 		bl	test_wait_threads
 671              	.LVL79:
 672              	.LBB188:
 673              	.LBB189:
 674              		.loc 2 193 0
 675 01b8 3046     		mov	r0, r6
ARM GAS  /tmp/ccW4P4fb.s 			page 13


 676 01ba 02A9     		add	r1, sp, #8
 677 01bc 0122     		movs	r2, #1
 678 01be 4FF0FF33 		mov	r3, #-1
 679              	.LBE189:
 680              	.LBE188:
 681              	.LBB191:
 682              	.LBB184:
 683              		.loc 2 172 0
 684 01c2 3660     		str	r6, [r6]
 685              	.LVL80:
 686              	.LBE184:
 687              	.LBE191:
 688              	.LBB192:
 689              	.LBB187:
 690 01c4 2D60     		str	r5, [r5]
 691              	.LVL81:
 692              	.LBE187:
 693              	.LBE192:
 694              	.LBB193:
 695              	.LBB190:
 696              		.loc 2 193 0
 697 01c6 FFF7FEFF 		bl	chEvtRegisterMaskWithFlags
 698              	.LVL82:
 699              	.LBE190:
 700              	.LBE193:
 701              	.LBB194:
 702              	.LBB195:
 703 01ca 2846     		mov	r0, r5
 704 01cc 07A9     		add	r1, sp, #28
 705              	.LVL83:
 706 01ce 0422     		movs	r2, #4
 707 01d0 4FF0FF33 		mov	r3, #-1
 708 01d4 FFF7FEFF 		bl	chEvtRegisterMaskWithFlags
 709              	.LVL84:
 710              	.LBE195:
 711              	.LBE194:
 712              		.loc 1 211 0
 713 01d8 FFF7FEFF 		bl	test_wait_tick
 714              	.LVL85:
 715              	.LBB196:
 716              	.LBB197:
 717              	.LBB198:
 718              	.LBB199:
 719              	.LBB200:
 720              	.LBB201:
 721              		.loc 3 546 0
 722 01dc 2023     		movs	r3, #32
 723              	@ 546 "../ChibiOS/os/ext/CMSIS/include/core_cmFunc.h" 1
 724 01de 83F31188 		MSR basepri, r3
 725              	@ 0 "" 2
 726              		.thumb
 727              	.LBE201:
 728              	.LBE200:
 729              	.LBE199:
 730              	.LBE198:
 731              	.LBB202:
 732              	.LBB203:
ARM GAS  /tmp/ccW4P4fb.s 			page 14


 733              	.LBB204:
 734              	.LBB205:
 735              		.loc 4 128 0
 736 01e2 D8F82480 		ldr	r8, [r8, #36]
 737              	.LVL86:
 738              	.LBE205:
 739              	.LBE204:
 740              	.LBE203:
 741              	.LBE202:
 742              	.LBB206:
 743              	.LBB207:
 744              	.LBB208:
 745              	.LBB209:
 746              	.LBB210:
 747              		.loc 3 546 0
 748              	@ 546 "../ChibiOS/os/ext/CMSIS/include/core_cmFunc.h" 1
 749 01e6 89F31188 		MSR basepri, r9
 750              	@ 0 "" 2
 751              	.LVL87:
 752              		.thumb
 753              	.LBE210:
 754              	.LBE209:
 755              	.LBE208:
 756              	.LBE207:
 757              	.LBE206:
 758              	.LBE197:
 759              	.LBE196:
 760              	.LBB211:
 761              	.LBB212:
 762              		.loc 5 192 0
 763 01ea BA69     		ldr	r2, [r7, #24]
 764              	.LBE212:
 765              	.LBE211:
 766              		.loc 1 213 0
 767 01ec 254B     		ldr	r3, .L20+20
 768 01ee 9268     		ldr	r2, [r2, #8]
 769 01f0 DAF80000 		ldr	r0, [r10]
 770 01f4 0093     		str	r3, [sp]
 771 01f6 013A     		subs	r2, r2, #1
 772 01f8 4FF4E871 		mov	r1, #464
 773 01fc 224B     		ldr	r3, .L20+24
 774 01fe FFF7FEFF 		bl	chThdCreateStatic
 775              	.LVL88:
 776 0202 2060     		str	r0, [r4]
 777              		.loc 1 215 0
 778 0204 0520     		movs	r0, #5
 779 0206 FFF7FEFF 		bl	chEvtWaitAll
 780              	.LVL89:
 781              		.loc 1 216 0
 782 020a 08F5FA71 		add	r1, r8, #500
 783              	.LVL90:
 784 020e 08F22622 		addw	r2, r8, #550
 785 0212 0D20     		movs	r0, #13
 786 0214 FFF7FEFF 		bl	_test_assert_time_window
 787              	.LVL91:
 788 0218 0028     		cmp	r0, #0
 789 021a 7FF404AF 		bne	.L15
ARM GAS  /tmp/ccW4P4fb.s 			page 15


 790              		.loc 1 217 0
 791 021e 4FF0FF30 		mov	r0, #-1
 792 0222 FFF7FEFF 		bl	chEvtGetAndClearEvents
 793              	.LVL92:
 794              		.loc 1 218 0
 795 0226 B0FA80F1 		clz	r1, r0
 796 022a 0E20     		movs	r0, #14
 797              	.LVL93:
 798 022c 4909     		lsrs	r1, r1, #5
 799 022e FFF7FEFF 		bl	_test_assert
 800              	.LVL94:
 801 0232 0028     		cmp	r0, #0
 802 0234 7FF4F7AE 		bne	.L15
 803              		.loc 1 219 0
 804 0238 FFF7FEFF 		bl	test_wait_threads
 805              	.LVL95:
 806              		.loc 1 220 0
 807 023c 3046     		mov	r0, r6
 808 023e 02A9     		add	r1, sp, #8
 809              	.LVL96:
 810 0240 FFF7FEFF 		bl	chEvtUnregister
 811              	.LVL97:
 812              		.loc 1 221 0
 813 0244 2846     		mov	r0, r5
 814 0246 07A9     		add	r1, sp, #28
 815              	.LVL98:
 816 0248 FFF7FEFF 		bl	chEvtUnregister
 817              	.LVL99:
 818              		.loc 1 222 0
 819 024c 3168     		ldr	r1, [r6]
 820 024e 8A1B     		subs	r2, r1, r6
 821 0250 5142     		rsbs	r1, r2, #0
 822 0252 5141     		adcs	r1, r1, r2
 823 0254 0F20     		movs	r0, #15
 824 0256 FFF7FEFF 		bl	_test_assert
 825              	.LVL100:
 826 025a 0028     		cmp	r0, #0
 827 025c 7FF4E3AE 		bne	.L15
 828              	.LVL101:
 829              		.loc 1 223 0
 830 0260 2968     		ldr	r1, [r5]
 831 0262 4B1B     		subs	r3, r1, r5
 832 0264 5942     		rsbs	r1, r3, #0
 833 0266 5941     		adcs	r1, r1, r3
 834 0268 1020     		movs	r0, #16
 835 026a FFF7FEFF 		bl	_test_assert
 836              	.LVL102:
 837 026e DAE6     		b	.L15
 838              	.L21:
 839              		.align	2
 840              	.L20:
 841 0270 00000000 		.word	ch
 842 0274 00000000 		.word	thread1
 843 0278 00000000 		.word	threads
 844 027c 00000000 		.word	.LANCHOR0
 845 0280 00000000 		.word	.LANCHOR2
 846 0284 04000000 		.word	.LC1
ARM GAS  /tmp/ccW4P4fb.s 			page 16


 847 0288 00000000 		.word	thread2
 848 028c 00000000 		.word	wa
 849              		.cfi_endproc
 850              	.LFE234:
 851              		.size	evt2_execute, .-evt2_execute
 852              		.section	.text.thread2,"ax",%progbits
 853              		.align	2
 854              		.p2align 4,,15
 855              		.thumb
 856              		.thumb_func
 857              		.type	thread2, %function
 858              	thread2:
 859              	.LFB233:
 860              		.loc 1 140 0
 861              		.cfi_startproc
 862              		@ args = 0, pretend = 0, frame = 0
 863              		@ frame_needed = 0, uses_anonymous_args = 0
 864              	.LVL103:
 865 0000 08B5     		push	{r3, lr}
 866              		.cfi_def_cfa_offset 8
 867              		.cfi_offset 3, -8
 868              		.cfi_offset 14, -4
 869              	.LBB213:
 870              	.LBB214:
 871              		.loc 2 239 0
 872 0002 0021     		movs	r1, #0
 873 0004 0648     		ldr	r0, .L24
 874              	.LVL104:
 875 0006 FFF7FEFF 		bl	chEvtBroadcastFlags
 876              	.LVL105:
 877              	.LBE214:
 878              	.LBE213:
 879              		.loc 1 144 0
 880 000a 4FF4FA70 		mov	r0, #500
 881 000e FFF7FEFF 		bl	chThdSleep
 882              	.LVL106:
 883              	.LBB215:
 884              	.LBB216:
 885              		.loc 2 239 0
 886 0012 0448     		ldr	r0, .L24+4
 887 0014 0021     		movs	r1, #0
 888 0016 FFF7FEFF 		bl	chEvtBroadcastFlags
 889              	.LVL107:
 890              	.LBE216:
 891              	.LBE215:
 892              		.loc 1 147 0
 893 001a 0020     		movs	r0, #0
 894 001c 08BD     		pop	{r3, pc}
 895              	.L25:
 896 001e 00BF     		.align	2
 897              	.L24:
 898 0020 00000000 		.word	.LANCHOR0
 899 0024 00000000 		.word	.LANCHOR2
 900              		.cfi_endproc
 901              	.LFE233:
 902              		.size	thread2, .-thread2
 903 0028 AFF30080 		.section	.text.thread1,"ax",%progbits
ARM GAS  /tmp/ccW4P4fb.s 			page 17


 903      AFF30080 
 904              		.align	2
 905              		.p2align 4,,15
 906              		.thumb
 907              		.thumb_func
 908              		.type	thread1, %function
 909              	thread1:
 910              	.LFB232:
 911              		.loc 1 133 0
 912              		.cfi_startproc
 913              		@ args = 0, pretend = 0, frame = 0
 914              		@ frame_needed = 0, uses_anonymous_args = 0
 915              	.LVL108:
 916 0000 10B5     		push	{r4, lr}
 917              		.cfi_def_cfa_offset 8
 918              		.cfi_offset 4, -8
 919              		.cfi_offset 14, -4
 920              		.loc 1 133 0
 921 0002 0446     		mov	r4, r0
 922              		.loc 1 135 0
 923 0004 4FF4FA70 		mov	r0, #500
 924              	.LVL109:
 925 0008 FFF7FEFF 		bl	chThdSleep
 926              	.LVL110:
 927              		.loc 1 136 0
 928 000c 2046     		mov	r0, r4
 929 000e 0121     		movs	r1, #1
 930 0010 FFF7FEFF 		bl	chEvtSignal
 931              	.LVL111:
 932              		.loc 1 138 0
 933 0014 0020     		movs	r0, #0
 934 0016 10BD     		pop	{r4, pc}
 935              		.cfi_endproc
 936              	.LFE232:
 937              		.size	thread1, .-thread1
 938 0018 AFF30080 		.section	.text.evt3_execute,"ax",%progbits
 938      AFF30080 
 939              		.align	2
 940              		.p2align 4,,15
 941              		.thumb
 942              		.thumb_func
 943              		.type	evt3_execute, %function
 944              	evt3_execute:
 945              	.LFB236:
 946              		.loc 1 254 0
 947              		.cfi_startproc
 948              		@ args = 0, pretend = 0, frame = 0
 949              		@ frame_needed = 0, uses_anonymous_args = 0
 950 0000 08B5     		push	{r3, lr}
 951              		.cfi_def_cfa_offset 8
 952              		.cfi_offset 3, -8
 953              		.cfi_offset 14, -4
 954              		.loc 1 260 0
 955 0002 0021     		movs	r1, #0
 956 0004 4FF0FF30 		mov	r0, #-1
 957 0008 FFF7FEFF 		bl	chEvtWaitOneTimeout
 958              	.LVL112:
ARM GAS  /tmp/ccW4P4fb.s 			page 18


 959              		.loc 1 261 0
 960 000c B0FA80F1 		clz	r1, r0
 961 0010 0120     		movs	r0, #1
 962              	.LVL113:
 963 0012 4909     		lsrs	r1, r1, #5
 964 0014 FFF7FEFF 		bl	_test_assert
 965              	.LVL114:
 966 0018 00B1     		cbz	r0, .L33
 967              	.L28:
 968 001a 08BD     		pop	{r3, pc}
 969              	.L33:
 970              		.loc 1 262 0
 971 001c 0146     		mov	r1, r0
 972 001e 4FF0FF30 		mov	r0, #-1
 973 0022 FFF7FEFF 		bl	chEvtWaitAnyTimeout
 974              	.LVL115:
 975              		.loc 1 263 0
 976 0026 B0FA80F1 		clz	r1, r0
 977 002a 0220     		movs	r0, #2
 978              	.LVL116:
 979 002c 4909     		lsrs	r1, r1, #5
 980 002e FFF7FEFF 		bl	_test_assert
 981              	.LVL117:
 982 0032 0028     		cmp	r0, #0
 983 0034 F1D1     		bne	.L28
 984              		.loc 1 264 0
 985 0036 0146     		mov	r1, r0
 986 0038 4FF0FF30 		mov	r0, #-1
 987 003c FFF7FEFF 		bl	chEvtWaitAllTimeout
 988              	.LVL118:
 989              		.loc 1 265 0
 990 0040 B0FA80F1 		clz	r1, r0
 991 0044 0320     		movs	r0, #3
 992              	.LVL119:
 993 0046 4909     		lsrs	r1, r1, #5
 994 0048 FFF7FEFF 		bl	_test_assert
 995              	.LVL120:
 996 004c 0028     		cmp	r0, #0
 997 004e E4D1     		bne	.L28
 998              	.LBB219:
 999              	.LBB220:
 1000              		.loc 1 266 0
 1001 0050 0A21     		movs	r1, #10
 1002 0052 4FF0FF30 		mov	r0, #-1
 1003 0056 FFF7FEFF 		bl	chEvtWaitOneTimeout
 1004              	.LVL121:
 1005              		.loc 1 267 0
 1006 005a B0FA80F1 		clz	r1, r0
 1007 005e 0420     		movs	r0, #4
 1008              	.LVL122:
 1009 0060 4909     		lsrs	r1, r1, #5
 1010 0062 FFF7FEFF 		bl	_test_assert
 1011              	.LVL123:
 1012 0066 0028     		cmp	r0, #0
 1013 0068 D7D1     		bne	.L28
 1014              		.loc 1 268 0
 1015 006a 0A21     		movs	r1, #10
ARM GAS  /tmp/ccW4P4fb.s 			page 19


 1016 006c 4FF0FF30 		mov	r0, #-1
 1017 0070 FFF7FEFF 		bl	chEvtWaitAnyTimeout
 1018              	.LVL124:
 1019              		.loc 1 269 0
 1020 0074 B0FA80F1 		clz	r1, r0
 1021 0078 0520     		movs	r0, #5
 1022              	.LVL125:
 1023 007a 4909     		lsrs	r1, r1, #5
 1024 007c FFF7FEFF 		bl	_test_assert
 1025              	.LVL126:
 1026 0080 0028     		cmp	r0, #0
 1027 0082 CAD1     		bne	.L28
 1028              		.loc 1 270 0
 1029 0084 0A21     		movs	r1, #10
 1030 0086 4FF0FF30 		mov	r0, #-1
 1031 008a FFF7FEFF 		bl	chEvtWaitAllTimeout
 1032              	.LVL127:
 1033              	.LBE220:
 1034              	.LBE219:
 1035              		.loc 1 272 0
 1036 008e BDE80840 		pop	{r3, lr}
 1037              		.cfi_restore 14
 1038              		.cfi_restore 3
 1039              		.cfi_def_cfa_offset 0
 1040              	.LBB222:
 1041              	.LBB221:
 1042              		.loc 1 271 0
 1043 0092 B0FA80F1 		clz	r1, r0
 1044 0096 0620     		movs	r0, #6
 1045              	.LVL128:
 1046 0098 4909     		lsrs	r1, r1, #5
 1047 009a FFF7FEBF 		b	_test_assert
 1048              	.LVL129:
 1049              	.LBE221:
 1050              	.LBE222:
 1051              		.cfi_endproc
 1052              	.LFE236:
 1053              		.size	evt3_execute, .-evt3_execute
 1054              		.global	patternevt
 1055              		.global	testevt3
 1056              		.global	testevt2
 1057              		.global	testevt1
 1058              		.section	.rodata.patternevt,"a",%progbits
 1059              		.align	2
 1060              		.type	patternevt, %object
 1061              		.size	patternevt, 16
 1062              	patternevt:
 1063 0000 00000000 		.word	testevt1
 1064 0004 00000000 		.word	testevt2
 1065 0008 00000000 		.word	testevt3
 1066 000c 00000000 		.word	0
 1067              		.section	.rodata.testevt2,"a",%progbits
 1068              		.align	2
 1069              		.type	testevt2, %object
 1070              		.size	testevt2, 16
 1071              	testevt2:
 1072 0000 1C000000 		.word	.LC3
ARM GAS  /tmp/ccW4P4fb.s 			page 20


 1073 0004 00000000 		.word	evt2_setup
 1074 0008 00000000 		.word	0
 1075 000c 00000000 		.word	evt2_execute
 1076              		.section	.rodata.str1.4,"aMS",%progbits,1
 1077              		.align	2
 1078              	.LC0:
 1079 0000 41424300 		.ascii	"ABC\000"
 1080              	.LC1:
 1081 0004 4100     		.ascii	"A\000"
 1082 0006 0000     		.space	2
 1083              	.LC2:
 1084 0008 4576656E 		.ascii	"Events, timeouts\000"
 1084      74732C20 
 1084      74696D65 
 1084      6F757473 
 1084      00
 1085 0019 000000   		.space	3
 1086              	.LC3:
 1087 001c 4576656E 		.ascii	"Events, wait and broadcast\000"
 1087      74732C20 
 1087      77616974 
 1087      20616E64 
 1087      2062726F 
 1088 0037 00       		.space	1
 1089              	.LC4:
 1090 0038 4576656E 		.ascii	"Events, registration and dispatch\000"
 1090      74732C20 
 1090      72656769 
 1090      73747261 
 1090      74696F6E 
 1091 005a 0000     		.section	.rodata.testevt1,"a",%progbits
 1092              		.align	2
 1093              		.type	testevt1, %object
 1094              		.size	testevt1, 16
 1095              	testevt1:
 1096 0000 38000000 		.word	.LC4
 1097 0004 00000000 		.word	evt1_setup
 1098 0008 00000000 		.word	0
 1099 000c 00000000 		.word	evt1_execute
 1100              		.section	.rodata.evhndl,"a",%progbits
 1101              		.align	2
 1102              		.set	.LANCHOR1,. + 0
 1103              		.type	evhndl, %object
 1104              		.size	evhndl, 12
 1105              	evhndl:
 1106 0000 00000000 		.word	h1
 1107 0004 00000000 		.word	h2
 1108 0008 00000000 		.word	h3
 1109              		.section	.rodata.testevt3,"a",%progbits
 1110              		.align	2
 1111              		.type	testevt3, %object
 1112              		.size	testevt3, 16
 1113              	testevt3:
 1114 0000 08000000 		.word	.LC2
 1115 0004 00000000 		.word	evt3_setup
 1116 0008 00000000 		.word	0
 1117 000c 00000000 		.word	evt3_execute
ARM GAS  /tmp/ccW4P4fb.s 			page 21


 1118              		.section	.data.es1,"aw",%progbits
 1119              		.align	2
 1120              		.set	.LANCHOR0,. + 0
 1121              		.type	es1, %object
 1122              		.size	es1, 4
 1123              	es1:
 1124 0000 00000000 		.word	es1
 1125              		.section	.data.es2,"aw",%progbits
 1126              		.align	2
 1127              		.set	.LANCHOR2,. + 0
 1128              		.type	es2, %object
 1129              		.size	es2, 4
 1130              	es2:
 1131 0000 00000000 		.word	es2
 1132              		.text
 1133              	.Letext0:
 1134              		.file 6 "/l/arm2/gcc-arm-none-eabi-4_9-2014q4/lib/gcc/arm-none-eabi/4.9.3/include/stddef.h"
 1135              		.file 7 "/l/arm2/gcc-arm-none-eabi-4_9-2014q4/arm-none-eabi/include/machine/_default_types.h"
 1136              		.file 8 "/l/arm2/gcc-arm-none-eabi-4_9-2014q4/arm-none-eabi/include/stdint.h"
 1137              		.file 9 "../ChibiOS/os/rt/ports/ARMCMx/compilers/GCC/chtypes.h"
 1138              		.file 10 "../ChibiOS/os/rt/include/chsystypes.h"
 1139              		.file 11 "../ChibiOS/os/rt/include/chschd.h"
 1140              		.file 12 "../ChibiOS/os/rt/ports/ARMCMx/chcore.h"
 1141              		.file 13 "../ChibiOS/os/rt/ports/ARMCMx/chcore_v7m.h"
 1142              		.file 14 "../ChibiOS/os/hal/ports/STM32/LLD/TIMv1/stm32_tim.h"
 1143              		.file 15 "../ChibiOS/os/rt/include/chtm.h"
 1144              		.file 16 "../ChibiOS/os/rt/include/chmtx.h"
 1145              		.file 17 "../ChibiOS/test/rt/test.h"
 1146              		.file 18 "../ChibiOS/os/rt/ports/ARMCMx/chcore_timer.h"
 1147              		.file 19 "../ChibiOS/os/rt/include/chsys.h"
 1148              		.file 20 "../ChibiOS/os/rt/include/chvt.h"
 1149              		.file 21 "../ChibiOS/os/ext/CMSIS/include/core_cm4.h"