ARM GAS  /tmp/ccp0BxlB.s 			page 1


   1              		.syntax unified
   2              		.cpu cortex-m4
   3              		.eabi_attribute 27, 3
   4              		.eabi_attribute 28, 1
   5              		.fpu fpv4-sp-d16
   6              		.eabi_attribute 20, 1
   7              		.eabi_attribute 21, 1
   8              		.eabi_attribute 23, 3
   9              		.eabi_attribute 24, 1
  10              		.eabi_attribute 25, 1
  11              		.eabi_attribute 26, 1
  12              		.eabi_attribute 30, 2
  13              		.eabi_attribute 34, 1
  14              		.eabi_attribute 18, 4
  15              		.thumb
  16              		.file	"testdyn.c"
  17              		.text
  18              	.Ltext0:
  19              		.cfi_sections	.debug_frame
  20              		.section	.text.dyn1_execute,"ax",%progbits
  21              		.align	2
  22              		.p2align 4,,15
  23              		.thumb
  24              		.thumb_func
  25              		.type	dyn1_execute, %function
  26              	dyn1_execute:
  27              	.LFB228:
  28              		.file 1 "../ChibiOS/test/rt/testdyn.c"
  29              		.loc 1 83 0
  30              		.cfi_startproc
  31              		@ args = 0, pretend = 0, frame = 8
  32              		@ frame_needed = 0, uses_anonymous_args = 0
  33 0000 70B5     		push	{r4, r5, r6, lr}
  34              		.cfi_def_cfa_offset 16
  35              		.cfi_offset 4, -16
  36              		.cfi_offset 5, -12
  37              		.cfi_offset 6, -8
  38              		.cfi_offset 14, -4
  39              	.LBB16:
  40              	.LBB17:
  41              	.LBB18:
  42              	.LBB19:
  43              		.file 2 "../ChibiOS/os/rt/include/chthreads.h"
  44              		.loc 2 179 0
  45 0002 344B     		ldr	r3, .L13
  46              	.LBE19:
  47              	.LBE18:
  48              	.LBE17:
  49              	.LBE16:
  50              		.loc 1 88 0
  51 0004 3448     		ldr	r0, .L13+4
  52              	.LBB22:
  53              	.LBB20:
  54              		.loc 2 192 0
  55 0006 9B69     		ldr	r3, [r3, #24]
  56              	.LBE20:
  57              	.LBE22:
ARM GAS  /tmp/ccp0BxlB.s 			page 2


  58              		.loc 1 90 0
  59 0008 344C     		ldr	r4, .L13+8
  60              	.LBB23:
  61              	.LBB21:
  62              		.loc 2 192 0
  63 000a 9D68     		ldr	r5, [r3, #8]
  64              	.LBE21:
  65              	.LBE23:
  66              		.loc 1 83 0
  67 000c 84B0     		sub	sp, sp, #16
  68              		.cfi_def_cfa_offset 32
  69              		.loc 1 88 0
  70 000e 03A9     		add	r1, sp, #12
  71 0010 FFF7FEFF 		bl	chHeapStatus
  72              	.LVL0:
  73              		.loc 1 90 0
  74 0014 324B     		ldr	r3, .L13+12
  75 0016 0093     		str	r3, [sp]
  76 0018 6A1E     		subs	r2, r5, #1
  77 001a 324B     		ldr	r3, .L13+16
  78 001c 2E48     		ldr	r0, .L13+4
  79 001e 4FF4E871 		mov	r1, #464
  80 0022 FFF7FEFF 		bl	chThdCreateFromHeap
  81              	.LVL1:
  82              		.loc 1 93 0
  83 0026 304B     		ldr	r3, .L13+20
  84              		.loc 1 90 0
  85 0028 2060     		str	r0, [r4]
  86              		.loc 1 93 0
  87 002a AA1E     		subs	r2, r5, #2
  88 002c 0093     		str	r3, [sp]
  89 002e 4FF4E871 		mov	r1, #464
  90 0032 2C4B     		ldr	r3, .L13+16
  91 0034 2848     		ldr	r0, .L13+4
  92 0036 FFF7FEFF 		bl	chThdCreateFromHeap
  93              	.LVL2:
  94              		.loc 1 97 0
  95 003a 02A9     		add	r1, sp, #8
  96              		.loc 1 93 0
  97 003c 6060     		str	r0, [r4, #4]
  98              		.loc 1 97 0
  99 003e 2648     		ldr	r0, .L13+4
 100 0040 FFF7FEFF 		bl	chHeapStatus
 101              	.LVL3:
 102              		.loc 1 98 0
 103 0044 0299     		ldr	r1, [sp, #8]
 104 0046 2448     		ldr	r0, .L13+4
 105 0048 FFF7FEFF 		bl	chHeapAlloc
 106              	.LVL4:
 107              		.loc 1 99 0
 108 004c 274B     		ldr	r3, .L13+24
 109 004e 0093     		str	r3, [sp]
 110 0050 4FF4E871 		mov	r1, #464
 111              		.loc 1 98 0
 112 0054 0646     		mov	r6, r0
 113              	.LVL5:
 114              		.loc 1 99 0
ARM GAS  /tmp/ccp0BxlB.s 			page 3


 115 0056 EA1E     		subs	r2, r5, #3
 116 0058 224B     		ldr	r3, .L13+16
 117 005a 1F48     		ldr	r0, .L13+4
 118              	.LVL6:
 119 005c FFF7FEFF 		bl	chThdCreateFromHeap
 120              	.LVL7:
 121 0060 A060     		str	r0, [r4, #8]
 122              		.loc 1 102 0
 123 0062 3046     		mov	r0, r6
 124 0064 FFF7FEFF 		bl	chHeapFree
 125              	.LVL8:
 126              		.loc 1 104 0
 127 0068 2168     		ldr	r1, [r4]
 128 006a 21B1     		cbz	r1, .L2
 129              		.loc 1 104 0 is_stmt 0 discriminator 1
 130 006c 6168     		ldr	r1, [r4, #4]
 131 006e 11B1     		cbz	r1, .L2
 132              		.loc 1 104 0 discriminator 3
 133 0070 A168     		ldr	r1, [r4, #8]
 134 0072 31B3     		cbz	r1, .L11
 135 0074 0021     		movs	r1, #0
 136              	.L2:
 137              		.loc 1 104 0 discriminator 12
 138 0076 0120     		movs	r0, #1
 139 0078 FFF7FEFF 		bl	_test_assert
 140              	.LVL9:
 141 007c 08B1     		cbz	r0, .L12
 142              	.L1:
 143              		.loc 1 118 0 is_stmt 1
 144 007e 04B0     		add	sp, sp, #16
 145              		.cfi_remember_state
 146              		.cfi_def_cfa_offset 16
 147              		@ sp needed
 148 0080 70BD     		pop	{r4, r5, r6, pc}
 149              	.LVL10:
 150              	.L12:
 151              		.cfi_restore_state
 152              		.loc 1 112 0
 153 0082 FFF7FEFF 		bl	test_wait_threads
 154              	.LVL11:
 155              		.loc 1 113 0
 156 0086 0220     		movs	r0, #2
 157 0088 1949     		ldr	r1, .L13+28
 158 008a FFF7FEFF 		bl	_test_assert_sequence
 159              	.LVL12:
 160 008e 0028     		cmp	r0, #0
 161 0090 F5D1     		bne	.L1
 162              		.loc 1 116 0
 163 0092 02A9     		add	r1, sp, #8
 164 0094 1048     		ldr	r0, .L13+4
 165 0096 FFF7FEFF 		bl	chHeapStatus
 166              	.LVL13:
 167 009a A0F10101 		sub	r1, r0, #1
 168 009e 0320     		movs	r0, #3
 169 00a0 B1FA81F1 		clz	r1, r1
 170 00a4 4909     		lsrs	r1, r1, #5
 171 00a6 FFF7FEFF 		bl	_test_assert
ARM GAS  /tmp/ccp0BxlB.s 			page 4


 172              	.LVL14:
 173 00aa 0028     		cmp	r0, #0
 174 00ac E7D1     		bne	.L1
 175              		.loc 1 117 0
 176 00ae 0299     		ldr	r1, [sp, #8]
 177 00b0 039B     		ldr	r3, [sp, #12]
 178 00b2 0420     		movs	r0, #4
 179 00b4 C91A     		subs	r1, r1, r3
 180 00b6 B1FA81F1 		clz	r1, r1
 181 00ba 4909     		lsrs	r1, r1, #5
 182 00bc FFF7FEFF 		bl	_test_assert
 183              	.LVL15:
 184 00c0 DDE7     		b	.L1
 185              	.L11:
 186              		.loc 1 104 0 discriminator 5
 187 00c2 E368     		ldr	r3, [r4, #12]
 188 00c4 002B     		cmp	r3, #0
 189 00c6 D6D1     		bne	.L2
 190              		.loc 1 104 0 is_stmt 0 discriminator 7
 191 00c8 2169     		ldr	r1, [r4, #16]
 192 00ca B1FA81F1 		clz	r1, r1
 193 00ce 4909     		lsrs	r1, r1, #5
 194 00d0 D1E7     		b	.L2
 195              	.L14:
 196 00d2 00BF     		.align	2
 197              	.L13:
 198 00d4 00000000 		.word	ch
 199 00d8 00000000 		.word	.LANCHOR0
 200 00dc 00000000 		.word	threads
 201 00e0 00000000 		.word	.LC0
 202 00e4 00000000 		.word	thread
 203 00e8 04000000 		.word	.LC1
 204 00ec 08000000 		.word	.LC2
 205 00f0 0C000000 		.word	.LC3
 206              		.cfi_endproc
 207              	.LFE228:
 208              		.size	dyn1_execute, .-dyn1_execute
 209 00f4 AFF30080 		.section	.text.thread,"ax",%progbits
 209      AFF30080 
 209      AFF30080 
 210              		.align	2
 211              		.p2align 4,,15
 212              		.thumb
 213              		.thumb_func
 214              		.type	thread, %function
 215              	thread:
 216              	.LFB226:
 217              		.loc 1 71 0 is_stmt 1
 218              		.cfi_startproc
 219              		@ args = 0, pretend = 0, frame = 0
 220              		@ frame_needed = 0, uses_anonymous_args = 0
 221              	.LVL16:
 222 0000 08B5     		push	{r3, lr}
 223              		.cfi_def_cfa_offset 8
 224              		.cfi_offset 3, -8
 225              		.cfi_offset 14, -4
 226              		.loc 1 73 0
ARM GAS  /tmp/ccp0BxlB.s 			page 5


 227 0002 0078     		ldrb	r0, [r0]	@ zero_extendqisi2
 228              	.LVL17:
 229 0004 FFF7FEFF 		bl	test_emit_token
 230              	.LVL18:
 231              		.loc 1 75 0
 232 0008 0020     		movs	r0, #0
 233 000a 08BD     		pop	{r3, pc}
 234              		.cfi_endproc
 235              	.LFE226:
 236              		.size	thread, .-thread
 237 000c AFF30080 		.section	.text.dyn1_setup,"ax",%progbits
 238              		.align	2
 239              		.p2align 4,,15
 240              		.thumb
 241              		.thumb_func
 242              		.type	dyn1_setup, %function
 243              	dyn1_setup:
 244              	.LFB227:
 245              		.loc 1 78 0
 246              		.cfi_startproc
 247              		@ args = 0, pretend = 0, frame = 0
 248              		@ frame_needed = 0, uses_anonymous_args = 0
 249              		@ link register save eliminated.
 250              		.loc 1 80 0
 251 0000 0248     		ldr	r0, .L18
 252 0002 0349     		ldr	r1, .L18+4
 253 0004 4FF41162 		mov	r2, #2320
 254 0008 FFF7FEBF 		b	chHeapObjectInit
 255              	.LVL19:
 256              	.L19:
 257              		.align	2
 258              	.L18:
 259 000c 00000000 		.word	.LANCHOR0
 260 0010 00000000 		.word	test
 261              		.cfi_endproc
 262              	.LFE227:
 263              		.size	dyn1_setup, .-dyn1_setup
 264 0014 AFF30080 		.section	.text.dyn3_setup,"ax",%progbits
 264      AFF30080 
 264      AFF30080 
 265              		.align	2
 266              		.p2align 4,,15
 267              		.thumb
 268              		.thumb_func
 269              		.type	dyn3_setup, %function
 270              	dyn3_setup:
 271              	.LFB232:
 272              		.loc 1 206 0
 273              		.cfi_startproc
 274              		@ args = 0, pretend = 0, frame = 0
 275              		@ frame_needed = 0, uses_anonymous_args = 0
 276              		@ link register save eliminated.
 277              		.loc 1 208 0
 278 0000 0248     		ldr	r0, .L21
 279 0002 0349     		ldr	r1, .L21+4
 280 0004 4FF41162 		mov	r2, #2320
 281 0008 FFF7FEBF 		b	chHeapObjectInit
ARM GAS  /tmp/ccp0BxlB.s 			page 6


 282              	.LVL20:
 283              	.L22:
 284              		.align	2
 285              	.L21:
 286 000c 00000000 		.word	.LANCHOR0
 287 0010 00000000 		.word	test
 288              		.cfi_endproc
 289              	.LFE232:
 290              		.size	dyn3_setup, .-dyn3_setup
 291 0014 AFF30080 		.section	.text.dyn2_execute,"ax",%progbits
 291      AFF30080 
 291      AFF30080 
 292              		.align	2
 293              		.p2align 4,,15
 294              		.thumb
 295              		.thumb_func
 296              		.type	dyn2_execute, %function
 297              	dyn2_execute:
 298              	.LFB230:
 299              		.loc 1 144 0
 300              		.cfi_startproc
 301              		@ args = 0, pretend = 0, frame = 0
 302              		@ frame_needed = 0, uses_anonymous_args = 0
 303              	.LBB24:
 304              	.LBB25:
 305              	.LBB26:
 306              	.LBB27:
 307              		.loc 2 179 0
 308 0000 314B     		ldr	r3, .L38
 309              	.LBE27:
 310              	.LBE26:
 311              		.loc 2 192 0
 312 0002 9B69     		ldr	r3, [r3, #24]
 313              	.LBE25:
 314              	.LBE24:
 315              		.loc 1 144 0
 316 0004 70B5     		push	{r4, r5, r6, lr}
 317              		.cfi_def_cfa_offset 16
 318              		.cfi_offset 4, -16
 319              		.cfi_offset 5, -12
 320              		.cfi_offset 6, -8
 321              		.cfi_offset 14, -4
 322 0006 314C     		ldr	r4, .L38+4
 323              	.LBB29:
 324              	.LBB28:
 325              		.loc 2 192 0
 326 0008 9D68     		ldr	r5, [r3, #8]
 327              	.LVL21:
 328 000a 04F11006 		add	r6, r4, #16
 329              	.LVL22:
 330              	.L24:
 331              	.LBE28:
 332              	.LBE29:
 333              		.loc 1 150 0 discriminator 3
 334 000e 54F8041B 		ldr	r1, [r4], #4
 335 0012 2F48     		ldr	r0, .L38+8
 336 0014 FFF7FEFF 		bl	chPoolFree
ARM GAS  /tmp/ccp0BxlB.s 			page 7


 337              	.LVL23:
 338              		.loc 1 149 0 discriminator 3
 339 0018 B442     		cmp	r4, r6
 340 001a F8D1     		bne	.L24
 341              		.loc 1 153 0
 342 001c 2D4A     		ldr	r2, .L38+12
 343 001e 2E4B     		ldr	r3, .L38+16
 344 0020 2B48     		ldr	r0, .L38+8
 345 0022 2E4C     		ldr	r4, .L38+20
 346 0024 691E     		subs	r1, r5, #1
 347 0026 FFF7FEFF 		bl	chThdCreateFromMemoryPool
 348              	.LVL24:
 349              		.loc 1 154 0
 350 002a A91E     		subs	r1, r5, #2
 351              		.loc 1 153 0
 352 002c 2060     		str	r0, [r4]
 353              		.loc 1 154 0
 354 002e 294A     		ldr	r2, .L38+12
 355 0030 2B4B     		ldr	r3, .L38+24
 356 0032 2748     		ldr	r0, .L38+8
 357 0034 FFF7FEFF 		bl	chThdCreateFromMemoryPool
 358              	.LVL25:
 359              		.loc 1 155 0
 360 0038 E91E     		subs	r1, r5, #3
 361              		.loc 1 154 0
 362 003a 6060     		str	r0, [r4, #4]
 363              		.loc 1 155 0
 364 003c 254A     		ldr	r2, .L38+12
 365 003e 294B     		ldr	r3, .L38+28
 366 0040 2348     		ldr	r0, .L38+8
 367 0042 FFF7FEFF 		bl	chThdCreateFromMemoryPool
 368              	.LVL26:
 369              		.loc 1 156 0
 370 0046 291F     		subs	r1, r5, #4
 371              		.loc 1 155 0
 372 0048 A060     		str	r0, [r4, #8]
 373              		.loc 1 156 0
 374 004a 224A     		ldr	r2, .L38+12
 375 004c 264B     		ldr	r3, .L38+32
 376 004e 2048     		ldr	r0, .L38+8
 377 0050 FFF7FEFF 		bl	chThdCreateFromMemoryPool
 378              	.LVL27:
 379              		.loc 1 157 0
 380 0054 691F     		subs	r1, r5, #5
 381              		.loc 1 156 0
 382 0056 E060     		str	r0, [r4, #12]
 383              		.loc 1 157 0
 384 0058 1E4A     		ldr	r2, .L38+12
 385 005a 1D48     		ldr	r0, .L38+8
 386 005c 234B     		ldr	r3, .L38+36
 387 005e FFF7FEFF 		bl	chThdCreateFromMemoryPool
 388              	.LVL28:
 389              		.loc 1 159 0
 390 0062 2168     		ldr	r1, [r4]
 391              		.loc 1 157 0
 392 0064 2061     		str	r0, [r4, #16]
 393              		.loc 1 159 0
ARM GAS  /tmp/ccp0BxlB.s 			page 8


 394 0066 41B1     		cbz	r1, .L25
 395              		.loc 1 159 0 is_stmt 0 discriminator 1
 396 0068 6168     		ldr	r1, [r4, #4]
 397 006a 31B1     		cbz	r1, .L25
 398              		.loc 1 159 0 discriminator 3
 399 006c A168     		ldr	r1, [r4, #8]
 400 006e 21B1     		cbz	r1, .L25
 401              		.loc 1 159 0 discriminator 5
 402 0070 E168     		ldr	r1, [r4, #12]
 403 0072 11B1     		cbz	r1, .L25
 404              		.loc 1 159 0 discriminator 7
 405 0074 B0FA80F1 		clz	r1, r0
 406 0078 4909     		lsrs	r1, r1, #5
 407              	.L25:
 408              		.loc 1 159 0 discriminator 12
 409 007a 0120     		movs	r0, #1
 410 007c FFF7FEFF 		bl	_test_assert
 411              	.LVL29:
 412 0080 00B1     		cbz	r0, .L37
 413              	.L23:
 414 0082 70BD     		pop	{r4, r5, r6, pc}
 415              	.L37:
 416              		.loc 1 167 0 is_stmt 1
 417 0084 FFF7FEFF 		bl	test_wait_threads
 418              	.LVL30:
 419              		.loc 1 168 0
 420 0088 0220     		movs	r0, #2
 421 008a 1949     		ldr	r1, .L38+40
 422 008c FFF7FEFF 		bl	_test_assert_sequence
 423              	.LVL31:
 424 0090 0028     		cmp	r0, #0
 425 0092 F6D1     		bne	.L23
 426 0094 0424     		movs	r4, #4
 427              	.L29:
 428              	.LVL32:
 429              		.loc 1 172 0
 430 0096 0E48     		ldr	r0, .L38+8
 431 0098 FFF7FEFF 		bl	chPoolAlloc
 432              	.LVL33:
 433 009c 011C     		adds	r1, r0, #0
 434 009e 18BF     		it	ne
 435 00a0 0121     		movne	r1, #1
 436 00a2 0320     		movs	r0, #3
 437 00a4 FFF7FEFF 		bl	_test_assert
 438              	.LVL34:
 439 00a8 0028     		cmp	r0, #0
 440 00aa EAD1     		bne	.L23
 441              		.loc 1 171 0 discriminator 2
 442 00ac 013C     		subs	r4, r4, #1
 443              	.LVL35:
 444 00ae F2D1     		bne	.L29
 445              		.loc 1 173 0
 446 00b0 0748     		ldr	r0, .L38+8
 447 00b2 FFF7FEFF 		bl	chPoolAlloc
 448              	.LVL36:
 449              		.loc 1 174 0
 450 00b6 BDE87040 		pop	{r4, r5, r6, lr}
ARM GAS  /tmp/ccp0BxlB.s 			page 9


 451              		.cfi_restore 14
 452              		.cfi_restore 6
 453              		.cfi_restore 5
 454              		.cfi_restore 4
 455              		.cfi_def_cfa_offset 0
 456              	.LVL37:
 457              		.loc 1 173 0
 458 00ba B0FA80F1 		clz	r1, r0
 459 00be 0420     		movs	r0, #4
 460 00c0 4909     		lsrs	r1, r1, #5
 461 00c2 FFF7FEBF 		b	_test_assert
 462              	.LVL38:
 463              	.L39:
 464 00c6 00BF     		.align	2
 465              	.L38:
 466 00c8 00000000 		.word	ch
 467 00cc 00000000 		.word	wa
 468 00d0 00000000 		.word	.LANCHOR1
 469 00d4 00000000 		.word	thread
 470 00d8 00000000 		.word	.LC0
 471 00dc 00000000 		.word	threads
 472 00e0 04000000 		.word	.LC1
 473 00e4 08000000 		.word	.LC2
 474 00e8 10000000 		.word	.LC4
 475 00ec 14000000 		.word	.LC5
 476 00f0 18000000 		.word	.LC6
 477              		.cfi_endproc
 478              	.LFE230:
 479              		.size	dyn2_execute, .-dyn2_execute
 480 00f4 AFF30080 		.section	.text.dyn2_setup,"ax",%progbits
 480      AFF30080 
 480      AFF30080 
 481              		.align	2
 482              		.p2align 4,,15
 483              		.thumb
 484              		.thumb_func
 485              		.type	dyn2_setup, %function
 486              	dyn2_setup:
 487              	.LFB229:
 488              		.loc 1 139 0
 489              		.cfi_startproc
 490              		@ args = 0, pretend = 0, frame = 0
 491              		@ frame_needed = 0, uses_anonymous_args = 0
 492              		@ link register save eliminated.
 493              		.loc 1 141 0
 494 0000 0248     		ldr	r0, .L41
 495 0002 4FF4E871 		mov	r1, #464
 496 0006 0022     		movs	r2, #0
 497 0008 FFF7FEBF 		b	chPoolObjectInit
 498              	.LVL39:
 499              	.L42:
 500              		.align	2
 501              	.L41:
 502 000c 00000000 		.word	.LANCHOR1
 503              		.cfi_endproc
 504              	.LFE229:
 505              		.size	dyn2_setup, .-dyn2_setup
ARM GAS  /tmp/ccp0BxlB.s 			page 10


 506              		.section	.text.regfind,"ax",%progbits
 507              		.align	2
 508              		.p2align 4,,15
 509              		.thumb
 510              		.thumb_func
 511              		.type	regfind, %function
 512              	regfind:
 513              	.LFB231:
 514              		.loc 1 194 0
 515              		.cfi_startproc
 516              		@ args = 0, pretend = 0, frame = 0
 517              		@ frame_needed = 0, uses_anonymous_args = 0
 518              	.LVL40:
 519 0000 38B5     		push	{r3, r4, r5, lr}
 520              		.cfi_def_cfa_offset 16
 521              		.cfi_offset 3, -16
 522              		.cfi_offset 4, -12
 523              		.cfi_offset 5, -8
 524              		.cfi_offset 14, -4
 525              		.loc 1 194 0
 526 0002 0546     		mov	r5, r0
 527              		.loc 1 198 0
 528 0004 FFF7FEFF 		bl	chRegFirstThread
 529              	.LVL41:
 530              		.loc 1 196 0
 531 0008 0024     		movs	r4, #0
 532              		.loc 1 198 0
 533 000a 0346     		mov	r3, r0
 534              	.LVL42:
 535              	.L44:
 536              		.loc 1 201 0 discriminator 1
 537 000c 1846     		mov	r0, r3
 538              		.loc 1 200 0 discriminator 1
 539 000e AB42     		cmp	r3, r5
 540 0010 08BF     		it	eq
 541 0012 44F00104 		orreq	r4, r4, #1
 542              	.LVL43:
 543              		.loc 1 201 0 discriminator 1
 544 0016 FFF7FEFF 		bl	chRegNextThread
 545              	.LVL44:
 546              		.loc 1 202 0 discriminator 1
 547 001a 0346     		mov	r3, r0
 548 001c 0028     		cmp	r0, #0
 549 001e F5D1     		bne	.L44
 550              		.loc 1 204 0
 551 0020 2046     		mov	r0, r4
 552              	.LVL45:
 553 0022 38BD     		pop	{r3, r4, r5, pc}
 554              		.cfi_endproc
 555              	.LFE231:
 556              		.size	regfind, .-regfind
 557 0024 AFF30080 		.section	.text.dyn3_execute,"ax",%progbits
 557      AFF30080 
 557      AFF30080 
 558              		.align	2
 559              		.p2align 4,,15
 560              		.thumb
ARM GAS  /tmp/ccp0BxlB.s 			page 11


 561              		.thumb_func
 562              		.type	dyn3_execute, %function
 563              	dyn3_execute:
 564              	.LFB233:
 565              		.loc 1 211 0
 566              		.cfi_startproc
 567              		@ args = 0, pretend = 0, frame = 0
 568              		@ frame_needed = 0, uses_anonymous_args = 0
 569 0000 10B5     		push	{r4, lr}
 570              		.cfi_def_cfa_offset 8
 571              		.cfi_offset 4, -8
 572              		.cfi_offset 14, -4
 573              	.LBB30:
 574              	.LBB31:
 575              	.LBB32:
 576              	.LBB33:
 577              		.loc 2 179 0
 578 0002 484B     		ldr	r3, .L53
 579              	.LBE33:
 580              	.LBE32:
 581              	.LBE31:
 582              	.LBE30:
 583              		.loc 1 216 0
 584 0004 4849     		ldr	r1, .L53+4
 585              	.LBB35:
 586              	.LBB34:
 587              		.loc 2 192 0
 588 0006 9B69     		ldr	r3, [r3, #24]
 589              	.LBE34:
 590              	.LBE35:
 591              		.loc 1 216 0
 592 0008 4848     		ldr	r0, .L53+8
 593 000a 9A68     		ldr	r2, [r3, #8]
 594 000c 484B     		ldr	r3, .L53+12
 595              		.loc 1 211 0
 596 000e 82B0     		sub	sp, sp, #8
 597              		.cfi_def_cfa_offset 16
 598              		.loc 1 216 0
 599 0010 013A     		subs	r2, r2, #1
 600 0012 0091     		str	r1, [sp]
 601 0014 4FF4E871 		mov	r1, #464
 602 0018 FFF7FEFF 		bl	chThdCreateFromHeap
 603              	.LVL46:
 604 001c 0446     		mov	r4, r0
 605              	.LVL47:
 606              		.loc 1 217 0
 607 001e 0120     		movs	r0, #1
 608              	.LVL48:
 609 0020 A17F     		ldrb	r1, [r4, #30]	@ zero_extendqisi2
 610 0022 091A     		subs	r1, r1, r0
 611 0024 B1FA81F1 		clz	r1, r1
 612 0028 4909     		lsrs	r1, r1, #5
 613 002a FFF7FEFF 		bl	_test_assert
 614              	.LVL49:
 615 002e 08B1     		cbz	r0, .L52
 616              	.L47:
 617              		.loc 1 239 0
ARM GAS  /tmp/ccp0BxlB.s 			page 12


 618 0030 02B0     		add	sp, sp, #8
 619              		.cfi_remember_state
 620              		.cfi_def_cfa_offset 8
 621              		@ sp needed
 622 0032 10BD     		pop	{r4, pc}
 623              	.LVL50:
 624              	.L52:
 625              		.cfi_restore_state
 626              		.loc 1 218 0
 627 0034 2046     		mov	r0, r4
 628 0036 FFF7FEFF 		bl	chThdAddRef
 629              	.LVL51:
 630              		.loc 1 219 0
 631 003a A17F     		ldrb	r1, [r4, #30]	@ zero_extendqisi2
 632 003c 0220     		movs	r0, #2
 633 003e 091A     		subs	r1, r1, r0
 634 0040 B1FA81F1 		clz	r1, r1
 635 0044 4909     		lsrs	r1, r1, #5
 636 0046 FFF7FEFF 		bl	_test_assert
 637              	.LVL52:
 638 004a 0028     		cmp	r0, #0
 639 004c F0D1     		bne	.L47
 640              		.loc 1 220 0
 641 004e 2046     		mov	r0, r4
 642 0050 FFF7FEFF 		bl	chThdRelease
 643              	.LVL53:
 644              		.loc 1 221 0
 645 0054 A17F     		ldrb	r1, [r4, #30]	@ zero_extendqisi2
 646 0056 0320     		movs	r0, #3
 647 0058 A1F10101 		sub	r1, #1
 648 005c B1FA81F1 		clz	r1, r1
 649 0060 4909     		lsrs	r1, r1, #5
 650 0062 FFF7FEFF 		bl	_test_assert
 651              	.LVL54:
 652 0066 0028     		cmp	r0, #0
 653 0068 E2D1     		bne	.L47
 654              		.loc 1 224 0
 655 006a 2046     		mov	r0, r4
 656 006c FFF7FEFF 		bl	regfind
 657              	.LVL55:
 658 0070 0146     		mov	r1, r0
 659 0072 0420     		movs	r0, #4
 660 0074 FFF7FEFF 		bl	_test_assert
 661              	.LVL56:
 662 0078 0028     		cmp	r0, #0
 663 007a D9D1     		bne	.L47
 664              		.loc 1 225 0
 665 007c 2046     		mov	r0, r4
 666 007e FFF7FEFF 		bl	regfind
 667              	.LVL57:
 668 0082 0146     		mov	r1, r0
 669 0084 0520     		movs	r0, #5
 670 0086 FFF7FEFF 		bl	_test_assert
 671              	.LVL58:
 672 008a 0028     		cmp	r0, #0
 673 008c D0D1     		bne	.L47
 674              		.loc 1 228 0
ARM GAS  /tmp/ccp0BxlB.s 			page 13


 675 008e 2046     		mov	r0, r4
 676 0090 FFF7FEFF 		bl	chThdRelease
 677              	.LVL59:
 678              		.loc 1 229 0
 679 0094 A17F     		ldrb	r1, [r4, #30]	@ zero_extendqisi2
 680 0096 B1FA81F1 		clz	r1, r1
 681 009a 0620     		movs	r0, #6
 682 009c 4909     		lsrs	r1, r1, #5
 683 009e FFF7FEFF 		bl	_test_assert
 684              	.LVL60:
 685 00a2 0028     		cmp	r0, #0
 686 00a4 C4D1     		bne	.L47
 687              		.loc 1 230 0
 688 00a6 217F     		ldrb	r1, [r4, #28]	@ zero_extendqisi2
 689 00a8 B1FA81F1 		clz	r1, r1
 690 00ac 0720     		movs	r0, #7
 691 00ae 4909     		lsrs	r1, r1, #5
 692 00b0 FFF7FEFF 		bl	_test_assert
 693              	.LVL61:
 694 00b4 0028     		cmp	r0, #0
 695 00b6 BBD1     		bne	.L47
 696              		.loc 1 231 0
 697 00b8 2046     		mov	r0, r4
 698 00ba FFF7FEFF 		bl	regfind
 699              	.LVL62:
 700 00be 0146     		mov	r1, r0
 701 00c0 0820     		movs	r0, #8
 702 00c2 FFF7FEFF 		bl	_test_assert
 703              	.LVL63:
 704 00c6 0028     		cmp	r0, #0
 705 00c8 B2D1     		bne	.L47
 706              		.loc 1 232 0
 707 00ca 2046     		mov	r0, r4
 708 00cc FFF7FEFF 		bl	regfind
 709              	.LVL64:
 710 00d0 0146     		mov	r1, r0
 711 00d2 0920     		movs	r0, #9
 712 00d4 FFF7FEFF 		bl	_test_assert
 713              	.LVL65:
 714 00d8 0028     		cmp	r0, #0
 715 00da A9D1     		bne	.L47
 716              		.loc 1 233 0
 717 00dc 4FF4FA70 		mov	r0, #500
 718 00e0 FFF7FEFF 		bl	chThdSleep
 719              	.LVL66:
 720              		.loc 1 234 0
 721 00e4 217F     		ldrb	r1, [r4, #28]	@ zero_extendqisi2
 722 00e6 A1F10F03 		sub	r3, r1, #15
 723 00ea 5942     		rsbs	r1, r3, #0
 724 00ec 5941     		adcs	r1, r1, r3
 725 00ee 0A20     		movs	r0, #10
 726 00f0 FFF7FEFF 		bl	_test_assert
 727              	.LVL67:
 728 00f4 0028     		cmp	r0, #0
 729 00f6 9BD1     		bne	.L47
 730              		.loc 1 237 0
 731 00f8 2046     		mov	r0, r4
ARM GAS  /tmp/ccp0BxlB.s 			page 14


 732 00fa FFF7FEFF 		bl	regfind
 733              	.LVL68:
 734 00fe 0146     		mov	r1, r0
 735 0100 0B20     		movs	r0, #11
 736 0102 FFF7FEFF 		bl	_test_assert
 737              	.LVL69:
 738 0106 0028     		cmp	r0, #0
 739 0108 92D1     		bne	.L47
 740              		.loc 1 238 0
 741 010a 2046     		mov	r0, r4
 742 010c FFF7FEFF 		bl	regfind
 743              	.LVL70:
 744 0110 80F00101 		eor	r1, r0, #1
 745 0114 C9B2     		uxtb	r1, r1
 746 0116 0C20     		movs	r0, #12
 747              		.loc 1 239 0
 748 0118 02B0     		add	sp, sp, #8
 749              		.cfi_def_cfa_offset 8
 750              		@ sp needed
 751 011a BDE81040 		pop	{r4, lr}
 752              		.cfi_restore 14
 753              		.cfi_restore 4
 754              		.cfi_def_cfa_offset 0
 755              	.LVL71:
 756              		.loc 1 238 0
 757 011e FFF7FEBF 		b	_test_assert
 758              	.LVL72:
 759              	.L54:
 760 0122 00BF     		.align	2
 761              	.L53:
 762 0124 00000000 		.word	ch
 763 0128 00000000 		.word	.LC0
 764 012c 00000000 		.word	.LANCHOR0
 765 0130 00000000 		.word	thread
 766              		.cfi_endproc
 767              	.LFE233:
 768              		.size	dyn3_execute, .-dyn3_execute
 769              		.global	patterndyn
 770              		.global	testdyn3
 771              		.global	testdyn2
 772              		.global	testdyn1
 773 0134 AFF30080 		.section	.rodata.testdyn1,"a",%progbits
 773      AFF30080 
 773      AFF30080 
 774              		.align	2
 775              		.type	testdyn1, %object
 776              		.size	testdyn1, 16
 777              	testdyn1:
 778 0000 78000000 		.word	.LC9
 779 0004 00000000 		.word	dyn1_setup
 780 0008 00000000 		.word	0
 781 000c 00000000 		.word	dyn1_execute
 782              		.section	.rodata.testdyn2,"a",%progbits
 783              		.align	2
 784              		.type	testdyn2, %object
 785              		.size	testdyn2, 16
 786              	testdyn2:
ARM GAS  /tmp/ccp0BxlB.s 			page 15


 787 0000 48000000 		.word	.LC8
 788 0004 00000000 		.word	dyn2_setup
 789 0008 00000000 		.word	0
 790 000c 00000000 		.word	dyn2_execute
 791              		.section	.rodata.testdyn3,"a",%progbits
 792              		.align	2
 793              		.type	testdyn3, %object
 794              		.size	testdyn3, 16
 795              	testdyn3:
 796 0000 20000000 		.word	.LC7
 797 0004 00000000 		.word	dyn3_setup
 798 0008 00000000 		.word	0
 799 000c 00000000 		.word	dyn3_execute
 800              		.section	.bss.mp1,"aw",%nobits
 801              		.align	2
 802              		.set	.LANCHOR1,. + 0
 803              		.type	mp1, %object
 804              		.size	mp1, 12
 805              	mp1:
 806 0000 00000000 		.space	12
 806      00000000 
 806      00000000 
 807              		.section	.rodata.str1.4,"aMS",%progbits,1
 808              		.align	2
 809              	.LC0:
 810 0000 4100     		.ascii	"A\000"
 811 0002 0000     		.space	2
 812              	.LC1:
 813 0004 4200     		.ascii	"B\000"
 814 0006 0000     		.space	2
 815              	.LC2:
 816 0008 4300     		.ascii	"C\000"
 817 000a 0000     		.space	2
 818              	.LC3:
 819 000c 414200   		.ascii	"AB\000"
 820 000f 00       		.space	1
 821              	.LC4:
 822 0010 4400     		.ascii	"D\000"
 823 0012 0000     		.space	2
 824              	.LC5:
 825 0014 4500     		.ascii	"E\000"
 826 0016 0000     		.space	2
 827              	.LC6:
 828 0018 41424344 		.ascii	"ABCD\000"
 828      00
 829 001d 000000   		.space	3
 830              	.LC7:
 831 0020 44796E61 		.ascii	"Dynamic APIs, registry and references\000"
 831      6D696320 
 831      41504973 
 831      2C207265 
 831      67697374 
 832 0046 0000     		.space	2
 833              	.LC8:
 834 0048 44796E61 		.ascii	"Dynamic APIs, threads creation from memory pool\000"
 834      6D696320 
 834      41504973 
ARM GAS  /tmp/ccp0BxlB.s 			page 16


 834      2C207468 
 834      72656164 
 835              	.LC9:
 836 0078 44796E61 		.ascii	"Dynamic APIs, threads creation from heap\000"
 836      6D696320 
 836      41504973 
 836      2C207468 
 836      72656164 
 837 00a1 000000   		.section	.rodata.patterndyn,"a",%progbits
 838              		.align	2
 839              		.type	patterndyn, %object
 840              		.size	patterndyn, 16
 841              	patterndyn:
 842 0000 00000000 		.word	testdyn1
 843 0004 00000000 		.word	testdyn2
 844 0008 00000000 		.word	testdyn3
 845 000c 00000000 		.word	0
 846              		.section	.bss.heap1,"aw",%nobits
 847              		.align	3
 848              		.set	.LANCHOR0,. + 0
 849              		.type	heap1, %object
 850              		.size	heap1, 32
 851              	heap1:
 852 0000 00000000 		.space	32
 852      00000000 
 852      00000000 
 852      00000000 
 852      00000000 
 853              		.text
 854              	.Letext0:
 855              		.file 3 "/l/arm2/gcc-arm-none-eabi-4_9-2014q4/lib/gcc/arm-none-eabi/4.9.3/include/stddef.h"
 856              		.file 4 "/l/arm2/gcc-arm-none-eabi-4_9-2014q4/arm-none-eabi/include/machine/_default_types.h"
 857              		.file 5 "/l/arm2/gcc-arm-none-eabi-4_9-2014q4/arm-none-eabi/include/stdint.h"
 858              		.file 6 "../ChibiOS/os/rt/ports/ARMCMx/compilers/GCC/chtypes.h"
 859              		.file 7 "../ChibiOS/os/rt/include/chsystypes.h"
 860              		.file 8 "../ChibiOS/os/rt/include/chschd.h"
 861              		.file 9 "../ChibiOS/os/rt/ports/ARMCMx/chcore.h"
 862              		.file 10 "../ChibiOS/os/rt/ports/ARMCMx/chcore_v7m.h"
 863              		.file 11 "../ChibiOS/os/rt/include/chtm.h"
 864              		.file 12 "../ChibiOS/os/rt/include/chmtx.h"
 865              		.file 13 "../ChibiOS/os/rt/include/chmemcore.h"
 866              		.file 14 "../ChibiOS/os/rt/include/chheap.h"
 867              		.file 15 "../ChibiOS/os/rt/include/chmempools.h"
 868              		.file 16 "../ChibiOS/test/rt/test.h"
 869              		.file 17 "../ChibiOS/os/ext/CMSIS/include/core_cm4.h"
 870              		.file 18 "../ChibiOS/os/rt/include/chdynamic.h"
 871              		.file 19 "../ChibiOS/os/rt/include/chregistry.h"