ARM GAS  /tmp/cc9hyemz.s 			page 1


   1              		.syntax unified
   2              		.cpu cortex-m4
   3              		.eabi_attribute 27, 3
   4              		.eabi_attribute 28, 1
   5              		.fpu fpv4-sp-d16
   6              		.eabi_attribute 20, 1
   7              		.eabi_attribute 21, 1
   8              		.eabi_attribute 23, 3
   9              		.eabi_attribute 24, 1
  10              		.eabi_attribute 25, 1
  11              		.eabi_attribute 26, 1
  12              		.eabi_attribute 30, 2
  13              		.eabi_attribute 34, 1
  14              		.eabi_attribute 18, 4
  15              		.thumb
  16              		.file	"testthd.c"
  17              		.text
  18              	.Ltext0:
  19              		.cfi_sections	.debug_frame
  20              		.section	.text.thd1_execute,"ax",%progbits
  21              		.align	2
  22              		.p2align 4,,15
  23              		.thumb
  24              		.thumb_func
  25              		.type	thd1_execute, %function
  26              	thd1_execute:
  27              	.LFB227:
  28              		.file 1 "../ChibiOS/test/rt/testthd.c"
  29              		.loc 1 66 0
  30              		.cfi_startproc
  31              		@ args = 0, pretend = 0, frame = 0
  32              		@ frame_needed = 0, uses_anonymous_args = 0
  33 0000 F0B5     		push	{r4, r5, r6, r7, lr}
  34              		.cfi_def_cfa_offset 20
  35              		.cfi_offset 4, -20
  36              		.cfi_offset 5, -16
  37              		.cfi_offset 6, -12
  38              		.cfi_offset 7, -8
  39              		.cfi_offset 14, -4
  40              	.LBB257:
  41              	.LBB258:
  42              	.LBB259:
  43              	.LBB260:
  44              		.file 2 "../ChibiOS/os/rt/include/chthreads.h"
  45              		.loc 2 179 0
  46 0002 274F     		ldr	r7, .L3
  47              	.LBE260:
  48              	.LBE259:
  49              	.LBE258:
  50              	.LBE257:
  51              		.loc 1 68 0
  52 0004 274E     		ldr	r6, .L3+4
  53              	.LBB262:
  54              	.LBB261:
  55              		.loc 2 192 0
  56 0006 BB69     		ldr	r3, [r7, #24]
  57              	.LBE261:
ARM GAS  /tmp/cc9hyemz.s 			page 2


  58              	.LBE262:
  59              		.loc 1 68 0
  60 0008 274D     		ldr	r5, .L3+8
  61 000a 9A68     		ldr	r2, [r3, #8]
  62 000c 274B     		ldr	r3, .L3+12
  63 000e 3068     		ldr	r0, [r6]
  64 0010 274C     		ldr	r4, .L3+16
  65              		.loc 1 66 0
  66 0012 83B0     		sub	sp, sp, #12
  67              		.cfi_def_cfa_offset 32
  68              		.loc 1 68 0
  69 0014 053A     		subs	r2, r2, #5
  70 0016 0093     		str	r3, [sp]
  71 0018 4FF4E871 		mov	r1, #464
  72 001c 2B46     		mov	r3, r5
  73 001e FFF7FEFF 		bl	chThdCreateStatic
  74              	.LVL0:
  75              	.LBB263:
  76              	.LBB264:
  77              		.loc 2 192 0
  78 0022 BB69     		ldr	r3, [r7, #24]
  79              	.LBE264:
  80              	.LBE263:
  81              		.loc 1 69 0
  82 0024 2349     		ldr	r1, .L3+20
  83 0026 9A68     		ldr	r2, [r3, #8]
  84 0028 7368     		ldr	r3, [r6, #4]
  85              		.loc 1 68 0
  86 002a 2060     		str	r0, [r4]
  87              		.loc 1 69 0
  88 002c 0091     		str	r1, [sp]
  89 002e 043A     		subs	r2, r2, #4
  90 0030 1846     		mov	r0, r3
  91 0032 4FF4E871 		mov	r1, #464
  92 0036 2B46     		mov	r3, r5
  93 0038 FFF7FEFF 		bl	chThdCreateStatic
  94              	.LVL1:
  95              	.LBB265:
  96              	.LBB266:
  97              		.loc 2 192 0
  98 003c BA69     		ldr	r2, [r7, #24]
  99              	.LBE266:
 100              	.LBE265:
 101              		.loc 1 70 0
 102 003e B368     		ldr	r3, [r6, #8]
 103 0040 9268     		ldr	r2, [r2, #8]
 104 0042 1D49     		ldr	r1, .L3+24
 105              		.loc 1 69 0
 106 0044 6060     		str	r0, [r4, #4]
 107              		.loc 1 70 0
 108 0046 0091     		str	r1, [sp]
 109 0048 033A     		subs	r2, r2, #3
 110 004a 1846     		mov	r0, r3
 111 004c 4FF4E871 		mov	r1, #464
 112 0050 2B46     		mov	r3, r5
 113 0052 FFF7FEFF 		bl	chThdCreateStatic
 114              	.LVL2:
ARM GAS  /tmp/cc9hyemz.s 			page 3


 115              	.LBB267:
 116              	.LBB268:
 117              		.loc 2 192 0
 118 0056 BA69     		ldr	r2, [r7, #24]
 119              	.LBE268:
 120              	.LBE267:
 121              		.loc 1 71 0
 122 0058 F368     		ldr	r3, [r6, #12]
 123 005a 9268     		ldr	r2, [r2, #8]
 124 005c 1749     		ldr	r1, .L3+28
 125              		.loc 1 70 0
 126 005e A060     		str	r0, [r4, #8]
 127              		.loc 1 71 0
 128 0060 0091     		str	r1, [sp]
 129 0062 023A     		subs	r2, r2, #2
 130 0064 1846     		mov	r0, r3
 131 0066 4FF4E871 		mov	r1, #464
 132 006a 2B46     		mov	r3, r5
 133 006c FFF7FEFF 		bl	chThdCreateStatic
 134              	.LVL3:
 135              	.LBB269:
 136              	.LBB270:
 137              		.loc 2 192 0
 138 0070 BA69     		ldr	r2, [r7, #24]
 139              	.LBE270:
 140              	.LBE269:
 141              		.loc 1 72 0
 142 0072 3369     		ldr	r3, [r6, #16]
 143 0074 9268     		ldr	r2, [r2, #8]
 144 0076 1249     		ldr	r1, .L3+32
 145              		.loc 1 71 0
 146 0078 E060     		str	r0, [r4, #12]
 147              		.loc 1 72 0
 148 007a 013A     		subs	r2, r2, #1
 149 007c 0091     		str	r1, [sp]
 150 007e 1846     		mov	r0, r3
 151 0080 4FF4E871 		mov	r1, #464
 152 0084 2B46     		mov	r3, r5
 153 0086 FFF7FEFF 		bl	chThdCreateStatic
 154              	.LVL4:
 155 008a 2061     		str	r0, [r4, #16]
 156              		.loc 1 73 0
 157 008c FFF7FEFF 		bl	test_wait_threads
 158              	.LVL5:
 159              		.loc 1 74 0
 160 0090 0C49     		ldr	r1, .L3+36
 161 0092 0120     		movs	r0, #1
 162              		.loc 1 75 0
 163 0094 03B0     		add	sp, sp, #12
 164              		.cfi_def_cfa_offset 20
 165              		@ sp needed
 166 0096 BDE8F040 		pop	{r4, r5, r6, r7, lr}
 167              		.cfi_restore 14
 168              		.cfi_restore 7
 169              		.cfi_restore 6
 170              		.cfi_restore 5
 171              		.cfi_restore 4
ARM GAS  /tmp/cc9hyemz.s 			page 4


 172              		.cfi_def_cfa_offset 0
 173              		.loc 1 74 0
 174 009a FFF7FEBF 		b	_test_assert_sequence
 175              	.LVL6:
 176              	.L4:
 177 009e 00BF     		.align	2
 178              	.L3:
 179 00a0 00000000 		.word	ch
 180 00a4 00000000 		.word	wa
 181 00a8 00000000 		.word	thread
 182 00ac 00000000 		.word	.LC0
 183 00b0 00000000 		.word	threads
 184 00b4 04000000 		.word	.LC1
 185 00b8 08000000 		.word	.LC2
 186 00bc 0C000000 		.word	.LC3
 187 00c0 10000000 		.word	.LC4
 188 00c4 14000000 		.word	.LC5
 189              		.cfi_endproc
 190              	.LFE227:
 191              		.size	thd1_execute, .-thd1_execute
 192 00c8 AFF30080 		.section	.text.thread,"ax",%progbits
 192      AFF30080 
 193              		.align	2
 194              		.p2align 4,,15
 195              		.thumb
 196              		.thumb_func
 197              		.type	thread, %function
 198              	thread:
 199              	.LFB226:
 200              		.loc 1 60 0
 201              		.cfi_startproc
 202              		@ args = 0, pretend = 0, frame = 0
 203              		@ frame_needed = 0, uses_anonymous_args = 0
 204              	.LVL7:
 205 0000 08B5     		push	{r3, lr}
 206              		.cfi_def_cfa_offset 8
 207              		.cfi_offset 3, -8
 208              		.cfi_offset 14, -4
 209              		.loc 1 62 0
 210 0002 0078     		ldrb	r0, [r0]	@ zero_extendqisi2
 211              	.LVL8:
 212 0004 FFF7FEFF 		bl	test_emit_token
 213              	.LVL9:
 214              		.loc 1 64 0
 215 0008 0020     		movs	r0, #0
 216 000a 08BD     		pop	{r3, pc}
 217              		.cfi_endproc
 218              	.LFE226:
 219              		.size	thread, .-thread
 220 000c AFF30080 		.section	.text.thd2_execute,"ax",%progbits
 221              		.align	2
 222              		.p2align 4,,15
 223              		.thumb
 224              		.thumb_func
 225              		.type	thd2_execute, %function
 226              	thd2_execute:
 227              	.LFB228:
ARM GAS  /tmp/cc9hyemz.s 			page 5


 228              		.loc 1 94 0
 229              		.cfi_startproc
 230              		@ args = 0, pretend = 0, frame = 0
 231              		@ frame_needed = 0, uses_anonymous_args = 0
 232 0000 F0B5     		push	{r4, r5, r6, r7, lr}
 233              		.cfi_def_cfa_offset 20
 234              		.cfi_offset 4, -20
 235              		.cfi_offset 5, -16
 236              		.cfi_offset 6, -12
 237              		.cfi_offset 7, -8
 238              		.cfi_offset 14, -4
 239              	.LBB271:
 240              	.LBB272:
 241              	.LBB273:
 242              	.LBB274:
 243              		.loc 2 179 0
 244 0002 2B4F     		ldr	r7, .L9
 245              	.LBE274:
 246              	.LBE273:
 247              	.LBE272:
 248              	.LBE271:
 249              		.loc 1 96 0
 250 0004 2B4E     		ldr	r6, .L9+4
 251              	.LBB276:
 252              	.LBB275:
 253              		.loc 2 192 0
 254 0006 BB69     		ldr	r3, [r7, #24]
 255              	.LBE275:
 256              	.LBE276:
 257              		.loc 1 96 0
 258 0008 2B4D     		ldr	r5, .L9+8
 259 000a 9A68     		ldr	r2, [r3, #8]
 260 000c 2B4B     		ldr	r3, .L9+12
 261 000e 7068     		ldr	r0, [r6, #4]
 262 0010 2B4C     		ldr	r4, .L9+16
 263              		.loc 1 94 0
 264 0012 83B0     		sub	sp, sp, #12
 265              		.cfi_def_cfa_offset 32
 266              		.loc 1 96 0
 267 0014 043A     		subs	r2, r2, #4
 268 0016 0093     		str	r3, [sp]
 269 0018 4FF4E871 		mov	r1, #464
 270 001c 2B46     		mov	r3, r5
 271 001e FFF7FEFF 		bl	chThdCreateStatic
 272              	.LVL10:
 273              	.LBB277:
 274              	.LBB278:
 275              		.loc 2 192 0
 276 0022 BB69     		ldr	r3, [r7, #24]
 277              	.LBE278:
 278              	.LBE277:
 279              		.loc 1 97 0
 280 0024 2749     		ldr	r1, .L9+20
 281 0026 9A68     		ldr	r2, [r3, #8]
 282 0028 3368     		ldr	r3, [r6]
 283              		.loc 1 96 0
 284 002a 6060     		str	r0, [r4, #4]
ARM GAS  /tmp/cc9hyemz.s 			page 6


 285              		.loc 1 97 0
 286 002c 0091     		str	r1, [sp]
 287 002e 053A     		subs	r2, r2, #5
 288 0030 1846     		mov	r0, r3
 289 0032 4FF4E871 		mov	r1, #464
 290 0036 2B46     		mov	r3, r5
 291 0038 FFF7FEFF 		bl	chThdCreateStatic
 292              	.LVL11:
 293              	.LBB279:
 294              	.LBB280:
 295              		.loc 2 192 0
 296 003c BA69     		ldr	r2, [r7, #24]
 297              	.LBE280:
 298              	.LBE279:
 299              		.loc 1 98 0
 300 003e 3369     		ldr	r3, [r6, #16]
 301 0040 9268     		ldr	r2, [r2, #8]
 302 0042 2149     		ldr	r1, .L9+24
 303              		.loc 1 97 0
 304 0044 2060     		str	r0, [r4]
 305              		.loc 1 98 0
 306 0046 0091     		str	r1, [sp]
 307 0048 013A     		subs	r2, r2, #1
 308 004a 1846     		mov	r0, r3
 309 004c 4FF4E871 		mov	r1, #464
 310 0050 2B46     		mov	r3, r5
 311 0052 FFF7FEFF 		bl	chThdCreateStatic
 312              	.LVL12:
 313              	.LBB281:
 314              	.LBB282:
 315              		.loc 2 192 0
 316 0056 BA69     		ldr	r2, [r7, #24]
 317              	.LBE282:
 318              	.LBE281:
 319              		.loc 1 99 0
 320 0058 F368     		ldr	r3, [r6, #12]
 321 005a 9268     		ldr	r2, [r2, #8]
 322 005c 1B49     		ldr	r1, .L9+28
 323              		.loc 1 98 0
 324 005e 2061     		str	r0, [r4, #16]
 325              		.loc 1 99 0
 326 0060 0091     		str	r1, [sp]
 327 0062 023A     		subs	r2, r2, #2
 328 0064 1846     		mov	r0, r3
 329 0066 4FF4E871 		mov	r1, #464
 330 006a 2B46     		mov	r3, r5
 331 006c FFF7FEFF 		bl	chThdCreateStatic
 332              	.LVL13:
 333              	.LBB283:
 334              	.LBB284:
 335              	.LBB285:
 336              	.LBB286:
 337              		.file 3 "../ChibiOS/os/ext/CMSIS/include/core_cmFunc.h"
 338              		.loc 3 546 0
 339 0070 2023     		movs	r3, #32
 340              	.LBE286:
 341              	.LBE285:
ARM GAS  /tmp/cc9hyemz.s 			page 7


 342              	.LBE284:
 343              	.LBE283:
 344              		.loc 1 99 0
 345 0072 E060     		str	r0, [r4, #12]
 346              	.LVL14:
 347              	.LBB290:
 348              	.LBB289:
 349              	.LBB288:
 350              	.LBB287:
 351              		.loc 3 546 0
 352              	@ 546 "../ChibiOS/os/ext/CMSIS/include/core_cmFunc.h" 1
 353 0074 83F31188 		MSR basepri, r3
 354              	@ 0 "" 2
 355              		.thumb
 356              	.LBE287:
 357              	.LBE288:
 358              	.LBE289:
 359              	.LBE290:
 360              	.LBB291:
 361              	.LBB292:
 362              		.loc 2 192 0
 363 0078 BB69     		ldr	r3, [r7, #24]
 364              	.LBE292:
 365              	.LBE291:
 366              		.loc 1 102 0
 367 007a B068     		ldr	r0, [r6, #8]
 368 007c 9A68     		ldr	r2, [r3, #8]
 369 007e 144B     		ldr	r3, .L9+32
 370 0080 0093     		str	r3, [sp]
 371 0082 033A     		subs	r2, r2, #3
 372 0084 2B46     		mov	r3, r5
 373 0086 4FF4E871 		mov	r1, #464
 374 008a FFF7FEFF 		bl	chThdCreateI
 375              	.LVL15:
 376              	.LBB293:
 377              	.LBB294:
 378              	.LBB295:
 379              	.LBB296:
 380              	.LBB297:
 381              		.loc 3 546 0
 382 008e 0023     		movs	r3, #0
 383              	.LBE297:
 384              	.LBE296:
 385              	.LBE295:
 386              	.LBE294:
 387              	.LBE293:
 388              		.loc 1 102 0
 389 0090 A060     		str	r0, [r4, #8]
 390              	.LVL16:
 391              	.LBB302:
 392              	.LBB301:
 393              	.LBB300:
 394              	.LBB299:
 395              	.LBB298:
 396              		.loc 3 546 0
 397              	@ 546 "../ChibiOS/os/ext/CMSIS/include/core_cmFunc.h" 1
 398 0092 83F31188 		MSR basepri, r3
ARM GAS  /tmp/cc9hyemz.s 			page 8


 399              	@ 0 "" 2
 400              		.thumb
 401              	.LBE298:
 402              	.LBE299:
 403              	.LBE300:
 404              	.LBE301:
 405              	.LBE302:
 406              		.loc 1 104 0
 407 0096 A068     		ldr	r0, [r4, #8]
 408 0098 FFF7FEFF 		bl	chThdStart
 409              	.LVL17:
 410              		.loc 1 105 0
 411 009c FFF7FEFF 		bl	test_wait_threads
 412              	.LVL18:
 413              		.loc 1 106 0
 414 00a0 0C49     		ldr	r1, .L9+36
 415 00a2 0120     		movs	r0, #1
 416              		.loc 1 107 0
 417 00a4 03B0     		add	sp, sp, #12
 418              		.cfi_def_cfa_offset 20
 419              		@ sp needed
 420 00a6 BDE8F040 		pop	{r4, r5, r6, r7, lr}
 421              		.cfi_restore 14
 422              		.cfi_restore 7
 423              		.cfi_restore 6
 424              		.cfi_restore 5
 425              		.cfi_restore 4
 426              		.cfi_def_cfa_offset 0
 427              		.loc 1 106 0
 428 00aa FFF7FEBF 		b	_test_assert_sequence
 429              	.LVL19:
 430              	.L10:
 431 00ae 00BF     		.align	2
 432              	.L9:
 433 00b0 00000000 		.word	ch
 434 00b4 00000000 		.word	wa
 435 00b8 00000000 		.word	thread
 436 00bc 04000000 		.word	.LC1
 437 00c0 00000000 		.word	threads
 438 00c4 00000000 		.word	.LC0
 439 00c8 10000000 		.word	.LC4
 440 00cc 0C000000 		.word	.LC3
 441 00d0 08000000 		.word	.LC2
 442 00d4 14000000 		.word	.LC5
 443              		.cfi_endproc
 444              	.LFE228:
 445              		.size	thd2_execute, .-thd2_execute
 446 00d8 AFF30080 		.section	.text.thd3_execute,"ax",%progbits
 446      AFF30080 
 447              		.align	2
 448              		.p2align 4,,15
 449              		.thumb
 450              		.thumb_func
 451              		.type	thd3_execute, %function
 452              	thd3_execute:
 453              	.LFB229:
 454              		.loc 1 126 0
ARM GAS  /tmp/cc9hyemz.s 			page 9


 455              		.cfi_startproc
 456              		@ args = 0, pretend = 0, frame = 0
 457              		@ frame_needed = 0, uses_anonymous_args = 0
 458 0000 F8B5     		push	{r3, r4, r5, r6, r7, lr}
 459              		.cfi_def_cfa_offset 24
 460              		.cfi_offset 3, -24
 461              		.cfi_offset 4, -20
 462              		.cfi_offset 5, -16
 463              		.cfi_offset 6, -12
 464              		.cfi_offset 7, -8
 465              		.cfi_offset 14, -4
 466              	.LBB303:
 467              	.LBB304:
 468              	.LBB305:
 469              	.LBB306:
 470              		.loc 2 179 0
 471 0002 494E     		ldr	r6, .L18
 472              	.LBE306:
 473              	.LBE305:
 474              		.loc 2 192 0
 475 0004 B369     		ldr	r3, [r6, #24]
 476 0006 9C68     		ldr	r4, [r3, #8]
 477              	.LBE304:
 478              	.LBE303:
 479              		.loc 1 130 0
 480 0008 651C     		adds	r5, r4, #1
 481 000a 2846     		mov	r0, r5
 482 000c FFF7FEFF 		bl	chThdSetPriority
 483              	.LVL20:
 484              		.loc 1 131 0
 485 0010 011B     		subs	r1, r0, r4
 486              		.loc 1 130 0
 487 0012 0746     		mov	r7, r0
 488              	.LVL21:
 489              		.loc 1 131 0
 490 0014 B1FA81F1 		clz	r1, r1
 491 0018 0120     		movs	r0, #1
 492              	.LVL22:
 493 001a 4909     		lsrs	r1, r1, #5
 494 001c FFF7FEFF 		bl	_test_assert
 495              	.LVL23:
 496 0020 00B1     		cbz	r0, .L17
 497              	.LVL24:
 498              	.L11:
 499 0022 F8BD     		pop	{r3, r4, r5, r6, r7, pc}
 500              	.LVL25:
 501              	.L17:
 502              	.LBB307:
 503              	.LBB308:
 504              		.loc 2 192 0
 505 0024 B369     		ldr	r3, [r6, #24]
 506              	.LBE308:
 507              	.LBE307:
 508              		.loc 1 133 0
 509 0026 9968     		ldr	r1, [r3, #8]
 510 0028 0220     		movs	r0, #2
 511 002a 691A     		subs	r1, r5, r1
ARM GAS  /tmp/cc9hyemz.s 			page 10


 512 002c B1FA81F1 		clz	r1, r1
 513 0030 4909     		lsrs	r1, r1, #5
 514 0032 FFF7FEFF 		bl	_test_assert
 515              	.LVL26:
 516 0036 0028     		cmp	r0, #0
 517 0038 F3D1     		bne	.L11
 518              		.loc 1 135 0
 519 003a 3846     		mov	r0, r7
 520 003c FFF7FEFF 		bl	chThdSetPriority
 521              	.LVL27:
 522              		.loc 1 136 0
 523 0040 291A     		subs	r1, r5, r0
 524 0042 0320     		movs	r0, #3
 525              	.LVL28:
 526 0044 B1FA81F1 		clz	r1, r1
 527 0048 4909     		lsrs	r1, r1, #5
 528 004a FFF7FEFF 		bl	_test_assert
 529              	.LVL29:
 530 004e 0028     		cmp	r0, #0
 531 0050 E7D1     		bne	.L11
 532              	.LBB309:
 533              	.LBB310:
 534              		.loc 2 192 0
 535 0052 B369     		ldr	r3, [r6, #24]
 536              	.LBE310:
 537              	.LBE309:
 538              		.loc 1 138 0
 539 0054 9968     		ldr	r1, [r3, #8]
 540 0056 0420     		movs	r0, #4
 541 0058 611A     		subs	r1, r4, r1
 542 005a B1FA81F1 		clz	r1, r1
 543 005e 4909     		lsrs	r1, r1, #5
 544 0060 FFF7FEFF 		bl	_test_assert
 545              	.LVL30:
 546 0064 0028     		cmp	r0, #0
 547 0066 DCD1     		bne	.L11
 548              	.LVL31:
 549              	.LBB311:
 550              	.LBB312:
 551              	.LBB313:
 552              	.LBB314:
 553              		.loc 3 546 0
 554 0068 2023     		movs	r3, #32
 555              	@ 546 "../ChibiOS/os/ext/CMSIS/include/core_cmFunc.h" 1
 556 006a 83F31188 		MSR basepri, r3
 557              	@ 0 "" 2
 558              		.thumb
 559              	.LBE314:
 560              	.LBE313:
 561              	.LBE312:
 562              	.LBE311:
 563              	.LBB315:
 564              	.LBB316:
 565              		.loc 2 179 0
 566 006e B269     		ldr	r2, [r6, #24]
 567              	.LBE316:
 568              	.LBE315:
ARM GAS  /tmp/cc9hyemz.s 			page 11


 569              		.loc 1 144 0
 570 0070 9368     		ldr	r3, [r2, #8]
 571 0072 0233     		adds	r3, r3, #2
 572 0074 9360     		str	r3, [r2, #8]
 573              	.LVL32:
 574              	.LBB317:
 575              	.LBB318:
 576              	.LBB319:
 577              	.LBB320:
 578              	.LBB321:
 579              		.loc 3 546 0
 580              	@ 546 "../ChibiOS/os/ext/CMSIS/include/core_cmFunc.h" 1
 581 0076 80F31188 		MSR basepri, r0
 582              	@ 0 "" 2
 583              		.thumb
 584              	.LBE321:
 585              	.LBE320:
 586              	.LBE319:
 587              	.LBE318:
 588              	.LBE317:
 589              	.LBB322:
 590              	.LBB323:
 591              		.loc 2 192 0
 592 007a B369     		ldr	r3, [r6, #24]
 593              	.LBE323:
 594              	.LBE322:
 595              		.loc 1 146 0
 596 007c 9968     		ldr	r1, [r3, #8]
 597 007e A71C     		adds	r7, r4, #2
 598 0080 791A     		subs	r1, r7, r1
 599 0082 0520     		movs	r0, #5
 600 0084 B1FA81F1 		clz	r1, r1
 601 0088 4909     		lsrs	r1, r1, #5
 602 008a FFF7FEFF 		bl	_test_assert
 603              	.LVL33:
 604 008e 0028     		cmp	r0, #0
 605 0090 C7D1     		bne	.L11
 606              		.loc 1 150 0
 607 0092 2846     		mov	r0, r5
 608 0094 FFF7FEFF 		bl	chThdSetPriority
 609              	.LVL34:
 610              		.loc 1 151 0
 611 0098 011B     		subs	r1, r0, r4
 612 009a 0620     		movs	r0, #6
 613              	.LVL35:
 614 009c B1FA81F1 		clz	r1, r1
 615 00a0 4909     		lsrs	r1, r1, #5
 616 00a2 FFF7FEFF 		bl	_test_assert
 617              	.LVL36:
 618 00a6 0028     		cmp	r0, #0
 619 00a8 BBD1     		bne	.L11
 620              		.loc 1 153 0
 621 00aa B369     		ldr	r3, [r6, #24]
 622 00ac 9968     		ldr	r1, [r3, #8]
 623 00ae 0720     		movs	r0, #7
 624 00b0 791A     		subs	r1, r7, r1
 625 00b2 B1FA81F1 		clz	r1, r1
ARM GAS  /tmp/cc9hyemz.s 			page 12


 626 00b6 4909     		lsrs	r1, r1, #5
 627 00b8 FFF7FEFF 		bl	_test_assert
 628              	.LVL37:
 629 00bc 0028     		cmp	r0, #0
 630 00be B0D1     		bne	.L11
 631              		.loc 1 155 0
 632 00c0 B369     		ldr	r3, [r6, #24]
 633 00c2 D96B     		ldr	r1, [r3, #60]
 634 00c4 0820     		movs	r0, #8
 635 00c6 691A     		subs	r1, r5, r1
 636 00c8 B1FA81F1 		clz	r1, r1
 637 00cc 4909     		lsrs	r1, r1, #5
 638 00ce FFF7FEFF 		bl	_test_assert
 639              	.LVL38:
 640 00d2 0028     		cmp	r0, #0
 641 00d4 A5D1     		bne	.L11
 642              		.loc 1 159 0
 643 00d6 E71C     		adds	r7, r4, #3
 644 00d8 3846     		mov	r0, r7
 645 00da FFF7FEFF 		bl	chThdSetPriority
 646              	.LVL39:
 647              		.loc 1 160 0
 648 00de 281A     		subs	r0, r5, r0
 649              	.LVL40:
 650 00e0 4142     		rsbs	r1, r0, #0
 651 00e2 4141     		adcs	r1, r1, r0
 652 00e4 0920     		movs	r0, #9
 653 00e6 FFF7FEFF 		bl	_test_assert
 654              	.LVL41:
 655 00ea 0028     		cmp	r0, #0
 656 00ec 99D1     		bne	.L11
 657              		.loc 1 162 0
 658 00ee B369     		ldr	r3, [r6, #24]
 659 00f0 9968     		ldr	r1, [r3, #8]
 660 00f2 7A1A     		subs	r2, r7, r1
 661 00f4 5142     		rsbs	r1, r2, #0
 662 00f6 5141     		adcs	r1, r1, r2
 663 00f8 0A20     		movs	r0, #10
 664 00fa FFF7FEFF 		bl	_test_assert
 665              	.LVL42:
 666 00fe 0028     		cmp	r0, #0
 667 0100 8FD1     		bne	.L11
 668              		.loc 1 164 0
 669 0102 B369     		ldr	r3, [r6, #24]
 670 0104 D96B     		ldr	r1, [r3, #60]
 671 0106 7B1A     		subs	r3, r7, r1
 672 0108 5942     		rsbs	r1, r3, #0
 673 010a 5941     		adcs	r1, r1, r3
 674 010c 0B20     		movs	r0, #11
 675 010e FFF7FEFF 		bl	_test_assert
 676              	.LVL43:
 677 0112 0028     		cmp	r0, #0
 678 0114 85D1     		bne	.L11
 679              	.LVL44:
 680              	.LBB324:
 681              	.LBB325:
 682              	.LBB326:
ARM GAS  /tmp/cc9hyemz.s 			page 13


 683              	.LBB327:
 684              		.loc 3 546 0
 685 0116 2023     		movs	r3, #32
 686              	@ 546 "../ChibiOS/os/ext/CMSIS/include/core_cmFunc.h" 1
 687 0118 83F31188 		MSR basepri, r3
 688              	@ 0 "" 2
 689              		.thumb
 690              	.LBE327:
 691              	.LBE326:
 692              	.LBE325:
 693              	.LBE324:
 694              	.LBB328:
 695              	.LBB329:
 696              		.loc 2 179 0
 697 011c B369     		ldr	r3, [r6, #24]
 698              	.LBE329:
 699              	.LBE328:
 700              		.loc 1 168 0
 701 011e 9C60     		str	r4, [r3, #8]
 702              		.loc 1 169 0
 703 0120 DC63     		str	r4, [r3, #60]
 704              	.LVL45:
 705              	.LBB330:
 706              	.LBB331:
 707              	.LBB332:
 708              	.LBB333:
 709              	.LBB334:
 710              		.loc 3 546 0
 711              	@ 546 "../ChibiOS/os/ext/CMSIS/include/core_cmFunc.h" 1
 712 0122 80F31188 		MSR basepri, r0
 713              	@ 0 "" 2
 714              		.thumb
 715 0126 7CE7     		b	.L11
 716              	.L19:
 717              		.align	2
 718              	.L18:
 719 0128 00000000 		.word	ch
 720              	.LBE334:
 721              	.LBE333:
 722              	.LBE332:
 723              	.LBE331:
 724              	.LBE330:
 725              		.cfi_endproc
 726              	.LFE229:
 727              		.size	thd3_execute, .-thd3_execute
 728 012c AFF30080 		.section	.text.thd4_execute,"ax",%progbits
 729              		.align	2
 730              		.p2align 4,,15
 731              		.thumb
 732              		.thumb_func
 733              		.type	thd4_execute, %function
 734              	thd4_execute:
 735              	.LFB230:
 736              		.loc 1 189 0
 737              		.cfi_startproc
 738              		@ args = 0, pretend = 0, frame = 0
 739              		@ frame_needed = 0, uses_anonymous_args = 0
ARM GAS  /tmp/cc9hyemz.s 			page 14


 740 0000 70B5     		push	{r4, r5, r6, lr}
 741              		.cfi_def_cfa_offset 16
 742              		.cfi_offset 4, -16
 743              		.cfi_offset 5, -12
 744              		.cfi_offset 6, -8
 745              		.cfi_offset 14, -4
 746              		.loc 1 192 0
 747 0002 FFF7FEFF 		bl	test_wait_tick
 748              	.LVL46:
 749              	.LBB427:
 750              	.LBB428:
 751              	.LBB429:
 752              	.LBB430:
 753              	.LBB431:
 754              	.LBB432:
 755              		.loc 3 546 0
 756 0006 2026     		movs	r6, #32
 757              	@ 546 "../ChibiOS/os/ext/CMSIS/include/core_cmFunc.h" 1
 758 0008 86F31188 		MSR basepri, r6
 759              	@ 0 "" 2
 760              		.thumb
 761              	.LBE432:
 762              	.LBE431:
 763              	.LBE430:
 764              	.LBE429:
 765              	.LBB433:
 766              	.LBB434:
 767              	.LBB435:
 768              	.LBB436:
 769              		.file 4 "../ChibiOS/os/hal/ports/STM32/LLD/TIMv1/st_lld.h"
 770              		.loc 4 128 0
 771 000c 4FF08045 		mov	r5, #1073741824
 772              	.LBE436:
 773              	.LBE435:
 774              	.LBE434:
 775              	.LBE433:
 776              	.LBB440:
 777              	.LBB441:
 778              	.LBB442:
 779              	.LBB443:
 780              	.LBB444:
 781              		.loc 3 546 0
 782 0010 0023     		movs	r3, #0
 783              	.LBE444:
 784              	.LBE443:
 785              	.LBE442:
 786              	.LBE441:
 787              	.LBE440:
 788              	.LBB449:
 789              	.LBB439:
 790              	.LBB438:
 791              	.LBB437:
 792              		.loc 4 128 0
 793 0012 6C6A     		ldr	r4, [r5, #36]
 794              	.LVL47:
 795              	.LBE437:
 796              	.LBE438:
ARM GAS  /tmp/cc9hyemz.s 			page 15


 797              	.LBE439:
 798              	.LBE449:
 799              	.LBB450:
 800              	.LBB448:
 801              	.LBB447:
 802              	.LBB446:
 803              	.LBB445:
 804              		.loc 3 546 0
 805              	@ 546 "../ChibiOS/os/ext/CMSIS/include/core_cmFunc.h" 1
 806 0014 83F31188 		MSR basepri, r3
 807              	@ 0 "" 2
 808              		.thumb
 809              	.LBE445:
 810              	.LBE446:
 811              	.LBE447:
 812              	.LBE448:
 813              	.LBE450:
 814              	.LBE428:
 815              	.LBE427:
 816              		.loc 1 196 0
 817 0018 4FF47A70 		mov	r0, #1000
 818 001c FFF7FEFF 		bl	chThdSleep
 819              	.LVL48:
 820              		.loc 1 197 0
 821 0020 04F57A71 		add	r1, r4, #1000
 822 0024 04F2EB32 		addw	r2, r4, #1003
 823 0028 0120     		movs	r0, #1
 824 002a FFF7FEFF 		bl	_test_assert_time_window
 825              	.LVL49:
 826 002e 00B1     		cbz	r0, .L25
 827              	.L20:
 828 0030 70BD     		pop	{r4, r5, r6, pc}
 829              	.L25:
 830              	.LVL50:
 831              	.LBB451:
 832              	.LBB452:
 833              	.LBB453:
 834              	.LBB454:
 835              	.LBB455:
 836              	.LBB456:
 837              		.loc 3 546 0
 838              	@ 546 "../ChibiOS/os/ext/CMSIS/include/core_cmFunc.h" 1
 839 0032 86F31188 		MSR basepri, r6
 840              	@ 0 "" 2
 841              		.thumb
 842              	.LBE456:
 843              	.LBE455:
 844              	.LBE454:
 845              	.LBE453:
 846              	.LBB457:
 847              	.LBB458:
 848              	.LBB459:
 849              	.LBB460:
 850              		.loc 4 128 0
 851 0036 6C6A     		ldr	r4, [r5, #36]
 852              	.LVL51:
 853              	.LBE460:
ARM GAS  /tmp/cc9hyemz.s 			page 16


 854              	.LBE459:
 855              	.LBE458:
 856              	.LBE457:
 857              	.LBB461:
 858              	.LBB462:
 859              	.LBB463:
 860              	.LBB464:
 861              	.LBB465:
 862              		.loc 3 546 0
 863              	@ 546 "../ChibiOS/os/ext/CMSIS/include/core_cmFunc.h" 1
 864 0038 80F31188 		MSR basepri, r0
 865              	@ 0 "" 2
 866              		.thumb
 867              	.LBE465:
 868              	.LBE464:
 869              	.LBE463:
 870              	.LBE462:
 871              	.LBE461:
 872              	.LBE452:
 873              	.LBE451:
 874              		.loc 1 203 0
 875 003c 4FF47A70 		mov	r0, #1000
 876 0040 FFF7FEFF 		bl	chThdSleep
 877              	.LVL52:
 878              		.loc 1 204 0
 879 0044 04F57A71 		add	r1, r4, #1000
 880 0048 04F2EB32 		addw	r2, r4, #1003
 881 004c 0220     		movs	r0, #2
 882 004e FFF7FEFF 		bl	_test_assert_time_window
 883              	.LVL53:
 884 0052 0028     		cmp	r0, #0
 885 0054 ECD1     		bne	.L20
 886              	.LVL54:
 887              	.LBB466:
 888              	.LBB467:
 889              	.LBB468:
 890              	.LBB469:
 891              	.LBB470:
 892              	.LBB471:
 893              	.LBB472:
 894              	.LBB473:
 895              		.loc 3 546 0
 896              	@ 546 "../ChibiOS/os/ext/CMSIS/include/core_cmFunc.h" 1
 897 0056 86F31188 		MSR basepri, r6
 898              	@ 0 "" 2
 899              		.thumb
 900              	.LBE473:
 901              	.LBE472:
 902              	.LBE471:
 903              	.LBE470:
 904              	.LBB474:
 905              	.LBB475:
 906              	.LBB476:
 907              	.LBB477:
 908              		.loc 4 128 0
 909 005a 6C6A     		ldr	r4, [r5, #36]
 910              	.LVL55:
ARM GAS  /tmp/cc9hyemz.s 			page 17


 911              	.LBE477:
 912              	.LBE476:
 913              	.LBE475:
 914              	.LBE474:
 915              	.LBB478:
 916              	.LBB479:
 917              	.LBB480:
 918              	.LBB481:
 919              	.LBB482:
 920              		.loc 3 546 0
 921              	@ 546 "../ChibiOS/os/ext/CMSIS/include/core_cmFunc.h" 1
 922 005c 80F31188 		MSR basepri, r0
 923              	@ 0 "" 2
 924              		.thumb
 925              	.LBE482:
 926              	.LBE481:
 927              	.LBE480:
 928              	.LBE479:
 929              	.LBE478:
 930              	.LBE469:
 931              	.LBE468:
 932              		.loc 1 210 0
 933 0060 42F21070 		movw	r0, #10000
 934 0064 FFF7FEFF 		bl	chThdSleep
 935              	.LVL56:
 936              		.loc 1 211 0
 937 0068 04F51C51 		add	r1, r4, #9984
 938 006c 0A46     		mov	r2, r1
 939 006e 1332     		adds	r2, r2, #19
 940 0070 1031     		adds	r1, r1, #16
 941 0072 0320     		movs	r0, #3
 942 0074 FFF7FEFF 		bl	_test_assert_time_window
 943              	.LVL57:
 944 0078 0028     		cmp	r0, #0
 945 007a D9D1     		bne	.L20
 946              	.LVL58:
 947              	.LBB483:
 948              	.LBB484:
 949              	.LBB485:
 950              	.LBB486:
 951              	.LBB487:
 952              	.LBB488:
 953              		.loc 3 546 0
 954              	@ 546 "../ChibiOS/os/ext/CMSIS/include/core_cmFunc.h" 1
 955 007c 86F31188 		MSR basepri, r6
 956              	@ 0 "" 2
 957              		.thumb
 958              	.LBE488:
 959              	.LBE487:
 960              	.LBE486:
 961              	.LBE485:
 962              	.LBB489:
 963              	.LBB490:
 964              	.LBB491:
 965              	.LBB492:
 966              		.loc 4 128 0
 967 0080 6C6A     		ldr	r4, [r5, #36]
ARM GAS  /tmp/cc9hyemz.s 			page 18


 968              	.LVL59:
 969              	.LBE492:
 970              	.LBE491:
 971              	.LBE490:
 972              	.LBE489:
 973              	.LBB493:
 974              	.LBB494:
 975              	.LBB495:
 976              	.LBB496:
 977              	.LBB497:
 978              		.loc 3 546 0
 979              	@ 546 "../ChibiOS/os/ext/CMSIS/include/core_cmFunc.h" 1
 980 0082 80F31188 		MSR basepri, r0
 981              	@ 0 "" 2
 982              		.thumb
 983              	.LBE497:
 984              	.LBE496:
 985              	.LBE495:
 986              	.LBE494:
 987              	.LBE493:
 988              	.LBE484:
 989              	.LBE483:
 990              		.loc 1 216 0
 991 0086 04F57A75 		add	r5, r4, #1000
 992              	.LVL60:
 993              		.loc 1 217 0
 994 008a 2846     		mov	r0, r5
 995 008c FFF7FEFF 		bl	chThdSleepUntil
 996              	.LVL61:
 997              		.loc 1 218 0
 998 0090 2946     		mov	r1, r5
 999 0092 04F2EB32 		addw	r2, r4, #1003
 1000 0096 0420     		movs	r0, #4
 1001              	.LBE467:
 1002              	.LBE466:
 1003              		.loc 1 221 0
 1004 0098 BDE87040 		pop	{r4, r5, r6, lr}
 1005              		.cfi_restore 14
 1006              		.cfi_restore 6
 1007              		.cfi_restore 5
 1008              		.cfi_restore 4
 1009              		.cfi_def_cfa_offset 0
 1010              	.LVL62:
 1011              	.LBB499:
 1012              	.LBB498:
 1013              		.loc 1 218 0
 1014 009c FFF7FEBF 		b	_test_assert_time_window
 1015              	.LVL63:
 1016              	.LBE498:
 1017              	.LBE499:
 1018              		.cfi_endproc
 1019              	.LFE230:
 1020              		.size	thd4_execute, .-thd4_execute
 1021              		.global	patternthd
 1022              		.global	testthd4
 1023              		.global	testthd3
 1024              		.global	testthd2
ARM GAS  /tmp/cc9hyemz.s 			page 19


 1025              		.global	testthd1
 1026              		.section	.rodata.testthd1,"a",%progbits
 1027              		.align	2
 1028              		.type	testthd1, %object
 1029              		.size	testthd1, 16
 1030              	testthd1:
 1031 0000 64000000 		.word	.LC9
 1032 0004 00000000 		.word	0
 1033 0008 00000000 		.word	0
 1034 000c 00000000 		.word	thd1_execute
 1035              		.section	.rodata.testthd2,"a",%progbits
 1036              		.align	2
 1037              		.type	testthd2, %object
 1038              		.size	testthd2, 16
 1039              	testthd2:
 1040 0000 48000000 		.word	.LC8
 1041 0004 00000000 		.word	0
 1042 0008 00000000 		.word	0
 1043 000c 00000000 		.word	thd2_execute
 1044              		.section	.rodata.testthd3,"a",%progbits
 1045              		.align	2
 1046              		.type	testthd3, %object
 1047              		.size	testthd3, 16
 1048              	testthd3:
 1049 0000 2C000000 		.word	.LC7
 1050 0004 00000000 		.word	0
 1051 0008 00000000 		.word	0
 1052 000c 00000000 		.word	thd3_execute
 1053              		.section	.rodata.testthd4,"a",%progbits
 1054              		.align	2
 1055              		.type	testthd4, %object
 1056              		.size	testthd4, 16
 1057              	testthd4:
 1058 0000 1C000000 		.word	.LC6
 1059 0004 00000000 		.word	0
 1060 0008 00000000 		.word	0
 1061 000c 00000000 		.word	thd4_execute
 1062              		.section	.rodata.patternthd,"a",%progbits
 1063              		.align	2
 1064              		.type	patternthd, %object
 1065              		.size	patternthd, 20
 1066              	patternthd:
 1067 0000 00000000 		.word	testthd1
 1068 0004 00000000 		.word	testthd2
 1069 0008 00000000 		.word	testthd3
 1070 000c 00000000 		.word	testthd4
 1071 0010 00000000 		.word	0
 1072              		.section	.rodata.str1.4,"aMS",%progbits,1
 1073              		.align	2
 1074              	.LC0:
 1075 0000 4500     		.ascii	"E\000"
 1076 0002 0000     		.space	2
 1077              	.LC1:
 1078 0004 4400     		.ascii	"D\000"
 1079 0006 0000     		.space	2
 1080              	.LC2:
 1081 0008 4300     		.ascii	"C\000"
ARM GAS  /tmp/cc9hyemz.s 			page 20


 1082 000a 0000     		.space	2
 1083              	.LC3:
 1084 000c 4200     		.ascii	"B\000"
 1085 000e 0000     		.space	2
 1086              	.LC4:
 1087 0010 4100     		.ascii	"A\000"
 1088 0012 0000     		.space	2
 1089              	.LC5:
 1090 0014 41424344 		.ascii	"ABCDE\000"
 1090      4500
 1091 001a 0000     		.space	2
 1092              	.LC6:
 1093 001c 54687265 		.ascii	"Threads, delays\000"
 1093      6164732C 
 1093      2064656C 
 1093      61797300 
 1094              	.LC7:
 1095 002c 54687265 		.ascii	"Threads, priority change\000"
 1095      6164732C 
 1095      20707269 
 1095      6F726974 
 1095      79206368 
 1096 0045 000000   		.space	3
 1097              	.LC8:
 1098 0048 54687265 		.ascii	"Threads, enqueuing test #2\000"
 1098      6164732C 
 1098      20656E71 
 1098      75657569 
 1098      6E672074 
 1099 0063 00       		.space	1
 1100              	.LC9:
 1101 0064 54687265 		.ascii	"Threads, enqueuing test #1\000"
 1101      6164732C 
 1101      20656E71 
 1101      75657569 
 1101      6E672074 
 1102 007f 00       		.text
 1103              	.Letext0:
 1104              		.file 5 "/l/arm2/gcc-arm-none-eabi-4_9-2014q4/lib/gcc/arm-none-eabi/4.9.3/include/stddef.h"
 1105              		.file 6 "/l/arm2/gcc-arm-none-eabi-4_9-2014q4/arm-none-eabi/include/machine/_default_types.h"
 1106              		.file 7 "/l/arm2/gcc-arm-none-eabi-4_9-2014q4/arm-none-eabi/include/stdint.h"
 1107              		.file 8 "../ChibiOS/os/rt/ports/ARMCMx/compilers/GCC/chtypes.h"
 1108              		.file 9 "../ChibiOS/os/rt/include/chsystypes.h"
 1109              		.file 10 "../ChibiOS/os/rt/include/chschd.h"
 1110              		.file 11 "../ChibiOS/os/rt/ports/ARMCMx/chcore.h"
 1111              		.file 12 "../ChibiOS/os/rt/ports/ARMCMx/chcore_v7m.h"
 1112              		.file 13 "../ChibiOS/os/hal/ports/STM32/LLD/TIMv1/stm32_tim.h"
 1113              		.file 14 "../ChibiOS/os/rt/include/chtm.h"
 1114              		.file 15 "../ChibiOS/os/rt/include/chmtx.h"
 1115              		.file 16 "../ChibiOS/test/rt/test.h"
 1116              		.file 17 "../ChibiOS/os/rt/ports/ARMCMx/chcore_timer.h"
 1117              		.file 18 "../ChibiOS/os/rt/include/chsys.h"
 1118              		.file 19 "../ChibiOS/os/rt/include/chvt.h"
 1119              		.file 20 "../ChibiOS/os/ext/CMSIS/include/core_cm4.h"