ARM GAS  /tmp/ccumQxt6.s 			page 1


   1              		.syntax unified
   2              		.cpu cortex-m4
   3              		.eabi_attribute 27, 3
   4              		.eabi_attribute 28, 1
   5              		.fpu fpv4-sp-d16
   6              		.eabi_attribute 20, 1
   7              		.eabi_attribute 21, 1
   8              		.eabi_attribute 23, 3
   9              		.eabi_attribute 24, 1
  10              		.eabi_attribute 25, 1
  11              		.eabi_attribute 26, 1
  12              		.eabi_attribute 30, 2
  13              		.eabi_attribute 34, 1
  14              		.eabi_attribute 18, 4
  15              		.thumb
  16              		.file	"testmsg.c"
  17              		.text
  18              	.Ltext0:
  19              		.cfi_sections	.debug_frame
  20              		.section	.text.msg1_execute,"ax",%progbits
  21              		.align	2
  22              		.p2align 4,,15
  23              		.thumb
  24              		.thumb_func
  25              		.type	msg1_execute, %function
  26              	msg1_execute:
  27              	.LFB227:
  28              		.file 1 "../ChibiOS/test/rt/testmsg.c"
  29              		.loc 1 67 0
  30              		.cfi_startproc
  31              		@ args = 0, pretend = 0, frame = 0
  32              		@ frame_needed = 0, uses_anonymous_args = 0
  33 0000 10B5     		push	{r4, lr}
  34              		.cfi_def_cfa_offset 8
  35              		.cfi_offset 4, -8
  36              		.cfi_offset 14, -4
  37              	.LBB16:
  38              	.LBB17:
  39              	.LBB18:
  40              	.LBB19:
  41              		.file 2 "../ChibiOS/os/rt/include/chthreads.h"
  42              		.loc 2 179 0
  43 0002 184A     		ldr	r2, .L3
  44              	.LBE19:
  45              	.LBE18:
  46              	.LBE17:
  47              	.LBE16:
  48              		.loc 1 74 0
  49 0004 184B     		ldr	r3, .L3+4
  50              	.LBB23:
  51              	.LBB22:
  52              	.LBB21:
  53              	.LBB20:
  54              		.loc 2 179 0
  55 0006 9169     		ldr	r1, [r2, #24]
  56              	.LBE20:
  57              	.LBE21:
ARM GAS  /tmp/ccumQxt6.s 			page 2


  58              	.LBE22:
  59              	.LBE23:
  60              		.loc 1 74 0
  61 0008 1868     		ldr	r0, [r3]
  62 000a 8A68     		ldr	r2, [r1, #8]
  63 000c 174B     		ldr	r3, .L3+8
  64              		.loc 1 67 0
  65 000e 82B0     		sub	sp, sp, #8
  66              		.cfi_def_cfa_offset 16
  67              		.loc 1 74 0
  68 0010 0132     		adds	r2, r2, #1
  69 0012 0091     		str	r1, [sp]
  70 0014 4FF4E871 		mov	r1, #464
  71 0018 FFF7FEFF 		bl	chThdCreateStatic
  72              	.LVL0:
  73 001c 144B     		ldr	r3, .L3+12
  74 001e 1860     		str	r0, [r3]
  75              		.loc 1 76 0
  76 0020 FFF7FEFF 		bl	chMsgWait
  77              	.LVL1:
  78 0024 046B     		ldr	r4, [r0, #48]
  79              	.LVL2:
  80              		.loc 1 78 0
  81 0026 2146     		mov	r1, r4
  82 0028 FFF7FEFF 		bl	chMsgRelease
  83              	.LVL3:
  84              		.loc 1 79 0
  85 002c E0B2     		uxtb	r0, r4
  86 002e FFF7FEFF 		bl	test_emit_token
  87              	.LVL4:
  88              		.loc 1 80 0
  89 0032 FFF7FEFF 		bl	chMsgWait
  90              	.LVL5:
  91 0036 046B     		ldr	r4, [r0, #48]
  92              	.LVL6:
  93              		.loc 1 82 0
  94 0038 2146     		mov	r1, r4
  95 003a FFF7FEFF 		bl	chMsgRelease
  96              	.LVL7:
  97              		.loc 1 83 0
  98 003e E0B2     		uxtb	r0, r4
  99 0040 FFF7FEFF 		bl	test_emit_token
 100              	.LVL8:
 101              		.loc 1 84 0
 102 0044 FFF7FEFF 		bl	chMsgWait
 103              	.LVL9:
 104 0048 046B     		ldr	r4, [r0, #48]
 105              	.LVL10:
 106              		.loc 1 86 0
 107 004a 2146     		mov	r1, r4
 108 004c FFF7FEFF 		bl	chMsgRelease
 109              	.LVL11:
 110              		.loc 1 87 0
 111 0050 E0B2     		uxtb	r0, r4
 112 0052 FFF7FEFF 		bl	test_emit_token
 113              	.LVL12:
 114              		.loc 1 88 0
ARM GAS  /tmp/ccumQxt6.s 			page 3


 115 0056 0749     		ldr	r1, .L3+16
 116 0058 0120     		movs	r0, #1
 117              		.loc 1 89 0
 118 005a 02B0     		add	sp, sp, #8
 119              		.cfi_def_cfa_offset 8
 120              		@ sp needed
 121 005c BDE81040 		pop	{r4, lr}
 122              		.cfi_restore 14
 123              		.cfi_restore 4
 124              		.cfi_def_cfa_offset 0
 125              		.loc 1 88 0
 126 0060 FFF7FEBF 		b	_test_assert_sequence
 127              	.LVL13:
 128              	.L4:
 129              		.align	2
 130              	.L3:
 131 0064 00000000 		.word	ch
 132 0068 00000000 		.word	wa
 133 006c 00000000 		.word	thread
 134 0070 00000000 		.word	threads
 135 0074 00000000 		.word	.LC0
 136              		.cfi_endproc
 137              	.LFE227:
 138              		.size	msg1_execute, .-msg1_execute
 139 0078 AFF30080 		.section	.text.thread,"ax",%progbits
 139      AFF30080 
 140              		.align	2
 141              		.p2align 4,,15
 142              		.thumb
 143              		.thumb_func
 144              		.type	thread, %function
 145              	thread:
 146              	.LFB226:
 147              		.loc 1 59 0
 148              		.cfi_startproc
 149              		@ args = 0, pretend = 0, frame = 0
 150              		@ frame_needed = 0, uses_anonymous_args = 0
 151              	.LVL14:
 152 0000 10B5     		push	{r4, lr}
 153              		.cfi_def_cfa_offset 8
 154              		.cfi_offset 4, -8
 155              		.cfi_offset 14, -4
 156              		.loc 1 61 0
 157 0002 4121     		movs	r1, #65
 158              		.loc 1 59 0
 159 0004 0446     		mov	r4, r0
 160              		.loc 1 61 0
 161 0006 FFF7FEFF 		bl	chMsgSend
 162              	.LVL15:
 163              		.loc 1 62 0
 164 000a 2046     		mov	r0, r4
 165 000c 4221     		movs	r1, #66
 166 000e FFF7FEFF 		bl	chMsgSend
 167              	.LVL16:
 168              		.loc 1 63 0
 169 0012 2046     		mov	r0, r4
 170 0014 4321     		movs	r1, #67
ARM GAS  /tmp/ccumQxt6.s 			page 4


 171 0016 FFF7FEFF 		bl	chMsgSend
 172              	.LVL17:
 173              		.loc 1 65 0
 174 001a 0020     		movs	r0, #0
 175 001c 10BD     		pop	{r4, pc}
 176              		.cfi_endproc
 177              	.LFE226:
 178              		.size	thread, .-thread
 179              		.global	patternmsg
 180              		.global	testmsg1
 181 001e 00BF     		.section	.rodata.testmsg1,"a",%progbits
 182              		.align	2
 183              		.type	testmsg1, %object
 184              		.size	testmsg1, 16
 185              	testmsg1:
 186 0000 04000000 		.word	.LC1
 187 0004 00000000 		.word	0
 188 0008 00000000 		.word	0
 189 000c 00000000 		.word	msg1_execute
 190              		.section	.rodata.str1.4,"aMS",%progbits,1
 191              		.align	2
 192              	.LC0:
 193 0000 41424300 		.ascii	"ABC\000"
 194              	.LC1:
 195 0004 4D657373 		.ascii	"Messages, loop\000"
 195      61676573 
 195      2C206C6F 
 195      6F7000
 196 0013 00       		.section	.rodata.patternmsg,"a",%progbits
 197              		.align	2
 198              		.type	patternmsg, %object
 199              		.size	patternmsg, 8
 200              	patternmsg:
 201 0000 00000000 		.word	testmsg1
 202 0004 00000000 		.word	0
 203              		.text
 204              	.Letext0:
 205              		.file 3 "/l/arm2/gcc-arm-none-eabi-4_9-2014q4/lib/gcc/arm-none-eabi/4.9.3/include/stddef.h"
 206              		.file 4 "/l/arm2/gcc-arm-none-eabi-4_9-2014q4/arm-none-eabi/include/machine/_default_types.h"
 207              		.file 5 "/l/arm2/gcc-arm-none-eabi-4_9-2014q4/arm-none-eabi/include/stdint.h"
 208              		.file 6 "../ChibiOS/os/rt/ports/ARMCMx/compilers/GCC/chtypes.h"
 209              		.file 7 "../ChibiOS/os/rt/include/chsystypes.h"
 210              		.file 8 "../ChibiOS/os/rt/include/chschd.h"
 211              		.file 9 "../ChibiOS/os/rt/ports/ARMCMx/chcore.h"
 212              		.file 10 "../ChibiOS/os/rt/ports/ARMCMx/chcore_v7m.h"
 213              		.file 11 "../ChibiOS/os/rt/include/chtm.h"
 214              		.file 12 "../ChibiOS/os/rt/include/chmtx.h"
 215              		.file 13 "../ChibiOS/test/rt/test.h"
 216              		.file 14 "../ChibiOS/os/ext/CMSIS/include/core_cm4.h"
 217              		.file 15 "../ChibiOS/os/rt/include/chmsg.h"
 218              		.section	.debug_info,"",%progbits
 219              	.Ldebug_info0:
 220 0000 C6090000 		.4byte	0x9c6
 221 0004 0400     		.2byte	0x4
 222 0006 00000000 		.4byte	.Ldebug_abbrev0
 223 000a 04       		.byte	0x4
 224 000b 01       		.uleb128 0x1
ARM GAS  /tmp/ccumQxt6.s 			page 5


 225 000c 79030000 		.4byte	.LASF112
 226 0010 01       		.byte	0x1
 227 0011 18020000 		.4byte	.LASF113
 228 0015 ED040000 		.4byte	.LASF114
 229 0019 30000000 		.4byte	.Ldebug_ranges0+0x30
 230 001d 00000000 		.4byte	0
 231 0021 00000000 		.4byte	.Ldebug_line0
 232 0025 02       		.uleb128 0x2
 233 0026 04       		.byte	0x4
 234 0027 05       		.byte	0x5
 235 0028 696E7400 		.ascii	"int\000"
 236 002c 03       		.uleb128 0x3
 237 002d 15000000 		.4byte	.LASF2
 238 0031 03       		.byte	0x3
 239 0032 D4       		.byte	0xd4
 240 0033 37000000 		.4byte	0x37
 241 0037 04       		.uleb128 0x4
 242 0038 04       		.byte	0x4
 243 0039 07       		.byte	0x7
 244 003a 56010000 		.4byte	.LASF0
 245 003e 04       		.uleb128 0x4
 246 003f 01       		.byte	0x1
 247 0040 06       		.byte	0x6
 248 0041 C5000000 		.4byte	.LASF1
 249 0045 03       		.uleb128 0x3
 250 0046 2C000000 		.4byte	.LASF3
 251 004a 04       		.byte	0x4
 252 004b 1D       		.byte	0x1d
 253 004c 50000000 		.4byte	0x50
 254 0050 04       		.uleb128 0x4
 255 0051 01       		.byte	0x1
 256 0052 08       		.byte	0x8
 257 0053 29030000 		.4byte	.LASF4
 258 0057 04       		.uleb128 0x4
 259 0058 02       		.byte	0x2
 260 0059 05       		.byte	0x5
 261 005a 41030000 		.4byte	.LASF5
 262 005e 04       		.uleb128 0x4
 263 005f 02       		.byte	0x2
 264 0060 07       		.byte	0x7
 265 0061 96010000 		.4byte	.LASF6
 266 0065 03       		.uleb128 0x3
 267 0066 E7010000 		.4byte	.LASF7
 268 006a 04       		.byte	0x4
 269 006b 3F       		.byte	0x3f
 270 006c 70000000 		.4byte	0x70
 271 0070 04       		.uleb128 0x4
 272 0071 04       		.byte	0x4
 273 0072 05       		.byte	0x5
 274 0073 02010000 		.4byte	.LASF8
 275 0077 03       		.uleb128 0x3
 276 0078 54050000 		.4byte	.LASF9
 277 007c 04       		.byte	0x4
 278 007d 41       		.byte	0x41
 279 007e 82000000 		.4byte	0x82
 280 0082 04       		.uleb128 0x4
 281 0083 04       		.byte	0x4
ARM GAS  /tmp/ccumQxt6.s 			page 6


 282 0084 07       		.byte	0x7
 283 0085 0F050000 		.4byte	.LASF10
 284 0089 04       		.uleb128 0x4
 285 008a 08       		.byte	0x8
 286 008b 05       		.byte	0x5
 287 008c B7000000 		.4byte	.LASF11
 288 0090 03       		.uleb128 0x3
 289 0091 CB020000 		.4byte	.LASF12
 290 0095 04       		.byte	0x4
 291 0096 5B       		.byte	0x5b
 292 0097 9B000000 		.4byte	0x9b
 293 009b 04       		.uleb128 0x4
 294 009c 08       		.byte	0x8
 295 009d 07       		.byte	0x7
 296 009e 51000000 		.4byte	.LASF13
 297 00a2 03       		.uleb128 0x3
 298 00a3 C3050000 		.4byte	.LASF14
 299 00a7 05       		.byte	0x5
 300 00a8 15       		.byte	0x15
 301 00a9 45000000 		.4byte	0x45
 302 00ad 03       		.uleb128 0x3
 303 00ae 21030000 		.4byte	.LASF15
 304 00b2 05       		.byte	0x5
 305 00b3 2C       		.byte	0x2c
 306 00b4 65000000 		.4byte	0x65
 307 00b8 03       		.uleb128 0x3
 308 00b9 CC040000 		.4byte	.LASF16
 309 00bd 05       		.byte	0x5
 310 00be 2D       		.byte	0x2d
 311 00bf 77000000 		.4byte	0x77
 312 00c3 03       		.uleb128 0x3
 313 00c4 23000000 		.4byte	.LASF17
 314 00c8 05       		.byte	0x5
 315 00c9 39       		.byte	0x39
 316 00ca 90000000 		.4byte	0x90
 317 00ce 05       		.uleb128 0x5
 318 00cf AD000000 		.4byte	0xad
 319 00d3 03       		.uleb128 0x3
 320 00d4 7F050000 		.4byte	.LASF18
 321 00d8 06       		.byte	0x6
 322 00d9 45       		.byte	0x45
 323 00da B8000000 		.4byte	0xb8
 324 00de 03       		.uleb128 0x3
 325 00df C5010000 		.4byte	.LASF19
 326 00e3 06       		.byte	0x6
 327 00e4 48       		.byte	0x48
 328 00e5 A2000000 		.4byte	0xa2
 329 00e9 03       		.uleb128 0x3
 330 00ea 15010000 		.4byte	.LASF20
 331 00ee 06       		.byte	0x6
 332 00ef 49       		.byte	0x49
 333 00f0 A2000000 		.4byte	0xa2
 334 00f4 03       		.uleb128 0x3
 335 00f5 D6020000 		.4byte	.LASF21
 336 00f9 06       		.byte	0x6
 337 00fa 4A       		.byte	0x4a
 338 00fb A2000000 		.4byte	0xa2
ARM GAS  /tmp/ccumQxt6.s 			page 7


 339 00ff 03       		.uleb128 0x3
 340 0100 FD020000 		.4byte	.LASF22
 341 0104 06       		.byte	0x6
 342 0105 4C       		.byte	0x4c
 343 0106 B8000000 		.4byte	0xb8
 344 010a 03       		.uleb128 0x3
 345 010b B3010000 		.4byte	.LASF23
 346 010f 06       		.byte	0x6
 347 0110 4D       		.byte	0x4d
 348 0111 AD000000 		.4byte	0xad
 349 0115 03       		.uleb128 0x3
 350 0116 DB010000 		.4byte	.LASF24
 351 011a 06       		.byte	0x6
 352 011b 4F       		.byte	0x4f
 353 011c B8000000 		.4byte	0xb8
 354 0120 03       		.uleb128 0x3
 355 0121 36050000 		.4byte	.LASF25
 356 0125 07       		.byte	0x7
 357 0126 33       		.byte	0x33
 358 0127 B8000000 		.4byte	0xb8
 359 012b 03       		.uleb128 0x3
 360 012c 26050000 		.4byte	.LASF26
 361 0130 07       		.byte	0x7
 362 0131 3F       		.byte	0x3f
 363 0132 36010000 		.4byte	0x136
 364 0136 06       		.uleb128 0x6
 365 0137 A9010000 		.4byte	.LASF45
 366 013b 44       		.byte	0x44
 367 013c 08       		.byte	0x8
 368 013d BE       		.byte	0xbe
 369 013e 23020000 		.4byte	0x223
 370 0142 07       		.uleb128 0x7
 371 0143 72030000 		.4byte	.LASF27
 372 0147 08       		.byte	0x8
 373 0148 BF       		.byte	0xbf
 374 0149 CD050000 		.4byte	0x5cd
 375 014d 00       		.byte	0
 376 014e 07       		.uleb128 0x7
 377 014f EE020000 		.4byte	.LASF28
 378 0153 08       		.byte	0x8
 379 0154 C1       		.byte	0xc1
 380 0155 CD050000 		.4byte	0x5cd
 381 0159 04       		.byte	0x4
 382 015a 07       		.uleb128 0x7
 383 015b B0000000 		.4byte	.LASF29
 384 015f 08       		.byte	0x8
 385 0160 C3       		.byte	0xc3
 386 0161 FF000000 		.4byte	0xff
 387 0165 08       		.byte	0x8
 388 0166 07       		.uleb128 0x7
 389 0167 03060000 		.4byte	.LASF30
 390 016b 08       		.byte	0x8
 391 016c C4       		.byte	0xc4
 392 016d 4D040000 		.4byte	0x44d
 393 0171 0C       		.byte	0xc
 394 0172 07       		.uleb128 0x7
 395 0173 1E010000 		.4byte	.LASF31
ARM GAS  /tmp/ccumQxt6.s 			page 8


 396 0177 08       		.byte	0x8
 397 0178 C6       		.byte	0xc6
 398 0179 CD050000 		.4byte	0x5cd
 399 017d 10       		.byte	0x10
 400 017e 07       		.uleb128 0x7
 401 017f 7D020000 		.4byte	.LASF32
 402 0183 08       		.byte	0x8
 403 0184 C7       		.byte	0xc7
 404 0185 CD050000 		.4byte	0x5cd
 405 0189 14       		.byte	0x14
 406 018a 07       		.uleb128 0x7
 407 018b DF050000 		.4byte	.LASF33
 408 018f 08       		.byte	0x8
 409 0190 CE       		.byte	0xce
 410 0191 0B060000 		.4byte	0x60b
 411 0195 18       		.byte	0x18
 412 0196 07       		.uleb128 0x7
 413 0197 4B030000 		.4byte	.LASF34
 414 019b 08       		.byte	0x8
 415 019c D9       		.byte	0xd9
 416 019d E9000000 		.4byte	0xe9
 417 01a1 1C       		.byte	0x1c
 418 01a2 07       		.uleb128 0x7
 419 01a3 92040000 		.4byte	.LASF35
 420 01a7 08       		.byte	0x8
 421 01a8 DD       		.byte	0xdd
 422 01a9 DE000000 		.4byte	0xde
 423 01ad 1D       		.byte	0x1d
 424 01ae 07       		.uleb128 0x7
 425 01af A8050000 		.4byte	.LASF36
 426 01b3 08       		.byte	0x8
 427 01b4 E2       		.byte	0xe2
 428 01b5 F4000000 		.4byte	0xf4
 429 01b9 1E       		.byte	0x1e
 430 01ba 08       		.uleb128 0x8
 431 01bb 705F7500 		.ascii	"p_u\000"
 432 01bf 08       		.byte	0x8
 433 01c0 1401     		.2byte	0x114
 434 01c2 D3050000 		.4byte	0x5d3
 435 01c6 20       		.byte	0x20
 436 01c7 09       		.uleb128 0x9
 437 01c8 0E020000 		.4byte	.LASF37
 438 01cc 08       		.byte	0x8
 439 01cd 1901     		.2byte	0x119
 440 01cf 23020000 		.4byte	0x223
 441 01d3 24       		.byte	0x24
 442 01d4 09       		.uleb128 0x9
 443 01d5 74010000 		.4byte	.LASF38
 444 01d9 08       		.byte	0x8
 445 01da 1F01     		.2byte	0x11f
 446 01dc 47020000 		.4byte	0x247
 447 01e0 28       		.byte	0x28
 448 01e1 09       		.uleb128 0x9
 449 01e2 F5050000 		.4byte	.LASF39
 450 01e6 08       		.byte	0x8
 451 01e7 2301     		.2byte	0x123
 452 01e9 0A010000 		.4byte	0x10a
ARM GAS  /tmp/ccumQxt6.s 			page 9


 453 01ed 30       		.byte	0x30
 454 01ee 09       		.uleb128 0x9
 455 01ef C1040000 		.4byte	.LASF40
 456 01f3 08       		.byte	0x8
 457 01f4 2901     		.2byte	0x129
 458 01f6 15010000 		.4byte	0x115
 459 01fa 34       		.byte	0x34
 460 01fb 09       		.uleb128 0x9
 461 01fc 37030000 		.4byte	.LASF41
 462 0200 08       		.byte	0x8
 463 0201 3001     		.2byte	0x130
 464 0203 4E060000 		.4byte	0x64e
 465 0207 38       		.byte	0x38
 466 0208 09       		.uleb128 0x9
 467 0209 40050000 		.4byte	.LASF42
 468 020d 08       		.byte	0x8
 469 020e 3401     		.2byte	0x134
 470 0210 FF000000 		.4byte	0xff
 471 0214 3C       		.byte	0x3c
 472 0215 09       		.uleb128 0x9
 473 0216 D1000000 		.4byte	.LASF43
 474 021a 08       		.byte	0x8
 475 021b 3A01     		.2byte	0x13a
 476 021d FA020000 		.4byte	0x2fa
 477 0221 40       		.byte	0x40
 478 0222 00       		.byte	0
 479 0223 03       		.uleb128 0x3
 480 0224 E6050000 		.4byte	.LASF44
 481 0228 07       		.byte	0x7
 482 0229 44       		.byte	0x44
 483 022a 2E020000 		.4byte	0x22e
 484 022e 06       		.uleb128 0x6
 485 022f DD040000 		.4byte	.LASF46
 486 0233 04       		.byte	0x4
 487 0234 08       		.byte	0x8
 488 0235 AC       		.byte	0xac
 489 0236 47020000 		.4byte	0x247
 490 023a 07       		.uleb128 0x7
 491 023b 72030000 		.4byte	.LASF27
 492 023f 08       		.byte	0x8
 493 0240 AD       		.byte	0xad
 494 0241 CD050000 		.4byte	0x5cd
 495 0245 00       		.byte	0
 496 0246 00       		.byte	0
 497 0247 03       		.uleb128 0x3
 498 0248 98050000 		.4byte	.LASF47
 499 024c 07       		.byte	0x7
 500 024d 4B       		.byte	0x4b
 501 024e 52020000 		.4byte	0x252
 502 0252 06       		.uleb128 0x6
 503 0253 9F000000 		.4byte	.LASF48
 504 0257 08       		.byte	0x8
 505 0258 08       		.byte	0x8
 506 0259 B3       		.byte	0xb3
 507 025a 77020000 		.4byte	0x277
 508 025e 07       		.uleb128 0x7
 509 025f 72030000 		.4byte	.LASF27
ARM GAS  /tmp/ccumQxt6.s 			page 10


 510 0263 08       		.byte	0x8
 511 0264 B4       		.byte	0xb4
 512 0265 CD050000 		.4byte	0x5cd
 513 0269 00       		.byte	0
 514 026a 07       		.uleb128 0x7
 515 026b EE020000 		.4byte	.LASF28
 516 026f 08       		.byte	0x8
 517 0270 B5       		.byte	0xb5
 518 0271 CD050000 		.4byte	0x5cd
 519 0275 04       		.byte	0x4
 520 0276 00       		.byte	0
 521 0277 03       		.uleb128 0x3
 522 0278 08000000 		.4byte	.LASF49
 523 027c 07       		.byte	0x7
 524 027d 52       		.byte	0x52
 525 027e 82020000 		.4byte	0x282
 526 0282 0A       		.uleb128 0xa
 527 0283 CD010000 		.4byte	.LASF50
 528 0287 1C       		.byte	0x1c
 529 0288 08       		.byte	0x8
 530 0289 7201     		.2byte	0x172
 531 028b DE020000 		.4byte	0x2de
 532 028f 09       		.uleb128 0x9
 533 0290 D5040000 		.4byte	.LASF51
 534 0294 08       		.byte	0x8
 535 0295 7301     		.2byte	0x173
 536 0297 47020000 		.4byte	0x247
 537 029b 00       		.byte	0
 538 029c 09       		.uleb128 0x9
 539 029d 5B030000 		.4byte	.LASF52
 540 02a1 08       		.byte	0x8
 541 02a2 7401     		.2byte	0x174
 542 02a4 FF000000 		.4byte	0xff
 543 02a8 08       		.byte	0x8
 544 02a9 09       		.uleb128 0x9
 545 02aa 85020000 		.4byte	.LASF53
 546 02ae 08       		.byte	0x8
 547 02af 7601     		.2byte	0x176
 548 02b1 4D040000 		.4byte	0x44d
 549 02b5 0C       		.byte	0xc
 550 02b6 09       		.uleb128 0x9
 551 02b7 26010000 		.4byte	.LASF54
 552 02bb 08       		.byte	0x8
 553 02bc 7901     		.2byte	0x179
 554 02be CD050000 		.4byte	0x5cd
 555 02c2 10       		.byte	0x10
 556 02c3 09       		.uleb128 0x9
 557 02c4 C3020000 		.4byte	.LASF55
 558 02c8 08       		.byte	0x8
 559 02c9 7A01     		.2byte	0x17a
 560 02cb CD050000 		.4byte	0x5cd
 561 02cf 14       		.byte	0x14
 562 02d0 09       		.uleb128 0x9
 563 02d1 B9020000 		.4byte	.LASF56
 564 02d5 08       		.byte	0x8
 565 02d6 7D01     		.2byte	0x17d
 566 02d8 CD050000 		.4byte	0x5cd
ARM GAS  /tmp/ccumQxt6.s 			page 11


 567 02dc 18       		.byte	0x18
 568 02dd 00       		.byte	0
 569 02de 03       		.uleb128 0x3
 570 02df 4B050000 		.4byte	.LASF57
 571 02e3 07       		.byte	0x7
 572 02e4 57       		.byte	0x57
 573 02e5 E9020000 		.4byte	0x2e9
 574 02e9 0B       		.uleb128 0xb
 575 02ea 04       		.byte	0x4
 576 02eb EF020000 		.4byte	0x2ef
 577 02ef 0C       		.uleb128 0xc
 578 02f0 FA020000 		.4byte	0x2fa
 579 02f4 0D       		.uleb128 0xd
 580 02f5 FA020000 		.4byte	0x2fa
 581 02f9 00       		.byte	0
 582 02fa 0E       		.uleb128 0xe
 583 02fb 04       		.byte	0x4
 584 02fc 03       		.uleb128 0x3
 585 02fd DE020000 		.4byte	.LASF58
 586 0301 07       		.byte	0x7
 587 0302 5C       		.byte	0x5c
 588 0303 07030000 		.4byte	0x307
 589 0307 0A       		.uleb128 0xa
 590 0308 9A040000 		.4byte	.LASF59
 591 030c 14       		.byte	0x14
 592 030d 08       		.byte	0x8
 593 030e 4D01     		.2byte	0x14d
 594 0310 56030000 		.4byte	0x356
 595 0314 09       		.uleb128 0x9
 596 0315 63010000 		.4byte	.LASF60
 597 0319 08       		.byte	0x8
 598 031a 4E01     		.2byte	0x14e
 599 031c 54060000 		.4byte	0x654
 600 0320 00       		.byte	0
 601 0321 09       		.uleb128 0x9
 602 0322 37010000 		.4byte	.LASF61
 603 0326 08       		.byte	0x8
 604 0327 4F01     		.2byte	0x14f
 605 0329 54060000 		.4byte	0x654
 606 032d 04       		.byte	0x4
 607 032e 09       		.uleb128 0x9
 608 032f 6B010000 		.4byte	.LASF62
 609 0333 08       		.byte	0x8
 610 0334 5001     		.2byte	0x150
 611 0336 20010000 		.4byte	0x120
 612 033a 08       		.byte	0x8
 613 033b 09       		.uleb128 0x9
 614 033c 09060000 		.4byte	.LASF63
 615 0340 08       		.byte	0x8
 616 0341 5101     		.2byte	0x151
 617 0343 DE020000 		.4byte	0x2de
 618 0347 0C       		.byte	0xc
 619 0348 09       		.uleb128 0x9
 620 0349 87050000 		.4byte	.LASF64
 621 034d 08       		.byte	0x8
 622 034e 5301     		.2byte	0x153
 623 0350 FA020000 		.4byte	0x2fa
ARM GAS  /tmp/ccumQxt6.s 			page 12


 624 0354 10       		.byte	0x10
 625 0355 00       		.byte	0
 626 0356 03       		.uleb128 0x3
 627 0357 7C000000 		.4byte	.LASF65
 628 035b 07       		.byte	0x7
 629 035c 61       		.byte	0x61
 630 035d 61030000 		.4byte	0x361
 631 0361 0A       		.uleb128 0xa
 632 0362 49020000 		.4byte	.LASF66
 633 0366 10       		.byte	0x10
 634 0367 08       		.byte	0x8
 635 0368 5D01     		.2byte	0x15d
 636 036a A3030000 		.4byte	0x3a3
 637 036e 09       		.uleb128 0x9
 638 036f 63010000 		.4byte	.LASF60
 639 0373 08       		.byte	0x8
 640 0374 5E01     		.2byte	0x15e
 641 0376 54060000 		.4byte	0x654
 642 037a 00       		.byte	0
 643 037b 09       		.uleb128 0x9
 644 037c 37010000 		.4byte	.LASF61
 645 0380 08       		.byte	0x8
 646 0381 6001     		.2byte	0x160
 647 0383 54060000 		.4byte	0x654
 648 0387 04       		.byte	0x4
 649 0388 09       		.uleb128 0x9
 650 0389 6B010000 		.4byte	.LASF62
 651 038d 08       		.byte	0x8
 652 038e 6201     		.2byte	0x162
 653 0390 20010000 		.4byte	0x120
 654 0394 08       		.byte	0x8
 655 0395 09       		.uleb128 0x9
 656 0396 71020000 		.4byte	.LASF67
 657 039a 08       		.byte	0x8
 658 039b 6A01     		.2byte	0x16a
 659 039d 20010000 		.4byte	0x120
 660 03a1 0C       		.byte	0xc
 661 03a2 00       		.byte	0
 662 03a3 03       		.uleb128 0x3
 663 03a4 42000000 		.4byte	.LASF68
 664 03a8 07       		.byte	0x7
 665 03a9 66       		.byte	0x66
 666 03aa AE030000 		.4byte	0x3ae
 667 03ae 0A       		.uleb128 0xa
 668 03af 0B030000 		.4byte	.LASF69
 669 03b3 04       		.byte	0x4
 670 03b4 08       		.byte	0x8
 671 03b5 8401     		.2byte	0x184
 672 03b7 C9030000 		.4byte	0x3c9
 673 03bb 09       		.uleb128 0x9
 674 03bc 66050000 		.4byte	.LASF70
 675 03c0 08       		.byte	0x8
 676 03c1 8C01     		.2byte	0x18c
 677 03c3 5A060000 		.4byte	0x65a
 678 03c7 00       		.byte	0
 679 03c8 00       		.byte	0
 680 03c9 03       		.uleb128 0x3
ARM GAS  /tmp/ccumQxt6.s 			page 13


 681 03ca B9010000 		.4byte	.LASF71
 682 03ce 07       		.byte	0x7
 683 03cf 6B       		.byte	0x6b
 684 03d0 D4030000 		.4byte	0x3d4
 685 03d4 0F       		.uleb128 0xf
 686 03d5 F8000000 		.4byte	.LASF72
 687 03d9 D801     		.2byte	0x1d8
 688 03db 08       		.byte	0x8
 689 03dc A401     		.2byte	0x1a4
 690 03de 30040000 		.4byte	0x430
 691 03e2 09       		.uleb128 0x9
 692 03e3 AF050000 		.4byte	.LASF73
 693 03e7 08       		.byte	0x8
 694 03e8 A801     		.2byte	0x1a8
 695 03ea 77020000 		.4byte	0x277
 696 03ee 00       		.byte	0
 697 03ef 09       		.uleb128 0x9
 698 03f0 F1000000 		.4byte	.LASF74
 699 03f4 08       		.byte	0x8
 700 03f5 AC01     		.2byte	0x1ac
 701 03f7 56030000 		.4byte	0x356
 702 03fb 1C       		.byte	0x1c
 703 03fc 08       		.uleb128 0x8
 704 03fd 64626700 		.ascii	"dbg\000"
 705 0401 08       		.byte	0x8
 706 0402 B001     		.2byte	0x1b0
 707 0404 A3030000 		.4byte	0x3a3
 708 0408 2C       		.byte	0x2c
 709 0409 09       		.uleb128 0x9
 710 040a 71000000 		.4byte	.LASF75
 711 040e 08       		.byte	0x8
 712 040f B401     		.2byte	0x1b4
 713 0411 2B010000 		.4byte	0x12b
 714 0415 30       		.byte	0x30
 715 0416 08       		.uleb128 0x8
 716 0417 746D00   		.ascii	"tm\000"
 717 041a 08       		.byte	0x8
 718 041b B901     		.2byte	0x1b9
 719 041d C2050000 		.4byte	0x5c2
 720 0421 74       		.byte	0x74
 721 0422 09       		.uleb128 0x9
 722 0423 47010000 		.4byte	.LASF76
 723 0427 08       		.byte	0x8
 724 0428 C501     		.2byte	0x1c5
 725 042a 5F060000 		.4byte	0x65f
 726 042e 78       		.byte	0x78
 727 042f 00       		.byte	0
 728 0430 04       		.uleb128 0x4
 729 0431 04       		.byte	0x4
 730 0432 07       		.byte	0x7
 731 0433 40020000 		.4byte	.LASF77
 732 0437 03       		.uleb128 0x3
 733 0438 2E010000 		.4byte	.LASF78
 734 043c 09       		.byte	0x9
 735 043d 85       		.byte	0x85
 736 043e FA020000 		.4byte	0x2fa
 737 0442 03       		.uleb128 0x3
ARM GAS  /tmp/ccumQxt6.s 			page 14


 738 0443 F1010000 		.4byte	.LASF79
 739 0447 09       		.byte	0x9
 740 0448 8D       		.byte	0x8d
 741 0449 C3000000 		.4byte	0xc3
 742 044d 06       		.uleb128 0x6
 743 044e 77050000 		.4byte	.LASF80
 744 0452 04       		.byte	0x4
 745 0453 09       		.byte	0x9
 746 0454 A9       		.byte	0xa9
 747 0455 66040000 		.4byte	0x466
 748 0459 10       		.uleb128 0x10
 749 045a 72313300 		.ascii	"r13\000"
 750 045e 09       		.byte	0x9
 751 045f AA       		.byte	0xaa
 752 0460 A7050000 		.4byte	0x5a7
 753 0464 00       		.byte	0
 754 0465 00       		.byte	0
 755 0466 06       		.uleb128 0x6
 756 0467 36000000 		.4byte	.LASF81
 757 046b 64       		.byte	0x64
 758 046c 0A       		.byte	0xa
 759 046d F4       		.byte	0xf4
 760 046e A7050000 		.4byte	0x5a7
 761 0472 10       		.uleb128 0x10
 762 0473 73313600 		.ascii	"s16\000"
 763 0477 0A       		.byte	0xa
 764 0478 F6       		.byte	0xf6
 765 0479 37040000 		.4byte	0x437
 766 047d 00       		.byte	0
 767 047e 10       		.uleb128 0x10
 768 047f 73313700 		.ascii	"s17\000"
 769 0483 0A       		.byte	0xa
 770 0484 F7       		.byte	0xf7
 771 0485 37040000 		.4byte	0x437
 772 0489 04       		.byte	0x4
 773 048a 10       		.uleb128 0x10
 774 048b 73313800 		.ascii	"s18\000"
 775 048f 0A       		.byte	0xa
 776 0490 F8       		.byte	0xf8
 777 0491 37040000 		.4byte	0x437
 778 0495 08       		.byte	0x8
 779 0496 10       		.uleb128 0x10
 780 0497 73313900 		.ascii	"s19\000"
 781 049b 0A       		.byte	0xa
 782 049c F9       		.byte	0xf9
 783 049d 37040000 		.4byte	0x437
 784 04a1 0C       		.byte	0xc
 785 04a2 10       		.uleb128 0x10
 786 04a3 73323000 		.ascii	"s20\000"
 787 04a7 0A       		.byte	0xa
 788 04a8 FA       		.byte	0xfa
 789 04a9 37040000 		.4byte	0x437
 790 04ad 10       		.byte	0x10
 791 04ae 10       		.uleb128 0x10
 792 04af 73323100 		.ascii	"s21\000"
 793 04b3 0A       		.byte	0xa
 794 04b4 FB       		.byte	0xfb
ARM GAS  /tmp/ccumQxt6.s 			page 15


 795 04b5 37040000 		.4byte	0x437
 796 04b9 14       		.byte	0x14
 797 04ba 10       		.uleb128 0x10
 798 04bb 73323200 		.ascii	"s22\000"
 799 04bf 0A       		.byte	0xa
 800 04c0 FC       		.byte	0xfc
 801 04c1 37040000 		.4byte	0x437
 802 04c5 18       		.byte	0x18
 803 04c6 10       		.uleb128 0x10
 804 04c7 73323300 		.ascii	"s23\000"
 805 04cb 0A       		.byte	0xa
 806 04cc FD       		.byte	0xfd
 807 04cd 37040000 		.4byte	0x437
 808 04d1 1C       		.byte	0x1c
 809 04d2 10       		.uleb128 0x10
 810 04d3 73323400 		.ascii	"s24\000"
 811 04d7 0A       		.byte	0xa
 812 04d8 FE       		.byte	0xfe
 813 04d9 37040000 		.4byte	0x437
 814 04dd 20       		.byte	0x20
 815 04de 10       		.uleb128 0x10
 816 04df 73323500 		.ascii	"s25\000"
 817 04e3 0A       		.byte	0xa
 818 04e4 FF       		.byte	0xff
 819 04e5 37040000 		.4byte	0x437
 820 04e9 24       		.byte	0x24
 821 04ea 08       		.uleb128 0x8
 822 04eb 73323600 		.ascii	"s26\000"
 823 04ef 0A       		.byte	0xa
 824 04f0 0001     		.2byte	0x100
 825 04f2 37040000 		.4byte	0x437
 826 04f6 28       		.byte	0x28
 827 04f7 08       		.uleb128 0x8
 828 04f8 73323700 		.ascii	"s27\000"
 829 04fc 0A       		.byte	0xa
 830 04fd 0101     		.2byte	0x101
 831 04ff 37040000 		.4byte	0x437
 832 0503 2C       		.byte	0x2c
 833 0504 08       		.uleb128 0x8
 834 0505 73323800 		.ascii	"s28\000"
 835 0509 0A       		.byte	0xa
 836 050a 0201     		.2byte	0x102
 837 050c 37040000 		.4byte	0x437
 838 0510 30       		.byte	0x30
 839 0511 08       		.uleb128 0x8
 840 0512 73323900 		.ascii	"s29\000"
 841 0516 0A       		.byte	0xa
 842 0517 0301     		.2byte	0x103
 843 0519 37040000 		.4byte	0x437
 844 051d 34       		.byte	0x34
 845 051e 08       		.uleb128 0x8
 846 051f 73333000 		.ascii	"s30\000"
 847 0523 0A       		.byte	0xa
 848 0524 0401     		.2byte	0x104
 849 0526 37040000 		.4byte	0x437
 850 052a 38       		.byte	0x38
 851 052b 08       		.uleb128 0x8
ARM GAS  /tmp/ccumQxt6.s 			page 16


 852 052c 73333100 		.ascii	"s31\000"
 853 0530 0A       		.byte	0xa
 854 0531 0501     		.2byte	0x105
 855 0533 37040000 		.4byte	0x437
 856 0537 3C       		.byte	0x3c
 857 0538 08       		.uleb128 0x8
 858 0539 723400   		.ascii	"r4\000"
 859 053c 0A       		.byte	0xa
 860 053d 0701     		.2byte	0x107
 861 053f 37040000 		.4byte	0x437
 862 0543 40       		.byte	0x40
 863 0544 08       		.uleb128 0x8
 864 0545 723500   		.ascii	"r5\000"
 865 0548 0A       		.byte	0xa
 866 0549 0801     		.2byte	0x108
 867 054b 37040000 		.4byte	0x437
 868 054f 44       		.byte	0x44
 869 0550 08       		.uleb128 0x8
 870 0551 723600   		.ascii	"r6\000"
 871 0554 0A       		.byte	0xa
 872 0555 0901     		.2byte	0x109
 873 0557 37040000 		.4byte	0x437
 874 055b 48       		.byte	0x48
 875 055c 08       		.uleb128 0x8
 876 055d 723700   		.ascii	"r7\000"
 877 0560 0A       		.byte	0xa
 878 0561 0A01     		.2byte	0x10a
 879 0563 37040000 		.4byte	0x437
 880 0567 4C       		.byte	0x4c
 881 0568 08       		.uleb128 0x8
 882 0569 723800   		.ascii	"r8\000"
 883 056c 0A       		.byte	0xa
 884 056d 0B01     		.2byte	0x10b
 885 056f 37040000 		.4byte	0x437
 886 0573 50       		.byte	0x50
 887 0574 08       		.uleb128 0x8
 888 0575 723900   		.ascii	"r9\000"
 889 0578 0A       		.byte	0xa
 890 0579 0C01     		.2byte	0x10c
 891 057b 37040000 		.4byte	0x437
 892 057f 54       		.byte	0x54
 893 0580 08       		.uleb128 0x8
 894 0581 72313000 		.ascii	"r10\000"
 895 0585 0A       		.byte	0xa
 896 0586 0D01     		.2byte	0x10d
 897 0588 37040000 		.4byte	0x437
 898 058c 58       		.byte	0x58
 899 058d 08       		.uleb128 0x8
 900 058e 72313100 		.ascii	"r11\000"
 901 0592 0A       		.byte	0xa
 902 0593 0E01     		.2byte	0x10e
 903 0595 37040000 		.4byte	0x437
 904 0599 5C       		.byte	0x5c
 905 059a 08       		.uleb128 0x8
 906 059b 6C7200   		.ascii	"lr\000"
 907 059e 0A       		.byte	0xa
 908 059f 0F01     		.2byte	0x10f
ARM GAS  /tmp/ccumQxt6.s 			page 17


 909 05a1 37040000 		.4byte	0x437
 910 05a5 60       		.byte	0x60
 911 05a6 00       		.byte	0
 912 05a7 0B       		.uleb128 0xb
 913 05a8 04       		.byte	0x4
 914 05a9 66040000 		.4byte	0x466
 915 05ad 11       		.uleb128 0x11
 916 05ae 04       		.byte	0x4
 917 05af 0B       		.byte	0xb
 918 05b0 38       		.byte	0x38
 919 05b1 C2050000 		.4byte	0x5c2
 920 05b5 07       		.uleb128 0x7
 921 05b6 70050000 		.4byte	.LASF82
 922 05ba 0B       		.byte	0xb
 923 05bb 3C       		.byte	0x3c
 924 05bc D3000000 		.4byte	0xd3
 925 05c0 00       		.byte	0
 926 05c1 00       		.byte	0
 927 05c2 03       		.uleb128 0x3
 928 05c3 60020000 		.4byte	.LASF83
 929 05c7 0B       		.byte	0xb
 930 05c8 3D       		.byte	0x3d
 931 05c9 AD050000 		.4byte	0x5ad
 932 05cd 0B       		.uleb128 0xb
 933 05ce 04       		.byte	0x4
 934 05cf 2B010000 		.4byte	0x12b
 935 05d3 12       		.uleb128 0x12
 936 05d4 04       		.byte	0x4
 937 05d5 08       		.byte	0x8
 938 05d6 F6       		.byte	0xf6
 939 05d7 0B060000 		.4byte	0x60b
 940 05db 13       		.uleb128 0x13
 941 05dc 1C000000 		.4byte	.LASF84
 942 05e0 08       		.byte	0x8
 943 05e1 FD       		.byte	0xfd
 944 05e2 0A010000 		.4byte	0x10a
 945 05e6 14       		.uleb128 0x14
 946 05e7 68000000 		.4byte	.LASF85
 947 05eb 08       		.byte	0x8
 948 05ec 0401     		.2byte	0x104
 949 05ee 0A010000 		.4byte	0x10a
 950 05f2 14       		.uleb128 0x14
 951 05f3 D8050000 		.4byte	.LASF86
 952 05f7 08       		.byte	0x8
 953 05f8 0B01     		.2byte	0x10b
 954 05fa FA020000 		.4byte	0x2fa
 955 05fe 14       		.uleb128 0x14
 956 05ff 6B030000 		.4byte	.LASF87
 957 0603 08       		.byte	0x8
 958 0604 1201     		.2byte	0x112
 959 0606 15010000 		.4byte	0x115
 960 060a 00       		.byte	0
 961 060b 0B       		.uleb128 0xb
 962 060c 04       		.byte	0x4
 963 060d 11060000 		.4byte	0x611
 964 0611 15       		.uleb128 0x15
 965 0612 16060000 		.4byte	0x616
ARM GAS  /tmp/ccumQxt6.s 			page 18


 966 0616 04       		.uleb128 0x4
 967 0617 01       		.byte	0x1
 968 0618 08       		.byte	0x8
 969 0619 21050000 		.4byte	.LASF88
 970 061d 06       		.uleb128 0x6
 971 061e 05030000 		.4byte	.LASF89
 972 0622 10       		.byte	0x10
 973 0623 0C       		.byte	0xc
 974 0624 39       		.byte	0x39
 975 0625 4E060000 		.4byte	0x64e
 976 0629 07       		.uleb128 0x7
 977 062a D9000000 		.4byte	.LASF90
 978 062e 0C       		.byte	0xc
 979 062f 3A       		.byte	0x3a
 980 0630 47020000 		.4byte	0x247
 981 0634 00       		.byte	0
 982 0635 07       		.uleb128 0x7
 983 0636 FB050000 		.4byte	.LASF91
 984 063a 0C       		.byte	0xc
 985 063b 3C       		.byte	0x3c
 986 063c CD050000 		.4byte	0x5cd
 987 0640 08       		.byte	0x8
 988 0641 07       		.uleb128 0x7
 989 0642 2F050000 		.4byte	.LASF92
 990 0646 0C       		.byte	0xc
 991 0647 3E       		.byte	0x3e
 992 0648 9A060000 		.4byte	0x69a
 993 064c 0C       		.byte	0xc
 994 064d 00       		.byte	0
 995 064e 0B       		.uleb128 0xb
 996 064f 04       		.byte	0x4
 997 0650 1D060000 		.4byte	0x61d
 998 0654 0B       		.uleb128 0xb
 999 0655 04       		.byte	0x4
 1000 0656 FC020000 		.4byte	0x2fc
 1001 065a 05       		.uleb128 0x5
 1002 065b 0B060000 		.4byte	0x60b
 1003 065f 16       		.uleb128 0x16
 1004 0660 42040000 		.4byte	0x442
 1005 0664 6F060000 		.4byte	0x66f
 1006 0668 17       		.uleb128 0x17
 1007 0669 30040000 		.4byte	0x430
 1008 066d 2B       		.byte	0x2b
 1009 066e 00       		.byte	0
 1010 066f 03       		.uleb128 0x3
 1011 0670 00000000 		.4byte	.LASF93
 1012 0674 02       		.byte	0x2
 1013 0675 37       		.byte	0x37
 1014 0676 7A060000 		.4byte	0x67a
 1015 067a 0B       		.uleb128 0xb
 1016 067b 04       		.byte	0x4
 1017 067c 80060000 		.4byte	0x680
 1018 0680 18       		.uleb128 0x18
 1019 0681 0A010000 		.4byte	0x10a
 1020 0685 8F060000 		.4byte	0x68f
 1021 0689 0D       		.uleb128 0xd
 1022 068a FA020000 		.4byte	0x2fa
ARM GAS  /tmp/ccumQxt6.s 			page 19


 1023 068e 00       		.byte	0
 1024 068f 03       		.uleb128 0x3
 1025 0690 3F010000 		.4byte	.LASF94
 1026 0694 0C       		.byte	0xc
 1027 0695 34       		.byte	0x34
 1028 0696 1D060000 		.4byte	0x61d
 1029 069a 0B       		.uleb128 0xb
 1030 069b 04       		.byte	0x4
 1031 069c 8F060000 		.4byte	0x68f
 1032 06a0 06       		.uleb128 0x6
 1033 06a1 B8040000 		.4byte	.LASF95
 1034 06a5 10       		.byte	0x10
 1035 06a6 0D       		.byte	0xd
 1036 06a7 3B       		.byte	0x3b
 1037 06a8 DD060000 		.4byte	0x6dd
 1038 06ac 07       		.uleb128 0x7
 1039 06ad 91010000 		.4byte	.LASF96
 1040 06b1 0D       		.byte	0xd
 1041 06b2 3C       		.byte	0x3c
 1042 06b3 0B060000 		.4byte	0x60b
 1043 06b7 00       		.byte	0
 1044 06b8 07       		.uleb128 0x7
 1045 06b9 9D020000 		.4byte	.LASF97
 1046 06bd 0D       		.byte	0xd
 1047 06be 3D       		.byte	0x3d
 1048 06bf DE060000 		.4byte	0x6de
 1049 06c3 04       		.byte	0x4
 1050 06c4 07       		.uleb128 0x7
 1051 06c5 7F010000 		.4byte	.LASF98
 1052 06c9 0D       		.byte	0xd
 1053 06ca 3E       		.byte	0x3e
 1054 06cb DE060000 		.4byte	0x6de
 1055 06cf 08       		.byte	0x8
 1056 06d0 07       		.uleb128 0x7
 1057 06d1 F5020000 		.4byte	.LASF99
 1058 06d5 0D       		.byte	0xd
 1059 06d6 3F       		.byte	0x3f
 1060 06d7 DE060000 		.4byte	0x6de
 1061 06db 0C       		.byte	0xc
 1062 06dc 00       		.byte	0
 1063 06dd 19       		.uleb128 0x19
 1064 06de 0B       		.uleb128 0xb
 1065 06df 04       		.byte	0x4
 1066 06e0 DD060000 		.4byte	0x6dd
 1067 06e4 1A       		.uleb128 0x1a
 1068 06e5 B5050000 		.4byte	.LASF100
 1069 06e9 02       		.byte	0x2
 1070 06ea B1       		.byte	0xb1
 1071 06eb CD050000 		.4byte	0x5cd
 1072 06ef 03       		.byte	0x3
 1073 06f0 1B       		.uleb128 0x1b
 1074 06f1 88010000 		.4byte	.LASF115
 1075 06f5 0F       		.byte	0xf
 1076 06f6 60       		.byte	0x60
 1077 06f7 0A010000 		.4byte	0x10a
 1078 06fb 03       		.byte	0x3
 1079 06fc 0B070000 		.4byte	0x70b
ARM GAS  /tmp/ccumQxt6.s 			page 20


 1080 0700 1C       		.uleb128 0x1c
 1081 0701 747000   		.ascii	"tp\000"
 1082 0704 0F       		.byte	0xf
 1083 0705 60       		.byte	0x60
 1084 0706 CD050000 		.4byte	0x5cd
 1085 070a 00       		.byte	0
 1086 070b 1A       		.uleb128 0x1a
 1087 070c 8B020000 		.4byte	.LASF101
 1088 0710 02       		.byte	0x2
 1089 0711 BE       		.byte	0xbe
 1090 0712 FF000000 		.4byte	0xff
 1091 0716 03       		.byte	0x3
 1092 0717 1D       		.uleb128 0x1d
 1093 0718 CB050000 		.4byte	.LASF116
 1094 071c 01       		.byte	0x1
 1095 071d 43       		.byte	0x43
 1096 071e 00000000 		.4byte	.LFB227
 1097 0722 78000000 		.4byte	.LFE227-.LFB227
 1098 0726 01       		.uleb128 0x1
 1099 0727 9C       		.byte	0x9c
 1100 0728 32080000 		.4byte	0x832
 1101 072c 1E       		.uleb128 0x1e
 1102 072d 747000   		.ascii	"tp\000"
 1103 0730 01       		.byte	0x1
 1104 0731 44       		.byte	0x44
 1105 0732 CD050000 		.4byte	0x5cd
 1106 0736 00000000 		.4byte	.LLST0
 1107 073a 1F       		.uleb128 0x1f
 1108 073b 6D736700 		.ascii	"msg\000"
 1109 073f 01       		.byte	0x1
 1110 0740 45       		.byte	0x45
 1111 0741 0A010000 		.4byte	0x10a
 1112 0745 20       		.uleb128 0x20
 1113 0746 0B070000 		.4byte	0x70b
 1114 074a 02000000 		.4byte	.LBB16
 1115 074e 00000000 		.4byte	.Ldebug_ranges0+0
 1116 0752 01       		.byte	0x1
 1117 0753 4A       		.byte	0x4a
 1118 0754 68070000 		.4byte	0x768
 1119 0758 21       		.uleb128 0x21
 1120 0759 E4060000 		.4byte	0x6e4
 1121 075d 02000000 		.4byte	.LBB18
 1122 0761 18000000 		.4byte	.Ldebug_ranges0+0x18
 1123 0765 02       		.byte	0x2
 1124 0766 C0       		.byte	0xc0
 1125 0767 00       		.byte	0
 1126 0768 22       		.uleb128 0x22
 1127 0769 1C000000 		.4byte	.LVL0
 1128 076d 31090000 		.4byte	0x931
 1129 0771 86070000 		.4byte	0x786
 1130 0775 23       		.uleb128 0x23
 1131 0776 01       		.uleb128 0x1
 1132 0777 53       		.byte	0x53
 1133 0778 05       		.uleb128 0x5
 1134 0779 03       		.byte	0x3
 1135 077a 00000000 		.4byte	thread
 1136 077e 23       		.uleb128 0x23
ARM GAS  /tmp/ccumQxt6.s 			page 21


 1137 077f 01       		.uleb128 0x1
 1138 0780 51       		.byte	0x51
 1139 0781 03       		.uleb128 0x3
 1140 0782 0A       		.byte	0xa
 1141 0783 D001     		.2byte	0x1d0
 1142 0785 00       		.byte	0
 1143 0786 24       		.uleb128 0x24
 1144 0787 24000000 		.4byte	.LVL1
 1145 078b 5A090000 		.4byte	0x95a
 1146 078f 22       		.uleb128 0x22
 1147 0790 2C000000 		.4byte	.LVL3
 1148 0794 65090000 		.4byte	0x965
 1149 0798 A3070000 		.4byte	0x7a3
 1150 079c 23       		.uleb128 0x23
 1151 079d 01       		.uleb128 0x1
 1152 079e 51       		.byte	0x51
 1153 079f 02       		.uleb128 0x2
 1154 07a0 74       		.byte	0x74
 1155 07a1 00       		.sleb128 0
 1156 07a2 00       		.byte	0
 1157 07a3 22       		.uleb128 0x22
 1158 07a4 32000000 		.4byte	.LVL4
 1159 07a8 7B090000 		.4byte	0x97b
 1160 07ac B7070000 		.4byte	0x7b7
 1161 07b0 23       		.uleb128 0x23
 1162 07b1 01       		.uleb128 0x1
 1163 07b2 50       		.byte	0x50
 1164 07b3 02       		.uleb128 0x2
 1165 07b4 74       		.byte	0x74
 1166 07b5 00       		.sleb128 0
 1167 07b6 00       		.byte	0
 1168 07b7 24       		.uleb128 0x24
 1169 07b8 36000000 		.4byte	.LVL5
 1170 07bc 5A090000 		.4byte	0x95a
 1171 07c0 22       		.uleb128 0x22
 1172 07c1 3E000000 		.4byte	.LVL7
 1173 07c5 65090000 		.4byte	0x965
 1174 07c9 D4070000 		.4byte	0x7d4
 1175 07cd 23       		.uleb128 0x23
 1176 07ce 01       		.uleb128 0x1
 1177 07cf 51       		.byte	0x51
 1178 07d0 02       		.uleb128 0x2
 1179 07d1 74       		.byte	0x74
 1180 07d2 00       		.sleb128 0
 1181 07d3 00       		.byte	0
 1182 07d4 22       		.uleb128 0x22
 1183 07d5 44000000 		.4byte	.LVL8
 1184 07d9 7B090000 		.4byte	0x97b
 1185 07dd E8070000 		.4byte	0x7e8
 1186 07e1 23       		.uleb128 0x23
 1187 07e2 01       		.uleb128 0x1
 1188 07e3 50       		.byte	0x50
 1189 07e4 02       		.uleb128 0x2
 1190 07e5 74       		.byte	0x74
 1191 07e6 00       		.sleb128 0
 1192 07e7 00       		.byte	0
 1193 07e8 24       		.uleb128 0x24
ARM GAS  /tmp/ccumQxt6.s 			page 22


 1194 07e9 48000000 		.4byte	.LVL9
 1195 07ed 5A090000 		.4byte	0x95a
 1196 07f1 22       		.uleb128 0x22
 1197 07f2 50000000 		.4byte	.LVL11
 1198 07f6 65090000 		.4byte	0x965
 1199 07fa 05080000 		.4byte	0x805
 1200 07fe 23       		.uleb128 0x23
 1201 07ff 01       		.uleb128 0x1
 1202 0800 51       		.byte	0x51
 1203 0801 02       		.uleb128 0x2
 1204 0802 74       		.byte	0x74
 1205 0803 00       		.sleb128 0
 1206 0804 00       		.byte	0
 1207 0805 22       		.uleb128 0x22
 1208 0806 56000000 		.4byte	.LVL12
 1209 080a 7B090000 		.4byte	0x97b
 1210 080e 19080000 		.4byte	0x819
 1211 0812 23       		.uleb128 0x23
 1212 0813 01       		.uleb128 0x1
 1213 0814 50       		.byte	0x50
 1214 0815 02       		.uleb128 0x2
 1215 0816 74       		.byte	0x74
 1216 0817 00       		.sleb128 0
 1217 0818 00       		.byte	0
 1218 0819 25       		.uleb128 0x25
 1219 081a 64000000 		.4byte	.LVL13
 1220 081e 8C090000 		.4byte	0x98c
 1221 0822 23       		.uleb128 0x23
 1222 0823 01       		.uleb128 0x1
 1223 0824 51       		.byte	0x51
 1224 0825 05       		.uleb128 0x5
 1225 0826 03       		.byte	0x3
 1226 0827 00000000 		.4byte	.LC0
 1227 082b 23       		.uleb128 0x23
 1228 082c 01       		.uleb128 0x1
 1229 082d 50       		.byte	0x50
 1230 082e 01       		.uleb128 0x1
 1231 082f 31       		.byte	0x31
 1232 0830 00       		.byte	0
 1233 0831 00       		.byte	0
 1234 0832 26       		.uleb128 0x26
 1235 0833 5F050000 		.4byte	.LASF117
 1236 0837 01       		.byte	0x1
 1237 0838 3B       		.byte	0x3b
 1238 0839 0A010000 		.4byte	0x10a
 1239 083d 00000000 		.4byte	.LFB226
 1240 0841 1E000000 		.4byte	.LFE226-.LFB226
 1241 0845 01       		.uleb128 0x1
 1242 0846 9C       		.byte	0x9c
 1243 0847 A3080000 		.4byte	0x8a3
 1244 084b 27       		.uleb128 0x27
 1245 084c 7000     		.ascii	"p\000"
 1246 084e 01       		.byte	0x1
 1247 084f 3B       		.byte	0x3b
 1248 0850 FA020000 		.4byte	0x2fa
 1249 0854 29000000 		.4byte	.LLST1
 1250 0858 22       		.uleb128 0x22
ARM GAS  /tmp/ccumQxt6.s 			page 23


 1251 0859 0A000000 		.4byte	.LVL15
 1252 085d B3090000 		.4byte	0x9b3
 1253 0861 72080000 		.4byte	0x872
 1254 0865 23       		.uleb128 0x23
 1255 0866 01       		.uleb128 0x1
 1256 0867 51       		.byte	0x51
 1257 0868 02       		.uleb128 0x2
 1258 0869 08       		.byte	0x8
 1259 086a 41       		.byte	0x41
 1260 086b 23       		.uleb128 0x23
 1261 086c 01       		.uleb128 0x1
 1262 086d 50       		.byte	0x50
 1263 086e 02       		.uleb128 0x2
 1264 086f 74       		.byte	0x74
 1265 0870 00       		.sleb128 0
 1266 0871 00       		.byte	0
 1267 0872 22       		.uleb128 0x22
 1268 0873 12000000 		.4byte	.LVL16
 1269 0877 B3090000 		.4byte	0x9b3
 1270 087b 8C080000 		.4byte	0x88c
 1271 087f 23       		.uleb128 0x23
 1272 0880 01       		.uleb128 0x1
 1273 0881 51       		.byte	0x51
 1274 0882 02       		.uleb128 0x2
 1275 0883 08       		.byte	0x8
 1276 0884 42       		.byte	0x42
 1277 0885 23       		.uleb128 0x23
 1278 0886 01       		.uleb128 0x1
 1279 0887 50       		.byte	0x50
 1280 0888 02       		.uleb128 0x2
 1281 0889 74       		.byte	0x74
 1282 088a 00       		.sleb128 0
 1283 088b 00       		.byte	0
 1284 088c 28       		.uleb128 0x28
 1285 088d 1A000000 		.4byte	.LVL17
 1286 0891 B3090000 		.4byte	0x9b3
 1287 0895 23       		.uleb128 0x23
 1288 0896 01       		.uleb128 0x1
 1289 0897 51       		.byte	0x51
 1290 0898 02       		.uleb128 0x2
 1291 0899 08       		.byte	0x8
 1292 089a 43       		.byte	0x43
 1293 089b 23       		.uleb128 0x23
 1294 089c 01       		.uleb128 0x1
 1295 089d 50       		.byte	0x50
 1296 089e 02       		.uleb128 0x2
 1297 089f 74       		.byte	0x74
 1298 08a0 00       		.sleb128 0
 1299 08a1 00       		.byte	0
 1300 08a2 00       		.byte	0
 1301 08a3 29       		.uleb128 0x29
 1302 08a4 92000000 		.4byte	.LASF102
 1303 08a8 0E       		.byte	0xe
 1304 08a9 A706     		.2byte	0x6a7
 1305 08ab CE000000 		.4byte	0xce
 1306 08af 2A       		.uleb128 0x2a
 1307 08b0 636800   		.ascii	"ch\000"
ARM GAS  /tmp/ccumQxt6.s 			page 24


 1308 08b3 08       		.byte	0x8
 1309 08b4 EB01     		.2byte	0x1eb
 1310 08b6 C9030000 		.4byte	0x3c9
 1311 08ba 16       		.uleb128 0x16
 1312 08bb CD050000 		.4byte	0x5cd
 1313 08bf CA080000 		.4byte	0x8ca
 1314 08c3 17       		.uleb128 0x17
 1315 08c4 30040000 		.4byte	0x430
 1316 08c8 04       		.byte	0x4
 1317 08c9 00       		.byte	0
 1318 08ca 2B       		.uleb128 0x2b
 1319 08cb 53030000 		.4byte	.LASF103
 1320 08cf 0D       		.byte	0xd
 1321 08d0 A5       		.byte	0xa5
 1322 08d1 BA080000 		.4byte	0x8ba
 1323 08d5 16       		.uleb128 0x16
 1324 08d6 FA020000 		.4byte	0x2fa
 1325 08da E0080000 		.4byte	0x8e0
 1326 08de 2C       		.uleb128 0x2c
 1327 08df 00       		.byte	0
 1328 08e0 2D       		.uleb128 0x2d
 1329 08e1 776100   		.ascii	"wa\000"
 1330 08e4 0D       		.byte	0xd
 1331 08e5 A7       		.byte	0xa7
 1332 08e6 EA080000 		.4byte	0x8ea
 1333 08ea 15       		.uleb128 0x15
 1334 08eb D5080000 		.4byte	0x8d5
 1335 08ef 2E       		.uleb128 0x2e
 1336 08f0 62030000 		.4byte	.LASF104
 1337 08f4 01       		.byte	0x1
 1338 08f5 5B       		.byte	0x5b
 1339 08f6 00090000 		.4byte	0x900
 1340 08fa 05       		.uleb128 0x5
 1341 08fb 03       		.byte	0x3
 1342 08fc 00000000 		.4byte	testmsg1
 1343 0900 15       		.uleb128 0x15
 1344 0901 A0060000 		.4byte	0x6a0
 1345 0905 16       		.uleb128 0x16
 1346 0906 15090000 		.4byte	0x915
 1347 090a 15090000 		.4byte	0x915
 1348 090e 17       		.uleb128 0x17
 1349 090f 30040000 		.4byte	0x430
 1350 0913 01       		.byte	0x1
 1351 0914 00       		.byte	0
 1352 0915 0B       		.uleb128 0xb
 1353 0916 04       		.byte	0x4
 1354 0917 00090000 		.4byte	0x900
 1355 091b 2E       		.uleb128 0x2e
 1356 091c 35020000 		.4byte	.LASF105
 1357 0920 01       		.byte	0x1
 1358 0921 67       		.byte	0x67
 1359 0922 2C090000 		.4byte	0x92c
 1360 0926 05       		.uleb128 0x5
 1361 0927 03       		.byte	0x3
 1362 0928 00000000 		.4byte	patternmsg
 1363 092c 15       		.uleb128 0x15
 1364 092d 05090000 		.4byte	0x905
ARM GAS  /tmp/ccumQxt6.s 			page 25


 1365 0931 2F       		.uleb128 0x2f
 1366 0932 FC010000 		.4byte	.LASF108
 1367 0936 02       		.byte	0x2
 1368 0937 8C       		.byte	0x8c
 1369 0938 CD050000 		.4byte	0x5cd
 1370 093c 5A090000 		.4byte	0x95a
 1371 0940 0D       		.uleb128 0xd
 1372 0941 FA020000 		.4byte	0x2fa
 1373 0945 0D       		.uleb128 0xd
 1374 0946 2C000000 		.4byte	0x2c
 1375 094a 0D       		.uleb128 0xd
 1376 094b FF000000 		.4byte	0xff
 1377 094f 0D       		.uleb128 0xd
 1378 0950 6F060000 		.4byte	0x66f
 1379 0954 0D       		.uleb128 0xd
 1380 0955 FA020000 		.4byte	0x2fa
 1381 0959 00       		.byte	0
 1382 095a 30       		.uleb128 0x30
 1383 095b 8E050000 		.4byte	.LASF118
 1384 095f 0F       		.byte	0xf
 1385 0960 3D       		.byte	0x3d
 1386 0961 CD050000 		.4byte	0x5cd
 1387 0965 31       		.uleb128 0x31
 1388 0966 AB040000 		.4byte	.LASF106
 1389 096a 0F       		.byte	0xf
 1390 096b 3E       		.byte	0x3e
 1391 096c 7B090000 		.4byte	0x97b
 1392 0970 0D       		.uleb128 0xd
 1393 0971 CD050000 		.4byte	0x5cd
 1394 0975 0D       		.uleb128 0xd
 1395 0976 0A010000 		.4byte	0x10a
 1396 097a 00       		.byte	0
 1397 097b 31       		.uleb128 0x31
 1398 097c E1000000 		.4byte	.LASF107
 1399 0980 0D       		.byte	0xd
 1400 0981 56       		.byte	0x56
 1401 0982 8C090000 		.4byte	0x98c
 1402 0986 0D       		.uleb128 0xd
 1403 0987 16060000 		.4byte	0x616
 1404 098b 00       		.byte	0
 1405 098c 2F       		.uleb128 0x2f
 1406 098d A3020000 		.4byte	.LASF109
 1407 0991 0D       		.byte	0xd
 1408 0992 59       		.byte	0x59
 1409 0993 A6090000 		.4byte	0x9a6
 1410 0997 A6090000 		.4byte	0x9a6
 1411 099b 0D       		.uleb128 0xd
 1412 099c 37000000 		.4byte	0x37
 1413 09a0 0D       		.uleb128 0xd
 1414 09a1 AD090000 		.4byte	0x9ad
 1415 09a5 00       		.byte	0
 1416 09a6 04       		.uleb128 0x4
 1417 09a7 01       		.byte	0x1
 1418 09a8 02       		.byte	0x2
 1419 09a9 1B030000 		.4byte	.LASF110
 1420 09ad 0B       		.uleb128 0xb
 1421 09ae 04       		.byte	0x4
ARM GAS  /tmp/ccumQxt6.s 			page 26


 1422 09af 16060000 		.4byte	0x616
 1423 09b3 32       		.uleb128 0x32
 1424 09b4 0B010000 		.4byte	.LASF111
 1425 09b8 0F       		.byte	0xf
 1426 09b9 3C       		.byte	0x3c
 1427 09ba 0A010000 		.4byte	0x10a
 1428 09be 0D       		.uleb128 0xd
 1429 09bf CD050000 		.4byte	0x5cd
 1430 09c3 0D       		.uleb128 0xd
 1431 09c4 0A010000 		.4byte	0x10a
 1432 09c8 00       		.byte	0
 1433 09c9 00       		.byte	0
 1434              		.section	.debug_abbrev,"",%progbits
 1435              	.Ldebug_abbrev0:
 1436 0000 01       		.uleb128 0x1
 1437 0001 11       		.uleb128 0x11
 1438 0002 01       		.byte	0x1
 1439 0003 25       		.uleb128 0x25
 1440 0004 0E       		.uleb128 0xe
 1441 0005 13       		.uleb128 0x13
 1442 0006 0B       		.uleb128 0xb
 1443 0007 03       		.uleb128 0x3
 1444 0008 0E       		.uleb128 0xe
 1445 0009 1B       		.uleb128 0x1b
 1446 000a 0E       		.uleb128 0xe
 1447 000b 55       		.uleb128 0x55
 1448 000c 17       		.uleb128 0x17
 1449 000d 11       		.uleb128 0x11
 1450 000e 01       		.uleb128 0x1
 1451 000f 10       		.uleb128 0x10
 1452 0010 17       		.uleb128 0x17
 1453 0011 00       		.byte	0
 1454 0012 00       		.byte	0
 1455 0013 02       		.uleb128 0x2
 1456 0014 24       		.uleb128 0x24
 1457 0015 00       		.byte	0
 1458 0016 0B       		.uleb128 0xb
 1459 0017 0B       		.uleb128 0xb
 1460 0018 3E       		.uleb128 0x3e
 1461 0019 0B       		.uleb128 0xb
 1462 001a 03       		.uleb128 0x3
 1463 001b 08       		.uleb128 0x8
 1464 001c 00       		.byte	0
 1465 001d 00       		.byte	0
 1466 001e 03       		.uleb128 0x3
 1467 001f 16       		.uleb128 0x16
 1468 0020 00       		.byte	0
 1469 0021 03       		.uleb128 0x3
 1470 0022 0E       		.uleb128 0xe
 1471 0023 3A       		.uleb128 0x3a
 1472 0024 0B       		.uleb128 0xb
 1473 0025 3B       		.uleb128 0x3b
 1474 0026 0B       		.uleb128 0xb
 1475 0027 49       		.uleb128 0x49
 1476 0028 13       		.uleb128 0x13
 1477 0029 00       		.byte	0
 1478 002a 00       		.byte	0
ARM GAS  /tmp/ccumQxt6.s 			page 27


 1479 002b 04       		.uleb128 0x4
 1480 002c 24       		.uleb128 0x24
 1481 002d 00       		.byte	0
 1482 002e 0B       		.uleb128 0xb
 1483 002f 0B       		.uleb128 0xb
 1484 0030 3E       		.uleb128 0x3e
 1485 0031 0B       		.uleb128 0xb
 1486 0032 03       		.uleb128 0x3
 1487 0033 0E       		.uleb128 0xe
 1488 0034 00       		.byte	0
 1489 0035 00       		.byte	0
 1490 0036 05       		.uleb128 0x5
 1491 0037 35       		.uleb128 0x35
 1492 0038 00       		.byte	0
 1493 0039 49       		.uleb128 0x49
 1494 003a 13       		.uleb128 0x13
 1495 003b 00       		.byte	0
 1496 003c 00       		.byte	0
 1497 003d 06       		.uleb128 0x6
 1498 003e 13       		.uleb128 0x13
 1499 003f 01       		.byte	0x1
 1500 0040 03       		.uleb128 0x3
 1501 0041 0E       		.uleb128 0xe
 1502 0042 0B       		.uleb128 0xb
 1503 0043 0B       		.uleb128 0xb
 1504 0044 3A       		.uleb128 0x3a
 1505 0045 0B       		.uleb128 0xb
 1506 0046 3B       		.uleb128 0x3b
 1507 0047 0B       		.uleb128 0xb
 1508 0048 01       		.uleb128 0x1
 1509 0049 13       		.uleb128 0x13
 1510 004a 00       		.byte	0
 1511 004b 00       		.byte	0
 1512 004c 07       		.uleb128 0x7
 1513 004d 0D       		.uleb128 0xd
 1514 004e 00       		.byte	0
 1515 004f 03       		.uleb128 0x3
 1516 0050 0E       		.uleb128 0xe
 1517 0051 3A       		.uleb128 0x3a
 1518 0052 0B       		.uleb128 0xb
 1519 0053 3B       		.uleb128 0x3b
 1520 0054 0B       		.uleb128 0xb
 1521 0055 49       		.uleb128 0x49
 1522 0056 13       		.uleb128 0x13
 1523 0057 38       		.uleb128 0x38
 1524 0058 0B       		.uleb128 0xb
 1525 0059 00       		.byte	0
 1526 005a 00       		.byte	0
 1527 005b 08       		.uleb128 0x8
 1528 005c 0D       		.uleb128 0xd
 1529 005d 00       		.byte	0
 1530 005e 03       		.uleb128 0x3
 1531 005f 08       		.uleb128 0x8
 1532 0060 3A       		.uleb128 0x3a
 1533 0061 0B       		.uleb128 0xb
 1534 0062 3B       		.uleb128 0x3b
 1535 0063 05       		.uleb128 0x5
ARM GAS  /tmp/ccumQxt6.s 			page 28


 1536 0064 49       		.uleb128 0x49
 1537 0065 13       		.uleb128 0x13
 1538 0066 38       		.uleb128 0x38
 1539 0067 0B       		.uleb128 0xb
 1540 0068 00       		.byte	0
 1541 0069 00       		.byte	0
 1542 006a 09       		.uleb128 0x9
 1543 006b 0D       		.uleb128 0xd
 1544 006c 00       		.byte	0
 1545 006d 03       		.uleb128 0x3
 1546 006e 0E       		.uleb128 0xe
 1547 006f 3A       		.uleb128 0x3a
 1548 0070 0B       		.uleb128 0xb
 1549 0071 3B       		.uleb128 0x3b
 1550 0072 05       		.uleb128 0x5
 1551 0073 49       		.uleb128 0x49
 1552 0074 13       		.uleb128 0x13
 1553 0075 38       		.uleb128 0x38
 1554 0076 0B       		.uleb128 0xb
 1555 0077 00       		.byte	0
 1556 0078 00       		.byte	0
 1557 0079 0A       		.uleb128 0xa
 1558 007a 13       		.uleb128 0x13
 1559 007b 01       		.byte	0x1
 1560 007c 03       		.uleb128 0x3
 1561 007d 0E       		.uleb128 0xe
 1562 007e 0B       		.uleb128 0xb
 1563 007f 0B       		.uleb128 0xb
 1564 0080 3A       		.uleb128 0x3a
 1565 0081 0B       		.uleb128 0xb
 1566 0082 3B       		.uleb128 0x3b
 1567 0083 05       		.uleb128 0x5
 1568 0084 01       		.uleb128 0x1
 1569 0085 13       		.uleb128 0x13
 1570 0086 00       		.byte	0
 1571 0087 00       		.byte	0
 1572 0088 0B       		.uleb128 0xb
 1573 0089 0F       		.uleb128 0xf
 1574 008a 00       		.byte	0
 1575 008b 0B       		.uleb128 0xb
 1576 008c 0B       		.uleb128 0xb
 1577 008d 49       		.uleb128 0x49
 1578 008e 13       		.uleb128 0x13
 1579 008f 00       		.byte	0
 1580 0090 00       		.byte	0
 1581 0091 0C       		.uleb128 0xc
 1582 0092 15       		.uleb128 0x15
 1583 0093 01       		.byte	0x1
 1584 0094 27       		.uleb128 0x27
 1585 0095 19       		.uleb128 0x19
 1586 0096 01       		.uleb128 0x1
 1587 0097 13       		.uleb128 0x13
 1588 0098 00       		.byte	0
 1589 0099 00       		.byte	0
 1590 009a 0D       		.uleb128 0xd
 1591 009b 05       		.uleb128 0x5
 1592 009c 00       		.byte	0
ARM GAS  /tmp/ccumQxt6.s 			page 29


 1593 009d 49       		.uleb128 0x49
 1594 009e 13       		.uleb128 0x13
 1595 009f 00       		.byte	0
 1596 00a0 00       		.byte	0
 1597 00a1 0E       		.uleb128 0xe
 1598 00a2 0F       		.uleb128 0xf
 1599 00a3 00       		.byte	0
 1600 00a4 0B       		.uleb128 0xb
 1601 00a5 0B       		.uleb128 0xb
 1602 00a6 00       		.byte	0
 1603 00a7 00       		.byte	0
 1604 00a8 0F       		.uleb128 0xf
 1605 00a9 13       		.uleb128 0x13
 1606 00aa 01       		.byte	0x1
 1607 00ab 03       		.uleb128 0x3
 1608 00ac 0E       		.uleb128 0xe
 1609 00ad 0B       		.uleb128 0xb
 1610 00ae 05       		.uleb128 0x5
 1611 00af 3A       		.uleb128 0x3a
 1612 00b0 0B       		.uleb128 0xb
 1613 00b1 3B       		.uleb128 0x3b
 1614 00b2 05       		.uleb128 0x5
 1615 00b3 01       		.uleb128 0x1
 1616 00b4 13       		.uleb128 0x13
 1617 00b5 00       		.byte	0
 1618 00b6 00       		.byte	0
 1619 00b7 10       		.uleb128 0x10
 1620 00b8 0D       		.uleb128 0xd
 1621 00b9 00       		.byte	0
 1622 00ba 03       		.uleb128 0x3
 1623 00bb 08       		.uleb128 0x8
 1624 00bc 3A       		.uleb128 0x3a
 1625 00bd 0B       		.uleb128 0xb
 1626 00be 3B       		.uleb128 0x3b
 1627 00bf 0B       		.uleb128 0xb
 1628 00c0 49       		.uleb128 0x49
 1629 00c1 13       		.uleb128 0x13
 1630 00c2 38       		.uleb128 0x38
 1631 00c3 0B       		.uleb128 0xb
 1632 00c4 00       		.byte	0
 1633 00c5 00       		.byte	0
 1634 00c6 11       		.uleb128 0x11
 1635 00c7 13       		.uleb128 0x13
 1636 00c8 01       		.byte	0x1
 1637 00c9 0B       		.uleb128 0xb
 1638 00ca 0B       		.uleb128 0xb
 1639 00cb 3A       		.uleb128 0x3a
 1640 00cc 0B       		.uleb128 0xb
 1641 00cd 3B       		.uleb128 0x3b
 1642 00ce 0B       		.uleb128 0xb
 1643 00cf 01       		.uleb128 0x1
 1644 00d0 13       		.uleb128 0x13
 1645 00d1 00       		.byte	0
 1646 00d2 00       		.byte	0
 1647 00d3 12       		.uleb128 0x12
 1648 00d4 17       		.uleb128 0x17
 1649 00d5 01       		.byte	0x1
ARM GAS  /tmp/ccumQxt6.s 			page 30


 1650 00d6 0B       		.uleb128 0xb
 1651 00d7 0B       		.uleb128 0xb
 1652 00d8 3A       		.uleb128 0x3a
 1653 00d9 0B       		.uleb128 0xb
 1654 00da 3B       		.uleb128 0x3b
 1655 00db 0B       		.uleb128 0xb
 1656 00dc 01       		.uleb128 0x1
 1657 00dd 13       		.uleb128 0x13
 1658 00de 00       		.byte	0
 1659 00df 00       		.byte	0
 1660 00e0 13       		.uleb128 0x13
 1661 00e1 0D       		.uleb128 0xd
 1662 00e2 00       		.byte	0
 1663 00e3 03       		.uleb128 0x3
 1664 00e4 0E       		.uleb128 0xe
 1665 00e5 3A       		.uleb128 0x3a
 1666 00e6 0B       		.uleb128 0xb
 1667 00e7 3B       		.uleb128 0x3b
 1668 00e8 0B       		.uleb128 0xb
 1669 00e9 49       		.uleb128 0x49
 1670 00ea 13       		.uleb128 0x13
 1671 00eb 00       		.byte	0
 1672 00ec 00       		.byte	0
 1673 00ed 14       		.uleb128 0x14
 1674 00ee 0D       		.uleb128 0xd
 1675 00ef 00       		.byte	0
 1676 00f0 03       		.uleb128 0x3
 1677 00f1 0E       		.uleb128 0xe
 1678 00f2 3A       		.uleb128 0x3a
 1679 00f3 0B       		.uleb128 0xb
 1680 00f4 3B       		.uleb128 0x3b
 1681 00f5 05       		.uleb128 0x5
 1682 00f6 49       		.uleb128 0x49
 1683 00f7 13       		.uleb128 0x13
 1684 00f8 00       		.byte	0
 1685 00f9 00       		.byte	0
 1686 00fa 15       		.uleb128 0x15
 1687 00fb 26       		.uleb128 0x26
 1688 00fc 00       		.byte	0
 1689 00fd 49       		.uleb128 0x49
 1690 00fe 13       		.uleb128 0x13
 1691 00ff 00       		.byte	0
 1692 0100 00       		.byte	0
 1693 0101 16       		.uleb128 0x16
 1694 0102 01       		.uleb128 0x1
 1695 0103 01       		.byte	0x1
 1696 0104 49       		.uleb128 0x49
 1697 0105 13       		.uleb128 0x13
 1698 0106 01       		.uleb128 0x1
 1699 0107 13       		.uleb128 0x13
 1700 0108 00       		.byte	0
 1701 0109 00       		.byte	0
 1702 010a 17       		.uleb128 0x17
 1703 010b 21       		.uleb128 0x21
 1704 010c 00       		.byte	0
 1705 010d 49       		.uleb128 0x49
 1706 010e 13       		.uleb128 0x13
ARM GAS  /tmp/ccumQxt6.s 			page 31


 1707 010f 2F       		.uleb128 0x2f
 1708 0110 0B       		.uleb128 0xb
 1709 0111 00       		.byte	0
 1710 0112 00       		.byte	0
 1711 0113 18       		.uleb128 0x18
 1712 0114 15       		.uleb128 0x15
 1713 0115 01       		.byte	0x1
 1714 0116 27       		.uleb128 0x27
 1715 0117 19       		.uleb128 0x19
 1716 0118 49       		.uleb128 0x49
 1717 0119 13       		.uleb128 0x13
 1718 011a 01       		.uleb128 0x1
 1719 011b 13       		.uleb128 0x13
 1720 011c 00       		.byte	0
 1721 011d 00       		.byte	0
 1722 011e 19       		.uleb128 0x19
 1723 011f 15       		.uleb128 0x15
 1724 0120 00       		.byte	0
 1725 0121 27       		.uleb128 0x27
 1726 0122 19       		.uleb128 0x19
 1727 0123 00       		.byte	0
 1728 0124 00       		.byte	0
 1729 0125 1A       		.uleb128 0x1a
 1730 0126 2E       		.uleb128 0x2e
 1731 0127 00       		.byte	0
 1732 0128 03       		.uleb128 0x3
 1733 0129 0E       		.uleb128 0xe
 1734 012a 3A       		.uleb128 0x3a
 1735 012b 0B       		.uleb128 0xb
 1736 012c 3B       		.uleb128 0x3b
 1737 012d 0B       		.uleb128 0xb
 1738 012e 27       		.uleb128 0x27
 1739 012f 19       		.uleb128 0x19
 1740 0130 49       		.uleb128 0x49
 1741 0131 13       		.uleb128 0x13
 1742 0132 20       		.uleb128 0x20
 1743 0133 0B       		.uleb128 0xb
 1744 0134 00       		.byte	0
 1745 0135 00       		.byte	0
 1746 0136 1B       		.uleb128 0x1b
 1747 0137 2E       		.uleb128 0x2e
 1748 0138 01       		.byte	0x1
 1749 0139 03       		.uleb128 0x3
 1750 013a 0E       		.uleb128 0xe
 1751 013b 3A       		.uleb128 0x3a
 1752 013c 0B       		.uleb128 0xb
 1753 013d 3B       		.uleb128 0x3b
 1754 013e 0B       		.uleb128 0xb
 1755 013f 27       		.uleb128 0x27
 1756 0140 19       		.uleb128 0x19
 1757 0141 49       		.uleb128 0x49
 1758 0142 13       		.uleb128 0x13
 1759 0143 20       		.uleb128 0x20
 1760 0144 0B       		.uleb128 0xb
 1761 0145 01       		.uleb128 0x1
 1762 0146 13       		.uleb128 0x13
 1763 0147 00       		.byte	0
ARM GAS  /tmp/ccumQxt6.s 			page 32


 1764 0148 00       		.byte	0
 1765 0149 1C       		.uleb128 0x1c
 1766 014a 05       		.uleb128 0x5
 1767 014b 00       		.byte	0
 1768 014c 03       		.uleb128 0x3
 1769 014d 08       		.uleb128 0x8
 1770 014e 3A       		.uleb128 0x3a
 1771 014f 0B       		.uleb128 0xb
 1772 0150 3B       		.uleb128 0x3b
 1773 0151 0B       		.uleb128 0xb
 1774 0152 49       		.uleb128 0x49
 1775 0153 13       		.uleb128 0x13
 1776 0154 00       		.byte	0
 1777 0155 00       		.byte	0
 1778 0156 1D       		.uleb128 0x1d
 1779 0157 2E       		.uleb128 0x2e
 1780 0158 01       		.byte	0x1
 1781 0159 03       		.uleb128 0x3
 1782 015a 0E       		.uleb128 0xe
 1783 015b 3A       		.uleb128 0x3a
 1784 015c 0B       		.uleb128 0xb
 1785 015d 3B       		.uleb128 0x3b
 1786 015e 0B       		.uleb128 0xb
 1787 015f 27       		.uleb128 0x27
 1788 0160 19       		.uleb128 0x19
 1789 0161 11       		.uleb128 0x11
 1790 0162 01       		.uleb128 0x1
 1791 0163 12       		.uleb128 0x12
 1792 0164 06       		.uleb128 0x6
 1793 0165 40       		.uleb128 0x40
 1794 0166 18       		.uleb128 0x18
 1795 0167 9742     		.uleb128 0x2117
 1796 0169 19       		.uleb128 0x19
 1797 016a 01       		.uleb128 0x1
 1798 016b 13       		.uleb128 0x13
 1799 016c 00       		.byte	0
 1800 016d 00       		.byte	0
 1801 016e 1E       		.uleb128 0x1e
 1802 016f 34       		.uleb128 0x34
 1803 0170 00       		.byte	0
 1804 0171 03       		.uleb128 0x3
 1805 0172 08       		.uleb128 0x8
 1806 0173 3A       		.uleb128 0x3a
 1807 0174 0B       		.uleb128 0xb
 1808 0175 3B       		.uleb128 0x3b
 1809 0176 0B       		.uleb128 0xb
 1810 0177 49       		.uleb128 0x49
 1811 0178 13       		.uleb128 0x13
 1812 0179 02       		.uleb128 0x2
 1813 017a 17       		.uleb128 0x17
 1814 017b 00       		.byte	0
 1815 017c 00       		.byte	0
 1816 017d 1F       		.uleb128 0x1f
 1817 017e 34       		.uleb128 0x34
 1818 017f 00       		.byte	0
 1819 0180 03       		.uleb128 0x3
 1820 0181 08       		.uleb128 0x8
ARM GAS  /tmp/ccumQxt6.s 			page 33


 1821 0182 3A       		.uleb128 0x3a
 1822 0183 0B       		.uleb128 0xb
 1823 0184 3B       		.uleb128 0x3b
 1824 0185 0B       		.uleb128 0xb
 1825 0186 49       		.uleb128 0x49
 1826 0187 13       		.uleb128 0x13
 1827 0188 00       		.byte	0
 1828 0189 00       		.byte	0
 1829 018a 20       		.uleb128 0x20
 1830 018b 1D       		.uleb128 0x1d
 1831 018c 01       		.byte	0x1
 1832 018d 31       		.uleb128 0x31
 1833 018e 13       		.uleb128 0x13
 1834 018f 52       		.uleb128 0x52
 1835 0190 01       		.uleb128 0x1
 1836 0191 55       		.uleb128 0x55
 1837 0192 17       		.uleb128 0x17
 1838 0193 58       		.uleb128 0x58
 1839 0194 0B       		.uleb128 0xb
 1840 0195 59       		.uleb128 0x59
 1841 0196 0B       		.uleb128 0xb
 1842 0197 01       		.uleb128 0x1
 1843 0198 13       		.uleb128 0x13
 1844 0199 00       		.byte	0
 1845 019a 00       		.byte	0
 1846 019b 21       		.uleb128 0x21
 1847 019c 1D       		.uleb128 0x1d
 1848 019d 00       		.byte	0
 1849 019e 31       		.uleb128 0x31
 1850 019f 13       		.uleb128 0x13
 1851 01a0 52       		.uleb128 0x52
 1852 01a1 01       		.uleb128 0x1
 1853 01a2 55       		.uleb128 0x55
 1854 01a3 17       		.uleb128 0x17
 1855 01a4 58       		.uleb128 0x58
 1856 01a5 0B       		.uleb128 0xb
 1857 01a6 59       		.uleb128 0x59
 1858 01a7 0B       		.uleb128 0xb
 1859 01a8 00       		.byte	0
 1860 01a9 00       		.byte	0
 1861 01aa 22       		.uleb128 0x22
 1862 01ab 898201   		.uleb128 0x4109
 1863 01ae 01       		.byte	0x1
 1864 01af 11       		.uleb128 0x11
 1865 01b0 01       		.uleb128 0x1
 1866 01b1 31       		.uleb128 0x31
 1867 01b2 13       		.uleb128 0x13
 1868 01b3 01       		.uleb128 0x1
 1869 01b4 13       		.uleb128 0x13
 1870 01b5 00       		.byte	0
 1871 01b6 00       		.byte	0
 1872 01b7 23       		.uleb128 0x23
 1873 01b8 8A8201   		.uleb128 0x410a
 1874 01bb 00       		.byte	0
 1875 01bc 02       		.uleb128 0x2
 1876 01bd 18       		.uleb128 0x18
 1877 01be 9142     		.uleb128 0x2111
ARM GAS  /tmp/ccumQxt6.s 			page 34


 1878 01c0 18       		.uleb128 0x18
 1879 01c1 00       		.byte	0
 1880 01c2 00       		.byte	0
 1881 01c3 24       		.uleb128 0x24
 1882 01c4 898201   		.uleb128 0x4109
 1883 01c7 00       		.byte	0
 1884 01c8 11       		.uleb128 0x11
 1885 01c9 01       		.uleb128 0x1
 1886 01ca 31       		.uleb128 0x31
 1887 01cb 13       		.uleb128 0x13
 1888 01cc 00       		.byte	0
 1889 01cd 00       		.byte	0
 1890 01ce 25       		.uleb128 0x25
 1891 01cf 898201   		.uleb128 0x4109
 1892 01d2 01       		.byte	0x1
 1893 01d3 11       		.uleb128 0x11
 1894 01d4 01       		.uleb128 0x1
 1895 01d5 9542     		.uleb128 0x2115
 1896 01d7 19       		.uleb128 0x19
 1897 01d8 31       		.uleb128 0x31
 1898 01d9 13       		.uleb128 0x13
 1899 01da 00       		.byte	0
 1900 01db 00       		.byte	0
 1901 01dc 26       		.uleb128 0x26
 1902 01dd 2E       		.uleb128 0x2e
 1903 01de 01       		.byte	0x1
 1904 01df 03       		.uleb128 0x3
 1905 01e0 0E       		.uleb128 0xe
 1906 01e1 3A       		.uleb128 0x3a
 1907 01e2 0B       		.uleb128 0xb
 1908 01e3 3B       		.uleb128 0x3b
 1909 01e4 0B       		.uleb128 0xb
 1910 01e5 27       		.uleb128 0x27
 1911 01e6 19       		.uleb128 0x19
 1912 01e7 49       		.uleb128 0x49
 1913 01e8 13       		.uleb128 0x13
 1914 01e9 11       		.uleb128 0x11
 1915 01ea 01       		.uleb128 0x1
 1916 01eb 12       		.uleb128 0x12
 1917 01ec 06       		.uleb128 0x6
 1918 01ed 40       		.uleb128 0x40
 1919 01ee 18       		.uleb128 0x18
 1920 01ef 9742     		.uleb128 0x2117
 1921 01f1 19       		.uleb128 0x19
 1922 01f2 01       		.uleb128 0x1
 1923 01f3 13       		.uleb128 0x13
 1924 01f4 00       		.byte	0
 1925 01f5 00       		.byte	0
 1926 01f6 27       		.uleb128 0x27
 1927 01f7 05       		.uleb128 0x5
 1928 01f8 00       		.byte	0
 1929 01f9 03       		.uleb128 0x3
 1930 01fa 08       		.uleb128 0x8
 1931 01fb 3A       		.uleb128 0x3a
 1932 01fc 0B       		.uleb128 0xb
 1933 01fd 3B       		.uleb128 0x3b
 1934 01fe 0B       		.uleb128 0xb
ARM GAS  /tmp/ccumQxt6.s 			page 35


 1935 01ff 49       		.uleb128 0x49
 1936 0200 13       		.uleb128 0x13
 1937 0201 02       		.uleb128 0x2
 1938 0202 17       		.uleb128 0x17
 1939 0203 00       		.byte	0
 1940 0204 00       		.byte	0
 1941 0205 28       		.uleb128 0x28
 1942 0206 898201   		.uleb128 0x4109
 1943 0209 01       		.byte	0x1
 1944 020a 11       		.uleb128 0x11
 1945 020b 01       		.uleb128 0x1
 1946 020c 31       		.uleb128 0x31
 1947 020d 13       		.uleb128 0x13
 1948 020e 00       		.byte	0
 1949 020f 00       		.byte	0
 1950 0210 29       		.uleb128 0x29
 1951 0211 34       		.uleb128 0x34
 1952 0212 00       		.byte	0
 1953 0213 03       		.uleb128 0x3
 1954 0214 0E       		.uleb128 0xe
 1955 0215 3A       		.uleb128 0x3a
 1956 0216 0B       		.uleb128 0xb
 1957 0217 3B       		.uleb128 0x3b
 1958 0218 05       		.uleb128 0x5
 1959 0219 49       		.uleb128 0x49
 1960 021a 13       		.uleb128 0x13
 1961 021b 3F       		.uleb128 0x3f
 1962 021c 19       		.uleb128 0x19
 1963 021d 3C       		.uleb128 0x3c
 1964 021e 19       		.uleb128 0x19
 1965 021f 00       		.byte	0
 1966 0220 00       		.byte	0
 1967 0221 2A       		.uleb128 0x2a
 1968 0222 34       		.uleb128 0x34
 1969 0223 00       		.byte	0
 1970 0224 03       		.uleb128 0x3
 1971 0225 08       		.uleb128 0x8
 1972 0226 3A       		.uleb128 0x3a
 1973 0227 0B       		.uleb128 0xb
 1974 0228 3B       		.uleb128 0x3b
 1975 0229 05       		.uleb128 0x5
 1976 022a 49       		.uleb128 0x49
 1977 022b 13       		.uleb128 0x13
 1978 022c 3F       		.uleb128 0x3f
 1979 022d 19       		.uleb128 0x19
 1980 022e 3C       		.uleb128 0x3c
 1981 022f 19       		.uleb128 0x19
 1982 0230 00       		.byte	0
 1983 0231 00       		.byte	0
 1984 0232 2B       		.uleb128 0x2b
 1985 0233 34       		.uleb128 0x34
 1986 0234 00       		.byte	0
 1987 0235 03       		.uleb128 0x3
 1988 0236 0E       		.uleb128 0xe
 1989 0237 3A       		.uleb128 0x3a
 1990 0238 0B       		.uleb128 0xb
 1991 0239 3B       		.uleb128 0x3b
ARM GAS  /tmp/ccumQxt6.s 			page 36


 1992 023a 0B       		.uleb128 0xb
 1993 023b 49       		.uleb128 0x49
 1994 023c 13       		.uleb128 0x13
 1995 023d 3F       		.uleb128 0x3f
 1996 023e 19       		.uleb128 0x19
 1997 023f 3C       		.uleb128 0x3c
 1998 0240 19       		.uleb128 0x19
 1999 0241 00       		.byte	0
 2000 0242 00       		.byte	0
 2001 0243 2C       		.uleb128 0x2c
 2002 0244 21       		.uleb128 0x21
 2003 0245 00       		.byte	0
 2004 0246 00       		.byte	0
 2005 0247 00       		.byte	0
 2006 0248 2D       		.uleb128 0x2d
 2007 0249 34       		.uleb128 0x34
 2008 024a 00       		.byte	0
 2009 024b 03       		.uleb128 0x3
 2010 024c 08       		.uleb128 0x8
 2011 024d 3A       		.uleb128 0x3a
 2012 024e 0B       		.uleb128 0xb
 2013 024f 3B       		.uleb128 0x3b
 2014 0250 0B       		.uleb128 0xb
 2015 0251 49       		.uleb128 0x49
 2016 0252 13       		.uleb128 0x13
 2017 0253 3F       		.uleb128 0x3f
 2018 0254 19       		.uleb128 0x19
 2019 0255 3C       		.uleb128 0x3c
 2020 0256 19       		.uleb128 0x19
 2021 0257 00       		.byte	0
 2022 0258 00       		.byte	0
 2023 0259 2E       		.uleb128 0x2e
 2024 025a 34       		.uleb128 0x34
 2025 025b 00       		.byte	0
 2026 025c 03       		.uleb128 0x3
 2027 025d 0E       		.uleb128 0xe
 2028 025e 3A       		.uleb128 0x3a
 2029 025f 0B       		.uleb128 0xb
 2030 0260 3B       		.uleb128 0x3b
 2031 0261 0B       		.uleb128 0xb
 2032 0262 49       		.uleb128 0x49
 2033 0263 13       		.uleb128 0x13
 2034 0264 3F       		.uleb128 0x3f
 2035 0265 19       		.uleb128 0x19
 2036 0266 02       		.uleb128 0x2
 2037 0267 18       		.uleb128 0x18
 2038 0268 00       		.byte	0
 2039 0269 00       		.byte	0
 2040 026a 2F       		.uleb128 0x2f
 2041 026b 2E       		.uleb128 0x2e
 2042 026c 01       		.byte	0x1
 2043 026d 3F       		.uleb128 0x3f
 2044 026e 19       		.uleb128 0x19
 2045 026f 03       		.uleb128 0x3
 2046 0270 0E       		.uleb128 0xe
 2047 0271 3A       		.uleb128 0x3a
 2048 0272 0B       		.uleb128 0xb
ARM GAS  /tmp/ccumQxt6.s 			page 37


 2049 0273 3B       		.uleb128 0x3b
 2050 0274 0B       		.uleb128 0xb
 2051 0275 27       		.uleb128 0x27
 2052 0276 19       		.uleb128 0x19
 2053 0277 49       		.uleb128 0x49
 2054 0278 13       		.uleb128 0x13
 2055 0279 3C       		.uleb128 0x3c
 2056 027a 19       		.uleb128 0x19
 2057 027b 01       		.uleb128 0x1
 2058 027c 13       		.uleb128 0x13
 2059 027d 00       		.byte	0
 2060 027e 00       		.byte	0
 2061 027f 30       		.uleb128 0x30
 2062 0280 2E       		.uleb128 0x2e
 2063 0281 00       		.byte	0
 2064 0282 3F       		.uleb128 0x3f
 2065 0283 19       		.uleb128 0x19
 2066 0284 03       		.uleb128 0x3
 2067 0285 0E       		.uleb128 0xe
 2068 0286 3A       		.uleb128 0x3a
 2069 0287 0B       		.uleb128 0xb
 2070 0288 3B       		.uleb128 0x3b
 2071 0289 0B       		.uleb128 0xb
 2072 028a 27       		.uleb128 0x27
 2073 028b 19       		.uleb128 0x19
 2074 028c 49       		.uleb128 0x49
 2075 028d 13       		.uleb128 0x13
 2076 028e 3C       		.uleb128 0x3c
 2077 028f 19       		.uleb128 0x19
 2078 0290 00       		.byte	0
 2079 0291 00       		.byte	0
 2080 0292 31       		.uleb128 0x31
 2081 0293 2E       		.uleb128 0x2e
 2082 0294 01       		.byte	0x1
 2083 0295 3F       		.uleb128 0x3f
 2084 0296 19       		.uleb128 0x19
 2085 0297 03       		.uleb128 0x3
 2086 0298 0E       		.uleb128 0xe
 2087 0299 3A       		.uleb128 0x3a
 2088 029a 0B       		.uleb128 0xb
 2089 029b 3B       		.uleb128 0x3b
 2090 029c 0B       		.uleb128 0xb
 2091 029d 27       		.uleb128 0x27
 2092 029e 19       		.uleb128 0x19
 2093 029f 3C       		.uleb128 0x3c
 2094 02a0 19       		.uleb128 0x19
 2095 02a1 01       		.uleb128 0x1
 2096 02a2 13       		.uleb128 0x13
 2097 02a3 00       		.byte	0
 2098 02a4 00       		.byte	0
 2099 02a5 32       		.uleb128 0x32
 2100 02a6 2E       		.uleb128 0x2e
 2101 02a7 01       		.byte	0x1
 2102 02a8 3F       		.uleb128 0x3f
 2103 02a9 19       		.uleb128 0x19
 2104 02aa 03       		.uleb128 0x3
 2105 02ab 0E       		.uleb128 0xe
ARM GAS  /tmp/ccumQxt6.s 			page 38


 2106 02ac 3A       		.uleb128 0x3a
 2107 02ad 0B       		.uleb128 0xb
 2108 02ae 3B       		.uleb128 0x3b
 2109 02af 0B       		.uleb128 0xb
 2110 02b0 27       		.uleb128 0x27
 2111 02b1 19       		.uleb128 0x19
 2112 02b2 49       		.uleb128 0x49
 2113 02b3 13       		.uleb128 0x13
 2114 02b4 3C       		.uleb128 0x3c
 2115 02b5 19       		.uleb128 0x19
 2116 02b6 00       		.byte	0
 2117 02b7 00       		.byte	0
 2118 02b8 00       		.byte	0
 2119              		.section	.debug_loc,"",%progbits
 2120              	.Ldebug_loc0:
 2121              	.LLST0:
 2122 0000 24000000 		.4byte	.LVL1
 2123 0004 2B000000 		.4byte	.LVL3-1
 2124 0008 0100     		.2byte	0x1
 2125 000a 50       		.byte	0x50
 2126 000b 36000000 		.4byte	.LVL5
 2127 000f 3D000000 		.4byte	.LVL7-1
 2128 0013 0100     		.2byte	0x1
 2129 0015 50       		.byte	0x50
 2130 0016 48000000 		.4byte	.LVL9
 2131 001a 4F000000 		.4byte	.LVL11-1
 2132 001e 0100     		.2byte	0x1
 2133 0020 50       		.byte	0x50
 2134 0021 00000000 		.4byte	0
 2135 0025 00000000 		.4byte	0
 2136              	.LLST1:
 2137 0029 00000000 		.4byte	.LVL14
 2138 002d 09000000 		.4byte	.LVL15-1
 2139 0031 0100     		.2byte	0x1
 2140 0033 50       		.byte	0x50
 2141 0034 09000000 		.4byte	.LVL15-1
 2142 0038 1E000000 		.4byte	.LFE226
 2143 003c 0100     		.2byte	0x1
 2144 003e 54       		.byte	0x54
 2145 003f 00000000 		.4byte	0
 2146 0043 00000000 		.4byte	0
 2147              		.section	.debug_aranges,"",%progbits
 2148 0000 24000000 		.4byte	0x24
 2149 0004 0200     		.2byte	0x2
 2150 0006 00000000 		.4byte	.Ldebug_info0
 2151 000a 04       		.byte	0x4
 2152 000b 00       		.byte	0
 2153 000c 0000     		.2byte	0
 2154 000e 0000     		.2byte	0
 2155 0010 00000000 		.4byte	.LFB227
 2156 0014 78000000 		.4byte	.LFE227-.LFB227
 2157 0018 00000000 		.4byte	.LFB226
 2158 001c 1E000000 		.4byte	.LFE226-.LFB226
 2159 0020 00000000 		.4byte	0
 2160 0024 00000000 		.4byte	0
 2161              		.section	.debug_ranges,"",%progbits
 2162              	.Ldebug_ranges0:
ARM GAS  /tmp/ccumQxt6.s 			page 39


 2163 0000 02000000 		.4byte	.LBB16
 2164 0004 04000000 		.4byte	.LBE16
 2165 0008 06000000 		.4byte	.LBB23
 2166 000c 08000000 		.4byte	.LBE23
 2167 0010 00000000 		.4byte	0
 2168 0014 00000000 		.4byte	0
 2169 0018 02000000 		.4byte	.LBB18
 2170 001c 04000000 		.4byte	.LBE18
 2171 0020 06000000 		.4byte	.LBB21
 2172 0024 08000000 		.4byte	.LBE21
 2173 0028 00000000 		.4byte	0
 2174 002c 00000000 		.4byte	0
 2175 0030 00000000 		.4byte	.LFB227
 2176 0034 78000000 		.4byte	.LFE227
 2177 0038 00000000 		.4byte	.LFB226
 2178 003c 1E000000 		.4byte	.LFE226
 2179 0040 00000000 		.4byte	0
 2180 0044 00000000 		.4byte	0
 2181              		.section	.debug_line,"",%progbits
 2182              	.Ldebug_line0:
 2183 0000 88020000 		.section	.debug_str,"MS",%progbits,1
 2183      02003502 
 2183      00000201 
 2183      FB0E0D00 
 2183      01010101 
 2184              	.LASF93:
 2185 0000 7466756E 		.ascii	"tfunc_t\000"
 2185      635F7400 
 2186              	.LASF49:
 2187 0008 72656164 		.ascii	"ready_list_t\000"
 2187      795F6C69 
 2187      73745F74 
 2187      00
 2188              	.LASF2:
 2189 0015 73697A65 		.ascii	"size_t\000"
 2189      5F7400
 2190              	.LASF84:
 2191 001c 7264796D 		.ascii	"rdymsg\000"
 2191      736700
 2192              	.LASF17:
 2193 0023 75696E74 		.ascii	"uint64_t\000"
 2193      36345F74 
 2193      00
 2194              	.LASF3:
 2195 002c 5F5F7569 		.ascii	"__uint8_t\000"
 2195      6E74385F 
 2195      7400
 2196              	.LASF81:
 2197 0036 706F7274 		.ascii	"port_intctx\000"
 2197      5F696E74 
 2197      63747800 
 2198              	.LASF68:
 2199 0042 73797374 		.ascii	"system_debug_t\000"
 2199      656D5F64 
 2199      65627567 
 2199      5F7400
 2200              	.LASF13:
ARM GAS  /tmp/ccumQxt6.s 			page 40


 2201 0051 6C6F6E67 		.ascii	"long long unsigned int\000"
 2201      206C6F6E 
 2201      6720756E 
 2201      7369676E 
 2201      65642069 
 2202              	.LASF85:
 2203 0068 65786974 		.ascii	"exitcode\000"
 2203      636F6465 
 2203      00
 2204              	.LASF75:
 2205 0071 6D61696E 		.ascii	"mainthread\000"
 2205      74687265 
 2205      616400
 2206              	.LASF65:
 2207 007c 76697274 		.ascii	"virtual_timers_list_t\000"
 2207      75616C5F 
 2207      74696D65 
 2207      72735F6C 
 2207      6973745F 
 2208              	.LASF102:
 2209 0092 49544D5F 		.ascii	"ITM_RxBuffer\000"
 2209      52784275 
 2209      66666572 
 2209      00
 2210              	.LASF48:
 2211 009f 63685F74 		.ascii	"ch_threads_queue\000"
 2211      68726561 
 2211      64735F71 
 2211      75657565 
 2211      00
 2212              	.LASF29:
 2213 00b0 705F7072 		.ascii	"p_prio\000"
 2213      696F00
 2214              	.LASF11:
 2215 00b7 6C6F6E67 		.ascii	"long long int\000"
 2215      206C6F6E 
 2215      6720696E 
 2215      7400
 2216              	.LASF1:
 2217 00c5 7369676E 		.ascii	"signed char\000"
 2217      65642063 
 2217      68617200 
 2218              	.LASF43:
 2219 00d1 705F6D70 		.ascii	"p_mpool\000"
 2219      6F6F6C00 
 2220              	.LASF90:
 2221 00d9 6D5F7175 		.ascii	"m_queue\000"
 2221      65756500 
 2222              	.LASF107:
 2223 00e1 74657374 		.ascii	"test_emit_token\000"
 2223      5F656D69 
 2223      745F746F 
 2223      6B656E00 
 2224              	.LASF74:
 2225 00f1 76746C69 		.ascii	"vtlist\000"
 2225      737400
 2226              	.LASF72:
ARM GAS  /tmp/ccumQxt6.s 			page 41


 2227 00f8 63685F73 		.ascii	"ch_system\000"
 2227      79737465 
 2227      6D00
 2228              	.LASF8:
 2229 0102 6C6F6E67 		.ascii	"long int\000"
 2229      20696E74 
 2229      00
 2230              	.LASF111:
 2231 010b 63684D73 		.ascii	"chMsgSend\000"
 2231      6753656E 
 2231      6400
 2232              	.LASF20:
 2233 0115 74737461 		.ascii	"tstate_t\000"
 2233      74655F74 
 2233      00
 2234              	.LASF31:
 2235 011e 705F6E65 		.ascii	"p_newer\000"
 2235      77657200 
 2236              	.LASF54:
 2237 0126 725F6E65 		.ascii	"r_newer\000"
 2237      77657200 
 2238              	.LASF78:
 2239 012e 72656761 		.ascii	"regarm_t\000"
 2239      726D5F74 
 2239      00
 2240              	.LASF61:
 2241 0137 76745F70 		.ascii	"vt_prev\000"
 2241      72657600 
 2242              	.LASF94:
 2243 013f 6D757465 		.ascii	"mutex_t\000"
 2243      785F7400 
 2244              	.LASF76:
 2245 0147 69646C65 		.ascii	"idle_thread_wa\000"
 2245      5F746872 
 2245      6561645F 
 2245      776100
 2246              	.LASF0:
 2247 0156 756E7369 		.ascii	"unsigned int\000"
 2247      676E6564 
 2247      20696E74 
 2247      00
 2248              	.LASF60:
 2249 0163 76745F6E 		.ascii	"vt_next\000"
 2249      65787400 
 2250              	.LASF62:
 2251 016b 76745F64 		.ascii	"vt_delta\000"
 2251      656C7461 
 2251      00
 2252              	.LASF38:
 2253 0174 705F6D73 		.ascii	"p_msgqueue\000"
 2253      67717565 
 2253      756500
 2254              	.LASF98:
 2255 017f 74656172 		.ascii	"teardown\000"
 2255      646F776E 
 2255      00
 2256              	.LASF115:
ARM GAS  /tmp/ccumQxt6.s 			page 42


 2257 0188 63684D73 		.ascii	"chMsgGet\000"
 2257      67476574 
 2257      00
 2258              	.LASF96:
 2259 0191 6E616D65 		.ascii	"name\000"
 2259      00
 2260              	.LASF6:
 2261 0196 73686F72 		.ascii	"short unsigned int\000"
 2261      7420756E 
 2261      7369676E 
 2261      65642069 
 2261      6E7400
 2262              	.LASF45:
 2263 01a9 63685F74 		.ascii	"ch_thread\000"
 2263      68726561 
 2263      6400
 2264              	.LASF23:
 2265 01b3 6D73675F 		.ascii	"msg_t\000"
 2265      7400
 2266              	.LASF71:
 2267 01b9 63685F73 		.ascii	"ch_system_t\000"
 2267      79737465 
 2267      6D5F7400 
 2268              	.LASF19:
 2269 01c5 746D6F64 		.ascii	"tmode_t\000"
 2269      655F7400 
 2270              	.LASF50:
 2271 01cd 63685F72 		.ascii	"ch_ready_list\000"
 2271      65616479 
 2271      5F6C6973 
 2271      7400
 2272              	.LASF24:
 2273 01db 6576656E 		.ascii	"eventmask_t\000"
 2273      746D6173 
 2273      6B5F7400 
 2274              	.LASF7:
 2275 01e7 5F5F696E 		.ascii	"__int32_t\000"
 2275      7433325F 
 2275      7400
 2276              	.LASF79:
 2277 01f1 73746B61 		.ascii	"stkalign_t\000"
 2277      6C69676E 
 2277      5F7400
 2278              	.LASF108:
 2279 01fc 63685468 		.ascii	"chThdCreateStatic\000"
 2279      64437265 
 2279      61746553 
 2279      74617469 
 2279      6300
 2280              	.LASF37:
 2281 020e 705F7761 		.ascii	"p_waiting\000"
 2281      6974696E 
 2281      6700
 2282              	.LASF113:
 2283 0218 2E2E2F43 		.ascii	"../ChibiOS/test/rt/testmsg.c\000"
 2283      68696269 
 2283      4F532F74 
ARM GAS  /tmp/ccumQxt6.s 			page 43


 2283      6573742F 
 2283      72742F74 
 2284              	.LASF105:
 2285 0235 70617474 		.ascii	"patternmsg\000"
 2285      65726E6D 
 2285      736700
 2286              	.LASF77:
 2287 0240 73697A65 		.ascii	"sizetype\000"
 2287      74797065 
 2287      00
 2288              	.LASF66:
 2289 0249 63685F76 		.ascii	"ch_virtual_timers_list\000"
 2289      69727475 
 2289      616C5F74 
 2289      696D6572 
 2289      735F6C69 
 2290              	.LASF83:
 2291 0260 746D5F63 		.ascii	"tm_calibration_t\000"
 2291      616C6962 
 2291      72617469 
 2291      6F6E5F74 
 2291      00
 2292              	.LASF67:
 2293 0271 76745F6C 		.ascii	"vt_lasttime\000"
 2293      61737474 
 2293      696D6500 
 2294              	.LASF32:
 2295 027d 705F6F6C 		.ascii	"p_older\000"
 2295      64657200 
 2296              	.LASF53:
 2297 0285 725F6374 		.ascii	"r_ctx\000"
 2297      7800
 2298              	.LASF101:
 2299 028b 63685468 		.ascii	"chThdGetPriorityX\000"
 2299      64476574 
 2299      5072696F 
 2299      72697479 
 2299      5800
 2300              	.LASF97:
 2301 029d 73657475 		.ascii	"setup\000"
 2301      7000
 2302              	.LASF109:
 2303 02a3 5F746573 		.ascii	"_test_assert_sequence\000"
 2303      745F6173 
 2303      73657274 
 2303      5F736571 
 2303      75656E63 
 2304              	.LASF56:
 2305 02b9 725F6375 		.ascii	"r_current\000"
 2305      7272656E 
 2305      7400
 2306              	.LASF55:
 2307 02c3 725F6F6C 		.ascii	"r_older\000"
 2307      64657200 
 2308              	.LASF12:
 2309 02cb 5F5F7569 		.ascii	"__uint64_t\000"
 2309      6E743634 
ARM GAS  /tmp/ccumQxt6.s 			page 44


 2309      5F7400
 2310              	.LASF21:
 2311 02d6 74726566 		.ascii	"trefs_t\000"
 2311      735F7400 
 2312              	.LASF58:
 2313 02de 76697274 		.ascii	"virtual_timer_t\000"
 2313      75616C5F 
 2313      74696D65 
 2313      725F7400 
 2314              	.LASF28:
 2315 02ee 705F7072 		.ascii	"p_prev\000"
 2315      657600
 2316              	.LASF99:
 2317 02f5 65786563 		.ascii	"execute\000"
 2317      75746500 
 2318              	.LASF22:
 2319 02fd 74707269 		.ascii	"tprio_t\000"
 2319      6F5F7400 
 2320              	.LASF89:
 2321 0305 6D757465 		.ascii	"mutex\000"
 2321      7800
 2322              	.LASF69:
 2323 030b 63685F73 		.ascii	"ch_system_debug\000"
 2323      79737465 
 2323      6D5F6465 
 2323      62756700 
 2324              	.LASF110:
 2325 031b 5F426F6F 		.ascii	"_Bool\000"
 2325      6C00
 2326              	.LASF15:
 2327 0321 696E7433 		.ascii	"int32_t\000"
 2327      325F7400 
 2328              	.LASF4:
 2329 0329 756E7369 		.ascii	"unsigned char\000"
 2329      676E6564 
 2329      20636861 
 2329      7200
 2330              	.LASF41:
 2331 0337 705F6D74 		.ascii	"p_mtxlist\000"
 2331      786C6973 
 2331      7400
 2332              	.LASF5:
 2333 0341 73686F72 		.ascii	"short int\000"
 2333      7420696E 
 2333      7400
 2334              	.LASF34:
 2335 034b 705F7374 		.ascii	"p_state\000"
 2335      61746500 
 2336              	.LASF103:
 2337 0353 74687265 		.ascii	"threads\000"
 2337      61647300 
 2338              	.LASF52:
 2339 035b 725F7072 		.ascii	"r_prio\000"
 2339      696F00
 2340              	.LASF104:
 2341 0362 74657374 		.ascii	"testmsg1\000"
 2341      6D736731 
ARM GAS  /tmp/ccumQxt6.s 			page 45


 2341      00
 2342              	.LASF87:
 2343 036b 65776D61 		.ascii	"ewmask\000"
 2343      736B00
 2344              	.LASF27:
 2345 0372 705F6E65 		.ascii	"p_next\000"
 2345      787400
 2346              	.LASF112:
 2347 0379 474E5520 		.ascii	"GNU C 4.9.3 20141119 (release) [ARM/embedded-4_9-br"
 2347      4320342E 
 2347      392E3320 
 2347      32303134 
 2347      31313139 
 2348 03ac 616E6368 		.ascii	"anch revision 218278] -mcpu=cortex-m4 -mfloat-abi=h"
 2348      20726576 
 2348      6973696F 
 2348      6E203231 
 2348      38323738 
 2349 03df 61726420 		.ascii	"ard -mfpu=fpv4-sp-d16 -mno-thumb-interwork -mthumb "
 2349      2D6D6670 
 2349      753D6670 
 2349      76342D73 
 2349      702D6431 
 2350 0412 2D676764 		.ascii	"-ggdb -O2 -fomit-frame-pointer -falign-functions=16"
 2350      62202D4F 
 2350      32202D66 
 2350      6F6D6974 
 2350      2D667261 
 2351 0445 202D6666 		.ascii	" -ffunction-sections -fdata-sections -fno-common -f"
 2351      756E6374 
 2351      696F6E2D 
 2351      73656374 
 2351      696F6E73 
 2352 0478 73696E67 		.ascii	"single-precision-constant\000"
 2352      6C652D70 
 2352      72656369 
 2352      73696F6E 
 2352      2D636F6E 
 2353              	.LASF35:
 2354 0492 705F666C 		.ascii	"p_flags\000"
 2354      61677300 
 2355              	.LASF59:
 2356 049a 63685F76 		.ascii	"ch_virtual_timer\000"
 2356      69727475 
 2356      616C5F74 
 2356      696D6572 
 2356      00
 2357              	.LASF106:
 2358 04ab 63684D73 		.ascii	"chMsgRelease\000"
 2358      6752656C 
 2358      65617365 
 2358      00
 2359              	.LASF95:
 2360 04b8 74657374 		.ascii	"testcase\000"
 2360      63617365 
 2360      00
 2361              	.LASF40:
ARM GAS  /tmp/ccumQxt6.s 			page 46


 2362 04c1 705F6570 		.ascii	"p_epending\000"
 2362      656E6469 
 2362      6E6700
 2363              	.LASF16:
 2364 04cc 75696E74 		.ascii	"uint32_t\000"
 2364      33325F74 
 2364      00
 2365              	.LASF51:
 2366 04d5 725F7175 		.ascii	"r_queue\000"
 2366      65756500 
 2367              	.LASF46:
 2368 04dd 63685F74 		.ascii	"ch_threads_list\000"
 2368      68726561 
 2368      64735F6C 
 2368      69737400 
 2369              	.LASF114:
 2370 04ed 2F686F6D 		.ascii	"/home/bhimebau/forge/annsynth/src\000"
 2370      652F6268 
 2370      696D6562 
 2370      61752F66 
 2370      6F726765 
 2371              	.LASF10:
 2372 050f 6C6F6E67 		.ascii	"long unsigned int\000"
 2372      20756E73 
 2372      69676E65 
 2372      6420696E 
 2372      7400
 2373              	.LASF88:
 2374 0521 63686172 		.ascii	"char\000"
 2374      00
 2375              	.LASF26:
 2376 0526 74687265 		.ascii	"thread_t\000"
 2376      61645F74 
 2376      00
 2377              	.LASF92:
 2378 052f 6D5F6E65 		.ascii	"m_next\000"
 2378      787400
 2379              	.LASF25:
 2380 0536 73797374 		.ascii	"systime_t\000"
 2380      696D655F 
 2380      7400
 2381              	.LASF42:
 2382 0540 705F7265 		.ascii	"p_realprio\000"
 2382      616C7072 
 2382      696F00
 2383              	.LASF57:
 2384 054b 76746675 		.ascii	"vtfunc_t\000"
 2384      6E635F74 
 2384      00
 2385              	.LASF9:
 2386 0554 5F5F7569 		.ascii	"__uint32_t\000"
 2386      6E743332 
 2386      5F7400
 2387              	.LASF117:
 2388 055f 74687265 		.ascii	"thread\000"
 2388      616400
 2389              	.LASF70:
ARM GAS  /tmp/ccumQxt6.s 			page 47


 2390 0566 70616E69 		.ascii	"panic_msg\000"
 2390      635F6D73 
 2390      6700
 2391              	.LASF82:
 2392 0570 6F666673 		.ascii	"offset\000"
 2392      657400
 2393              	.LASF80:
 2394 0577 636F6E74 		.ascii	"context\000"
 2394      65787400 
 2395              	.LASF18:
 2396 057f 7274636E 		.ascii	"rtcnt_t\000"
 2396      745F7400 
 2397              	.LASF64:
 2398 0587 76745F70 		.ascii	"vt_par\000"
 2398      617200
 2399              	.LASF118:
 2400 058e 63684D73 		.ascii	"chMsgWait\000"
 2400      67576169 
 2400      7400
 2401              	.LASF47:
 2402 0598 74687265 		.ascii	"threads_queue_t\000"
 2402      6164735F 
 2402      71756575 
 2402      655F7400 
 2403              	.LASF36:
 2404 05a8 705F7265 		.ascii	"p_refs\000"
 2404      667300
 2405              	.LASF73:
 2406 05af 726C6973 		.ascii	"rlist\000"
 2406      7400
 2407              	.LASF100:
 2408 05b5 63685468 		.ascii	"chThdGetSelfX\000"
 2408      64476574 
 2408      53656C66 
 2408      5800
 2409              	.LASF14:
 2410 05c3 75696E74 		.ascii	"uint8_t\000"
 2410      385F7400 
 2411              	.LASF116:
 2412 05cb 6D736731 		.ascii	"msg1_execute\000"
 2412      5F657865 
 2412      63757465 
 2412      00
 2413              	.LASF86:
 2414 05d8 77746F62 		.ascii	"wtobjp\000"
 2414      6A7000
 2415              	.LASF33:
 2416 05df 705F6E61 		.ascii	"p_name\000"
 2416      6D6500
 2417              	.LASF44:
 2418 05e6 74687265 		.ascii	"threads_list_t\000"
 2418      6164735F 
 2418      6C697374 
 2418      5F7400
 2419              	.LASF39:
 2420 05f5 705F6D73 		.ascii	"p_msg\000"
 2420      6700
ARM GAS  /tmp/ccumQxt6.s 			page 48


 2421              	.LASF91:
 2422 05fb 6D5F6F77 		.ascii	"m_owner\000"
 2422      6E657200 
 2423              	.LASF30:
 2424 0603 705F6374 		.ascii	"p_ctx\000"
 2424      7800
 2425              	.LASF63:
 2426 0609 76745F66 		.ascii	"vt_func\000"
 2426      756E6300 
 2427              		.ident	"GCC: (GNU Tools for ARM Embedded Processors) 4.9.3 20141119 (release) [ARM/embedded-4_9-br
ARM GAS  /tmp/ccumQxt6.s 			page 49


DEFINED SYMBOLS
                            *ABS*:00000000 testmsg.c
     /tmp/ccumQxt6.s:21     .text.msg1_execute:00000000 $t
     /tmp/ccumQxt6.s:26     .text.msg1_execute:00000000 msg1_execute
     /tmp/ccumQxt6.s:131    .text.msg1_execute:00000064 $d
     /tmp/ccumQxt6.s:145    .text.thread:00000000 thread
     /tmp/ccumQxt6.s:140    .text.thread:00000000 $t
     /tmp/ccumQxt6.s:200    .rodata.patternmsg:00000000 patternmsg
     /tmp/ccumQxt6.s:185    .rodata.testmsg1:00000000 testmsg1
     /tmp/ccumQxt6.s:182    .rodata.testmsg1:00000000 $d
     /tmp/ccumQxt6.s:191    .rodata.str1.4:00000000 $d
     /tmp/ccumQxt6.s:197    .rodata.patternmsg:00000000 $d
                     .debug_frame:00000010 $d
     /tmp/ccumQxt6.s:139    .text.msg1_execute:00000078 $t

UNDEFINED SYMBOLS
chThdCreateStatic
chMsgWait
chMsgRelease
test_emit_token
_test_assert_sequence
ch
wa
threads
chMsgSend
