ARM GAS  /tmp/ccEPgmtk.s 			page 1


   1              		.syntax unified
   2              		.cpu cortex-m4
   3              		.eabi_attribute 27, 3
   4              		.eabi_attribute 28, 1
   5              		.fpu fpv4-sp-d16
   6              		.eabi_attribute 20, 1
   7              		.eabi_attribute 21, 1
   8              		.eabi_attribute 23, 3
   9              		.eabi_attribute 24, 1
  10              		.eabi_attribute 25, 1
  11              		.eabi_attribute 26, 1
  12              		.eabi_attribute 30, 2
  13              		.eabi_attribute 34, 1
  14              		.eabi_attribute 18, 4
  15              		.thumb
  16              		.file	"test.c"
  17              		.text
  18              	.Ltext0:
  19              		.cfi_sections	.debug_frame
  20              		.section	.text.tmr,"ax",%progbits
  21              		.align	2
  22              		.p2align 4,,15
  23              		.thumb
  24              		.thumb_func
  25              		.type	tmr, %function
  26              	tmr:
  27              	.LFB268:
  28              		.file 1 "../ChibiOS/test/rt/test.c"
  29              		.loc 1 261 0
  30              		.cfi_startproc
  31              		@ args = 0, pretend = 0, frame = 0
  32              		@ frame_needed = 0, uses_anonymous_args = 0
  33              		@ link register save eliminated.
  34              	.LVL0:
  35              		.loc 1 264 0
  36 0000 014B     		ldr	r3, .L2
  37 0002 0122     		movs	r2, #1
  38 0004 1A70     		strb	r2, [r3]
  39 0006 7047     		bx	lr
  40              	.L3:
  41              		.align	2
  42              	.L2:
  43 0008 00000000 		.word	.LANCHOR0
  44              		.cfi_endproc
  45              	.LFE268:
  46              		.size	tmr, .-tmr
  47 000c AFF30080 		.section	.text.print_line,"ax",%progbits
  48              		.align	2
  49              		.p2align 4,,15
  50              		.thumb
  51              		.thumb_func
  52              		.type	print_line, %function
  53              	print_line:
  54              	.LFB271:
  55              		.loc 1 300 0
  56              		.cfi_startproc
  57              		@ args = 0, pretend = 0, frame = 0
ARM GAS  /tmp/ccEPgmtk.s 			page 2


  58              		@ frame_needed = 0, uses_anonymous_args = 0
  59              	.LVL1:
  60 0000 70B5     		push	{r4, r5, r6, lr}
  61              		.cfi_def_cfa_offset 16
  62              		.cfi_offset 4, -16
  63              		.cfi_offset 5, -12
  64              		.cfi_offset 6, -8
  65              		.cfi_offset 14, -4
  66 0002 094E     		ldr	r6, .L9
  67              		.loc 1 300 0
  68 0004 4C24     		movs	r4, #76
  69              	.LVL2:
  70              	.L5:
  71              		.loc 1 304 0 discriminator 3
  72 0006 3068     		ldr	r0, [r6]
  73 0008 074D     		ldr	r5, .L9
  74 000a 0368     		ldr	r3, [r0]
  75 000c 2D21     		movs	r1, #45
  76 000e 9B68     		ldr	r3, [r3, #8]
  77 0010 9847     		blx	r3
  78              	.LVL3:
  79              		.loc 1 303 0 discriminator 3
  80 0012 013C     		subs	r4, r4, #1
  81              	.LVL4:
  82 0014 F7D1     		bne	.L5
  83              		.loc 1 305 0
  84 0016 2868     		ldr	r0, [r5]
  85 0018 0449     		ldr	r1, .L9+4
  86 001a 0368     		ldr	r3, [r0]
  87 001c 0222     		movs	r2, #2
  88 001e 1B68     		ldr	r3, [r3]
  89              		.loc 1 306 0
  90 0020 BDE87040 		pop	{r4, r5, r6, lr}
  91              		.cfi_restore 14
  92              		.cfi_restore 6
  93              		.cfi_restore 5
  94              		.cfi_restore 4
  95              		.cfi_def_cfa_offset 0
  96              	.LVL5:
  97              		.loc 1 305 0
  98 0024 1847     		bx	r3
  99              	.LVL6:
 100              	.L10:
 101 0026 00BF     		.align	2
 102              	.L9:
 103 0028 00000000 		.word	.LANCHOR1
 104 002c 00000000 		.word	.LC0
 105              		.cfi_endproc
 106              	.LFE271:
 107              		.size	print_line, .-print_line
 108              		.section	.text.test_printn,"ax",%progbits
 109              		.align	2
 110              		.p2align 4,,15
 111              		.global	test_printn
 112              		.thumb
 113              		.thumb_func
 114              		.type	test_printn, %function
ARM GAS  /tmp/ccEPgmtk.s 			page 3


 115              	test_printn:
 116              	.LFB255:
 117              		.loc 1 91 0
 118              		.cfi_startproc
 119              		@ args = 0, pretend = 0, frame = 16
 120              		@ frame_needed = 0, uses_anonymous_args = 0
 121              	.LVL7:
 122              		.loc 1 94 0
 123 0000 10B3     		cbz	r0, .L20
 124              		.loc 1 91 0
 125 0002 70B5     		push	{r4, r5, r6, lr}
 126              		.cfi_def_cfa_offset 16
 127              		.cfi_offset 4, -16
 128              		.cfi_offset 5, -12
 129              		.cfi_offset 6, -8
 130              		.cfi_offset 14, -4
 131              		.loc 1 99 0
 132 0004 134A     		ldr	r2, .L22
 133              		.loc 1 91 0
 134 0006 84B0     		sub	sp, sp, #16
 135              		.cfi_def_cfa_offset 32
 136              		.loc 1 94 0
 137 0008 6D46     		mov	r5, sp
 138 000a 6C46     		mov	r4, sp
 139              	.L13:
 140              	.LVL8:
 141              		.loc 1 99 0
 142 000c A2FB0013 		umull	r1, r3, r2, r0
 143 0010 DB08     		lsrs	r3, r3, #3
 144 0012 03EB8301 		add	r1, r3, r3, lsl #2
 145 0016 A0EB4100 		sub	r0, r0, r1, lsl #1
 146              	.LVL9:
 147 001a 00F13001 		add	r1, r0, #48
 148 001e C9B2     		uxtb	r1, r1
 149 0020 04F8011B 		strb	r1, [r4], #1
 150              	.LVL10:
 151              		.loc 1 98 0
 152 0024 1846     		mov	r0, r3
 153 0026 002B     		cmp	r3, #0
 154 0028 F0D1     		bne	.L13
 155              		.loc 1 100 0
 156 002a AC42     		cmp	r4, r5
 157 002c 0AD9     		bls	.L11
 158 002e 0A4E     		ldr	r6, .L22+4
 159 0030 013C     		subs	r4, r4, #1
 160              	.LVL11:
 161 0032 01E0     		b	.L17
 162              	.LVL12:
 163              	.L21:
 164 0034 14F8011D 		ldrb	r1, [r4, #-1]!	@ zero_extendqisi2
 165              	.LVL13:
 166              	.L17:
 167              		.loc 1 101 0
 168 0038 3068     		ldr	r0, [r6]
 169              	.LVL14:
 170 003a 0368     		ldr	r3, [r0]
 171 003c 9B68     		ldr	r3, [r3, #8]
ARM GAS  /tmp/ccEPgmtk.s 			page 4


 172 003e 9847     		blx	r3
 173              	.LVL15:
 174              		.loc 1 100 0
 175 0040 AC42     		cmp	r4, r5
 176 0042 F7D1     		bne	.L21
 177              	.LVL16:
 178              	.L11:
 179              		.loc 1 103 0
 180 0044 04B0     		add	sp, sp, #16
 181              		.cfi_def_cfa_offset 16
 182              		@ sp needed
 183 0046 70BD     		pop	{r4, r5, r6, pc}
 184              	.LVL17:
 185              	.L20:
 186              		.cfi_def_cfa_offset 0
 187              		.cfi_restore 4
 188              		.cfi_restore 5
 189              		.cfi_restore 6
 190              		.cfi_restore 14
 191              	.LBB171:
 192              	.LBB172:
 193              		.loc 1 95 0
 194 0048 034B     		ldr	r3, .L22+4
 195 004a 1868     		ldr	r0, [r3]
 196              	.LVL18:
 197 004c 0368     		ldr	r3, [r0]
 198 004e 3021     		movs	r1, #48
 199 0050 9B68     		ldr	r3, [r3, #8]
 200 0052 1847     		bx	r3
 201              	.LVL19:
 202              	.L23:
 203              		.align	2
 204              	.L22:
 205 0054 CDCCCCCC 		.word	-858993459
 206 0058 00000000 		.word	.LANCHOR1
 207              	.LBE172:
 208              	.LBE171:
 209              		.cfi_endproc
 210              	.LFE255:
 211              		.size	test_printn, .-test_printn
 212 005c AFF30080 		.section	.text.test_print,"ax",%progbits
 213              		.align	2
 214              		.p2align 4,,15
 215              		.global	test_print
 216              		.thumb
 217              		.thumb_func
 218              		.type	test_print, %function
 219              	test_print:
 220              	.LFB256:
 221              		.loc 1 110 0
 222              		.cfi_startproc
 223              		@ args = 0, pretend = 0, frame = 0
 224              		@ frame_needed = 0, uses_anonymous_args = 0
 225              	.LVL20:
 226 0000 38B5     		push	{r3, r4, r5, lr}
 227              		.cfi_def_cfa_offset 16
 228              		.cfi_offset 3, -16
ARM GAS  /tmp/ccEPgmtk.s 			page 5


 229              		.cfi_offset 4, -12
 230              		.cfi_offset 5, -8
 231              		.cfi_offset 14, -4
 232              		.loc 1 112 0
 233 0002 0178     		ldrb	r1, [r0]	@ zero_extendqisi2
 234              		.loc 1 110 0
 235 0004 0446     		mov	r4, r0
 236              		.loc 1 112 0
 237 0006 41B1     		cbz	r1, .L24
 238 0008 044D     		ldr	r5, .L30
 239              	.LVL21:
 240              	.L26:
 241              		.loc 1 113 0
 242 000a 2868     		ldr	r0, [r5]
 243 000c 0368     		ldr	r3, [r0]
 244 000e 9B68     		ldr	r3, [r3, #8]
 245 0010 9847     		blx	r3
 246              	.LVL22:
 247              		.loc 1 112 0
 248 0012 14F8011F 		ldrb	r1, [r4, #1]!	@ zero_extendqisi2
 249              	.LVL23:
 250 0016 0029     		cmp	r1, #0
 251 0018 F7D1     		bne	.L26
 252              	.LVL24:
 253              	.L24:
 254 001a 38BD     		pop	{r3, r4, r5, pc}
 255              	.L31:
 256              		.align	2
 257              	.L30:
 258 001c 00000000 		.word	.LANCHOR1
 259              		.cfi_endproc
 260              	.LFE256:
 261              		.size	test_print, .-test_print
 262              		.section	.text.test_println,"ax",%progbits
 263              		.align	2
 264              		.p2align 4,,15
 265              		.global	test_println
 266              		.thumb
 267              		.thumb_func
 268              		.type	test_println, %function
 269              	test_println:
 270              	.LFB257:
 271              		.loc 1 121 0
 272              		.cfi_startproc
 273              		@ args = 0, pretend = 0, frame = 0
 274              		@ frame_needed = 0, uses_anonymous_args = 0
 275              	.LVL25:
 276 0000 70B5     		push	{r4, r5, r6, lr}
 277              		.cfi_def_cfa_offset 16
 278              		.cfi_offset 4, -16
 279              		.cfi_offset 5, -12
 280              		.cfi_offset 6, -8
 281              		.cfi_offset 14, -4
 282              	.LBB173:
 283              	.LBB174:
 284              		.loc 1 112 0
 285 0002 0178     		ldrb	r1, [r0]	@ zero_extendqisi2
ARM GAS  /tmp/ccEPgmtk.s 			page 6


 286 0004 094D     		ldr	r5, .L38
 287              	.LBE174:
 288              	.LBE173:
 289              		.loc 1 121 0
 290 0006 0446     		mov	r4, r0
 291              	.LVL26:
 292              	.LBB176:
 293              	.LBB175:
 294              		.loc 1 112 0
 295 0008 39B1     		cbz	r1, .L35
 296              	.LVL27:
 297              	.L34:
 298              		.loc 1 113 0
 299 000a 2868     		ldr	r0, [r5]
 300 000c 0368     		ldr	r3, [r0]
 301 000e 9B68     		ldr	r3, [r3, #8]
 302 0010 9847     		blx	r3
 303              	.LVL28:
 304              		.loc 1 112 0
 305 0012 14F8011F 		ldrb	r1, [r4, #1]!	@ zero_extendqisi2
 306              	.LVL29:
 307 0016 0029     		cmp	r1, #0
 308 0018 F7D1     		bne	.L34
 309              	.LVL30:
 310              	.L35:
 311              	.LBE175:
 312              	.LBE176:
 313              		.loc 1 124 0
 314 001a 2868     		ldr	r0, [r5]
 315 001c 0449     		ldr	r1, .L38+4
 316 001e 0368     		ldr	r3, [r0]
 317 0020 0222     		movs	r2, #2
 318 0022 1B68     		ldr	r3, [r3]
 319              		.loc 1 125 0
 320 0024 BDE87040 		pop	{r4, r5, r6, lr}
 321              		.cfi_restore 14
 322              		.cfi_restore 6
 323              		.cfi_restore 5
 324              		.cfi_restore 4
 325              		.cfi_def_cfa_offset 0
 326              		.loc 1 124 0
 327 0028 1847     		bx	r3
 328              	.LVL31:
 329              	.L39:
 330 002a 00BF     		.align	2
 331              	.L38:
 332 002c 00000000 		.word	.LANCHOR1
 333 0030 00000000 		.word	.LC0
 334              		.cfi_endproc
 335              	.LFE257:
 336              		.size	test_println, .-test_println
 337 0034 AFF30080 		.section	.text.test_emit_token,"ax",%progbits
 337      AFF30080 
 337      AFF30080 
 338              		.align	2
 339              		.p2align 4,,15
 340              		.global	test_emit_token
ARM GAS  /tmp/ccEPgmtk.s 			page 7


 341              		.thumb
 342              		.thumb_func
 343              		.type	test_emit_token, %function
 344              	test_emit_token:
 345              	.LFB260:
 346              		.loc 1 147 0
 347              		.cfi_startproc
 348              		@ args = 0, pretend = 0, frame = 0
 349              		@ frame_needed = 0, uses_anonymous_args = 0
 350              		@ link register save eliminated.
 351              	.LVL32:
 352              	.LBB177:
 353              	.LBB178:
 354              	.LBB179:
 355              	.LBB180:
 356              		.file 2 "../ChibiOS/os/ext/CMSIS/include/core_cmFunc.h"
 357              		.loc 2 546 0
 358 0000 2023     		movs	r3, #32
 359              	@ 546 "../ChibiOS/os/ext/CMSIS/include/core_cmFunc.h" 1
 360 0002 83F31188 		MSR basepri, r3
 361              	@ 0 "" 2
 362              		.thumb
 363              	.LBE180:
 364              	.LBE179:
 365              	.LBE178:
 366              	.LBE177:
 367              		.loc 1 150 0
 368 0006 044B     		ldr	r3, .L41
 369 0008 1A68     		ldr	r2, [r3]
 370 000a 511C     		adds	r1, r2, #1
 371 000c 1960     		str	r1, [r3]
 372 000e 1070     		strb	r0, [r2]
 373              	.LVL33:
 374              	.LBB181:
 375              	.LBB182:
 376              	.LBB183:
 377              	.LBB184:
 378              	.LBB185:
 379              		.loc 2 546 0
 380 0010 0023     		movs	r3, #0
 381              	@ 546 "../ChibiOS/os/ext/CMSIS/include/core_cmFunc.h" 1
 382 0012 83F31188 		MSR basepri, r3
 383              	@ 0 "" 2
 384              		.thumb
 385 0016 7047     		bx	lr
 386              	.L42:
 387              		.align	2
 388              	.L41:
 389 0018 00000000 		.word	.LANCHOR2
 390              	.LBE185:
 391              	.LBE184:
 392              	.LBE183:
 393              	.LBE182:
 394              	.LBE181:
 395              		.cfi_endproc
 396              	.LFE260:
 397              		.size	test_emit_token, .-test_emit_token
ARM GAS  /tmp/ccEPgmtk.s 			page 8


 398 001c AFF30080 		.section	.text._test_fail,"ax",%progbits
 399              		.align	2
 400              		.p2align 4,,15
 401              		.global	_test_fail
 402              		.thumb
 403              		.thumb_func
 404              		.type	_test_fail, %function
 405              	_test_fail:
 406              	.LFB261:
 407              		.loc 1 157 0
 408              		.cfi_startproc
 409              		@ args = 0, pretend = 0, frame = 0
 410              		@ frame_needed = 0, uses_anonymous_args = 0
 411              		@ link register save eliminated.
 412              	.LVL34:
 413              		.loc 1 161 0
 414 0000 0349     		ldr	r1, .L44
 415              		.loc 1 159 0
 416 0002 044A     		ldr	r2, .L44+4
 417              		.loc 1 160 0
 418 0004 044B     		ldr	r3, .L44+8
 419              		.loc 1 161 0
 420 0006 0860     		str	r0, [r1]
 421              		.loc 1 159 0
 422 0008 0120     		movs	r0, #1
 423              	.LVL35:
 424 000a 1070     		strb	r0, [r2]
 425              		.loc 1 160 0
 426 000c 1870     		strb	r0, [r3]
 427              		.loc 1 163 0
 428 000e 7047     		bx	lr
 429              	.L45:
 430              		.align	2
 431              	.L44:
 432 0010 00000000 		.word	.LANCHOR5
 433 0014 00000000 		.word	.LANCHOR3
 434 0018 00000000 		.word	.LANCHOR4
 435              		.cfi_endproc
 436              	.LFE261:
 437              		.size	_test_fail, .-_test_fail
 438 001c AFF30080 		.section	.text._test_assert,"ax",%progbits
 439              		.align	2
 440              		.p2align 4,,15
 441              		.global	_test_assert
 442              		.thumb
 443              		.thumb_func
 444              		.type	_test_assert, %function
 445              	_test_assert:
 446              	.LFB262:
 447              		.loc 1 165 0
 448              		.cfi_startproc
 449              		@ args = 0, pretend = 0, frame = 0
 450              		@ frame_needed = 0, uses_anonymous_args = 0
 451              		@ link register save eliminated.
 452              	.LVL36:
 453              		.loc 1 167 0
 454 0000 59B9     		cbnz	r1, .L48
ARM GAS  /tmp/ccEPgmtk.s 			page 9


 455              	.LVL37:
 456              		.loc 1 165 0
 457 0002 10B4     		push	{r4}
 458              		.cfi_def_cfa_offset 4
 459              		.cfi_offset 4, -4
 460              	.LBB186:
 461              	.LBB187:
 462              		.loc 1 160 0
 463 0004 0649     		ldr	r1, .L51
 464              	.LVL38:
 465              		.loc 1 159 0
 466 0006 074C     		ldr	r4, .L51+4
 467              		.loc 1 161 0
 468 0008 074A     		ldr	r2, .L51+8
 469              		.loc 1 159 0
 470 000a 0123     		movs	r3, #1
 471 000c 2370     		strb	r3, [r4]
 472              		.loc 1 161 0
 473 000e 1060     		str	r0, [r2]
 474              		.loc 1 160 0
 475 0010 0B70     		strb	r3, [r1]
 476              	.LBE187:
 477              	.LBE186:
 478              		.loc 1 170 0
 479 0012 1846     		mov	r0, r3
 480              	.LVL39:
 481 0014 5DF8044B 		ldr	r4, [sp], #4
 482              		.cfi_restore 4
 483              		.cfi_def_cfa_offset 0
 484 0018 7047     		bx	lr
 485              	.LVL40:
 486              	.L48:
 487              		.loc 1 169 0
 488 001a 0023     		movs	r3, #0
 489              		.loc 1 170 0
 490 001c 1846     		mov	r0, r3
 491              	.LVL41:
 492 001e 7047     		bx	lr
 493              	.L52:
 494              		.align	2
 495              	.L51:
 496 0020 00000000 		.word	.LANCHOR4
 497 0024 00000000 		.word	.LANCHOR3
 498 0028 00000000 		.word	.LANCHOR5
 499              		.cfi_endproc
 500              	.LFE262:
 501              		.size	_test_assert, .-_test_assert
 502 002c AFF30080 		.section	.text._test_assert_sequence,"ax",%progbits
 503              		.align	2
 504              		.p2align 4,,15
 505              		.global	_test_assert_sequence
 506              		.thumb
 507              		.thumb_func
 508              		.type	_test_assert_sequence, %function
 509              	_test_assert_sequence:
 510              	.LFB263:
 511              		.loc 1 172 0
ARM GAS  /tmp/ccEPgmtk.s 			page 10


 512              		.cfi_startproc
 513              		@ args = 0, pretend = 0, frame = 0
 514              		@ frame_needed = 0, uses_anonymous_args = 0
 515              		@ link register save eliminated.
 516              	.LVL42:
 517 0000 F0B4     		push	{r4, r5, r6, r7}
 518              		.cfi_def_cfa_offset 16
 519              		.cfi_offset 4, -16
 520              		.cfi_offset 5, -12
 521              		.cfi_offset 6, -8
 522              		.cfi_offset 7, -4
 523 0002 0E4E     		ldr	r6, .L60
 524              		.loc 1 173 0
 525 0004 0E4F     		ldr	r7, .L60+4
 526 0006 3568     		ldr	r5, [r6]
 527 0008 3B46     		mov	r3, r7
 528              		.loc 1 174 0
 529 000a 05E0     		b	.L54
 530              	.LVL43:
 531              	.L56:
 532              		.loc 1 175 0
 533 000c 13F8014B 		ldrb	r4, [r3], #1	@ zero_extendqisi2
 534              	.LVL44:
 535 0010 11F8012B 		ldrb	r2, [r1], #1	@ zero_extendqisi2
 536              	.LVL45:
 537 0014 9442     		cmp	r4, r2
 538 0016 07D1     		bne	.L57
 539              	.LVL46:
 540              	.L54:
 541              		.loc 1 174 0
 542 0018 AB42     		cmp	r3, r5
 543 001a F7D3     		bcc	.L56
 544              		.loc 1 178 0
 545 001c 0B78     		ldrb	r3, [r1]	@ zero_extendqisi2
 546              	.LVL47:
 547 001e 1BB9     		cbnz	r3, .L57
 548              	.LBB188:
 549              	.LBB189:
 550              		.loc 1 132 0
 551 0020 3760     		str	r7, [r6]
 552              	.LBE189:
 553              	.LBE188:
 554              		.loc 1 182 0
 555 0022 1846     		mov	r0, r3
 556              	.LVL48:
 557 0024 F0BC     		pop	{r4, r5, r6, r7}
 558              		.cfi_remember_state
 559              		.cfi_restore 4
 560              		.cfi_restore 5
 561              		.cfi_restore 6
 562              		.cfi_restore 7
 563              		.cfi_def_cfa_offset 0
 564 0026 7047     		bx	lr
 565              	.LVL49:
 566              	.L57:
 567              		.cfi_restore_state
 568              	.LBB190:
ARM GAS  /tmp/ccEPgmtk.s 			page 11


 569              	.LBB191:
 570              		.loc 1 159 0
 571 0028 064C     		ldr	r4, .L60+8
 572              		.loc 1 160 0
 573 002a 0749     		ldr	r1, .L60+12
 574              		.loc 1 161 0
 575 002c 074A     		ldr	r2, .L60+16
 576              		.loc 1 159 0
 577 002e 0123     		movs	r3, #1
 578 0030 2370     		strb	r3, [r4]
 579              		.loc 1 161 0
 580 0032 1060     		str	r0, [r2]
 581              		.loc 1 160 0
 582 0034 0B70     		strb	r3, [r1]
 583              	.LBE191:
 584              	.LBE190:
 585              		.loc 1 182 0
 586 0036 1846     		mov	r0, r3
 587              	.LVL50:
 588 0038 F0BC     		pop	{r4, r5, r6, r7}
 589              		.cfi_restore 7
 590              		.cfi_restore 6
 591              		.cfi_restore 5
 592              		.cfi_restore 4
 593              		.cfi_def_cfa_offset 0
 594 003a 7047     		bx	lr
 595              	.L61:
 596              		.align	2
 597              	.L60:
 598 003c 00000000 		.word	.LANCHOR2
 599 0040 00000000 		.word	.LANCHOR6
 600 0044 00000000 		.word	.LANCHOR3
 601 0048 00000000 		.word	.LANCHOR4
 602 004c 00000000 		.word	.LANCHOR5
 603              		.cfi_endproc
 604              	.LFE263:
 605              		.size	_test_assert_sequence, .-_test_assert_sequence
 606              		.section	.text._test_assert_time_window,"ax",%progbits
 607              		.align	2
 608              		.p2align 4,,15
 609              		.global	_test_assert_time_window
 610              		.thumb
 611              		.thumb_func
 612              		.type	_test_assert_time_window, %function
 613              	_test_assert_time_window:
 614              	.LFB264:
 615              		.loc 1 184 0
 616              		.cfi_startproc
 617              		@ args = 0, pretend = 0, frame = 0
 618              		@ frame_needed = 0, uses_anonymous_args = 0
 619              		@ link register save eliminated.
 620              	.LVL51:
 621 0000 10B4     		push	{r4}
 622              		.cfi_def_cfa_offset 4
 623              		.cfi_offset 4, -4
 624              	.LBB192:
 625              	.LBB193:
ARM GAS  /tmp/ccEPgmtk.s 			page 12


 626              	.LBB194:
 627              	.LBB195:
 628              	.LBB196:
 629              	.LBB197:
 630              	.LBB198:
 631              		.loc 2 546 0
 632 0002 2023     		movs	r3, #32
 633              	@ 546 "../ChibiOS/os/ext/CMSIS/include/core_cmFunc.h" 1
 634 0004 83F31188 		MSR basepri, r3
 635              	@ 0 "" 2
 636              		.thumb
 637              	.LBE198:
 638              	.LBE197:
 639              	.LBE196:
 640              	.LBE195:
 641              	.LBB199:
 642              	.LBB200:
 643              	.LBB201:
 644              	.LBB202:
 645              		.file 3 "../ChibiOS/os/hal/ports/STM32/LLD/TIMv1/st_lld.h"
 646              		.loc 3 128 0
 647 0008 4FF08044 		mov	r4, #1073741824
 648              	.LBE202:
 649              	.LBE201:
 650              	.LBE200:
 651              	.LBE199:
 652              	.LBB206:
 653              	.LBB207:
 654              	.LBB208:
 655              	.LBB209:
 656              	.LBB210:
 657              		.loc 2 546 0
 658 000c 0023     		movs	r3, #0
 659              	.LBE210:
 660              	.LBE209:
 661              	.LBE208:
 662              	.LBE207:
 663              	.LBE206:
 664              	.LBB215:
 665              	.LBB205:
 666              	.LBB204:
 667              	.LBB203:
 668              		.loc 3 128 0
 669 000e 646A     		ldr	r4, [r4, #36]
 670              	.LVL52:
 671              	.LBE203:
 672              	.LBE204:
 673              	.LBE205:
 674              	.LBE215:
 675              	.LBB216:
 676              	.LBB214:
 677              	.LBB213:
 678              	.LBB212:
 679              	.LBB211:
 680              		.loc 2 546 0
 681              	@ 546 "../ChibiOS/os/ext/CMSIS/include/core_cmFunc.h" 1
 682 0010 83F31188 		MSR basepri, r3
ARM GAS  /tmp/ccEPgmtk.s 			page 13


 683              	@ 0 "" 2
 684              	.LVL53:
 685              		.thumb
 686              	.LBE211:
 687              	.LBE212:
 688              	.LBE213:
 689              	.LBE214:
 690              	.LBE216:
 691              	.LBE194:
 692              	.LBE193:
 693              	.LBB217:
 694              	.LBB218:
 695              		.file 4 "../ChibiOS/os/rt/include/chvt.h"
 696              		.loc 4 286 0
 697 0014 641A     		subs	r4, r4, r1
 698              	.LVL54:
 699 0016 521A     		subs	r2, r2, r1
 700              	.LVL55:
 701              	.LBE218:
 702              	.LBE217:
 703              	.LBE192:
 704              	.LBB219:
 705              	.LBB220:
 706              		.loc 1 167 0
 707 0018 9442     		cmp	r4, r2
 708 001a 06D3     		bcc	.L63
 709              	.LVL56:
 710              	.LBB221:
 711              	.LBB222:
 712              		.loc 1 159 0
 713 001c 054C     		ldr	r4, .L66
 714              		.loc 1 160 0
 715 001e 0649     		ldr	r1, .L66+4
 716              	.LVL57:
 717              		.loc 1 161 0
 718 0020 064A     		ldr	r2, .L66+8
 719              		.loc 1 159 0
 720 0022 0123     		movs	r3, #1
 721 0024 2370     		strb	r3, [r4]
 722              		.loc 1 160 0
 723 0026 0B70     		strb	r3, [r1]
 724              		.loc 1 161 0
 725 0028 1060     		str	r0, [r2]
 726              	.LVL58:
 727              	.L63:
 728              	.LBE222:
 729              	.LBE221:
 730              	.LBE220:
 731              	.LBE219:
 732              		.loc 1 187 0
 733 002a 1846     		mov	r0, r3
 734              	.LVL59:
 735 002c 5DF8044B 		ldr	r4, [sp], #4
 736              		.cfi_restore 4
 737              		.cfi_def_cfa_offset 0
 738 0030 7047     		bx	lr
 739              	.L67:
ARM GAS  /tmp/ccEPgmtk.s 			page 14


 740 0032 00BF     		.align	2
 741              	.L66:
 742 0034 00000000 		.word	.LANCHOR3
 743 0038 00000000 		.word	.LANCHOR4
 744 003c 00000000 		.word	.LANCHOR5
 745              		.cfi_endproc
 746              	.LFE264:
 747              		.size	_test_assert_time_window, .-_test_assert_time_window
 748              		.section	.text.test_terminate_threads,"ax",%progbits
 749              		.align	2
 750              		.p2align 4,,15
 751              		.global	test_terminate_threads
 752              		.thumb
 753              		.thumb_func
 754              		.type	test_terminate_threads, %function
 755              	test_terminate_threads:
 756              	.LFB265:
 757              		.loc 1 196 0
 758              		.cfi_startproc
 759              		@ args = 0, pretend = 0, frame = 0
 760              		@ frame_needed = 0, uses_anonymous_args = 0
 761              	.LVL60:
 762 0000 38B5     		push	{r3, r4, r5, lr}
 763              		.cfi_def_cfa_offset 16
 764              		.cfi_offset 3, -16
 765              		.cfi_offset 4, -12
 766              		.cfi_offset 5, -8
 767              		.cfi_offset 14, -4
 768 0002 064C     		ldr	r4, .L76
 769 0004 04F11405 		add	r5, r4, #20
 770              	.LVL61:
 771              	.L70:
 772              		.loc 1 200 0
 773 0008 54F8043B 		ldr	r3, [r4], #4
 774              		.loc 1 201 0
 775 000c 1846     		mov	r0, r3
 776              		.loc 1 200 0
 777 000e 0BB1     		cbz	r3, .L69
 778              		.loc 1 201 0
 779 0010 FFF7FEFF 		bl	chThdTerminate
 780              	.LVL62:
 781              	.L69:
 782              		.loc 1 199 0 discriminator 2
 783 0014 AC42     		cmp	r4, r5
 784 0016 F7D1     		bne	.L70
 785              		.loc 1 202 0
 786 0018 38BD     		pop	{r3, r4, r5, pc}
 787              	.L77:
 788 001a 00BF     		.align	2
 789              	.L76:
 790 001c 00000000 		.word	.LANCHOR7
 791              		.cfi_endproc
 792              	.LFE265:
 793              		.size	test_terminate_threads, .-test_terminate_threads
 794              		.section	.text.test_wait_threads,"ax",%progbits
 795              		.align	2
 796              		.p2align 4,,15
ARM GAS  /tmp/ccEPgmtk.s 			page 15


 797              		.global	test_wait_threads
 798              		.thumb
 799              		.thumb_func
 800              		.type	test_wait_threads, %function
 801              	test_wait_threads:
 802              	.LFB266:
 803              		.loc 1 207 0
 804              		.cfi_startproc
 805              		@ args = 0, pretend = 0, frame = 0
 806              		@ frame_needed = 0, uses_anonymous_args = 0
 807              	.LVL63:
 808 0000 70B5     		push	{r4, r5, r6, lr}
 809              		.cfi_def_cfa_offset 16
 810              		.cfi_offset 4, -16
 811              		.cfi_offset 5, -12
 812              		.cfi_offset 6, -8
 813              		.cfi_offset 14, -4
 814 0002 074C     		ldr	r4, .L86
 815              		.loc 1 213 0
 816 0004 0026     		movs	r6, #0
 817 0006 04F11405 		add	r5, r4, #20
 818              	.LVL64:
 819              	.L80:
 820              		.loc 1 211 0
 821 000a 54F8040B 		ldr	r0, [r4], #4
 822 000e 18B1     		cbz	r0, .L79
 823              		.loc 1 212 0
 824 0010 FFF7FEFF 		bl	chThdWait
 825              	.LVL65:
 826              		.loc 1 213 0
 827 0014 44F8046C 		str	r6, [r4, #-4]
 828              	.L79:
 829              		.loc 1 210 0 discriminator 2
 830 0018 AC42     		cmp	r4, r5
 831 001a F6D1     		bne	.L80
 832              		.loc 1 215 0
 833 001c 70BD     		pop	{r4, r5, r6, pc}
 834              	.L87:
 835 001e 00BF     		.align	2
 836              	.L86:
 837 0020 00000000 		.word	.LANCHOR7
 838              		.cfi_endproc
 839              	.LFE266:
 840              		.size	test_wait_threads, .-test_wait_threads
 841 0024 AFF30080 		.section	.text.test_wait_tick,"ax",%progbits
 841      AFF30080 
 841      AFF30080 
 842              		.align	2
 843              		.p2align 4,,15
 844              		.global	test_wait_tick
 845              		.thumb
 846              		.thumb_func
 847              		.type	test_wait_tick, %function
 848              	test_wait_tick:
 849              	.LFB267:
 850              		.loc 1 245 0
 851              		.cfi_startproc
ARM GAS  /tmp/ccEPgmtk.s 			page 16


 852              		@ args = 0, pretend = 0, frame = 0
 853              		@ frame_needed = 0, uses_anonymous_args = 0
 854 0000 08B5     		push	{r3, lr}
 855              		.cfi_def_cfa_offset 8
 856              		.cfi_offset 3, -8
 857              		.cfi_offset 14, -4
 858              		.loc 1 247 0
 859 0002 0120     		movs	r0, #1
 860 0004 FFF7FEFF 		bl	chThdSleep
 861              	.LVL66:
 862              	.LBB223:
 863              	.LBB224:
 864              	.LBB225:
 865              	.LBB226:
 866              	.LBB227:
 867              	.LBB228:
 868              		.loc 2 546 0
 869 0008 2023     		movs	r3, #32
 870              	@ 546 "../ChibiOS/os/ext/CMSIS/include/core_cmFunc.h" 1
 871 000a 83F31188 		MSR basepri, r3
 872              	@ 0 "" 2
 873              		.thumb
 874              	.LBE228:
 875              	.LBE227:
 876              	.LBE226:
 877              	.LBE225:
 878              	.LBB229:
 879              	.LBB230:
 880              	.LBB231:
 881              	.LBB232:
 882              		.loc 3 128 0
 883 000e 4FF08042 		mov	r2, #1073741824
 884              	.LBE232:
 885              	.LBE231:
 886              	.LBE230:
 887              	.LBE229:
 888              	.LBB236:
 889              	.LBB237:
 890              	.LBB238:
 891              	.LBB239:
 892              	.LBB240:
 893              		.loc 2 546 0
 894 0012 0023     		movs	r3, #0
 895              	.LBE240:
 896              	.LBE239:
 897              	.LBE238:
 898              	.LBE237:
 899              	.LBE236:
 900              	.LBB245:
 901              	.LBB235:
 902              	.LBB234:
 903              	.LBB233:
 904              		.loc 3 128 0
 905 0014 506A     		ldr	r0, [r2, #36]
 906              	.LVL67:
 907              	.LBE233:
 908              	.LBE234:
ARM GAS  /tmp/ccEPgmtk.s 			page 17


 909              	.LBE235:
 910              	.LBE245:
 911              	.LBB246:
 912              	.LBB244:
 913              	.LBB243:
 914              	.LBB242:
 915              	.LBB241:
 916              		.loc 2 546 0
 917              	@ 546 "../ChibiOS/os/ext/CMSIS/include/core_cmFunc.h" 1
 918 0016 83F31188 		MSR basepri, r3
 919              	@ 0 "" 2
 920              		.thumb
 921              	.LBE241:
 922              	.LBE242:
 923              	.LBE243:
 924              	.LBE244:
 925              	.LBE246:
 926              	.LBE224:
 927              	.LBE223:
 928              		.loc 1 249 0
 929 001a 08BD     		pop	{r3, pc}
 930              		.cfi_endproc
 931              	.LFE267:
 932              		.size	test_wait_tick, .-test_wait_tick
 933 001c AFF30080 		.section	.text.test_start_timer,"ax",%progbits
 934              		.align	2
 935              		.p2align 4,,15
 936              		.global	test_start_timer
 937              		.thumb
 938              		.thumb_func
 939              		.type	test_start_timer, %function
 940              	test_start_timer:
 941              	.LFB269:
 942              		.loc 1 272 0
 943              		.cfi_startproc
 944              		@ args = 0, pretend = 0, frame = 0
 945              		@ frame_needed = 0, uses_anonymous_args = 0
 946              	.LVL68:
 947              		.loc 1 274 0
 948 0000 42F21073 		movw	r3, #10000
 949              		.loc 1 272 0
 950 0004 10B5     		push	{r4, lr}
 951              		.cfi_def_cfa_offset 8
 952              		.cfi_offset 4, -8
 953              		.cfi_offset 14, -4
 954              		.loc 1 274 0
 955 0006 03FB00F0 		mul	r0, r3, r0
 956              	.LVL69:
 957 000a 0D4C     		ldr	r4, .L96
 958              		.loc 1 275 0
 959 000c 0D4A     		ldr	r2, .L96+4
 960              		.loc 1 274 0
 961 000e 0138     		subs	r0, r0, #1
 962 0010 A4FB0034 		umull	r3, r4, r4, r0
 963 0014 A409     		lsrs	r4, r4, #6
 964              		.loc 1 275 0
 965 0016 0023     		movs	r3, #0
ARM GAS  /tmp/ccEPgmtk.s 			page 18


 966 0018 1370     		strb	r3, [r2]
 967              		.loc 1 274 0
 968 001a 0134     		adds	r4, r4, #1
 969              	.LVL70:
 970              	.LBB262:
 971              	.LBB263:
 972              	.LBB264:
 973              	.LBB265:
 974              	.LBB266:
 975              		.loc 2 546 0
 976 001c 2023     		movs	r3, #32
 977              	@ 546 "../ChibiOS/os/ext/CMSIS/include/core_cmFunc.h" 1
 978 001e 83F31188 		MSR basepri, r3
 979              	@ 0 "" 2
 980              	.LVL71:
 981              		.thumb
 982 0022 0948     		ldr	r0, .L96+8
 983              	.LBE266:
 984              	.LBE265:
 985              	.LBE264:
 986              	.LBE263:
 987              	.LBB267:
 988              	.LBB268:
 989              	.LBB269:
 990              	.LBB270:
 991              		.loc 4 354 0
 992 0024 C368     		ldr	r3, [r0, #12]
 993 0026 0BB1     		cbz	r3, .L91
 994              		.loc 4 355 0
 995 0028 FFF7FEFF 		bl	chVTDoResetI
 996              	.LVL72:
 997              	.L91:
 998              	.LBE270:
 999              	.LBE269:
 1000              		.loc 4 402 0
 1001 002c 2146     		mov	r1, r4
 1002 002e 0648     		ldr	r0, .L96+8
 1003 0030 064A     		ldr	r2, .L96+12
 1004 0032 0023     		movs	r3, #0
 1005 0034 FFF7FEFF 		bl	chVTDoSetI
 1006              	.LVL73:
 1007              	.LBE268:
 1008              	.LBE267:
 1009              	.LBB271:
 1010              	.LBB272:
 1011              	.LBB273:
 1012              	.LBB274:
 1013              	.LBB275:
 1014              		.loc 2 546 0
 1015 0038 0023     		movs	r3, #0
 1016              	@ 546 "../ChibiOS/os/ext/CMSIS/include/core_cmFunc.h" 1
 1017 003a 83F31188 		MSR basepri, r3
 1018              	@ 0 "" 2
 1019              		.thumb
 1020 003e 10BD     		pop	{r4, pc}
 1021              	.LVL74:
 1022              	.L97:
ARM GAS  /tmp/ccEPgmtk.s 			page 19


 1023              		.align	2
 1024              	.L96:
 1025 0040 D34D6210 		.word	274877907
 1026 0044 00000000 		.word	.LANCHOR0
 1027 0048 00000000 		.word	.LANCHOR8
 1028 004c 00000000 		.word	tmr
 1029              	.LBE275:
 1030              	.LBE274:
 1031              	.LBE273:
 1032              	.LBE272:
 1033              	.LBE271:
 1034              	.LBE262:
 1035              		.cfi_endproc
 1036              	.LFE269:
 1037              		.size	test_start_timer, .-test_start_timer
 1038              		.section	.text.TestThread,"ax",%progbits
 1039              		.align	2
 1040              		.p2align 4,,15
 1041              		.global	TestThread
 1042              		.thumb
 1043              		.thumb_func
 1044              		.type	TestThread, %function
 1045              	TestThread:
 1046              	.LFB272:
 1047              		.loc 1 314 0
 1048              		.cfi_startproc
 1049              		@ args = 0, pretend = 0, frame = 8
 1050              		@ frame_needed = 0, uses_anonymous_args = 0
 1051              	.LVL75:
 1052 0000 2DE9F04F 		push	{r4, r5, r6, r7, r8, r9, r10, fp, lr}
 1053              		.cfi_def_cfa_offset 36
 1054              		.cfi_offset 4, -36
 1055              		.cfi_offset 5, -32
 1056              		.cfi_offset 6, -28
 1057              		.cfi_offset 7, -24
 1058              		.cfi_offset 8, -20
 1059              		.cfi_offset 9, -16
 1060              		.cfi_offset 10, -12
 1061              		.cfi_offset 11, -8
 1062              		.cfi_offset 14, -4
 1063              		.loc 1 317 0
 1064 0004 A04C     		ldr	r4, .L183
 1065              		.loc 1 320 0
 1066 0006 A14D     		ldr	r5, .L183+4
 1067              		.loc 1 317 0
 1068 0008 2060     		str	r0, [r4]
 1069              		.loc 1 314 0
 1070 000a 83B0     		sub	sp, sp, #12
 1071              		.cfi_def_cfa_offset 48
 1072              		.loc 1 318 0
 1073 000c A048     		ldr	r0, .L183+8
 1074              	.LVL76:
 1075 000e FFF7FEFF 		bl	test_println
 1076              	.LVL77:
 1077              		.loc 1 319 0
 1078 0012 A048     		ldr	r0, .L183+12
 1079 0014 FFF7FEFF 		bl	test_println
ARM GAS  /tmp/ccEPgmtk.s 			page 20


 1080              	.LVL78:
 1081              		.loc 1 320 0
 1082 0018 9F48     		ldr	r0, .L183+16
 1083 001a FFF7FEFF 		bl	test_println
 1084              	.LVL79:
 1085 001e 2A21     		movs	r1, #42
 1086              	.LVL80:
 1087              	.L99:
 1088              	.LBB312:
 1089              	.LBB313:
 1090              		.loc 1 113 0
 1091 0020 2068     		ldr	r0, [r4]
 1092 0022 0368     		ldr	r3, [r0]
 1093 0024 9B68     		ldr	r3, [r3, #8]
 1094 0026 9847     		blx	r3
 1095              	.LVL81:
 1096              		.loc 1 112 0
 1097 0028 15F8011F 		ldrb	r1, [r5, #1]!	@ zero_extendqisi2
 1098              	.LVL82:
 1099 002c 0029     		cmp	r1, #0
 1100 002e F7D1     		bne	.L99
 1101              	.LBE313:
 1102              	.LBE312:
 1103              		.loc 1 322 0
 1104 0030 9A48     		ldr	r0, .L183+20
 1105 0032 9B4D     		ldr	r5, .L183+24
 1106              	.LVL83:
 1107 0034 FFF7FEFF 		bl	test_println
 1108              	.LVL84:
 1109 0038 2A21     		movs	r1, #42
 1110              	.LVL85:
 1111              	.L101:
 1112              	.LBB314:
 1113              	.LBB315:
 1114              		.loc 1 113 0
 1115 003a 2068     		ldr	r0, [r4]
 1116 003c 0368     		ldr	r3, [r0]
 1117 003e 9B68     		ldr	r3, [r3, #8]
 1118 0040 9847     		blx	r3
 1119              	.LVL86:
 1120              		.loc 1 112 0
 1121 0042 15F8011F 		ldrb	r1, [r5, #1]!	@ zero_extendqisi2
 1122              	.LVL87:
 1123 0046 0029     		cmp	r1, #0
 1124 0048 F7D1     		bne	.L101
 1125              	.LBE315:
 1126              	.LBE314:
 1127              		.loc 1 324 0
 1128 004a 9648     		ldr	r0, .L183+28
 1129 004c 964D     		ldr	r5, .L183+32
 1130              	.LVL88:
 1131 004e FFF7FEFF 		bl	test_println
 1132              	.LVL89:
 1133 0052 2A21     		movs	r1, #42
 1134              	.LVL90:
 1135              	.L103:
 1136              	.LBB316:
ARM GAS  /tmp/ccEPgmtk.s 			page 21


 1137              	.LBB317:
 1138              		.loc 1 113 0
 1139 0054 2068     		ldr	r0, [r4]
 1140 0056 0368     		ldr	r3, [r0]
 1141 0058 9B68     		ldr	r3, [r3, #8]
 1142 005a 9847     		blx	r3
 1143              	.LVL91:
 1144              		.loc 1 112 0
 1145 005c 15F8011F 		ldrb	r1, [r5, #1]!	@ zero_extendqisi2
 1146              	.LVL92:
 1147 0060 0029     		cmp	r1, #0
 1148 0062 F7D1     		bne	.L103
 1149              	.LBE317:
 1150              	.LBE316:
 1151              		.loc 1 327 0
 1152 0064 9148     		ldr	r0, .L183+36
 1153 0066 924D     		ldr	r5, .L183+40
 1154              	.LVL93:
 1155 0068 FFF7FEFF 		bl	test_println
 1156              	.LVL94:
 1157 006c 2A21     		movs	r1, #42
 1158              	.LVL95:
 1159              	.L105:
 1160              	.LBB318:
 1161              	.LBB319:
 1162              		.loc 1 113 0
 1163 006e 2068     		ldr	r0, [r4]
 1164 0070 0368     		ldr	r3, [r0]
 1165 0072 9B68     		ldr	r3, [r3, #8]
 1166 0074 9847     		blx	r3
 1167              	.LVL96:
 1168              		.loc 1 112 0
 1169 0076 15F8011F 		ldrb	r1, [r5, #1]!	@ zero_extendqisi2
 1170              	.LVL97:
 1171 007a 0029     		cmp	r1, #0
 1172 007c F7D1     		bne	.L105
 1173              	.LBE319:
 1174              	.LBE318:
 1175              		.loc 1 330 0
 1176 007e 8D48     		ldr	r0, .L183+44
 1177 0080 8D4D     		ldr	r5, .L183+48
 1178              	.LVL98:
 1179 0082 FFF7FEFF 		bl	test_println
 1180              	.LVL99:
 1181 0086 2A21     		movs	r1, #42
 1182              	.LVL100:
 1183              	.L107:
 1184              	.LBB320:
 1185              	.LBB321:
 1186              		.loc 1 113 0
 1187 0088 2068     		ldr	r0, [r4]
 1188 008a 0368     		ldr	r3, [r0]
 1189 008c 9B68     		ldr	r3, [r3, #8]
 1190 008e 9847     		blx	r3
 1191              	.LVL101:
 1192              		.loc 1 112 0
 1193 0090 15F8011F 		ldrb	r1, [r5, #1]!	@ zero_extendqisi2
ARM GAS  /tmp/ccEPgmtk.s 			page 22


 1194              	.LVL102:
 1195 0094 0029     		cmp	r1, #0
 1196 0096 F7D1     		bne	.L107
 1197              	.LBE321:
 1198              	.LBE320:
 1199              		.loc 1 333 0
 1200 0098 8848     		ldr	r0, .L183+52
 1201 009a 894D     		ldr	r5, .L183+56
 1202              	.LVL103:
 1203 009c FFF7FEFF 		bl	test_println
 1204              	.LVL104:
 1205 00a0 2A21     		movs	r1, #42
 1206              	.LVL105:
 1207              	.L109:
 1208              	.LBB322:
 1209              	.LBB323:
 1210              		.loc 1 113 0
 1211 00a2 2068     		ldr	r0, [r4]
 1212 00a4 0368     		ldr	r3, [r0]
 1213 00a6 9B68     		ldr	r3, [r3, #8]
 1214 00a8 9847     		blx	r3
 1215              	.LVL106:
 1216              		.loc 1 112 0
 1217 00aa 15F8011F 		ldrb	r1, [r5, #1]!	@ zero_extendqisi2
 1218              	.LVL107:
 1219 00ae 0029     		cmp	r1, #0
 1220 00b0 F7D1     		bne	.L109
 1221              	.LBE323:
 1222              	.LBE322:
 1223              		.loc 1 337 0
 1224 00b2 8448     		ldr	r0, .L183+60
 1225 00b4 844D     		ldr	r5, .L183+64
 1226              	.LVL108:
 1227 00b6 FFF7FEFF 		bl	test_println
 1228              	.LVL109:
 1229 00ba 2A21     		movs	r1, #42
 1230              	.LVL110:
 1231              	.L111:
 1232              	.LBB324:
 1233              	.LBB325:
 1234              		.loc 1 113 0
 1235 00bc 2068     		ldr	r0, [r4]
 1236 00be 0368     		ldr	r3, [r0]
 1237 00c0 9B68     		ldr	r3, [r3, #8]
 1238 00c2 9847     		blx	r3
 1239              	.LVL111:
 1240              		.loc 1 112 0
 1241 00c4 15F8011F 		ldrb	r1, [r5, #1]!	@ zero_extendqisi2
 1242              	.LVL112:
 1243 00c8 0029     		cmp	r1, #0
 1244 00ca F7D1     		bne	.L111
 1245              	.LBE325:
 1246              	.LBE324:
 1247              		.loc 1 341 0
 1248 00cc 7F48     		ldr	r0, .L183+68
 1249 00ce 804D     		ldr	r5, .L183+72
 1250              	.LVL113:
ARM GAS  /tmp/ccEPgmtk.s 			page 23


 1251 00d0 FFF7FEFF 		bl	test_println
 1252              	.LVL114:
 1253 00d4 2A21     		movs	r1, #42
 1254              	.LVL115:
 1255              	.L113:
 1256              	.LBB326:
 1257              	.LBB327:
 1258              		.loc 1 113 0
 1259 00d6 2068     		ldr	r0, [r4]
 1260 00d8 0368     		ldr	r3, [r0]
 1261 00da 9B68     		ldr	r3, [r3, #8]
 1262 00dc 9847     		blx	r3
 1263              	.LVL116:
 1264              		.loc 1 112 0
 1265 00de 15F8011F 		ldrb	r1, [r5, #1]!	@ zero_extendqisi2
 1266              	.LVL117:
 1267 00e2 0029     		cmp	r1, #0
 1268 00e4 F7D1     		bne	.L113
 1269 00e6 7B4B     		ldr	r3, .L183+76
 1270              	.LBE327:
 1271              	.LBE326:
 1272              		.loc 1 345 0
 1273 00e8 7B48     		ldr	r0, .L183+80
 1274 00ea 0091     		str	r1, [sp]
 1275 00ec 0193     		str	r3, [sp, #4]
 1276 00ee FFF7FEFF 		bl	test_println
 1277              	.LVL118:
 1278              		.loc 1 347 0
 1279 00f2 6748     		ldr	r0, .L183+8
 1280              		.loc 1 349 0
 1281 00f4 DFF82082 		ldr	r8, .L183+144
 1282              	.LBB328:
 1283              	.LBB329:
 1284              		.loc 1 113 0
 1285 00f8 DFF88CB1 		ldr	fp, .L183
 1286              	.LBE329:
 1287              	.LBE328:
 1288              		.loc 1 347 0
 1289 00fc FFF7FEFF 		bl	test_println
 1290              	.LVL119:
 1291              		.loc 1 349 0
 1292 0100 764B     		ldr	r3, .L183+84
 1293 0102 0099     		ldr	r1, [sp]
 1294 0104 1970     		strb	r1, [r3]
 1295              	.LVL120:
 1296              	.L137:
 1297 0106 009B     		ldr	r3, [sp]
 1298 0108 0133     		adds	r3, r3, #1
 1299 010a 0093     		str	r3, [sp]
 1300              	.LVL121:
 1301              	.LBB331:
 1302              	.LBB332:
 1303              		.loc 1 138 0
 1304 010c 0026     		movs	r6, #0
 1305              	.LVL122:
 1306              	.L133:
 1307              	.LBE332:
ARM GAS  /tmp/ccEPgmtk.s 			page 24


 1308              	.LBE331:
 1309              		.loc 1 353 0
 1310 010e 58F82630 		ldr	r3, [r8, r6, lsl #2]
 1311 0112 08EB8607 		add	r7, r8, r6, lsl #2
 1312 0116 002B     		cmp	r3, #0
 1313 0118 00F08780 		beq	.L181
 1314              	.L131:
 1315              		.loc 1 354 0
 1316 011c 704D     		ldr	r5, .L183+88
 1317 011e FFF7FEFF 		bl	print_line
 1318              	.LVL123:
 1319 0122 2D21     		movs	r1, #45
 1320              	.LVL124:
 1321              	.L115:
 1322              	.LBB334:
 1323              	.LBB330:
 1324              		.loc 1 113 0
 1325 0124 2068     		ldr	r0, [r4]
 1326 0126 0368     		ldr	r3, [r0]
 1327 0128 9B68     		ldr	r3, [r3, #8]
 1328 012a 9847     		blx	r3
 1329              	.LVL125:
 1330              		.loc 1 112 0
 1331 012c 15F8011F 		ldrb	r1, [r5, #1]!	@ zero_extendqisi2
 1332              	.LVL126:
 1333 0130 0029     		cmp	r1, #0
 1334 0132 F7D1     		bne	.L115
 1335              	.LBE330:
 1336              	.LBE334:
 1337              		.loc 1 356 0
 1338 0134 0098     		ldr	r0, [sp]
 1339              		.loc 1 358 0
 1340 0136 6B4D     		ldr	r5, .L183+92
 1341              	.LVL127:
 1342              		.loc 1 356 0
 1343 0138 FFF7FEFF 		bl	test_printn
 1344              	.LVL128:
 1345              	.LBB335:
 1346              	.LBB336:
 1347              		.loc 1 113 0
 1348 013c DBF80000 		ldr	r0, [fp]
 1349              	.LVL129:
 1350 0140 0368     		ldr	r3, [r0]
 1351 0142 2E21     		movs	r1, #46
 1352 0144 9B68     		ldr	r3, [r3, #8]
 1353              	.LBE336:
 1354              	.LBE335:
 1355              		.loc 1 358 0
 1356 0146 0136     		adds	r6, r6, #1
 1357              	.LVL130:
 1358              	.LBB338:
 1359              	.LBB337:
 1360              		.loc 1 113 0
 1361 0148 9847     		blx	r3
 1362              	.LVL131:
 1363              	.LBE337:
 1364              	.LBE338:
ARM GAS  /tmp/ccEPgmtk.s 			page 25


 1365              		.loc 1 358 0
 1366 014a 3046     		mov	r0, r6
 1367 014c FFF7FEFF 		bl	test_printn
 1368              	.LVL132:
 1369 0150 2021     		movs	r1, #32
 1370              	.LVL133:
 1371              	.L117:
 1372              	.LBB339:
 1373              	.LBB340:
 1374              		.loc 1 113 0
 1375 0152 2068     		ldr	r0, [r4]
 1376 0154 0368     		ldr	r3, [r0]
 1377 0156 9B68     		ldr	r3, [r3, #8]
 1378 0158 9847     		blx	r3
 1379              	.LVL134:
 1380              		.loc 1 112 0
 1381 015a 15F8011F 		ldrb	r1, [r5, #1]!	@ zero_extendqisi2
 1382              	.LVL135:
 1383 015e 0029     		cmp	r1, #0
 1384 0160 F7D1     		bne	.L117
 1385              	.LBE340:
 1386              	.LBE339:
 1387              		.loc 1 360 0
 1388 0162 3B68     		ldr	r3, [r7]
 1389 0164 1D68     		ldr	r5, [r3]
 1390              	.LVL136:
 1391              	.LBB341:
 1392              	.LBB342:
 1393              		.loc 1 112 0
 1394 0166 2978     		ldrb	r1, [r5]	@ zero_extendqisi2
 1395 0168 39B1     		cbz	r1, .L122
 1396              	.LVL137:
 1397              	.L121:
 1398              		.loc 1 113 0
 1399 016a 2068     		ldr	r0, [r4]
 1400 016c 0368     		ldr	r3, [r0]
 1401 016e 9B68     		ldr	r3, [r3, #8]
 1402 0170 9847     		blx	r3
 1403              	.LVL138:
 1404              		.loc 1 112 0
 1405 0172 15F8011F 		ldrb	r1, [r5, #1]!	@ zero_extendqisi2
 1406              	.LVL139:
 1407 0176 0029     		cmp	r1, #0
 1408 0178 F7D1     		bne	.L121
 1409              	.LVL140:
 1410              	.L122:
 1411              	.LBE342:
 1412              	.LBE341:
 1413              		.loc 1 361 0
 1414 017a 5B48     		ldr	r0, .L183+96
 1415              	.LBB343:
 1416              	.LBB344:
 1417              		.loc 1 287 0
 1418 017c DFF89C91 		ldr	r9, .L183+148
 1419              	.LBB345:
 1420              	.LBB346:
 1421              		.loc 1 132 0
ARM GAS  /tmp/ccEPgmtk.s 			page 26


 1422 0180 5A4D     		ldr	r5, .L183+100
 1423 0182 DFF87CA1 		ldr	r10, .L183+120
 1424              	.LBE346:
 1425              	.LBE345:
 1426              	.LBE344:
 1427              	.LBE343:
 1428              		.loc 1 361 0
 1429 0186 FFF7FEFF 		bl	test_println
 1430              	.LVL141:
 1431              		.loc 1 363 0
 1432 018a 4FF4FA60 		mov	r0, #2000
 1433 018e FFF7FEFF 		bl	chThdSleep
 1434              	.LVL142:
 1435              	.LBB351:
 1436              	.LBB349:
 1437              		.loc 1 289 0
 1438 0192 574A     		ldr	r2, .L183+104
 1439              	.LBE349:
 1440              	.LBE351:
 1441              		.loc 1 365 0
 1442 0194 3F68     		ldr	r7, [r7]
 1443              	.LVL143:
 1444              	.LBB352:
 1445              	.LBB350:
 1446              	.LBB348:
 1447              	.LBB347:
 1448              		.loc 1 132 0
 1449 0196 C5F800A0 		str	r10, [r5]
 1450              	.LBE347:
 1451              	.LBE348:
 1452              		.loc 1 287 0
 1453 019a 0023     		movs	r3, #0
 1454              		.loc 1 289 0
 1455 019c 1360     		str	r3, [r2]
 1456 019e 5360     		str	r3, [r2, #4]
 1457 01a0 9360     		str	r3, [r2, #8]
 1458 01a2 D360     		str	r3, [r2, #12]
 1459 01a4 1361     		str	r3, [r2, #16]
 1460              		.loc 1 291 0
 1461 01a6 7A68     		ldr	r2, [r7, #4]
 1462              		.loc 1 287 0
 1463 01a8 89F80030 		strb	r3, [r9]
 1464              	.LVL144:
 1465              		.loc 1 291 0
 1466 01ac 02B1     		cbz	r2, .L120
 1467              		.loc 1 292 0
 1468 01ae 9047     		blx	r2
 1469              	.LVL145:
 1470              	.L120:
 1471              		.loc 1 293 0
 1472 01b0 FB68     		ldr	r3, [r7, #12]
 1473 01b2 9847     		blx	r3
 1474              	.LVL146:
 1475              		.loc 1 294 0
 1476 01b4 BB68     		ldr	r3, [r7, #8]
 1477 01b6 03B1     		cbz	r3, .L170
 1478              		.loc 1 295 0
ARM GAS  /tmp/ccEPgmtk.s 			page 27


 1479 01b8 9847     		blx	r3
 1480              	.LVL147:
 1481              	.L170:
 1482              		.loc 1 297 0
 1483 01ba FFF7FEFF 		bl	test_wait_threads
 1484              	.LVL148:
 1485              	.LBE350:
 1486              	.LBE352:
 1487              		.loc 1 366 0
 1488 01be 99F80030 		ldrb	r3, [r9]	@ zero_extendqisi2
 1489 01c2 002B     		cmp	r3, #0
 1490 01c4 53D0     		beq	.L124
 1491              	.LVL149:
 1492              		.loc 1 358 0
 1493 01c6 4B4F     		ldr	r7, .L183+108
 1494              	.LVL150:
 1495 01c8 2D21     		movs	r1, #45
 1496              	.LVL151:
 1497              	.L125:
 1498              	.LBB353:
 1499              	.LBB354:
 1500              		.loc 1 113 0
 1501 01ca 2068     		ldr	r0, [r4]
 1502 01cc 0368     		ldr	r3, [r0]
 1503 01ce 9B68     		ldr	r3, [r3, #8]
 1504 01d0 9847     		blx	r3
 1505              	.LVL152:
 1506              		.loc 1 112 0
 1507 01d2 17F8011F 		ldrb	r1, [r7, #1]!	@ zero_extendqisi2
 1508              	.LVL153:
 1509 01d6 0029     		cmp	r1, #0
 1510 01d8 F7D1     		bne	.L125
 1511              	.LBE354:
 1512              	.LBE353:
 1513              		.loc 1 368 0
 1514 01da 474B     		ldr	r3, .L183+112
 1515 01dc 474F     		ldr	r7, .L183+116
 1516              	.LVL154:
 1517 01de 1868     		ldr	r0, [r3]
 1518 01e0 FFF7FEFF 		bl	test_printn
 1519              	.LVL155:
 1520 01e4 2021     		movs	r1, #32
 1521              	.LVL156:
 1522              	.L127:
 1523              	.LBB355:
 1524              	.LBB356:
 1525              		.loc 1 113 0
 1526 01e6 2068     		ldr	r0, [r4]
 1527 01e8 0368     		ldr	r3, [r0]
 1528 01ea 9B68     		ldr	r3, [r3, #8]
 1529 01ec 9847     		blx	r3
 1530              	.LVL157:
 1531              		.loc 1 112 0
 1532 01ee 17F8011F 		ldrb	r1, [r7, #1]!	@ zero_extendqisi2
 1533              	.LVL158:
 1534 01f2 0029     		cmp	r1, #0
 1535 01f4 F7D1     		bne	.L127
ARM GAS  /tmp/ccEPgmtk.s 			page 28


 1536              	.LVL159:
 1537              	.LBE356:
 1538              	.LBE355:
 1539              	.LBB357:
 1540              	.LBB333:
 1541              		.loc 1 138 0
 1542 01f6 2B68     		ldr	r3, [r5]
 1543 01f8 5345     		cmp	r3, r10
 1544 01fa 09D9     		bls	.L130
 1545 01fc 404F     		ldr	r7, .L183+120
 1546              	.LVL160:
 1547              	.L128:
 1548              		.loc 1 139 0
 1549 01fe 2068     		ldr	r0, [r4]
 1550 0200 17F8011B 		ldrb	r1, [r7], #1	@ zero_extendqisi2
 1551              	.LVL161:
 1552 0204 0368     		ldr	r3, [r0]
 1553 0206 9B68     		ldr	r3, [r3, #8]
 1554 0208 9847     		blx	r3
 1555              	.LVL162:
 1556              		.loc 1 138 0
 1557 020a 2B68     		ldr	r3, [r5]
 1558 020c 9F42     		cmp	r7, r3
 1559 020e F6D3     		bcc	.L128
 1560              	.LVL163:
 1561              	.L130:
 1562              	.LBE333:
 1563              	.LBE357:
 1564              		.loc 1 371 0
 1565 0210 3C48     		ldr	r0, .L183+124
 1566 0212 FFF7FEFF 		bl	test_println
 1567              	.LVL164:
 1568 0216 019B     		ldr	r3, [sp, #4]
 1569 0218 D3F80080 		ldr	r8, [r3]
 1570              	.LVL165:
 1571              		.loc 1 353 0
 1572 021c 58F82630 		ldr	r3, [r8, r6, lsl #2]
 1573 0220 08EB8607 		add	r7, r8, r6, lsl #2
 1574 0224 002B     		cmp	r3, #0
 1575 0226 7FF479AF 		bne	.L131
 1576              	.LVL166:
 1577              	.L181:
 1578              		.loc 1 351 0
 1579 022a 019B     		ldr	r3, [sp, #4]
 1580 022c 53F8048F 		ldr	r8, [r3, #4]!
 1581 0230 0193     		str	r3, [sp, #4]
 1582 0232 B8F1000F 		cmp	r8, #0
 1583 0236 7FF466AF 		bne	.L137
 1584              		.loc 1 379 0
 1585 023a FFF7FEFF 		bl	print_line
 1586              	.LVL167:
 1587              		.loc 1 380 0
 1588 023e 324D     		ldr	r5, .L183+128
 1589 0240 1348     		ldr	r0, .L183+8
 1590 0242 FFF7FEFF 		bl	test_println
 1591              	.LVL168:
 1592 0246 4621     		movs	r1, #70
ARM GAS  /tmp/ccEPgmtk.s 			page 29


 1593              	.LVL169:
 1594              	.L134:
 1595              	.LBB358:
 1596              	.LBB359:
 1597              		.loc 1 113 0
 1598 0248 2068     		ldr	r0, [r4]
 1599 024a 0368     		ldr	r3, [r0]
 1600 024c 9B68     		ldr	r3, [r3, #8]
 1601 024e 9847     		blx	r3
 1602              	.LVL170:
 1603              		.loc 1 112 0
 1604 0250 15F8011F 		ldrb	r1, [r5, #1]!	@ zero_extendqisi2
 1605              	.LVL171:
 1606 0254 0029     		cmp	r1, #0
 1607 0256 F7D1     		bne	.L134
 1608              	.LBE359:
 1609              	.LBE358:
 1610              		.loc 1 382 0
 1611 0258 204B     		ldr	r3, .L183+84
 1612 025a 1B78     		ldrb	r3, [r3]	@ zero_extendqisi2
 1613 025c 5BB9     		cbnz	r3, .L182
 1614              		.loc 1 385 0
 1615 025e 2B48     		ldr	r0, .L183+132
 1616 0260 FFF7FEFF 		bl	test_println
 1617              	.LVL172:
 1618              		.loc 1 387 0
 1619 0264 1D4B     		ldr	r3, .L183+84
 1620 0266 1878     		ldrb	r0, [r3]	@ zero_extendqisi2
 1621              		.loc 1 388 0
 1622 0268 03B0     		add	sp, sp, #12
 1623              		.cfi_remember_state
 1624              		.cfi_def_cfa_offset 36
 1625              	.LVL173:
 1626              		@ sp needed
 1627 026a BDE8F08F 		pop	{r4, r5, r6, r7, r8, r9, r10, fp, pc}
 1628              	.LVL174:
 1629              	.L124:
 1630              		.cfi_restore_state
 1631              		.loc 1 374 0
 1632 026e 2848     		ldr	r0, .L183+136
 1633 0270 FFF7FEFF 		bl	test_println
 1634              	.LVL175:
 1635 0274 4BE7     		b	.L133
 1636              	.LVL176:
 1637              	.L182:
 1638              		.loc 1 383 0
 1639 0276 2748     		ldr	r0, .L183+140
 1640 0278 FFF7FEFF 		bl	test_println
 1641              	.LVL177:
 1642              		.loc 1 387 0
 1643 027c 174B     		ldr	r3, .L183+84
 1644 027e 1878     		ldrb	r0, [r3]	@ zero_extendqisi2
 1645              		.loc 1 388 0
 1646 0280 03B0     		add	sp, sp, #12
 1647              		.cfi_def_cfa_offset 36
 1648              	.LVL178:
 1649              		@ sp needed
ARM GAS  /tmp/ccEPgmtk.s 			page 30


 1650 0282 BDE8F08F 		pop	{r4, r5, r6, r7, r8, r9, r10, fp, pc}
 1651              	.LVL179:
 1652              	.L184:
 1653 0286 00BF     		.align	2
 1654              	.L183:
 1655 0288 00000000 		.word	.LANCHOR1
 1656 028c 04000000 		.word	.LC1
 1657 0290 E4000000 		.word	.LC14
 1658 0294 E8000000 		.word	.LC15
 1659 0298 04010000 		.word	.LC16
 1660 029c 34010000 		.word	.LC22
 1661 02a0 18000000 		.word	.LC2
 1662 02a4 40010000 		.word	.LC23
 1663 02a8 2C000000 		.word	.LC3
 1664 02ac 58010000 		.word	.LC24
 1665 02b0 40000000 		.word	.LC4
 1666 02b4 A0010000 		.word	.LC25
 1667 02b8 54000000 		.word	.LC5
 1668 02bc AC010000 		.word	.LC26
 1669 02c0 68000000 		.word	.LC6
 1670 02c4 B8010000 		.word	.LC27
 1671 02c8 7C000000 		.word	.LC7
 1672 02cc D0010000 		.word	.LC28
 1673 02d0 90000000 		.word	.LC8
 1674 02d4 00000000 		.word	.LANCHOR9
 1675 02d8 EC010000 		.word	.LC29
 1676 02dc 00000000 		.word	.LANCHOR4
 1677 02e0 A4000000 		.word	.LC9
 1678 02e4 B4000000 		.word	.LC10
 1679 02e8 08010000 		.word	.LC17
 1680 02ec 00000000 		.word	.LANCHOR2
 1681 02f0 00000000 		.word	.LANCHOR7
 1682 02f4 B8000000 		.word	.LC11
 1683 02f8 00000000 		.word	.LANCHOR5
 1684 02fc D0000000 		.word	.LC12
 1685 0300 00000000 		.word	.LANCHOR6
 1686 0304 0C010000 		.word	.LC18
 1687 0308 D4000000 		.word	.LC13
 1688 030c 2C010000 		.word	.LC21
 1689 0310 10010000 		.word	.LC19
 1690 0314 24010000 		.word	.LC20
 1691 0318 00000000 		.word	patternthd
 1692 031c 00000000 		.word	.LANCHOR3
 1693              		.cfi_endproc
 1694              	.LFE272:
 1695              		.size	TestThread, .-TestThread
 1696              		.global	test_timer_done
 1697              		.global	wa
 1698              		.global	threads
 1699              		.global	test
 1700              		.section	.bss.test,"aw",%nobits
 1701              		.align	3
 1702              		.type	test, %object
 1703              		.size	test, 2320
 1704              	test:
 1705 0000 00000000 		.space	2320
 1705      00000000 
ARM GAS  /tmp/ccEPgmtk.s 			page 31


 1705      00000000 
 1705      00000000 
 1705      00000000 
 1706              		.section	.bss.failpoint,"aw",%nobits
 1707              		.align	2
 1708              		.set	.LANCHOR5,. + 0
 1709              		.type	failpoint, %object
 1710              		.size	failpoint, 4
 1711              	failpoint:
 1712 0000 00000000 		.space	4
 1713              		.section	.bss.local_fail,"aw",%nobits
 1714              		.set	.LANCHOR3,. + 0
 1715              		.type	local_fail, %object
 1716              		.size	local_fail, 1
 1717              	local_fail:
 1718 0000 00       		.space	1
 1719              		.section	.bss.test_timer_done,"aw",%nobits
 1720              		.set	.LANCHOR0,. + 0
 1721              		.type	test_timer_done, %object
 1722              		.size	test_timer_done, 1
 1723              	test_timer_done:
 1724 0000 00       		.space	1
 1725              		.section	.rodata.wa,"a",%progbits
 1726              		.align	2
 1727              		.type	wa, %object
 1728              		.size	wa, 20
 1729              	wa:
 1730 0000 00000000 		.word	test
 1731 0004 D0010000 		.word	test+464
 1732 0008 A0030000 		.word	test+928
 1733 000c 70050000 		.word	test+1392
 1734 0010 40070000 		.word	test+1856
 1735              		.section	.bss.tokp,"aw",%nobits
 1736              		.align	2
 1737              		.set	.LANCHOR2,. + 0
 1738              		.type	tokp, %object
 1739              		.size	tokp, 4
 1740              	tokp:
 1741 0000 00000000 		.space	4
 1742              		.section	.bss.global_fail,"aw",%nobits
 1743              		.set	.LANCHOR4,. + 0
 1744              		.type	global_fail, %object
 1745              		.size	global_fail, 1
 1746              	global_fail:
 1747 0000 00       		.space	1
 1748              		.section	.rodata.str1.4,"aMS",%progbits,1
 1749              		.align	2
 1750              	.LC0:
 1751 0000 0D0A00   		.ascii	"\015\012\000"
 1752 0003 00       		.space	1
 1753              	.LC1:
 1754 0004 2A2A2A20 		.ascii	"*** Kernel:       \000"
 1754      4B65726E 
 1754      656C3A20 
 1754      20202020 
 1754      202000
 1755 0017 00       		.space	1
ARM GAS  /tmp/ccEPgmtk.s 			page 32


 1756              	.LC2:
 1757 0018 2A2A2A20 		.ascii	"*** Compiled:     \000"
 1757      436F6D70 
 1757      696C6564 
 1757      3A202020 
 1757      202000
 1758 002b 00       		.space	1
 1759              	.LC3:
 1760 002c 2A2A2A20 		.ascii	"*** Compiler:     \000"
 1760      436F6D70 
 1760      696C6572 
 1760      3A202020 
 1760      202000
 1761 003f 00       		.space	1
 1762              	.LC4:
 1763 0040 2A2A2A20 		.ascii	"*** Architecture: \000"
 1763      41726368 
 1763      69746563 
 1763      74757265 
 1763      3A2000
 1764 0053 00       		.space	1
 1765              	.LC5:
 1766 0054 2A2A2A20 		.ascii	"*** Core Variant: \000"
 1766      436F7265 
 1766      20566172 
 1766      69616E74 
 1766      3A2000
 1767 0067 00       		.space	1
 1768              	.LC6:
 1769 0068 2A2A2A20 		.ascii	"*** Port Info:    \000"
 1769      506F7274 
 1769      20496E66 
 1769      6F3A2020 
 1769      202000
 1770 007b 00       		.space	1
 1771              	.LC7:
 1772 007c 2A2A2A20 		.ascii	"*** Platform:     \000"
 1772      506C6174 
 1772      666F726D 
 1772      3A202020 
 1772      202000
 1773 008f 00       		.space	1
 1774              	.LC8:
 1775 0090 2A2A2A20 		.ascii	"*** Test Board:   \000"
 1775      54657374 
 1775      20426F61 
 1775      72643A20 
 1775      202000
 1776 00a3 00       		.space	1
 1777              	.LC9:
 1778 00a4 2D2D2D20 		.ascii	"--- Test Case \000"
 1778      54657374 
 1778      20436173 
 1778      652000
 1779 00b3 00       		.space	1
 1780              	.LC10:
 1781 00b4 202800   		.ascii	" (\000"
ARM GAS  /tmp/ccEPgmtk.s 			page 33


 1782 00b7 00       		.space	1
 1783              	.LC11:
 1784 00b8 2D2D2D20 		.ascii	"--- Result: FAILURE (#\000"
 1784      52657375 
 1784      6C743A20 
 1784      4641494C 
 1784      55524520 
 1785 00cf 00       		.space	1
 1786              	.LC12:
 1787 00d0 205B00   		.ascii	" [\000"
 1788 00d3 00       		.space	1
 1789              	.LC13:
 1790 00d4 46696E61 		.ascii	"Final result: \000"
 1790      6C207265 
 1790      73756C74 
 1790      3A2000
 1791 00e3 00       		.space	1
 1792              	.LC14:
 1793 00e4 00       		.ascii	"\000"
 1794 00e5 000000   		.space	3
 1795              	.LC15:
 1796 00e8 2A2A2A20 		.ascii	"*** ChibiOS/RT test suite\000"
 1796      43686962 
 1796      694F532F 
 1796      52542074 
 1796      65737420 
 1797 0102 0000     		.space	2
 1798              	.LC16:
 1799 0104 2A2A2A00 		.ascii	"***\000"
 1800              	.LC17:
 1801 0108 2900     		.ascii	")\000"
 1802 010a 0000     		.space	2
 1803              	.LC18:
 1804 010c 5D2900   		.ascii	"])\000"
 1805 010f 00       		.space	1
 1806              	.LC19:
 1807 0110 2D2D2D20 		.ascii	"--- Result: SUCCESS\000"
 1807      52657375 
 1807      6C743A20 
 1807      53554343 
 1807      45535300 
 1808              	.LC20:
 1809 0124 4641494C 		.ascii	"FAILURE\000"
 1809      55524500 
 1810              	.LC21:
 1811 012c 53554343 		.ascii	"SUCCESS\000"
 1811      45535300 
 1812              	.LC22:
 1813 0134 332E302E 		.ascii	"3.0.0dev\000"
 1813      30646576 
 1813      00
 1814 013d 000000   		.space	3
 1815              	.LC23:
 1816 0140 4D617920 		.ascii	"May  4 2015 - 14:03:24\000"
 1816      20342032 
 1816      30313520 
 1816      2D203134 
ARM GAS  /tmp/ccEPgmtk.s 			page 34


 1816      3A30333A 
 1817 0157 00       		.space	1
 1818              	.LC24:
 1819 0158 47434320 		.ascii	"GCC 4.9.3 20141119 (release) [ARM/embedded-4_9-bran"
 1819      342E392E 
 1819      33203230 
 1819      31343131 
 1819      31392028 
 1820 018b 63682072 		.ascii	"ch revision 218278]\000"
 1820      65766973 
 1820      696F6E20 
 1820      32313832 
 1820      37385D00 
 1821 019f 00       		.space	1
 1822              	.LC25:
 1823 01a0 41524D76 		.ascii	"ARMv7-ME\000"
 1823      372D4D45 
 1823      00
 1824 01a9 000000   		.space	3
 1825              	.LC26:
 1826 01ac 436F7274 		.ascii	"Cortex-M4F\000"
 1826      65782D4D 
 1826      344600
 1827 01b7 00       		.space	1
 1828              	.LC27:
 1829 01b8 41647661 		.ascii	"Advanced kernel mode\000"
 1829      6E636564 
 1829      206B6572 
 1829      6E656C20 
 1829      6D6F6465 
 1830 01cd 000000   		.space	3
 1831              	.LC28:
 1832 01d0 53544D33 		.ascii	"STM32F303xC Analog & DSP\000"
 1832      32463330 
 1832      33784320 
 1832      416E616C 
 1832      6F672026 
 1833 01e9 000000   		.space	3
 1834              	.LC29:
 1835 01ec 53544D69 		.ascii	"STMicroelectronics STM32F3-Discovery\000"
 1835      63726F65 
 1835      6C656374 
 1835      726F6E69 
 1835      63732053 
 1836 0211 000000   		.section	.bss.vt,"aw",%nobits
 1837              		.align	2
 1838              		.set	.LANCHOR8,. + 0
 1839              		.type	vt, %object
 1840              		.size	vt, 20
 1841              	vt:
 1842 0000 00000000 		.space	20
 1842      00000000 
 1842      00000000 
 1842      00000000 
 1842      00000000 
 1843              		.section	.bss.threads,"aw",%nobits
 1844              		.align	2
ARM GAS  /tmp/ccEPgmtk.s 			page 35


 1845              		.set	.LANCHOR7,. + 0
 1846              		.type	threads, %object
 1847              		.size	threads, 20
 1848              	threads:
 1849 0000 00000000 		.space	20
 1849      00000000 
 1849      00000000 
 1849      00000000 
 1849      00000000 
 1850              		.section	.rodata.patterns,"a",%progbits
 1851              		.align	2
 1852              		.set	.LANCHOR9,. + 0
 1853              		.type	patterns, %object
 1854              		.size	patterns, 48
 1855              	patterns:
 1856 0000 00000000 		.word	patternthd
 1857 0004 00000000 		.word	patternsem
 1858 0008 00000000 		.word	patternmtx
 1859 000c 00000000 		.word	patternmsg
 1860 0010 00000000 		.word	patternmbox
 1861 0014 00000000 		.word	patternevt
 1862 0018 00000000 		.word	patternheap
 1863 001c 00000000 		.word	patternpools
 1864 0020 00000000 		.word	patterndyn
 1865 0024 00000000 		.word	patternqueues
 1866 0028 00000000 		.word	patternbmk
 1867 002c 00000000 		.word	0
 1868              		.section	.bss.chp,"aw",%nobits
 1869              		.align	2
 1870              		.set	.LANCHOR1,. + 0
 1871              		.type	chp, %object
 1872              		.size	chp, 4
 1873              	chp:
 1874 0000 00000000 		.space	4
 1875              		.section	.bss.tokens_buffer,"aw",%nobits
 1876              		.align	2
 1877              		.set	.LANCHOR6,. + 0
 1878              		.type	tokens_buffer, %object
 1879              		.size	tokens_buffer, 16
 1880              	tokens_buffer:
 1881 0000 00000000 		.space	16
 1881      00000000 
 1881      00000000 
 1881      00000000 
 1882              		.text
 1883              	.Letext0:
 1884              		.file 5 "/l/arm2/gcc-arm-none-eabi-4_9-2014q4/lib/gcc/arm-none-eabi/4.9.3/include/stddef.h"
 1885              		.file 6 "/l/arm2/gcc-arm-none-eabi-4_9-2014q4/arm-none-eabi/include/machine/_default_types.h"
 1886              		.file 7 "/l/arm2/gcc-arm-none-eabi-4_9-2014q4/arm-none-eabi/include/stdint.h"
 1887              		.file 8 "../ChibiOS/os/rt/ports/ARMCMx/compilers/GCC/chtypes.h"
 1888              		.file 9 "../ChibiOS/os/rt/include/chsystypes.h"
 1889              		.file 10 "../ChibiOS/os/rt/include/chschd.h"
 1890              		.file 11 "../ChibiOS/os/rt/ports/ARMCMx/chcore.h"
 1891              		.file 12 "../ChibiOS/os/rt/ports/ARMCMx/chcore_v7m.h"
 1892              		.file 13 "../ChibiOS/os/hal/ports/STM32/LLD/TIMv1/stm32_tim.h"
 1893              		.file 14 "../ChibiOS/os/rt/include/chtm.h"
 1894              		.file 15 "../ChibiOS/os/rt/include/chmtx.h"
ARM GAS  /tmp/ccEPgmtk.s 			page 36


 1895              		.file 16 "../ChibiOS/os/rt/include/chstreams.h"
 1896              		.file 17 "../ChibiOS/test/rt/test.h"
 1897              		.file 18 "../ChibiOS/os/rt/ports/ARMCMx/chcore_timer.h"
 1898              		.file 19 "../ChibiOS/os/rt/include/chsys.h"
 1899              		.file 20 "../ChibiOS/os/ext/CMSIS/include/core_cm4.h"
 1900              		.file 21 "../ChibiOS/test/rt/testthd.h"
 1901              		.file 22 "../ChibiOS/test/rt/testsem.h"
 1902              		.file 23 "../ChibiOS/test/rt/testmtx.h"
 1903              		.file 24 "../ChibiOS/test/rt/testmsg.h"
 1904              		.file 25 "../ChibiOS/test/rt/testmbox.h"
 1905              		.file 26 "../ChibiOS/test/rt/testevt.h"
 1906              		.file 27 "../ChibiOS/test/rt/testheap.h"
 1907              		.file 28 "../ChibiOS/test/rt/testpools.h"
 1908              		.file 29 "../ChibiOS/test/rt/testdyn.h"
 1909              		.file 30 "../ChibiOS/test/rt/testqueues.h"
 1910              		.file 31 "../ChibiOS/test/rt/testbmk.h"
 1911              		.file 32 "../ChibiOS/os/rt/include/chthreads.h"