ARM GAS  /tmp/ccumQxt6.s 			page 1


   1              		.syntax unified
   2              		.cpu cortex-m4
   3              		.eabi_attribute 27, 3
   4              		.eabi_attribute 28, 1
   5              		.fpu fpv4-sp-d16
   6              		.eabi_attribute 20, 1
   7              		.eabi_attribute 21, 1
   8              		.eabi_attribute 23, 3
   9              		.eabi_attribute 24, 1
  10              		.eabi_attribute 25, 1
  11              		.eabi_attribute 26, 1
  12              		.eabi_attribute 30, 2
  13              		.eabi_attribute 34, 1
  14              		.eabi_attribute 18, 4
  15              		.thumb
  16              		.file	"testmsg.c"
  17              		.text
  18              	.Ltext0:
  19              		.cfi_sections	.debug_frame
  20              		.section	.text.msg1_execute,"ax",%progbits
  21              		.align	2
  22              		.p2align 4,,15
  23              		.thumb
  24              		.thumb_func
  25              		.type	msg1_execute, %function
  26              	msg1_execute:
  27              	.LFB227:
  28              		.file 1 "../ChibiOS/test/rt/testmsg.c"
  29              		.loc 1 67 0
  30              		.cfi_startproc
  31              		@ args = 0, pretend = 0, frame = 0
  32              		@ frame_needed = 0, uses_anonymous_args = 0
  33 0000 10B5     		push	{r4, lr}
  34              		.cfi_def_cfa_offset 8
  35              		.cfi_offset 4, -8
  36              		.cfi_offset 14, -4
  37              	.LBB16:
  38              	.LBB17:
  39              	.LBB18:
  40              	.LBB19:
  41              		.file 2 "../ChibiOS/os/rt/include/chthreads.h"
  42              		.loc 2 179 0
  43 0002 184A     		ldr	r2, .L3
  44              	.LBE19:
  45              	.LBE18:
  46              	.LBE17:
  47              	.LBE16:
  48              		.loc 1 74 0
  49 0004 184B     		ldr	r3, .L3+4
  50              	.LBB23:
  51              	.LBB22:
  52              	.LBB21:
  53              	.LBB20:
  54              		.loc 2 179 0
  55 0006 9169     		ldr	r1, [r2, #24]
  56              	.LBE20:
  57              	.LBE21:
ARM GAS  /tmp/ccumQxt6.s 			page 2


  58              	.LBE22:
  59              	.LBE23:
  60              		.loc 1 74 0
  61 0008 1868     		ldr	r0, [r3]
  62 000a 8A68     		ldr	r2, [r1, #8]
  63 000c 174B     		ldr	r3, .L3+8
  64              		.loc 1 67 0
  65 000e 82B0     		sub	sp, sp, #8
  66              		.cfi_def_cfa_offset 16
  67              		.loc 1 74 0
  68 0010 0132     		adds	r2, r2, #1
  69 0012 0091     		str	r1, [sp]
  70 0014 4FF4E871 		mov	r1, #464
  71 0018 FFF7FEFF 		bl	chThdCreateStatic
  72              	.LVL0:
  73 001c 144B     		ldr	r3, .L3+12
  74 001e 1860     		str	r0, [r3]
  75              		.loc 1 76 0
  76 0020 FFF7FEFF 		bl	chMsgWait
  77              	.LVL1:
  78 0024 046B     		ldr	r4, [r0, #48]
  79              	.LVL2:
  80              		.loc 1 78 0
  81 0026 2146     		mov	r1, r4
  82 0028 FFF7FEFF 		bl	chMsgRelease
  83              	.LVL3:
  84              		.loc 1 79 0
  85 002c E0B2     		uxtb	r0, r4
  86 002e FFF7FEFF 		bl	test_emit_token
  87              	.LVL4:
  88              		.loc 1 80 0
  89 0032 FFF7FEFF 		bl	chMsgWait
  90              	.LVL5:
  91 0036 046B     		ldr	r4, [r0, #48]
  92              	.LVL6:
  93              		.loc 1 82 0
  94 0038 2146     		mov	r1, r4
  95 003a FFF7FEFF 		bl	chMsgRelease
  96              	.LVL7:
  97              		.loc 1 83 0
  98 003e E0B2     		uxtb	r0, r4
  99 0040 FFF7FEFF 		bl	test_emit_token
 100              	.LVL8:
 101              		.loc 1 84 0
 102 0044 FFF7FEFF 		bl	chMsgWait
 103              	.LVL9:
 104 0048 046B     		ldr	r4, [r0, #48]
 105              	.LVL10:
 106              		.loc 1 86 0
 107 004a 2146     		mov	r1, r4
 108 004c FFF7FEFF 		bl	chMsgRelease
 109              	.LVL11:
 110              		.loc 1 87 0
 111 0050 E0B2     		uxtb	r0, r4
 112 0052 FFF7FEFF 		bl	test_emit_token
 113              	.LVL12:
 114              		.loc 1 88 0
ARM GAS  /tmp/ccumQxt6.s 			page 3


 115 0056 0749     		ldr	r1, .L3+16
 116 0058 0120     		movs	r0, #1
 117              		.loc 1 89 0
 118 005a 02B0     		add	sp, sp, #8
 119              		.cfi_def_cfa_offset 8
 120              		@ sp needed
 121 005c BDE81040 		pop	{r4, lr}
 122              		.cfi_restore 14
 123              		.cfi_restore 4
 124              		.cfi_def_cfa_offset 0
 125              		.loc 1 88 0
 126 0060 FFF7FEBF 		b	_test_assert_sequence
 127              	.LVL13:
 128              	.L4:
 129              		.align	2
 130              	.L3:
 131 0064 00000000 		.word	ch
 132 0068 00000000 		.word	wa
 133 006c 00000000 		.word	thread
 134 0070 00000000 		.word	threads
 135 0074 00000000 		.word	.LC0
 136              		.cfi_endproc
 137              	.LFE227:
 138              		.size	msg1_execute, .-msg1_execute
 139 0078 AFF30080 		.section	.text.thread,"ax",%progbits
 139      AFF30080 
 140              		.align	2
 141              		.p2align 4,,15
 142              		.thumb
 143              		.thumb_func
 144              		.type	thread, %function
 145              	thread:
 146              	.LFB226:
 147              		.loc 1 59 0
 148              		.cfi_startproc
 149              		@ args = 0, pretend = 0, frame = 0
 150              		@ frame_needed = 0, uses_anonymous_args = 0
 151              	.LVL14:
 152 0000 10B5     		push	{r4, lr}
 153              		.cfi_def_cfa_offset 8
 154              		.cfi_offset 4, -8
 155              		.cfi_offset 14, -4
 156              		.loc 1 61 0
 157 0002 4121     		movs	r1, #65
 158              		.loc 1 59 0
 159 0004 0446     		mov	r4, r0
 160              		.loc 1 61 0
 161 0006 FFF7FEFF 		bl	chMsgSend
 162              	.LVL15:
 163              		.loc 1 62 0
 164 000a 2046     		mov	r0, r4
 165 000c 4221     		movs	r1, #66
 166 000e FFF7FEFF 		bl	chMsgSend
 167              	.LVL16:
 168              		.loc 1 63 0
 169 0012 2046     		mov	r0, r4
 170 0014 4321     		movs	r1, #67
ARM GAS  /tmp/ccumQxt6.s 			page 4


 171 0016 FFF7FEFF 		bl	chMsgSend
 172              	.LVL17:
 173              		.loc 1 65 0
 174 001a 0020     		movs	r0, #0
 175 001c 10BD     		pop	{r4, pc}
 176              		.cfi_endproc
 177              	.LFE226:
 178              		.size	thread, .-thread
 179              		.global	patternmsg
 180              		.global	testmsg1
 181 001e 00BF     		.section	.rodata.testmsg1,"a",%progbits
 182              		.align	2
 183              		.type	testmsg1, %object
 184              		.size	testmsg1, 16
 185              	testmsg1:
 186 0000 04000000 		.word	.LC1
 187 0004 00000000 		.word	0
 188 0008 00000000 		.word	0
 189 000c 00000000 		.word	msg1_execute
 190              		.section	.rodata.str1.4,"aMS",%progbits,1
 191              		.align	2
 192              	.LC0:
 193 0000 41424300 		.ascii	"ABC\000"
 194              	.LC1:
 195 0004 4D657373 		.ascii	"Messages, loop\000"
 195      61676573 
 195      2C206C6F 
 195      6F7000
 196 0013 00       		.section	.rodata.patternmsg,"a",%progbits
 197              		.align	2
 198              		.type	patternmsg, %object
 199              		.size	patternmsg, 8
 200              	patternmsg:
 201 0000 00000000 		.word	testmsg1
 202 0004 00000000 		.word	0
 203              		.text
 204              	.Letext0:
 205              		.file 3 "/l/arm2/gcc-arm-none-eabi-4_9-2014q4/lib/gcc/arm-none-eabi/4.9.3/include/stddef.h"
 206              		.file 4 "/l/arm2/gcc-arm-none-eabi-4_9-2014q4/arm-none-eabi/include/machine/_default_types.h"
 207              		.file 5 "/l/arm2/gcc-arm-none-eabi-4_9-2014q4/arm-none-eabi/include/stdint.h"
 208              		.file 6 "../ChibiOS/os/rt/ports/ARMCMx/compilers/GCC/chtypes.h"
 209              		.file 7 "../ChibiOS/os/rt/include/chsystypes.h"
 210              		.file 8 "../ChibiOS/os/rt/include/chschd.h"
 211              		.file 9 "../ChibiOS/os/rt/ports/ARMCMx/chcore.h"
 212              		.file 10 "../ChibiOS/os/rt/ports/ARMCMx/chcore_v7m.h"
 213              		.file 11 "../ChibiOS/os/rt/include/chtm.h"
 214              		.file 12 "../ChibiOS/os/rt/include/chmtx.h"
 215              		.file 13 "../ChibiOS/test/rt/test.h"
 216              		.file 14 "../ChibiOS/os/ext/CMSIS/include/core_cm4.h"
 217              		.file 15 "../ChibiOS/os/rt/include/chmsg.h"