ARM GAS  /tmp/ccdgia3Q.s 			page 1


   1              		.syntax unified
   2              		.cpu cortex-m4
   3              		.eabi_attribute 27, 3
   4              		.eabi_attribute 28, 1
   5              		.fpu fpv4-sp-d16
   6              		.eabi_attribute 20, 1
   7              		.eabi_attribute 21, 1
   8              		.eabi_attribute 23, 3
   9              		.eabi_attribute 24, 1
  10              		.eabi_attribute 25, 1
  11              		.eabi_attribute 26, 1
  12              		.eabi_attribute 30, 2
  13              		.eabi_attribute 34, 1
  14              		.eabi_attribute 18, 4
  15              		.thumb
  16              		.file	"testmtx.c"
  17              		.text
  18              	.Ltext0:
  19              		.cfi_sections	.debug_frame
  20              		.section	.text.mtx1_execute,"ax",%progbits
  21              		.align	2
  22              		.p2align 4,,15
  23              		.thumb
  24              		.thumb_func
  25              		.type	mtx1_execute, %function
  26              	mtx1_execute:
  27              	.LFB228:
  28              		.file 1 "../ChibiOS/test/rt/testmtx.c"
  29              		.loc 1 97 0
  30              		.cfi_startproc
  31              		@ args = 0, pretend = 0, frame = 0
  32              		@ frame_needed = 0, uses_anonymous_args = 0
  33 0000 F0B5     		push	{r4, r5, r6, r7, lr}
  34              		.cfi_def_cfa_offset 20
  35              		.cfi_offset 4, -20
  36              		.cfi_offset 5, -16
  37              		.cfi_offset 6, -12
  38              		.cfi_offset 7, -8
  39              		.cfi_offset 14, -4
  40              	.LBB138:
  41              	.LBB139:
  42              	.LBB140:
  43              	.LBB141:
  44              		.file 2 "../ChibiOS/os/rt/include/chthreads.h"
  45              		.loc 2 179 0
  46 0002 2B4F     		ldr	r7, .L6
  47              	.LBE141:
  48              	.LBE140:
  49              	.LBE139:
  50              	.LBE138:
  51              		.loc 1 101 0
  52 0004 2B4E     		ldr	r6, .L6+4
  53              	.LBB144:
  54              	.LBB142:
  55              		.loc 2 192 0
  56 0006 BB69     		ldr	r3, [r7, #24]
  57              	.LBE142:
ARM GAS  /tmp/ccdgia3Q.s 			page 2


  58              	.LBE144:
  59              		.loc 1 100 0
  60 0008 2B48     		ldr	r0, .L6+8
  61              	.LBB145:
  62              	.LBB143:
  63              		.loc 2 192 0
  64 000a 9C68     		ldr	r4, [r3, #8]
  65              	.LBE143:
  66              	.LBE145:
  67              		.loc 1 101 0
  68 000c 2B4D     		ldr	r5, .L6+12
  69              		.loc 1 97 0
  70 000e 83B0     		sub	sp, sp, #12
  71              		.cfi_def_cfa_offset 32
  72              		.loc 1 100 0
  73 0010 FFF7FEFF 		bl	chMtxLock
  74              	.LVL0:
  75              		.loc 1 101 0
  76 0014 2A4B     		ldr	r3, .L6+16
  77 0016 0093     		str	r3, [sp]
  78 0018 621C     		adds	r2, r4, #1
  79 001a 4FF4E871 		mov	r1, #464
  80 001e 294B     		ldr	r3, .L6+20
  81 0020 3068     		ldr	r0, [r6]
  82 0022 FFF7FEFF 		bl	chThdCreateStatic
  83              	.LVL1:
  84              		.loc 1 102 0
  85 0026 7168     		ldr	r1, [r6, #4]
  86 0028 274B     		ldr	r3, .L6+24
  87              		.loc 1 101 0
  88 002a 2860     		str	r0, [r5]
  89              		.loc 1 102 0
  90 002c A21C     		adds	r2, r4, #2
  91 002e 0846     		mov	r0, r1
  92 0030 0093     		str	r3, [sp]
  93 0032 4FF4E871 		mov	r1, #464
  94 0036 234B     		ldr	r3, .L6+20
  95 0038 FFF7FEFF 		bl	chThdCreateStatic
  96              	.LVL2:
  97              		.loc 1 103 0
  98 003c B168     		ldr	r1, [r6, #8]
  99 003e 234B     		ldr	r3, .L6+28
 100              		.loc 1 102 0
 101 0040 6860     		str	r0, [r5, #4]
 102              		.loc 1 103 0
 103 0042 E21C     		adds	r2, r4, #3
 104 0044 0846     		mov	r0, r1
 105 0046 0093     		str	r3, [sp]
 106 0048 4FF4E871 		mov	r1, #464
 107 004c 1D4B     		ldr	r3, .L6+20
 108 004e FFF7FEFF 		bl	chThdCreateStatic
 109              	.LVL3:
 110              		.loc 1 104 0
 111 0052 F168     		ldr	r1, [r6, #12]
 112 0054 1E4B     		ldr	r3, .L6+32
 113              		.loc 1 103 0
 114 0056 A860     		str	r0, [r5, #8]
ARM GAS  /tmp/ccdgia3Q.s 			page 3


 115              		.loc 1 104 0
 116 0058 221D     		adds	r2, r4, #4
 117 005a 0846     		mov	r0, r1
 118 005c 0093     		str	r3, [sp]
 119 005e 4FF4E871 		mov	r1, #464
 120 0062 184B     		ldr	r3, .L6+20
 121 0064 FFF7FEFF 		bl	chThdCreateStatic
 122              	.LVL4:
 123              		.loc 1 105 0
 124 0068 3169     		ldr	r1, [r6, #16]
 125 006a 1A4B     		ldr	r3, .L6+36
 126              		.loc 1 104 0
 127 006c E860     		str	r0, [r5, #12]
 128              		.loc 1 105 0
 129 006e 621D     		adds	r2, r4, #5
 130 0070 0846     		mov	r0, r1
 131 0072 0093     		str	r3, [sp]
 132 0074 4FF4E871 		mov	r1, #464
 133 0078 124B     		ldr	r3, .L6+20
 134 007a FFF7FEFF 		bl	chThdCreateStatic
 135              	.LVL5:
 136 007e 2861     		str	r0, [r5, #16]
 137              		.loc 1 106 0
 138 0080 0D48     		ldr	r0, .L6+8
 139 0082 FFF7FEFF 		bl	chMtxUnlock
 140              	.LVL6:
 141              		.loc 1 107 0
 142 0086 FFF7FEFF 		bl	test_wait_threads
 143              	.LVL7:
 144              	.LBB146:
 145              	.LBB147:
 146              		.loc 2 192 0
 147 008a BB69     		ldr	r3, [r7, #24]
 148              	.LBE147:
 149              	.LBE146:
 150              		.loc 1 108 0
 151 008c 9968     		ldr	r1, [r3, #8]
 152 008e 0120     		movs	r0, #1
 153 0090 611A     		subs	r1, r4, r1
 154 0092 B1FA81F1 		clz	r1, r1
 155 0096 4909     		lsrs	r1, r1, #5
 156 0098 FFF7FEFF 		bl	_test_assert
 157              	.LVL8:
 158 009c 08B1     		cbz	r0, .L5
 159              		.loc 1 110 0
 160 009e 03B0     		add	sp, sp, #12
 161              		.cfi_remember_state
 162              		.cfi_def_cfa_offset 20
 163              		@ sp needed
 164 00a0 F0BD     		pop	{r4, r5, r6, r7, pc}
 165              	.L5:
 166              		.cfi_restore_state
 167              		.loc 1 109 0
 168 00a2 0D49     		ldr	r1, .L6+40
 169 00a4 0220     		movs	r0, #2
 170              		.loc 1 110 0
 171 00a6 03B0     		add	sp, sp, #12
ARM GAS  /tmp/ccdgia3Q.s 			page 4


 172              		.cfi_def_cfa_offset 20
 173              		@ sp needed
 174 00a8 BDE8F040 		pop	{r4, r5, r6, r7, lr}
 175              		.cfi_restore 14
 176              		.cfi_restore 7
 177              		.cfi_restore 6
 178              		.cfi_restore 5
 179              		.cfi_restore 4
 180              		.cfi_def_cfa_offset 0
 181              		.loc 1 109 0
 182 00ac FFF7FEBF 		b	_test_assert_sequence
 183              	.LVL9:
 184              	.L7:
 185              		.align	2
 186              	.L6:
 187 00b0 00000000 		.word	ch
 188 00b4 00000000 		.word	wa
 189 00b8 00000000 		.word	.LANCHOR0
 190 00bc 00000000 		.word	threads
 191 00c0 00000000 		.word	.LC0
 192 00c4 00000000 		.word	thread1
 193 00c8 04000000 		.word	.LC1
 194 00cc 08000000 		.word	.LC2
 195 00d0 0C000000 		.word	.LC3
 196 00d4 10000000 		.word	.LC4
 197 00d8 14000000 		.word	.LC5
 198              		.cfi_endproc
 199              	.LFE228:
 200              		.size	mtx1_execute, .-mtx1_execute
 201 00dc AFF30080 		.section	.text.thread1,"ax",%progbits
 202              		.align	2
 203              		.p2align 4,,15
 204              		.thumb
 205              		.thumb_func
 206              		.type	thread1, %function
 207              	thread1:
 208              	.LFB227:
 209              		.loc 1 89 0
 210              		.cfi_startproc
 211              		@ args = 0, pretend = 0, frame = 0
 212              		@ frame_needed = 0, uses_anonymous_args = 0
 213              	.LVL10:
 214 0000 38B5     		push	{r3, r4, r5, lr}
 215              		.cfi_def_cfa_offset 16
 216              		.cfi_offset 3, -16
 217              		.cfi_offset 4, -12
 218              		.cfi_offset 5, -8
 219              		.cfi_offset 14, -4
 220              		.loc 1 91 0
 221 0002 064C     		ldr	r4, .L10
 222              		.loc 1 89 0
 223 0004 0546     		mov	r5, r0
 224              		.loc 1 91 0
 225 0006 2046     		mov	r0, r4
 226              	.LVL11:
 227 0008 FFF7FEFF 		bl	chMtxLock
 228              	.LVL12:
ARM GAS  /tmp/ccdgia3Q.s 			page 5


 229              		.loc 1 92 0
 230 000c 2878     		ldrb	r0, [r5]	@ zero_extendqisi2
 231 000e FFF7FEFF 		bl	test_emit_token
 232              	.LVL13:
 233              		.loc 1 93 0
 234 0012 2046     		mov	r0, r4
 235 0014 FFF7FEFF 		bl	chMtxUnlock
 236              	.LVL14:
 237              		.loc 1 95 0
 238 0018 0020     		movs	r0, #0
 239 001a 38BD     		pop	{r3, r4, r5, pc}
 240              	.LVL15:
 241              	.L11:
 242              		.align	2
 243              	.L10:
 244 001c 00000000 		.word	.LANCHOR0
 245              		.cfi_endproc
 246              	.LFE227:
 247              		.size	thread1, .-thread1
 248              		.section	.text.thread12,"ax",%progbits
 249              		.align	2
 250              		.p2align 4,,15
 251              		.thumb
 252              		.thumb_func
 253              		.type	thread12, %function
 254              	thread12:
 255              	.LFB242:
 256              		.loc 1 589 0
 257              		.cfi_startproc
 258              		@ args = 0, pretend = 0, frame = 0
 259              		@ frame_needed = 0, uses_anonymous_args = 0
 260              	.LVL16:
 261 0000 38B5     		push	{r3, r4, r5, lr}
 262              		.cfi_def_cfa_offset 16
 263              		.cfi_offset 3, -16
 264              		.cfi_offset 4, -12
 265              		.cfi_offset 5, -8
 266              		.cfi_offset 14, -4
 267              		.loc 1 591 0
 268 0002 064C     		ldr	r4, .L14
 269              		.loc 1 589 0
 270 0004 0546     		mov	r5, r0
 271              		.loc 1 591 0
 272 0006 2046     		mov	r0, r4
 273              	.LVL17:
 274 0008 FFF7FEFF 		bl	chMtxLock
 275              	.LVL18:
 276              		.loc 1 592 0
 277 000c 2878     		ldrb	r0, [r5]	@ zero_extendqisi2
 278 000e FFF7FEFF 		bl	test_emit_token
 279              	.LVL19:
 280              		.loc 1 593 0
 281 0012 2046     		mov	r0, r4
 282 0014 FFF7FEFF 		bl	chMtxUnlock
 283              	.LVL20:
 284              		.loc 1 595 0
 285 0018 0020     		movs	r0, #0
ARM GAS  /tmp/ccdgia3Q.s 			page 6


 286 001a 38BD     		pop	{r3, r4, r5, pc}
 287              	.LVL21:
 288              	.L15:
 289              		.align	2
 290              	.L14:
 291 001c 00000000 		.word	.LANCHOR1
 292              		.cfi_endproc
 293              	.LFE242:
 294              		.size	thread12, .-thread12
 295              		.section	.text.mtx1_setup,"ax",%progbits
 296              		.align	2
 297              		.p2align 4,,15
 298              		.thumb
 299              		.thumb_func
 300              		.type	mtx1_setup, %function
 301              	mtx1_setup:
 302              	.LFB226:
 303              		.loc 1 84 0
 304              		.cfi_startproc
 305              		@ args = 0, pretend = 0, frame = 0
 306              		@ frame_needed = 0, uses_anonymous_args = 0
 307              		@ link register save eliminated.
 308              		.loc 1 86 0
 309 0000 0148     		ldr	r0, .L17
 310 0002 FFF7FEBF 		b	chMtxObjectInit
 311              	.LVL22:
 312              	.L18:
 313 0006 00BF     		.align	2
 314              	.L17:
 315 0008 00000000 		.word	.LANCHOR0
 316              		.cfi_endproc
 317              	.LFE226:
 318              		.size	mtx1_setup, .-mtx1_setup
 319 000c AFF30080 		.section	.text.mtx4_setup,"ax",%progbits
 320              		.align	2
 321              		.p2align 4,,15
 322              		.thumb
 323              		.thumb_func
 324              		.type	mtx4_setup, %function
 325              	mtx4_setup:
 326              	.LFB229:
 327              		.loc 1 341 0
 328              		.cfi_startproc
 329              		@ args = 0, pretend = 0, frame = 0
 330              		@ frame_needed = 0, uses_anonymous_args = 0
 331 0000 08B5     		push	{r3, lr}
 332              		.cfi_def_cfa_offset 8
 333              		.cfi_offset 3, -8
 334              		.cfi_offset 14, -4
 335              		.loc 1 343 0
 336 0002 0448     		ldr	r0, .L21
 337 0004 FFF7FEFF 		bl	chMtxObjectInit
 338              	.LVL23:
 339              		.loc 1 344 0
 340 0008 0348     		ldr	r0, .L21+4
 341              		.loc 1 345 0
 342 000a BDE80840 		pop	{r3, lr}
ARM GAS  /tmp/ccdgia3Q.s 			page 7


 343              		.cfi_restore 14
 344              		.cfi_restore 3
 345              		.cfi_def_cfa_offset 0
 346              		.loc 1 344 0
 347 000e FFF7FEBF 		b	chMtxObjectInit
 348              	.LVL24:
 349              	.L22:
 350 0012 00BF     		.align	2
 351              	.L21:
 352 0014 00000000 		.word	.LANCHOR0
 353 0018 00000000 		.word	.LANCHOR1
 354              		.cfi_endproc
 355              	.LFE229:
 356              		.size	mtx4_setup, .-mtx4_setup
 357 001c AFF30080 		.section	.text.mtx5_setup,"ax",%progbits
 358              		.align	2
 359              		.p2align 4,,15
 360              		.thumb
 361              		.thumb_func
 362              		.type	mtx5_setup, %function
 363              	mtx5_setup:
 364              	.LFB233:
 365              		.loc 1 429 0
 366              		.cfi_startproc
 367              		@ args = 0, pretend = 0, frame = 0
 368              		@ frame_needed = 0, uses_anonymous_args = 0
 369              		@ link register save eliminated.
 370              		.loc 1 431 0
 371 0000 0148     		ldr	r0, .L24
 372 0002 FFF7FEBF 		b	chMtxObjectInit
 373              	.LVL25:
 374              	.L25:
 375 0006 00BF     		.align	2
 376              	.L24:
 377 0008 00000000 		.word	.LANCHOR0
 378              		.cfi_endproc
 379              	.LFE233:
 380              		.size	mtx5_setup, .-mtx5_setup
 381 000c AFF30080 		.section	.text.thread4b,"ax",%progbits
 382              		.align	2
 383              		.p2align 4,,15
 384              		.thumb
 385              		.thumb_func
 386              		.type	thread4b, %function
 387              	thread4b:
 388              	.LFB231:
 389              		.loc 1 356 0
 390              		.cfi_startproc
 391              		@ args = 0, pretend = 0, frame = 0
 392              		@ frame_needed = 0, uses_anonymous_args = 0
 393              	.LVL26:
 394 0000 10B5     		push	{r4, lr}
 395              		.cfi_def_cfa_offset 8
 396              		.cfi_offset 4, -8
 397              		.cfi_offset 14, -4
 398              		.loc 1 360 0
 399 0002 064C     		ldr	r4, .L28
ARM GAS  /tmp/ccdgia3Q.s 			page 8


 400              		.loc 1 359 0
 401 0004 40F2DC50 		movw	r0, #1500
 402              	.LVL27:
 403 0008 FFF7FEFF 		bl	chThdSleep
 404              	.LVL28:
 405              		.loc 1 360 0
 406 000c 2046     		mov	r0, r4
 407 000e FFF7FEFF 		bl	chMtxLock
 408              	.LVL29:
 409              		.loc 1 361 0
 410 0012 2046     		mov	r0, r4
 411 0014 FFF7FEFF 		bl	chMtxUnlock
 412              	.LVL30:
 413              		.loc 1 363 0
 414 0018 0020     		movs	r0, #0
 415 001a 10BD     		pop	{r4, pc}
 416              	.L29:
 417              		.align	2
 418              	.L28:
 419 001c 00000000 		.word	.LANCHOR0
 420              		.cfi_endproc
 421              	.LFE231:
 422              		.size	thread4b, .-thread4b
 423              		.section	.text.thread4a,"ax",%progbits
 424              		.align	2
 425              		.p2align 4,,15
 426              		.thumb
 427              		.thumb_func
 428              		.type	thread4a, %function
 429              	thread4a:
 430              	.LFB230:
 431              		.loc 1 347 0
 432              		.cfi_startproc
 433              		@ args = 0, pretend = 0, frame = 0
 434              		@ frame_needed = 0, uses_anonymous_args = 0
 435              	.LVL31:
 436 0000 10B5     		push	{r4, lr}
 437              		.cfi_def_cfa_offset 8
 438              		.cfi_offset 4, -8
 439              		.cfi_offset 14, -4
 440              		.loc 1 351 0
 441 0002 064C     		ldr	r4, .L32
 442              		.loc 1 350 0
 443 0004 4FF4FA70 		mov	r0, #500
 444              	.LVL32:
 445 0008 FFF7FEFF 		bl	chThdSleep
 446              	.LVL33:
 447              		.loc 1 351 0
 448 000c 2046     		mov	r0, r4
 449 000e FFF7FEFF 		bl	chMtxLock
 450              	.LVL34:
 451              		.loc 1 352 0
 452 0012 2046     		mov	r0, r4
 453 0014 FFF7FEFF 		bl	chMtxUnlock
 454              	.LVL35:
 455              		.loc 1 354 0
 456 0018 0020     		movs	r0, #0
ARM GAS  /tmp/ccdgia3Q.s 			page 9


 457 001a 10BD     		pop	{r4, pc}
 458              	.L33:
 459              		.align	2
 460              	.L32:
 461 001c 00000000 		.word	.LANCHOR1
 462              		.cfi_endproc
 463              	.LFE230:
 464              		.size	thread4a, .-thread4a
 465              		.section	.text.mtx4_execute,"ax",%progbits
 466              		.align	2
 467              		.p2align 4,,15
 468              		.thumb
 469              		.thumb_func
 470              		.type	mtx4_execute, %function
 471              	mtx4_execute:
 472              	.LFB232:
 473              		.loc 1 365 0
 474              		.cfi_startproc
 475              		@ args = 0, pretend = 0, frame = 8
 476              		@ frame_needed = 0, uses_anonymous_args = 0
 477 0000 2DE9F046 		push	{r4, r5, r6, r7, r9, r10, lr}
 478              		.cfi_def_cfa_offset 28
 479              		.cfi_offset 4, -28
 480              		.cfi_offset 5, -24
 481              		.cfi_offset 6, -20
 482              		.cfi_offset 7, -16
 483              		.cfi_offset 9, -12
 484              		.cfi_offset 10, -8
 485              		.cfi_offset 14, -4
 486              	.LBB148:
 487              	.LBB149:
 488              	.LBB150:
 489              	.LBB151:
 490              		.loc 2 179 0
 491 0004 8E4D     		ldr	r5, .L40
 492              	.LBE151:
 493              	.LBE150:
 494              	.LBE149:
 495              	.LBE148:
 496              		.loc 1 371 0
 497 0006 8F4E     		ldr	r6, .L40+4
 498              	.LBB154:
 499              	.LBB152:
 500              		.loc 2 192 0
 501 0008 AB69     		ldr	r3, [r5, #24]
 502              	.LBE152:
 503              	.LBE154:
 504              		.loc 1 371 0
 505 000a 3268     		ldr	r2, [r6]
 506              	.LBB155:
 507              	.LBB153:
 508              		.loc 2 192 0
 509 000c 9C68     		ldr	r4, [r3, #8]
 510              	.LBE153:
 511              	.LBE155:
 512              		.loc 1 371 0
 513 000e 8E4B     		ldr	r3, .L40+8
ARM GAS  /tmp/ccdgia3Q.s 			page 10


 514 0010 8E4F     		ldr	r7, .L40+12
 515              		.loc 1 365 0
 516 0012 85B0     		sub	sp, sp, #20
 517              		.cfi_def_cfa_offset 48
 518              		.loc 1 369 0
 519 0014 04F10109 		add	r9, r4, #1
 520              	.LVL36:
 521              		.loc 1 371 0
 522 0018 1046     		mov	r0, r2
 523 001a 0392     		str	r2, [sp, #12]
 524 001c 0093     		str	r3, [sp]
 525 001e 4A46     		mov	r2, r9
 526 0020 4FF4E871 		mov	r1, #464
 527 0024 8A4B     		ldr	r3, .L40+16
 528 0026 FFF7FEFF 		bl	chThdCreateStatic
 529              	.LVL37:
 530              		.loc 1 372 0
 531 002a 7668     		ldr	r6, [r6, #4]
 532 002c 894B     		ldr	r3, .L40+20
 533              		.loc 1 371 0
 534 002e 3860     		str	r0, [r7]
 535              		.loc 1 370 0
 536 0030 04F1020A 		add	r10, r4, #2
 537              	.LVL38:
 538              		.loc 1 372 0
 539 0034 4FF4E871 		mov	r1, #464
 540 0038 5246     		mov	r2, r10
 541 003a 0093     		str	r3, [sp]
 542 003c 3046     		mov	r0, r6
 543 003e 864B     		ldr	r3, .L40+24
 544 0040 FFF7FEFF 		bl	chThdCreateStatic
 545              	.LVL39:
 546 0044 7860     		str	r0, [r7, #4]
 547              		.loc 1 373 0
 548 0046 8548     		ldr	r0, .L40+28
 549 0048 FFF7FEFF 		bl	chMtxLock
 550              	.LVL40:
 551              	.LBB156:
 552              	.LBB157:
 553              		.loc 2 192 0
 554 004c AB69     		ldr	r3, [r5, #24]
 555              	.LBE157:
 556              	.LBE156:
 557              		.loc 1 374 0
 558 004e 9968     		ldr	r1, [r3, #8]
 559 0050 0120     		movs	r0, #1
 560 0052 611A     		subs	r1, r4, r1
 561 0054 B1FA81F1 		clz	r1, r1
 562 0058 4909     		lsrs	r1, r1, #5
 563 005a FFF7FEFF 		bl	_test_assert
 564              	.LVL41:
 565 005e 10B1     		cbz	r0, .L39
 566              	.L34:
 567              		.loc 1 410 0
 568 0060 05B0     		add	sp, sp, #20
 569              		.cfi_remember_state
 570              		.cfi_def_cfa_offset 28
ARM GAS  /tmp/ccdgia3Q.s 			page 11


 571              		@ sp needed
 572 0062 BDE8F086 		pop	{r4, r5, r6, r7, r9, r10, pc}
 573              	.LVL42:
 574              	.L39:
 575              		.cfi_restore_state
 576              		.loc 1 375 0
 577 0066 4FF47A70 		mov	r0, #1000
 578 006a FFF7FEFF 		bl	chThdSleep
 579              	.LVL43:
 580              	.LBB158:
 581              	.LBB159:
 582              		.loc 2 192 0
 583 006e AB69     		ldr	r3, [r5, #24]
 584              	.LBE159:
 585              	.LBE158:
 586              		.loc 1 376 0
 587 0070 9968     		ldr	r1, [r3, #8]
 588 0072 0220     		movs	r0, #2
 589 0074 C1EB0901 		rsb	r1, r1, r9
 590 0078 B1FA81F1 		clz	r1, r1
 591 007c 4909     		lsrs	r1, r1, #5
 592 007e FFF7FEFF 		bl	_test_assert
 593              	.LVL44:
 594 0082 0028     		cmp	r0, #0
 595 0084 ECD1     		bne	.L34
 596              		.loc 1 377 0
 597 0086 7648     		ldr	r0, .L40+32
 598 0088 FFF7FEFF 		bl	chMtxLock
 599              	.LVL45:
 600              	.LBB160:
 601              	.LBB161:
 602              		.loc 2 192 0
 603 008c AB69     		ldr	r3, [r5, #24]
 604              	.LBE161:
 605              	.LBE160:
 606              		.loc 1 378 0
 607 008e 9968     		ldr	r1, [r3, #8]
 608 0090 0320     		movs	r0, #3
 609 0092 C1EB0901 		rsb	r1, r1, r9
 610 0096 B1FA81F1 		clz	r1, r1
 611 009a 4909     		lsrs	r1, r1, #5
 612 009c FFF7FEFF 		bl	_test_assert
 613              	.LVL46:
 614 00a0 0028     		cmp	r0, #0
 615 00a2 DDD1     		bne	.L34
 616              		.loc 1 379 0
 617 00a4 4FF47A70 		mov	r0, #1000
 618 00a8 FFF7FEFF 		bl	chThdSleep
 619              	.LVL47:
 620              	.LBB162:
 621              	.LBB163:
 622              		.loc 2 192 0
 623 00ac AB69     		ldr	r3, [r5, #24]
 624              	.LBE163:
 625              	.LBE162:
 626              		.loc 1 380 0
 627 00ae 9968     		ldr	r1, [r3, #8]
ARM GAS  /tmp/ccdgia3Q.s 			page 12


 628 00b0 0420     		movs	r0, #4
 629 00b2 C1EB0A01 		rsb	r1, r1, r10
 630 00b6 B1FA81F1 		clz	r1, r1
 631 00ba 4909     		lsrs	r1, r1, #5
 632 00bc FFF7FEFF 		bl	_test_assert
 633              	.LVL48:
 634 00c0 0028     		cmp	r0, #0
 635 00c2 CDD1     		bne	.L34
 636              		.loc 1 381 0
 637 00c4 6648     		ldr	r0, .L40+32
 638 00c6 FFF7FEFF 		bl	chMtxUnlock
 639              	.LVL49:
 640              	.LBB164:
 641              	.LBB165:
 642              		.loc 2 192 0
 643 00ca AB69     		ldr	r3, [r5, #24]
 644              	.LBE165:
 645              	.LBE164:
 646              		.loc 1 382 0
 647 00cc 9968     		ldr	r1, [r3, #8]
 648 00ce 0520     		movs	r0, #5
 649 00d0 C1EB0901 		rsb	r1, r1, r9
 650 00d4 B1FA81F1 		clz	r1, r1
 651 00d8 4909     		lsrs	r1, r1, #5
 652 00da FFF7FEFF 		bl	_test_assert
 653              	.LVL50:
 654 00de 0028     		cmp	r0, #0
 655 00e0 BED1     		bne	.L34
 656              		.loc 1 383 0
 657 00e2 4FF47A70 		mov	r0, #1000
 658 00e6 FFF7FEFF 		bl	chThdSleep
 659              	.LVL51:
 660              	.LBB166:
 661              	.LBB167:
 662              		.loc 2 192 0
 663 00ea AB69     		ldr	r3, [r5, #24]
 664              	.LBE167:
 665              	.LBE166:
 666              		.loc 1 384 0
 667 00ec 9968     		ldr	r1, [r3, #8]
 668 00ee 0620     		movs	r0, #6
 669 00f0 C1EB0901 		rsb	r1, r1, r9
 670 00f4 B1FA81F1 		clz	r1, r1
 671 00f8 4909     		lsrs	r1, r1, #5
 672 00fa FFF7FEFF 		bl	_test_assert
 673              	.LVL52:
 674 00fe 0028     		cmp	r0, #0
 675 0100 AED1     		bne	.L34
 676              		.loc 1 385 0
 677 0102 FFF7FEFF 		bl	chMtxUnlockAll
 678              	.LVL53:
 679              	.LBB168:
 680              	.LBB169:
 681              		.loc 2 192 0
 682 0106 AB69     		ldr	r3, [r5, #24]
 683              	.LBE169:
 684              	.LBE168:
ARM GAS  /tmp/ccdgia3Q.s 			page 13


 685              		.loc 1 386 0
 686 0108 9968     		ldr	r1, [r3, #8]
 687 010a 0720     		movs	r0, #7
 688 010c 611A     		subs	r1, r4, r1
 689 010e B1FA81F1 		clz	r1, r1
 690 0112 4909     		lsrs	r1, r1, #5
 691 0114 FFF7FEFF 		bl	_test_assert
 692              	.LVL54:
 693 0118 0028     		cmp	r0, #0
 694 011a A1D1     		bne	.L34
 695              		.loc 1 387 0
 696 011c FFF7FEFF 		bl	test_wait_threads
 697              	.LVL55:
 698              		.loc 1 390 0
 699 0120 504B     		ldr	r3, .L40+36
 700 0122 0093     		str	r3, [sp]
 701 0124 4FF4E871 		mov	r1, #464
 702 0128 4A46     		mov	r2, r9
 703 012a 494B     		ldr	r3, .L40+16
 704 012c 0398     		ldr	r0, [sp, #12]
 705 012e FFF7FEFF 		bl	chThdCreateStatic
 706              	.LVL56:
 707              		.loc 1 391 0
 708 0132 4D4B     		ldr	r3, .L40+40
 709              		.loc 1 390 0
 710 0134 3860     		str	r0, [r7]
 711              		.loc 1 391 0
 712 0136 4FF4E871 		mov	r1, #464
 713 013a 0093     		str	r3, [sp]
 714 013c 5246     		mov	r2, r10
 715 013e 464B     		ldr	r3, .L40+24
 716 0140 3046     		mov	r0, r6
 717 0142 FFF7FEFF 		bl	chThdCreateStatic
 718              	.LVL57:
 719 0146 7860     		str	r0, [r7, #4]
 720              		.loc 1 392 0
 721 0148 4448     		ldr	r0, .L40+28
 722 014a FFF7FEFF 		bl	chMtxLock
 723              	.LVL58:
 724              	.LBB170:
 725              	.LBB171:
 726              		.loc 2 192 0
 727 014e AB69     		ldr	r3, [r5, #24]
 728              	.LBE171:
 729              	.LBE170:
 730              		.loc 1 393 0
 731 0150 9968     		ldr	r1, [r3, #8]
 732 0152 0820     		movs	r0, #8
 733 0154 611A     		subs	r1, r4, r1
 734 0156 B1FA81F1 		clz	r1, r1
 735 015a 4909     		lsrs	r1, r1, #5
 736 015c FFF7FEFF 		bl	_test_assert
 737              	.LVL59:
 738 0160 0028     		cmp	r0, #0
 739 0162 7FF47DAF 		bne	.L34
 740              		.loc 1 394 0
 741 0166 4FF47A70 		mov	r0, #1000
ARM GAS  /tmp/ccdgia3Q.s 			page 14


 742 016a FFF7FEFF 		bl	chThdSleep
 743              	.LVL60:
 744              	.LBB172:
 745              	.LBB173:
 746              		.loc 2 192 0
 747 016e AB69     		ldr	r3, [r5, #24]
 748              	.LBE173:
 749              	.LBE172:
 750              		.loc 1 395 0
 751 0170 9968     		ldr	r1, [r3, #8]
 752 0172 C1EB090C 		rsb	ip, r1, r9
 753 0176 DCF10001 		rsbs	r1, ip, #0
 754 017a 41EB0C01 		adc	r1, r1, ip
 755 017e 0920     		movs	r0, #9
 756 0180 FFF7FEFF 		bl	_test_assert
 757              	.LVL61:
 758 0184 0028     		cmp	r0, #0
 759 0186 7FF46BAF 		bne	.L34
 760              		.loc 1 396 0
 761 018a 3548     		ldr	r0, .L40+32
 762 018c FFF7FEFF 		bl	chMtxLock
 763              	.LVL62:
 764              	.LBB174:
 765              	.LBB175:
 766              		.loc 2 192 0
 767 0190 AB69     		ldr	r3, [r5, #24]
 768              	.LBE175:
 769              	.LBE174:
 770              		.loc 1 397 0
 771 0192 9968     		ldr	r1, [r3, #8]
 772 0194 C1EB090E 		rsb	lr, r1, r9
 773 0198 DEF10001 		rsbs	r1, lr, #0
 774 019c 41EB0E01 		adc	r1, r1, lr
 775 01a0 0A20     		movs	r0, #10
 776 01a2 FFF7FEFF 		bl	_test_assert
 777              	.LVL63:
 778 01a6 0028     		cmp	r0, #0
 779 01a8 7FF45AAF 		bne	.L34
 780              		.loc 1 398 0
 781 01ac 4FF47A70 		mov	r0, #1000
 782 01b0 FFF7FEFF 		bl	chThdSleep
 783              	.LVL64:
 784              	.LBB176:
 785              	.LBB177:
 786              		.loc 2 192 0
 787 01b4 AB69     		ldr	r3, [r5, #24]
 788              	.LBE177:
 789              	.LBE176:
 790              		.loc 1 399 0
 791 01b6 9968     		ldr	r1, [r3, #8]
 792 01b8 C1EB0A07 		rsb	r7, r1, r10
 793 01bc 7942     		rsbs	r1, r7, #0
 794 01be 4FF00B00 		mov	r0, #11
 795 01c2 7941     		adcs	r1, r1, r7
 796 01c4 FFF7FEFF 		bl	_test_assert
 797              	.LVL65:
 798 01c8 0646     		mov	r6, r0
ARM GAS  /tmp/ccdgia3Q.s 			page 15


 799 01ca 0028     		cmp	r0, #0
 800 01cc 7FF448AF 		bne	.L34
 801              	.LVL66:
 802              	.LBB178:
 803              	.LBB179:
 804              	.LBB180:
 805              	.LBB181:
 806              		.file 3 "../ChibiOS/os/ext/CMSIS/include/core_cmFunc.h"
 807              		.loc 3 546 0
 808 01d0 2023     		movs	r3, #32
 809              	@ 546 "../ChibiOS/os/ext/CMSIS/include/core_cmFunc.h" 1
 810 01d2 83F31188 		MSR basepri, r3
 811              	@ 0 "" 2
 812              		.thumb
 813              	.LBE181:
 814              	.LBE180:
 815              	.LBE179:
 816              	.LBE178:
 817              		.loc 1 401 0
 818 01d6 2248     		ldr	r0, .L40+32
 819 01d8 FFF7FEFF 		bl	chMtxUnlockS
 820              	.LVL67:
 821              		.loc 1 402 0
 822 01dc FFF7FEFF 		bl	chSchRescheduleS
 823              	.LVL68:
 824              	.LBB182:
 825              	.LBB183:
 826              	.LBB184:
 827              	.LBB185:
 828              	.LBB186:
 829              		.loc 3 546 0
 830              	@ 546 "../ChibiOS/os/ext/CMSIS/include/core_cmFunc.h" 1
 831 01e0 86F31188 		MSR basepri, r6
 832              	@ 0 "" 2
 833              		.thumb
 834              	.LBE186:
 835              	.LBE185:
 836              	.LBE184:
 837              	.LBE183:
 838              	.LBE182:
 839              	.LBB187:
 840              	.LBB188:
 841              		.loc 2 192 0
 842 01e4 AB69     		ldr	r3, [r5, #24]
 843              	.LBE188:
 844              	.LBE187:
 845              		.loc 1 404 0
 846 01e6 9968     		ldr	r1, [r3, #8]
 847 01e8 C1EB0906 		rsb	r6, r1, r9
 848 01ec 7142     		rsbs	r1, r6, #0
 849 01ee 7141     		adcs	r1, r1, r6
 850 01f0 0C20     		movs	r0, #12
 851 01f2 FFF7FEFF 		bl	_test_assert
 852              	.LVL69:
 853 01f6 0028     		cmp	r0, #0
 854 01f8 7FF432AF 		bne	.L34
 855              		.loc 1 405 0
ARM GAS  /tmp/ccdgia3Q.s 			page 16


 856 01fc 4FF47A70 		mov	r0, #1000
 857 0200 FFF7FEFF 		bl	chThdSleep
 858              	.LVL70:
 859              	.LBB189:
 860              	.LBB190:
 861              		.loc 2 192 0
 862 0204 AB69     		ldr	r3, [r5, #24]
 863              	.LBE190:
 864              	.LBE189:
 865              		.loc 1 406 0
 866 0206 9968     		ldr	r1, [r3, #8]
 867 0208 C1EB0902 		rsb	r2, r1, r9
 868 020c 5142     		rsbs	r1, r2, #0
 869 020e 5141     		adcs	r1, r1, r2
 870 0210 0D20     		movs	r0, #13
 871 0212 FFF7FEFF 		bl	_test_assert
 872              	.LVL71:
 873 0216 0028     		cmp	r0, #0
 874 0218 7FF422AF 		bne	.L34
 875              		.loc 1 407 0
 876 021c FFF7FEFF 		bl	chMtxUnlockAll
 877              	.LVL72:
 878              	.LBB191:
 879              	.LBB192:
 880              		.loc 2 192 0
 881 0220 AB69     		ldr	r3, [r5, #24]
 882              	.LBE192:
 883              	.LBE191:
 884              		.loc 1 408 0
 885 0222 9968     		ldr	r1, [r3, #8]
 886 0224 631A     		subs	r3, r4, r1
 887 0226 5942     		rsbs	r1, r3, #0
 888 0228 5941     		adcs	r1, r1, r3
 889 022a 0E20     		movs	r0, #14
 890 022c FFF7FEFF 		bl	_test_assert
 891              	.LVL73:
 892 0230 0028     		cmp	r0, #0
 893 0232 7FF415AF 		bne	.L34
 894              		.loc 1 410 0
 895 0236 05B0     		add	sp, sp, #20
 896              		.cfi_def_cfa_offset 28
 897              		@ sp needed
 898 0238 BDE8F046 		pop	{r4, r5, r6, r7, r9, r10, lr}
 899              		.cfi_restore 14
 900              		.cfi_restore 10
 901              		.cfi_restore 9
 902              		.cfi_restore 7
 903              		.cfi_restore 6
 904              		.cfi_restore 5
 905              		.cfi_restore 4
 906              		.cfi_def_cfa_offset 0
 907              	.LVL74:
 908              		.loc 1 409 0
 909 023c FFF7FEBF 		b	test_wait_threads
 910              	.LVL75:
 911              	.L41:
 912              		.align	2
ARM GAS  /tmp/ccdgia3Q.s 			page 17


 913              	.L40:
 914 0240 00000000 		.word	ch
 915 0244 00000000 		.word	wa
 916 0248 0C000000 		.word	.LC3
 917 024c 00000000 		.word	threads
 918 0250 00000000 		.word	thread4a
 919 0254 10000000 		.word	.LC4
 920 0258 00000000 		.word	thread4b
 921 025c 00000000 		.word	.LANCHOR1
 922 0260 00000000 		.word	.LANCHOR0
 923 0264 04000000 		.word	.LC1
 924 0268 08000000 		.word	.LC2
 925              		.cfi_endproc
 926              	.LFE232:
 927              		.size	mtx4_execute, .-mtx4_execute
 928 026c AFF30080 		.section	.text.mtx5_execute,"ax",%progbits
 929              		.align	2
 930              		.p2align 4,,15
 931              		.thumb
 932              		.thumb_func
 933              		.type	mtx5_execute, %function
 934              	mtx5_execute:
 935              	.LFB234:
 936              		.loc 1 434 0
 937              		.cfi_startproc
 938              		@ args = 0, pretend = 0, frame = 0
 939              		@ frame_needed = 0, uses_anonymous_args = 0
 940 0000 F8B5     		push	{r3, r4, r5, r6, r7, lr}
 941              		.cfi_def_cfa_offset 24
 942              		.cfi_offset 3, -24
 943              		.cfi_offset 4, -20
 944              		.cfi_offset 5, -16
 945              		.cfi_offset 6, -12
 946              		.cfi_offset 7, -8
 947              		.cfi_offset 14, -4
 948              	.LBB193:
 949              	.LBB194:
 950              	.LBB195:
 951              	.LBB196:
 952              		.loc 2 179 0
 953 0002 2B4D     		ldr	r5, .L48
 954              	.LBE196:
 955              	.LBE195:
 956              	.LBE194:
 957              	.LBE193:
 958              		.loc 1 440 0
 959 0004 2B4C     		ldr	r4, .L48+4
 960              	.LBB199:
 961              	.LBB197:
 962              		.loc 2 192 0
 963 0006 AB69     		ldr	r3, [r5, #24]
 964              	.LBE197:
 965              	.LBE199:
 966              		.loc 1 440 0
 967 0008 2046     		mov	r0, r4
 968              	.LBB200:
 969              	.LBB198:
ARM GAS  /tmp/ccdgia3Q.s 			page 18


 970              		.loc 2 192 0
 971 000a 9E68     		ldr	r6, [r3, #8]
 972              	.LBE198:
 973              	.LBE200:
 974              		.loc 1 440 0
 975 000c FFF7FEFF 		bl	chMtxTryLock
 976              	.LVL76:
 977 0010 0146     		mov	r1, r0
 978              	.LVL77:
 979              		.loc 1 441 0
 980 0012 0120     		movs	r0, #1
 981 0014 FFF7FEFF 		bl	_test_assert
 982              	.LVL78:
 983 0018 00B1     		cbz	r0, .L47
 984              	.L42:
 985 001a F8BD     		pop	{r3, r4, r5, r6, r7, pc}
 986              	.L47:
 987              		.loc 1 443 0
 988 001c 2046     		mov	r0, r4
 989 001e FFF7FEFF 		bl	chMtxTryLock
 990              	.LVL79:
 991              		.loc 1 444 0
 992 0022 80F00101 		eor	r1, r0, #1
 993 0026 C9B2     		uxtb	r1, r1
 994 0028 0220     		movs	r0, #2
 995              	.LVL80:
 996 002a FFF7FEFF 		bl	_test_assert
 997              	.LVL81:
 998 002e 0746     		mov	r7, r0
 999 0030 0028     		cmp	r0, #0
 1000 0032 F2D1     		bne	.L42
 1001              	.LVL82:
 1002              	.LBB201:
 1003              	.LBB202:
 1004              	.LBB203:
 1005              	.LBB204:
 1006              		.loc 3 546 0
 1007 0034 2023     		movs	r3, #32
 1008              	@ 546 "../ChibiOS/os/ext/CMSIS/include/core_cmFunc.h" 1
 1009 0036 83F31188 		MSR basepri, r3
 1010              	@ 0 "" 2
 1011              		.thumb
 1012              	.LBE204:
 1013              	.LBE203:
 1014              	.LBE202:
 1015              	.LBE201:
 1016              		.loc 1 447 0
 1017 003a 2046     		mov	r0, r4
 1018 003c FFF7FEFF 		bl	chMtxUnlockS
 1019              	.LVL83:
 1020              	.LBB205:
 1021              	.LBB206:
 1022              	.LBB207:
 1023              	.LBB208:
 1024              	.LBB209:
 1025              		.loc 3 546 0
 1026              	@ 546 "../ChibiOS/os/ext/CMSIS/include/core_cmFunc.h" 1
ARM GAS  /tmp/ccdgia3Q.s 			page 19


 1027 0040 87F31188 		MSR basepri, r7
 1028              	@ 0 "" 2
 1029              	.LVL84:
 1030              		.thumb
 1031              	.LBE209:
 1032              	.LBE208:
 1033              	.LBE207:
 1034              	.LBE206:
 1035              	.LBE205:
 1036              	.LBB210:
 1037              	.LBB211:
 1038              		.file 4 "../ChibiOS/os/rt/include/chschd.h"
 1039              		.loc 4 587 0
 1040 0044 2168     		ldr	r1, [r4]
 1041              	.LBE211:
 1042              	.LBE210:
 1043              		.loc 1 450 0
 1044 0046 0320     		movs	r0, #3
 1045 0048 091B     		subs	r1, r1, r4
 1046 004a B1FA81F1 		clz	r1, r1
 1047 004e 4909     		lsrs	r1, r1, #5
 1048 0050 FFF7FEFF 		bl	_test_assert
 1049              	.LVL85:
 1050 0054 0028     		cmp	r0, #0
 1051 0056 E0D1     		bne	.L42
 1052              		.loc 1 451 0
 1053 0058 A168     		ldr	r1, [r4, #8]
 1054 005a B1FA81F1 		clz	r1, r1
 1055 005e 0420     		movs	r0, #4
 1056 0060 4909     		lsrs	r1, r1, #5
 1057 0062 FFF7FEFF 		bl	_test_assert
 1058              	.LVL86:
 1059 0066 0028     		cmp	r0, #0
 1060 0068 D7D1     		bne	.L42
 1061              	.LBB212:
 1062              	.LBB213:
 1063              		.loc 2 192 0
 1064 006a AB69     		ldr	r3, [r5, #24]
 1065              	.LBE213:
 1066              	.LBE212:
 1067              		.loc 1 452 0
 1068 006c 9968     		ldr	r1, [r3, #8]
 1069 006e 0520     		movs	r0, #5
 1070 0070 711A     		subs	r1, r6, r1
 1071 0072 B1FA81F1 		clz	r1, r1
 1072 0076 4909     		lsrs	r1, r1, #5
 1073 0078 FFF7FEFF 		bl	_test_assert
 1074              	.LVL87:
 1075 007c 0028     		cmp	r0, #0
 1076 007e CCD1     		bne	.L42
 1077              		.loc 1 455 0
 1078 0080 2046     		mov	r0, r4
 1079 0082 FFF7FEFF 		bl	chMtxLock
 1080              	.LVL88:
 1081              		.loc 1 456 0
 1082 0086 FFF7FEFF 		bl	chMtxUnlockAll
 1083              	.LVL89:
ARM GAS  /tmp/ccdgia3Q.s 			page 20


 1084              	.LBB214:
 1085              	.LBB215:
 1086              		.loc 4 587 0
 1087 008a 2168     		ldr	r1, [r4]
 1088              	.LBE215:
 1089              	.LBE214:
 1090              		.loc 1 457 0
 1091 008c 0620     		movs	r0, #6
 1092 008e 091B     		subs	r1, r1, r4
 1093 0090 B1FA81F1 		clz	r1, r1
 1094 0094 4909     		lsrs	r1, r1, #5
 1095 0096 FFF7FEFF 		bl	_test_assert
 1096              	.LVL90:
 1097 009a 0028     		cmp	r0, #0
 1098 009c BDD1     		bne	.L42
 1099              		.loc 1 458 0
 1100 009e A168     		ldr	r1, [r4, #8]
 1101 00a0 B1FA81F1 		clz	r1, r1
 1102 00a4 0720     		movs	r0, #7
 1103 00a6 4909     		lsrs	r1, r1, #5
 1104              		.loc 1 459 0
 1105 00a8 BDE8F840 		pop	{r3, r4, r5, r6, r7, lr}
 1106              		.cfi_restore 14
 1107              		.cfi_restore 7
 1108              		.cfi_restore 6
 1109              		.cfi_restore 5
 1110              		.cfi_restore 4
 1111              		.cfi_restore 3
 1112              		.cfi_def_cfa_offset 0
 1113              		.loc 1 458 0
 1114 00ac FFF7FEBF 		b	_test_assert
 1115              	.LVL91:
 1116              	.L49:
 1117              		.align	2
 1118              	.L48:
 1119 00b0 00000000 		.word	ch
 1120 00b4 00000000 		.word	.LANCHOR0
 1121              		.cfi_endproc
 1122              	.LFE234:
 1123              		.size	mtx5_execute, .-mtx5_execute
 1124 00b8 AFF30080 		.section	.text.mtx6_execute,"ax",%progbits
 1124      AFF30080 
 1125              		.align	2
 1126              		.p2align 4,,15
 1127              		.thumb
 1128              		.thumb_func
 1129              		.type	mtx6_execute, %function
 1130              	mtx6_execute:
 1131              	.LFB237:
 1132              		.loc 1 495 0
 1133              		.cfi_startproc
 1134              		@ args = 0, pretend = 0, frame = 0
 1135              		@ frame_needed = 0, uses_anonymous_args = 0
 1136 0000 F0B5     		push	{r4, r5, r6, r7, lr}
 1137              		.cfi_def_cfa_offset 20
 1138              		.cfi_offset 4, -20
 1139              		.cfi_offset 5, -16
ARM GAS  /tmp/ccdgia3Q.s 			page 21


 1140              		.cfi_offset 6, -12
 1141              		.cfi_offset 7, -8
 1142              		.cfi_offset 14, -4
 1143              	.LBB216:
 1144              	.LBB217:
 1145              	.LBB218:
 1146              	.LBB219:
 1147              		.loc 2 179 0
 1148 0002 2F4B     		ldr	r3, .L52
 1149              	.LBE219:
 1150              	.LBE218:
 1151              	.LBE217:
 1152              	.LBE216:
 1153              		.loc 1 498 0
 1154 0004 2F4F     		ldr	r7, .L52+4
 1155              	.LBB222:
 1156              	.LBB220:
 1157              		.loc 2 192 0
 1158 0006 9B69     		ldr	r3, [r3, #24]
 1159              	.LBE220:
 1160              	.LBE222:
 1161              		.loc 1 498 0
 1162 0008 2F4D     		ldr	r5, .L52+8
 1163              	.LBB223:
 1164              	.LBB221:
 1165              		.loc 2 192 0
 1166 000a 9E68     		ldr	r6, [r3, #8]
 1167              	.LBE221:
 1168              	.LBE223:
 1169              		.loc 1 498 0
 1170 000c 2F4B     		ldr	r3, .L52+12
 1171 000e 3868     		ldr	r0, [r7]
 1172 0010 2F4C     		ldr	r4, .L52+16
 1173              		.loc 1 495 0
 1174 0012 83B0     		sub	sp, sp, #12
 1175              		.cfi_def_cfa_offset 32
 1176              		.loc 1 498 0
 1177 0014 721C     		adds	r2, r6, #1
 1178 0016 0093     		str	r3, [sp]
 1179 0018 4FF4E871 		mov	r1, #464
 1180 001c 2B46     		mov	r3, r5
 1181 001e FFF7FEFF 		bl	chThdCreateStatic
 1182              	.LVL92:
 1183              		.loc 1 499 0
 1184 0022 7B68     		ldr	r3, [r7, #4]
 1185 0024 2B49     		ldr	r1, .L52+20
 1186              		.loc 1 498 0
 1187 0026 2060     		str	r0, [r4]
 1188              		.loc 1 499 0
 1189 0028 B21C     		adds	r2, r6, #2
 1190 002a 0091     		str	r1, [sp]
 1191 002c 1846     		mov	r0, r3
 1192 002e 4FF4E871 		mov	r1, #464
 1193 0032 2B46     		mov	r3, r5
 1194 0034 FFF7FEFF 		bl	chThdCreateStatic
 1195              	.LVL93:
 1196              		.loc 1 500 0
ARM GAS  /tmp/ccdgia3Q.s 			page 22


 1197 0038 BB68     		ldr	r3, [r7, #8]
 1198 003a 2749     		ldr	r1, .L52+24
 1199              		.loc 1 499 0
 1200 003c 6060     		str	r0, [r4, #4]
 1201              		.loc 1 500 0
 1202 003e F21C     		adds	r2, r6, #3
 1203 0040 0091     		str	r1, [sp]
 1204 0042 1846     		mov	r0, r3
 1205 0044 4FF4E871 		mov	r1, #464
 1206 0048 2B46     		mov	r3, r5
 1207 004a FFF7FEFF 		bl	chThdCreateStatic
 1208              	.LVL94:
 1209              		.loc 1 501 0
 1210 004e FB68     		ldr	r3, [r7, #12]
 1211 0050 2249     		ldr	r1, .L52+28
 1212              		.loc 1 500 0
 1213 0052 A060     		str	r0, [r4, #8]
 1214              		.loc 1 501 0
 1215 0054 321D     		adds	r2, r6, #4
 1216 0056 0091     		str	r1, [sp]
 1217 0058 1846     		mov	r0, r3
 1218 005a 4FF4E871 		mov	r1, #464
 1219 005e 2B46     		mov	r3, r5
 1220 0060 FFF7FEFF 		bl	chThdCreateStatic
 1221              	.LVL95:
 1222              		.loc 1 502 0
 1223 0064 3B69     		ldr	r3, [r7, #16]
 1224 0066 1E49     		ldr	r1, .L52+32
 1225              		.loc 1 501 0
 1226 0068 E060     		str	r0, [r4, #12]
 1227              		.loc 1 502 0
 1228 006a 721D     		adds	r2, r6, #5
 1229 006c 0091     		str	r1, [sp]
 1230 006e 1846     		mov	r0, r3
 1231 0070 4FF4E871 		mov	r1, #464
 1232 0074 2B46     		mov	r3, r5
 1233 0076 FFF7FEFF 		bl	chThdCreateStatic
 1234              	.LVL96:
 1235              	.LBB224:
 1236              	.LBB225:
 1237              	.LBB226:
 1238              	.LBB227:
 1239              		.loc 3 546 0
 1240 007a 2023     		movs	r3, #32
 1241              	.LBE227:
 1242              	.LBE226:
 1243              	.LBE225:
 1244              	.LBE224:
 1245              		.loc 1 502 0
 1246 007c 2061     		str	r0, [r4, #16]
 1247              	.LVL97:
 1248              	.LBB231:
 1249              	.LBB230:
 1250              	.LBB229:
 1251              	.LBB228:
 1252              		.loc 3 546 0
 1253              	@ 546 "../ChibiOS/os/ext/CMSIS/include/core_cmFunc.h" 1
ARM GAS  /tmp/ccdgia3Q.s 			page 23


 1254 007e 83F31188 		MSR basepri, r3
 1255              	@ 0 "" 2
 1256              		.thumb
 1257              	.LBE228:
 1258              	.LBE229:
 1259              	.LBE230:
 1260              	.LBE231:
 1261              		.loc 1 504 0
 1262 0082 184C     		ldr	r4, .L52+36
 1263 0084 2046     		mov	r0, r4
 1264 0086 FFF7FEFF 		bl	chCondSignalI
 1265              	.LVL98:
 1266              		.loc 1 505 0
 1267 008a 2046     		mov	r0, r4
 1268 008c FFF7FEFF 		bl	chCondSignalI
 1269              	.LVL99:
 1270              		.loc 1 506 0
 1271 0090 2046     		mov	r0, r4
 1272 0092 FFF7FEFF 		bl	chCondSignalI
 1273              	.LVL100:
 1274              		.loc 1 507 0
 1275 0096 2046     		mov	r0, r4
 1276 0098 FFF7FEFF 		bl	chCondSignalI
 1277              	.LVL101:
 1278              		.loc 1 508 0
 1279 009c 2046     		mov	r0, r4
 1280 009e FFF7FEFF 		bl	chCondSignalI
 1281              	.LVL102:
 1282              		.loc 1 509 0
 1283 00a2 FFF7FEFF 		bl	chSchRescheduleS
 1284              	.LVL103:
 1285              	.LBB232:
 1286              	.LBB233:
 1287              	.LBB234:
 1288              	.LBB235:
 1289              	.LBB236:
 1290              		.loc 3 546 0
 1291 00a6 0023     		movs	r3, #0
 1292              	@ 546 "../ChibiOS/os/ext/CMSIS/include/core_cmFunc.h" 1
 1293 00a8 83F31188 		MSR basepri, r3
 1294              	@ 0 "" 2
 1295              		.thumb
 1296              	.LBE236:
 1297              	.LBE235:
 1298              	.LBE234:
 1299              	.LBE233:
 1300              	.LBE232:
 1301              		.loc 1 511 0
 1302 00ac FFF7FEFF 		bl	test_wait_threads
 1303              	.LVL104:
 1304              		.loc 1 512 0
 1305 00b0 0D49     		ldr	r1, .L52+40
 1306 00b2 0120     		movs	r0, #1
 1307              		.loc 1 513 0
 1308 00b4 03B0     		add	sp, sp, #12
 1309              		.cfi_def_cfa_offset 20
 1310              		@ sp needed
ARM GAS  /tmp/ccdgia3Q.s 			page 24


 1311 00b6 BDE8F040 		pop	{r4, r5, r6, r7, lr}
 1312              		.cfi_restore 14
 1313              		.cfi_restore 7
 1314              		.cfi_restore 6
 1315              		.cfi_restore 5
 1316              		.cfi_restore 4
 1317              		.cfi_def_cfa_offset 0
 1318              		.loc 1 512 0
 1319 00ba FFF7FEBF 		b	_test_assert_sequence
 1320              	.LVL105:
 1321              	.L53:
 1322 00be 00BF     		.align	2
 1323              	.L52:
 1324 00c0 00000000 		.word	ch
 1325 00c4 00000000 		.word	wa
 1326 00c8 00000000 		.word	thread10
 1327 00cc 00000000 		.word	.LC0
 1328 00d0 00000000 		.word	threads
 1329 00d4 04000000 		.word	.LC1
 1330 00d8 08000000 		.word	.LC2
 1331 00dc 0C000000 		.word	.LC3
 1332 00e0 10000000 		.word	.LC4
 1333 00e4 00000000 		.word	.LANCHOR2
 1334 00e8 14000000 		.word	.LC5
 1335              		.cfi_endproc
 1336              	.LFE237:
 1337              		.size	mtx6_execute, .-mtx6_execute
 1338 00ec AFF30080 		.section	.text.thread10,"ax",%progbits
 1339              		.align	2
 1340              		.p2align 4,,15
 1341              		.thumb
 1342              		.thumb_func
 1343              		.type	thread10, %function
 1344              	thread10:
 1345              	.LFB236:
 1346              		.loc 1 486 0
 1347              		.cfi_startproc
 1348              		@ args = 0, pretend = 0, frame = 0
 1349              		@ frame_needed = 0, uses_anonymous_args = 0
 1350              	.LVL106:
 1351 0000 38B5     		push	{r3, r4, r5, lr}
 1352              		.cfi_def_cfa_offset 16
 1353              		.cfi_offset 3, -16
 1354              		.cfi_offset 4, -12
 1355              		.cfi_offset 5, -8
 1356              		.cfi_offset 14, -4
 1357              		.loc 1 488 0
 1358 0002 084C     		ldr	r4, .L56
 1359              		.loc 1 486 0
 1360 0004 0546     		mov	r5, r0
 1361              		.loc 1 488 0
 1362 0006 2046     		mov	r0, r4
 1363              	.LVL107:
 1364 0008 FFF7FEFF 		bl	chMtxLock
 1365              	.LVL108:
 1366              		.loc 1 489 0
 1367 000c 0648     		ldr	r0, .L56+4
ARM GAS  /tmp/ccdgia3Q.s 			page 25


 1368 000e FFF7FEFF 		bl	chCondWait
 1369              	.LVL109:
 1370              		.loc 1 490 0
 1371 0012 2878     		ldrb	r0, [r5]	@ zero_extendqisi2
 1372 0014 FFF7FEFF 		bl	test_emit_token
 1373              	.LVL110:
 1374              		.loc 1 491 0
 1375 0018 2046     		mov	r0, r4
 1376 001a FFF7FEFF 		bl	chMtxUnlock
 1377              	.LVL111:
 1378              		.loc 1 493 0
 1379 001e 0020     		movs	r0, #0
 1380 0020 38BD     		pop	{r3, r4, r5, pc}
 1381              	.LVL112:
 1382              	.L57:
 1383 0022 00BF     		.align	2
 1384              	.L56:
 1385 0024 00000000 		.word	.LANCHOR0
 1386 0028 00000000 		.word	.LANCHOR2
 1387              		.cfi_endproc
 1388              	.LFE236:
 1389              		.size	thread10, .-thread10
 1390 002c AFF30080 		.section	.text.mtx6_setup,"ax",%progbits
 1391              		.align	2
 1392              		.p2align 4,,15
 1393              		.thumb
 1394              		.thumb_func
 1395              		.type	mtx6_setup, %function
 1396              	mtx6_setup:
 1397              	.LFB235:
 1398              		.loc 1 480 0
 1399              		.cfi_startproc
 1400              		@ args = 0, pretend = 0, frame = 0
 1401              		@ frame_needed = 0, uses_anonymous_args = 0
 1402 0000 08B5     		push	{r3, lr}
 1403              		.cfi_def_cfa_offset 8
 1404              		.cfi_offset 3, -8
 1405              		.cfi_offset 14, -4
 1406              		.loc 1 482 0
 1407 0002 0448     		ldr	r0, .L60
 1408 0004 FFF7FEFF 		bl	chCondObjectInit
 1409              	.LVL113:
 1410              		.loc 1 483 0
 1411 0008 0348     		ldr	r0, .L60+4
 1412              		.loc 1 484 0
 1413 000a BDE80840 		pop	{r3, lr}
 1414              		.cfi_restore 14
 1415              		.cfi_restore 3
 1416              		.cfi_def_cfa_offset 0
 1417              		.loc 1 483 0
 1418 000e FFF7FEBF 		b	chMtxObjectInit
 1419              	.LVL114:
 1420              	.L61:
 1421 0012 00BF     		.align	2
 1422              	.L60:
 1423 0014 00000000 		.word	.LANCHOR2
 1424 0018 00000000 		.word	.LANCHOR0
ARM GAS  /tmp/ccdgia3Q.s 			page 26


 1425              		.cfi_endproc
 1426              	.LFE235:
 1427              		.size	mtx6_setup, .-mtx6_setup
 1428 001c AFF30080 		.section	.text.mtx7_setup,"ax",%progbits
 1429              		.align	2
 1430              		.p2align 4,,15
 1431              		.thumb
 1432              		.thumb_func
 1433              		.type	mtx7_setup, %function
 1434              	mtx7_setup:
 1435              	.LFB238:
 1436              		.loc 1 532 0
 1437              		.cfi_startproc
 1438              		@ args = 0, pretend = 0, frame = 0
 1439              		@ frame_needed = 0, uses_anonymous_args = 0
 1440 0000 08B5     		push	{r3, lr}
 1441              		.cfi_def_cfa_offset 8
 1442              		.cfi_offset 3, -8
 1443              		.cfi_offset 14, -4
 1444              		.loc 1 534 0
 1445 0002 0448     		ldr	r0, .L64
 1446 0004 FFF7FEFF 		bl	chCondObjectInit
 1447              	.LVL115:
 1448              		.loc 1 535 0
 1449 0008 0348     		ldr	r0, .L64+4
 1450              		.loc 1 536 0
 1451 000a BDE80840 		pop	{r3, lr}
 1452              		.cfi_restore 14
 1453              		.cfi_restore 3
 1454              		.cfi_def_cfa_offset 0
 1455              		.loc 1 535 0
 1456 000e FFF7FEBF 		b	chMtxObjectInit
 1457              	.LVL116:
 1458              	.L65:
 1459 0012 00BF     		.align	2
 1460              	.L64:
 1461 0014 00000000 		.word	.LANCHOR2
 1462 0018 00000000 		.word	.LANCHOR0
 1463              		.cfi_endproc
 1464              	.LFE238:
 1465              		.size	mtx7_setup, .-mtx7_setup
 1466 001c AFF30080 		.section	.text.mtx8_setup,"ax",%progbits
 1467              		.align	2
 1468              		.p2align 4,,15
 1469              		.thumb
 1470              		.thumb_func
 1471              		.type	mtx8_setup, %function
 1472              	mtx8_setup:
 1473              	.LFB240:
 1474              		.loc 1 567 0
 1475              		.cfi_startproc
 1476              		@ args = 0, pretend = 0, frame = 0
 1477              		@ frame_needed = 0, uses_anonymous_args = 0
 1478 0000 08B5     		push	{r3, lr}
 1479              		.cfi_def_cfa_offset 8
 1480              		.cfi_offset 3, -8
 1481              		.cfi_offset 14, -4
ARM GAS  /tmp/ccdgia3Q.s 			page 27


 1482              		.loc 1 569 0
 1483 0002 0548     		ldr	r0, .L68
 1484 0004 FFF7FEFF 		bl	chCondObjectInit
 1485              	.LVL117:
 1486              		.loc 1 570 0
 1487 0008 0448     		ldr	r0, .L68+4
 1488 000a FFF7FEFF 		bl	chMtxObjectInit
 1489              	.LVL118:
 1490              		.loc 1 571 0
 1491 000e 0448     		ldr	r0, .L68+8
 1492              		.loc 1 572 0
 1493 0010 BDE80840 		pop	{r3, lr}
 1494              		.cfi_restore 14
 1495              		.cfi_restore 3
 1496              		.cfi_def_cfa_offset 0
 1497              		.loc 1 571 0
 1498 0014 FFF7FEBF 		b	chMtxObjectInit
 1499              	.LVL119:
 1500              	.L69:
 1501              		.align	2
 1502              	.L68:
 1503 0018 00000000 		.word	.LANCHOR2
 1504 001c 00000000 		.word	.LANCHOR0
 1505 0020 00000000 		.word	.LANCHOR1
 1506              		.cfi_endproc
 1507              	.LFE240:
 1508              		.size	mtx8_setup, .-mtx8_setup
 1509 0024 AFF30080 		.section	.text.mtx7_execute,"ax",%progbits
 1509      AFF30080 
 1509      AFF30080 
 1510              		.align	2
 1511              		.p2align 4,,15
 1512              		.thumb
 1513              		.thumb_func
 1514              		.type	mtx7_execute, %function
 1515              	mtx7_execute:
 1516              	.LFB239:
 1517              		.loc 1 538 0
 1518              		.cfi_startproc
 1519              		@ args = 0, pretend = 0, frame = 0
 1520              		@ frame_needed = 0, uses_anonymous_args = 0
 1521 0000 F0B5     		push	{r4, r5, r6, r7, lr}
 1522              		.cfi_def_cfa_offset 20
 1523              		.cfi_offset 4, -20
 1524              		.cfi_offset 5, -16
 1525              		.cfi_offset 6, -12
 1526              		.cfi_offset 7, -8
 1527              		.cfi_offset 14, -4
 1528              	.LBB237:
 1529              	.LBB238:
 1530              	.LBB239:
 1531              	.LBB240:
 1532              		.loc 2 179 0
 1533 0002 244B     		ldr	r3, .L72
 1534              	.LBE240:
 1535              	.LBE239:
 1536              	.LBE238:
ARM GAS  /tmp/ccdgia3Q.s 			page 28


 1537              	.LBE237:
 1538              		.loc 1 541 0
 1539 0004 244F     		ldr	r7, .L72+4
 1540              	.LBB243:
 1541              	.LBB241:
 1542              		.loc 2 192 0
 1543 0006 9B69     		ldr	r3, [r3, #24]
 1544              	.LBE241:
 1545              	.LBE243:
 1546              		.loc 1 541 0
 1547 0008 244D     		ldr	r5, .L72+8
 1548              	.LBB244:
 1549              	.LBB242:
 1550              		.loc 2 192 0
 1551 000a 9E68     		ldr	r6, [r3, #8]
 1552              	.LBE242:
 1553              	.LBE244:
 1554              		.loc 1 541 0
 1555 000c 244B     		ldr	r3, .L72+12
 1556 000e 3868     		ldr	r0, [r7]
 1557 0010 244C     		ldr	r4, .L72+16
 1558              		.loc 1 538 0
 1559 0012 83B0     		sub	sp, sp, #12
 1560              		.cfi_def_cfa_offset 32
 1561              		.loc 1 541 0
 1562 0014 721C     		adds	r2, r6, #1
 1563 0016 0093     		str	r3, [sp]
 1564 0018 4FF4E871 		mov	r1, #464
 1565 001c 2B46     		mov	r3, r5
 1566 001e FFF7FEFF 		bl	chThdCreateStatic
 1567              	.LVL120:
 1568              		.loc 1 542 0
 1569 0022 7B68     		ldr	r3, [r7, #4]
 1570 0024 2049     		ldr	r1, .L72+20
 1571              		.loc 1 541 0
 1572 0026 2060     		str	r0, [r4]
 1573              		.loc 1 542 0
 1574 0028 B21C     		adds	r2, r6, #2
 1575 002a 0091     		str	r1, [sp]
 1576 002c 1846     		mov	r0, r3
 1577 002e 4FF4E871 		mov	r1, #464
 1578 0032 2B46     		mov	r3, r5
 1579 0034 FFF7FEFF 		bl	chThdCreateStatic
 1580              	.LVL121:
 1581              		.loc 1 543 0
 1582 0038 BB68     		ldr	r3, [r7, #8]
 1583 003a 1C49     		ldr	r1, .L72+24
 1584              		.loc 1 542 0
 1585 003c 6060     		str	r0, [r4, #4]
 1586              		.loc 1 543 0
 1587 003e F21C     		adds	r2, r6, #3
 1588 0040 0091     		str	r1, [sp]
 1589 0042 1846     		mov	r0, r3
 1590 0044 4FF4E871 		mov	r1, #464
 1591 0048 2B46     		mov	r3, r5
 1592 004a FFF7FEFF 		bl	chThdCreateStatic
 1593              	.LVL122:
ARM GAS  /tmp/ccdgia3Q.s 			page 29


 1594              		.loc 1 544 0
 1595 004e FB68     		ldr	r3, [r7, #12]
 1596 0050 1749     		ldr	r1, .L72+28
 1597              		.loc 1 543 0
 1598 0052 A060     		str	r0, [r4, #8]
 1599              		.loc 1 544 0
 1600 0054 321D     		adds	r2, r6, #4
 1601 0056 0091     		str	r1, [sp]
 1602 0058 1846     		mov	r0, r3
 1603 005a 4FF4E871 		mov	r1, #464
 1604 005e 2B46     		mov	r3, r5
 1605 0060 FFF7FEFF 		bl	chThdCreateStatic
 1606              	.LVL123:
 1607              		.loc 1 545 0
 1608 0064 3B69     		ldr	r3, [r7, #16]
 1609 0066 1349     		ldr	r1, .L72+32
 1610              		.loc 1 544 0
 1611 0068 E060     		str	r0, [r4, #12]
 1612              		.loc 1 545 0
 1613 006a 721D     		adds	r2, r6, #5
 1614 006c 0091     		str	r1, [sp]
 1615 006e 1846     		mov	r0, r3
 1616 0070 4FF4E871 		mov	r1, #464
 1617 0074 2B46     		mov	r3, r5
 1618 0076 FFF7FEFF 		bl	chThdCreateStatic
 1619              	.LVL124:
 1620 007a 2061     		str	r0, [r4, #16]
 1621              		.loc 1 546 0
 1622 007c 0E48     		ldr	r0, .L72+36
 1623 007e FFF7FEFF 		bl	chCondBroadcast
 1624              	.LVL125:
 1625              		.loc 1 547 0
 1626 0082 FFF7FEFF 		bl	test_wait_threads
 1627              	.LVL126:
 1628              		.loc 1 548 0
 1629 0086 0D49     		ldr	r1, .L72+40
 1630 0088 0120     		movs	r0, #1
 1631              		.loc 1 549 0
 1632 008a 03B0     		add	sp, sp, #12
 1633              		.cfi_def_cfa_offset 20
 1634              		@ sp needed
 1635 008c BDE8F040 		pop	{r4, r5, r6, r7, lr}
 1636              		.cfi_restore 14
 1637              		.cfi_restore 7
 1638              		.cfi_restore 6
 1639              		.cfi_restore 5
 1640              		.cfi_restore 4
 1641              		.cfi_def_cfa_offset 0
 1642              		.loc 1 548 0
 1643 0090 FFF7FEBF 		b	_test_assert_sequence
 1644              	.LVL127:
 1645              	.L73:
 1646              		.align	2
 1647              	.L72:
 1648 0094 00000000 		.word	ch
 1649 0098 00000000 		.word	wa
 1650 009c 00000000 		.word	thread10
ARM GAS  /tmp/ccdgia3Q.s 			page 30


 1651 00a0 00000000 		.word	.LC0
 1652 00a4 00000000 		.word	threads
 1653 00a8 04000000 		.word	.LC1
 1654 00ac 08000000 		.word	.LC2
 1655 00b0 0C000000 		.word	.LC3
 1656 00b4 10000000 		.word	.LC4
 1657 00b8 00000000 		.word	.LANCHOR2
 1658 00bc 14000000 		.word	.LC5
 1659              		.cfi_endproc
 1660              	.LFE239:
 1661              		.size	mtx7_execute, .-mtx7_execute
 1662              		.section	.text.mtx8_execute,"ax",%progbits
 1663              		.align	2
 1664              		.p2align 4,,15
 1665              		.thumb
 1666              		.thumb_func
 1667              		.type	mtx8_execute, %function
 1668              	mtx8_execute:
 1669              	.LFB243:
 1670              		.loc 1 597 0
 1671              		.cfi_startproc
 1672              		@ args = 0, pretend = 0, frame = 0
 1673              		@ frame_needed = 0, uses_anonymous_args = 0
 1674 0000 F0B5     		push	{r4, r5, r6, r7, lr}
 1675              		.cfi_def_cfa_offset 20
 1676              		.cfi_offset 4, -20
 1677              		.cfi_offset 5, -16
 1678              		.cfi_offset 6, -12
 1679              		.cfi_offset 7, -8
 1680              		.cfi_offset 14, -4
 1681              	.LBB245:
 1682              	.LBB246:
 1683              	.LBB247:
 1684              	.LBB248:
 1685              		.loc 2 179 0
 1686 0002 1B4B     		ldr	r3, .L76
 1687              	.LBE248:
 1688              	.LBE247:
 1689              	.LBE246:
 1690              	.LBE245:
 1691              		.loc 1 600 0
 1692 0004 1B4E     		ldr	r6, .L76+4
 1693              	.LBB251:
 1694              	.LBB249:
 1695              		.loc 2 192 0
 1696 0006 9B69     		ldr	r3, [r3, #24]
 1697              	.LBE249:
 1698              	.LBE251:
 1699              		.loc 1 600 0
 1700 0008 3068     		ldr	r0, [r6]
 1701              	.LBB252:
 1702              	.LBB250:
 1703              		.loc 2 192 0
 1704 000a 9D68     		ldr	r5, [r3, #8]
 1705              	.LBE250:
 1706              	.LBE252:
 1707              		.loc 1 600 0
ARM GAS  /tmp/ccdgia3Q.s 			page 31


 1708 000c 1A4B     		ldr	r3, .L76+8
 1709 000e 1B4C     		ldr	r4, .L76+12
 1710              		.loc 1 603 0
 1711 0010 1B4F     		ldr	r7, .L76+16
 1712              		.loc 1 597 0
 1713 0012 83B0     		sub	sp, sp, #12
 1714              		.cfi_def_cfa_offset 32
 1715              		.loc 1 600 0
 1716 0014 6A1C     		adds	r2, r5, #1
 1717 0016 0093     		str	r3, [sp]
 1718 0018 4FF4E871 		mov	r1, #464
 1719 001c 194B     		ldr	r3, .L76+20
 1720 001e FFF7FEFF 		bl	chThdCreateStatic
 1721              	.LVL128:
 1722              		.loc 1 601 0
 1723 0022 7168     		ldr	r1, [r6, #4]
 1724 0024 184B     		ldr	r3, .L76+24
 1725              		.loc 1 600 0
 1726 0026 2060     		str	r0, [r4]
 1727              		.loc 1 601 0
 1728 0028 AA1C     		adds	r2, r5, #2
 1729 002a 0093     		str	r3, [sp]
 1730 002c 0846     		mov	r0, r1
 1731 002e 174B     		ldr	r3, .L76+28
 1732 0030 4FF4E871 		mov	r1, #464
 1733 0034 FFF7FEFF 		bl	chThdCreateStatic
 1734              	.LVL129:
 1735              		.loc 1 602 0
 1736 0038 B168     		ldr	r1, [r6, #8]
 1737 003a 154B     		ldr	r3, .L76+32
 1738              		.loc 1 601 0
 1739 003c 6060     		str	r0, [r4, #4]
 1740              		.loc 1 602 0
 1741 003e EA1C     		adds	r2, r5, #3
 1742 0040 0093     		str	r3, [sp]
 1743 0042 0846     		mov	r0, r1
 1744 0044 134B     		ldr	r3, .L76+36
 1745 0046 4FF4E871 		mov	r1, #464
 1746 004a FFF7FEFF 		bl	chThdCreateStatic
 1747              	.LVL130:
 1748 004e A060     		str	r0, [r4, #8]
 1749              		.loc 1 603 0
 1750 0050 3846     		mov	r0, r7
 1751 0052 FFF7FEFF 		bl	chCondSignal
 1752              	.LVL131:
 1753              		.loc 1 604 0
 1754 0056 3846     		mov	r0, r7
 1755 0058 FFF7FEFF 		bl	chCondSignal
 1756              	.LVL132:
 1757              		.loc 1 605 0
 1758 005c FFF7FEFF 		bl	test_wait_threads
 1759              	.LVL133:
 1760              		.loc 1 606 0
 1761 0060 0D49     		ldr	r1, .L76+40
 1762 0062 0120     		movs	r0, #1
 1763              		.loc 1 607 0
 1764 0064 03B0     		add	sp, sp, #12
ARM GAS  /tmp/ccdgia3Q.s 			page 32


 1765              		.cfi_def_cfa_offset 20
 1766              		@ sp needed
 1767 0066 BDE8F040 		pop	{r4, r5, r6, r7, lr}
 1768              		.cfi_restore 14
 1769              		.cfi_restore 7
 1770              		.cfi_restore 6
 1771              		.cfi_restore 5
 1772              		.cfi_restore 4
 1773              		.cfi_def_cfa_offset 0
 1774              		.loc 1 606 0
 1775 006a FFF7FEBF 		b	_test_assert_sequence
 1776              	.LVL134:
 1777              	.L77:
 1778 006e 00BF     		.align	2
 1779              	.L76:
 1780 0070 00000000 		.word	ch
 1781 0074 00000000 		.word	wa
 1782 0078 10000000 		.word	.LC4
 1783 007c 00000000 		.word	threads
 1784 0080 00000000 		.word	.LANCHOR2
 1785 0084 00000000 		.word	thread11
 1786 0088 08000000 		.word	.LC2
 1787 008c 00000000 		.word	thread10
 1788 0090 0C000000 		.word	.LC3
 1789 0094 00000000 		.word	thread12
 1790 0098 1C000000 		.word	.LC6
 1791              		.cfi_endproc
 1792              	.LFE243:
 1793              		.size	mtx8_execute, .-mtx8_execute
 1794 009c AFF30080 		.section	.text.thread11,"ax",%progbits
 1795              		.align	2
 1796              		.p2align 4,,15
 1797              		.thumb
 1798              		.thumb_func
 1799              		.type	thread11, %function
 1800              	thread11:
 1801              	.LFB241:
 1802              		.loc 1 574 0
 1803              		.cfi_startproc
 1804              		@ args = 0, pretend = 0, frame = 0
 1805              		@ frame_needed = 0, uses_anonymous_args = 0
 1806              	.LVL135:
 1807 0000 70B5     		push	{r4, r5, r6, lr}
 1808              		.cfi_def_cfa_offset 16
 1809              		.cfi_offset 4, -16
 1810              		.cfi_offset 5, -12
 1811              		.cfi_offset 6, -8
 1812              		.cfi_offset 14, -4
 1813              		.loc 1 576 0
 1814 0002 0C4C     		ldr	r4, .L80
 1815              		.loc 1 577 0
 1816 0004 0C4D     		ldr	r5, .L80+4
 1817              		.loc 1 574 0
 1818 0006 0646     		mov	r6, r0
 1819              		.loc 1 576 0
 1820 0008 2046     		mov	r0, r4
 1821              	.LVL136:
ARM GAS  /tmp/ccdgia3Q.s 			page 33


 1822 000a FFF7FEFF 		bl	chMtxLock
 1823              	.LVL137:
 1824              		.loc 1 577 0
 1825 000e 2846     		mov	r0, r5
 1826 0010 FFF7FEFF 		bl	chMtxLock
 1827              	.LVL138:
 1828              		.loc 1 579 0
 1829 0014 4FF0FF31 		mov	r1, #-1
 1830 0018 0848     		ldr	r0, .L80+8
 1831 001a FFF7FEFF 		bl	chCondWaitTimeout
 1832              	.LVL139:
 1833              		.loc 1 583 0
 1834 001e 3078     		ldrb	r0, [r6]	@ zero_extendqisi2
 1835 0020 FFF7FEFF 		bl	test_emit_token
 1836              	.LVL140:
 1837              		.loc 1 584 0
 1838 0024 2846     		mov	r0, r5
 1839 0026 FFF7FEFF 		bl	chMtxUnlock
 1840              	.LVL141:
 1841              		.loc 1 585 0
 1842 002a 2046     		mov	r0, r4
 1843 002c FFF7FEFF 		bl	chMtxUnlock
 1844              	.LVL142:
 1845              		.loc 1 587 0
 1846 0030 0020     		movs	r0, #0
 1847 0032 70BD     		pop	{r4, r5, r6, pc}
 1848              	.LVL143:
 1849              	.L81:
 1850              		.align	2
 1851              	.L80:
 1852 0034 00000000 		.word	.LANCHOR1
 1853 0038 00000000 		.word	.LANCHOR0
 1854 003c 00000000 		.word	.LANCHOR2
 1855              		.cfi_endproc
 1856              	.LFE241:
 1857              		.size	thread11, .-thread11
 1858              		.global	patternmtx
 1859              		.global	testmtx8
 1860              		.global	testmtx7
 1861              		.global	testmtx6
 1862              		.global	testmtx5
 1863              		.global	testmtx4
 1864              		.global	testmtx1
 1865              		.section	.rodata.testmtx5,"a",%progbits
 1866              		.align	2
 1867              		.type	testmtx5, %object
 1868              		.size	testmtx5, 16
 1869              	testmtx5:
 1870 0000 64000000 		.word	.LC10
 1871 0004 00000000 		.word	mtx5_setup
 1872 0008 00000000 		.word	0
 1873 000c 00000000 		.word	mtx5_execute
 1874              		.section	.rodata.testmtx6,"a",%progbits
 1875              		.align	2
 1876              		.type	testmtx6, %object
 1877              		.size	testmtx6, 16
 1878              	testmtx6:
ARM GAS  /tmp/ccdgia3Q.s 			page 34


 1879 0000 4C000000 		.word	.LC9
 1880 0004 00000000 		.word	mtx6_setup
 1881 0008 00000000 		.word	0
 1882 000c 00000000 		.word	mtx6_execute
 1883              		.section	.rodata.testmtx7,"a",%progbits
 1884              		.align	2
 1885              		.type	testmtx7, %object
 1886              		.size	testmtx7, 16
 1887              	testmtx7:
 1888 0000 34000000 		.word	.LC8
 1889 0004 00000000 		.word	mtx7_setup
 1890 0008 00000000 		.word	0
 1891 000c 00000000 		.word	mtx7_execute
 1892              		.section	.rodata.testmtx8,"a",%progbits
 1893              		.align	2
 1894              		.type	testmtx8, %object
 1895              		.size	testmtx8, 16
 1896              	testmtx8:
 1897 0000 20000000 		.word	.LC7
 1898 0004 00000000 		.word	mtx8_setup
 1899 0008 00000000 		.word	0
 1900 000c 00000000 		.word	mtx8_execute
 1901              		.section	.data.m1,"aw",%progbits
 1902              		.align	2
 1903              		.set	.LANCHOR0,. + 0
 1904              		.type	m1, %object
 1905              		.size	m1, 16
 1906              	m1:
 1907 0000 00000000 		.word	m1
 1908 0004 00000000 		.word	m1
 1909 0008 00000000 		.word	0
 1910 000c 00000000 		.word	0
 1911              		.section	.data.m2,"aw",%progbits
 1912              		.align	2
 1913              		.set	.LANCHOR1,. + 0
 1914              		.type	m2, %object
 1915              		.size	m2, 16
 1916              	m2:
 1917 0000 00000000 		.word	m2
 1918 0004 00000000 		.word	m2
 1919 0008 00000000 		.word	0
 1920 000c 00000000 		.word	0
 1921              		.section	.rodata.str1.4,"aMS",%progbits,1
 1922              		.align	2
 1923              	.LC0:
 1924 0000 4500     		.ascii	"E\000"
 1925 0002 0000     		.space	2
 1926              	.LC1:
 1927 0004 4400     		.ascii	"D\000"
 1928 0006 0000     		.space	2
 1929              	.LC2:
 1930 0008 4300     		.ascii	"C\000"
 1931 000a 0000     		.space	2
 1932              	.LC3:
 1933 000c 4200     		.ascii	"B\000"
 1934 000e 0000     		.space	2
 1935              	.LC4:
ARM GAS  /tmp/ccdgia3Q.s 			page 35


 1936 0010 4100     		.ascii	"A\000"
 1937 0012 0000     		.space	2
 1938              	.LC5:
 1939 0014 41424344 		.ascii	"ABCDE\000"
 1939      4500
 1940 001a 0000     		.space	2
 1941              	.LC6:
 1942 001c 41424300 		.ascii	"ABC\000"
 1943              	.LC7:
 1944 0020 436F6E64 		.ascii	"CondVar, boost test\000"
 1944      5661722C 
 1944      20626F6F 
 1944      73742074 
 1944      65737400 
 1945              	.LC8:
 1946 0034 436F6E64 		.ascii	"CondVar, broadcast test\000"
 1946      5661722C 
 1946      2062726F 
 1946      61646361 
 1946      73742074 
 1947              	.LC9:
 1948 004c 436F6E64 		.ascii	"CondVar, signal test\000"
 1948      5661722C 
 1948      20736967 
 1948      6E616C20 
 1948      74657374 
 1949 0061 000000   		.space	3
 1950              	.LC10:
 1951 0064 4D757465 		.ascii	"Mutexes, status\000"
 1951      7865732C 
 1951      20737461 
 1951      74757300 
 1952              	.LC11:
 1953 0074 4D757465 		.ascii	"Mutexes, priority return\000"
 1953      7865732C 
 1953      20707269 
 1953      6F726974 
 1953      79207265 
 1954 008d 000000   		.space	3
 1955              	.LC12:
 1956 0090 4D757465 		.ascii	"Mutexes, priority enqueuing test\000"
 1956      7865732C 
 1956      20707269 
 1956      6F726974 
 1956      7920656E 
 1957 00b1 000000   		.section	.rodata.patternmtx,"a",%progbits
 1958              		.align	2
 1959              		.type	patternmtx, %object
 1960              		.size	patternmtx, 28
 1961              	patternmtx:
 1962 0000 00000000 		.word	testmtx1
 1963 0004 00000000 		.word	testmtx4
 1964 0008 00000000 		.word	testmtx5
 1965 000c 00000000 		.word	testmtx6
 1966 0010 00000000 		.word	testmtx7
 1967 0014 00000000 		.word	testmtx8
 1968 0018 00000000 		.word	0
ARM GAS  /tmp/ccdgia3Q.s 			page 36


 1969              		.section	.data.c1,"aw",%progbits
 1970              		.align	2
 1971              		.set	.LANCHOR2,. + 0
 1972              		.type	c1, %object
 1973              		.size	c1, 8
 1974              	c1:
 1975 0000 00000000 		.word	c1
 1976 0004 00000000 		.word	c1
 1977              		.section	.rodata.testmtx1,"a",%progbits
 1978              		.align	2
 1979              		.type	testmtx1, %object
 1980              		.size	testmtx1, 16
 1981              	testmtx1:
 1982 0000 90000000 		.word	.LC12
 1983 0004 00000000 		.word	mtx1_setup
 1984 0008 00000000 		.word	0
 1985 000c 00000000 		.word	mtx1_execute
 1986              		.section	.rodata.testmtx4,"a",%progbits
 1987              		.align	2
 1988              		.type	testmtx4, %object
 1989              		.size	testmtx4, 16
 1990              	testmtx4:
 1991 0000 74000000 		.word	.LC11
 1992 0004 00000000 		.word	mtx4_setup
 1993 0008 00000000 		.word	0
 1994 000c 00000000 		.word	mtx4_execute
 1995              		.text
 1996              	.Letext0:
 1997              		.file 5 "/l/arm2/gcc-arm-none-eabi-4_9-2014q4/lib/gcc/arm-none-eabi/4.9.3/include/stddef.h"
 1998              		.file 6 "/l/arm2/gcc-arm-none-eabi-4_9-2014q4/arm-none-eabi/include/machine/_default_types.h"
 1999              		.file 7 "/l/arm2/gcc-arm-none-eabi-4_9-2014q4/arm-none-eabi/include/stdint.h"
 2000              		.file 8 "../ChibiOS/os/rt/ports/ARMCMx/compilers/GCC/chtypes.h"
 2001              		.file 9 "../ChibiOS/os/rt/include/chsystypes.h"
 2002              		.file 10 "../ChibiOS/os/rt/ports/ARMCMx/chcore.h"
 2003              		.file 11 "../ChibiOS/os/rt/ports/ARMCMx/chcore_v7m.h"
 2004              		.file 12 "../ChibiOS/os/rt/include/chtm.h"
 2005              		.file 13 "../ChibiOS/os/rt/include/chmtx.h"
 2006              		.file 14 "../ChibiOS/os/rt/include/chcond.h"
 2007              		.file 15 "../ChibiOS/test/rt/test.h"
 2008              		.file 16 "../ChibiOS/os/rt/include/chsys.h"
 2009              		.file 17 "../ChibiOS/os/ext/CMSIS/include/core_cm4.h"