ARM GAS  /tmp/ccMr3Nz9.s 			page 1


   1              		.syntax unified
   2              		.cpu cortex-m4
   3              		.eabi_attribute 27, 3
   4              		.eabi_attribute 28, 1
   5              		.fpu fpv4-sp-d16
   6              		.eabi_attribute 20, 1
   7              		.eabi_attribute 21, 1
   8              		.eabi_attribute 23, 3
   9              		.eabi_attribute 24, 1
  10              		.eabi_attribute 25, 1
  11              		.eabi_attribute 26, 1
  12              		.eabi_attribute 30, 2
  13              		.eabi_attribute 34, 1
  14              		.eabi_attribute 18, 4
  15              		.thumb
  16              		.file	"testmbox.c"
  17              		.text
  18              	.Ltext0:
  19              		.cfi_sections	.debug_frame
  20              		.section	.text.mbox1_execute,"ax",%progbits
  21              		.align	2
  22              		.p2align 4,,15
  23              		.thumb
  24              		.thumb_func
  25              		.type	mbox1_execute, %function
  26              	mbox1_execute:
  27              	.LFB227:
  28              		.file 1 "../ChibiOS/test/rt/testmbox.c"
  29              		.loc 1 76 0
  30              		.cfi_startproc
  31              		@ args = 0, pretend = 0, frame = 8
  32              		@ frame_needed = 0, uses_anonymous_args = 0
  33              	.LVL0:
  34 0000 2DE9F041 		push	{r4, r5, r6, r7, r8, lr}
  35              		.cfi_def_cfa_offset 24
  36              		.cfi_offset 4, -24
  37              		.cfi_offset 5, -20
  38              		.cfi_offset 6, -16
  39              		.cfi_offset 7, -12
  40              		.cfi_offset 8, -8
  41              		.cfi_offset 14, -4
  42              	.LBB335:
  43              	.LBB336:
  44              	.LBB337:
  45              	.LBB338:
  46              		.file 2 "../ChibiOS/os/ext/CMSIS/include/core_cmFunc.h"
  47              		.loc 2 546 0
  48 0004 2023     		movs	r3, #32
  49              	.LBE338:
  50              	.LBE337:
  51              	.LBE336:
  52              	.LBE335:
  53              		.loc 1 76 0
  54 0006 82B0     		sub	sp, sp, #8
  55              		.cfi_def_cfa_offset 32
  56              	.LBB342:
  57              	.LBB341:
ARM GAS  /tmp/ccMr3Nz9.s 			page 2


  58              	.LBB340:
  59              	.LBB339:
  60              		.loc 2 546 0
  61              	@ 546 "../ChibiOS/os/ext/CMSIS/include/core_cmFunc.h" 1
  62 0008 83F31188 		MSR basepri, r3
  63              	@ 0 "" 2
  64              	.LVL1:
  65              		.thumb
  66 000c CC4E     		ldr	r6, .L39
  67              	.LBE339:
  68              	.LBE340:
  69              	.LBE341:
  70              	.LBE342:
  71              		.loc 1 83 0
  72 000e 716A     		ldr	r1, [r6, #36]
  73 0010 0120     		movs	r0, #1
  74 0012 A1F10501 		sub	r1, #5
  75 0016 B1FA81F1 		clz	r1, r1
  76 001a 4909     		lsrs	r1, r1, #5
  77 001c FFF7FEFF 		bl	_test_assert
  78              	.LVL2:
  79 0020 0028     		cmp	r0, #0
  80 0022 40F01A81 		bne	.L32
  81              	.LVL3:
  82              	.LBB343:
  83              	.LBB344:
  84              	.LBB345:
  85              	.LBB346:
  86              	.LBB347:
  87              		.loc 2 546 0
  88              	@ 546 "../ChibiOS/os/ext/CMSIS/include/core_cmFunc.h" 1
  89 0026 80F31188 		MSR basepri, r0
  90              	@ 0 "" 2
  91              	.LVL4:
  92              		.thumb
  93 002a 4224     		movs	r4, #66
  94              	.LVL5:
  95              	.L5:
  96              	.LBE347:
  97              	.LBE346:
  98              	.LBE345:
  99              	.LBE344:
 100              	.LBE343:
 101              		.loc 1 89 0
 102 002c C44D     		ldr	r5, .L39
 103 002e 2146     		mov	r1, r4
 104 0030 4FF0FF32 		mov	r2, #-1
 105 0034 2846     		mov	r0, r5
 106 0036 FFF7FEFF 		bl	chMBPost
 107              	.LVL6:
 108              		.loc 1 90 0
 109 003a B0FA80F1 		clz	r1, r0
 110 003e 0220     		movs	r0, #2
 111              	.LVL7:
 112 0040 4909     		lsrs	r1, r1, #5
 113 0042 FFF7FEFF 		bl	_test_assert
 114              	.LVL8:
ARM GAS  /tmp/ccMr3Nz9.s 			page 3


 115 0046 0134     		adds	r4, r4, #1
 116              	.LVL9:
 117 0048 80B9     		cbnz	r0, .L1
 118              		.loc 1 88 0 discriminator 2
 119 004a 462C     		cmp	r4, #70
 120 004c EED1     		bne	.L5
 121              		.loc 1 92 0
 122 004e 4121     		movs	r1, #65
 123 0050 2846     		mov	r0, r5
 124 0052 4FF0FF32 		mov	r2, #-1
 125 0056 FFF7FEFF 		bl	chMBPostAhead
 126              	.LVL10:
 127              		.loc 1 93 0
 128 005a B0FA80F1 		clz	r1, r0
 129 005e 0320     		movs	r0, #3
 130              	.LVL11:
 131 0060 4909     		lsrs	r1, r1, #5
 132 0062 FFF7FEFF 		bl	_test_assert
 133              	.LVL12:
 134 0066 0028     		cmp	r0, #0
 135 0068 00F0FD80 		beq	.L34
 136              	.LVL13:
 137              	.L1:
 138              		.loc 1 220 0
 139 006c 02B0     		add	sp, sp, #8
 140              		.cfi_remember_state
 141              		.cfi_def_cfa_offset 24
 142              		@ sp needed
 143 006e BDE8F081 		pop	{r4, r5, r6, r7, r8, pc}
 144              	.LVL14:
 145              	.L38:
 146              		.cfi_restore_state
 147              	.LBB348:
 148              	.LBB349:
 149              	.LBB350:
 150              	.LBB351:
 151              	.LBB352:
 152              		.loc 2 546 0
 153              	@ 546 "../ChibiOS/os/ext/CMSIS/include/core_cmFunc.h" 1
 154 0072 85F31188 		MSR basepri, r5
 155              	@ 0 "" 2
 156              	.LVL15:
 157              		.thumb
 158              	.LBE352:
 159              	.LBE351:
 160              	.LBE350:
 161              	.LBE349:
 162              	.LBE348:
 163              	.LBB353:
 164              	.LBB354:
 165              	.LBB355:
 166              	.LBB356:
 167              	@ 546 "../ChibiOS/os/ext/CMSIS/include/core_cmFunc.h" 1
 168 0076 87F31188 		MSR basepri, r7
 169              	@ 0 "" 2
 170              	.LVL16:
 171              		.thumb
ARM GAS  /tmp/ccMr3Nz9.s 			page 4


 172              	.LBE356:
 173              	.LBE355:
 174              	.LBE354:
 175              	.LBE353:
 176              		.loc 1 180 0
 177 007a 1F20     		movs	r0, #31
 178 007c A169     		ldr	r1, [r4, #24]
 179 007e B1FA81F1 		clz	r1, r1
 180 0082 4909     		lsrs	r1, r1, #5
 181 0084 FFF7FEFF 		bl	_test_assert
 182              	.LVL17:
 183 0088 0028     		cmp	r0, #0
 184 008a 40F0A082 		bne	.L31
 185              	.LVL18:
 186              	.LBB357:
 187              	.LBB358:
 188              	.LBB359:
 189              	.LBB360:
 190              	.LBB361:
 191              		.loc 2 546 0
 192              	@ 546 "../ChibiOS/os/ext/CMSIS/include/core_cmFunc.h" 1
 193 008e 85F31188 		MSR basepri, r5
 194              	@ 0 "" 2
 195              		.thumb
 196              	.LBE361:
 197              	.LBE360:
 198              	.LBE359:
 199              	.LBE358:
 200              	.LBE357:
 201              		.loc 1 181 0
 202 0092 E168     		ldr	r1, [r4, #12]
 203 0094 A368     		ldr	r3, [r4, #8]
 204 0096 CB1A     		subs	r3, r1, r3
 205 0098 5942     		rsbs	r1, r3, #0
 206 009a 5941     		adcs	r1, r1, r3
 207 009c 3846     		mov	r0, r7
 208 009e FFF7FEFF 		bl	_test_assert
 209              	.LVL19:
 210 00a2 0028     		cmp	r0, #0
 211 00a4 E2D1     		bne	.L1
 212              	.LVL20:
 213              	.LBB362:
 214              	.LBB363:
 215              	.LBB364:
 216              	.LBB365:
 217              		.loc 2 546 0
 218              	@ 546 "../ChibiOS/os/ext/CMSIS/include/core_cmFunc.h" 1
 219 00a6 87F31188 		MSR basepri, r7
 220              	@ 0 "" 2
 221              		.thumb
 222              	.LBE365:
 223              	.LBE364:
 224              	.LBE363:
 225              	.LBE362:
 226              		.loc 1 184 0
 227 00aa 4521     		movs	r1, #69
 228 00ac 2046     		mov	r0, r4
ARM GAS  /tmp/ccMr3Nz9.s 			page 5


 229 00ae FFF7FEFF 		bl	chMBPostAheadI
 230              	.LVL21:
 231              		.loc 1 185 0
 232 00b2 B0FA80F1 		clz	r1, r0
 233 00b6 2120     		movs	r0, #33
 234              	.LVL22:
 235 00b8 4909     		lsrs	r1, r1, #5
 236 00ba FFF7FEFF 		bl	_test_assert
 237              	.LVL23:
 238 00be 0028     		cmp	r0, #0
 239 00c0 D4D1     		bne	.L1
 240              		.loc 1 186 0
 241 00c2 4421     		movs	r1, #68
 242 00c4 2046     		mov	r0, r4
 243 00c6 FFF7FEFF 		bl	chMBPostAheadI
 244              	.LVL24:
 245              		.loc 1 187 0
 246 00ca B0FA80F1 		clz	r1, r0
 247 00ce 2220     		movs	r0, #34
 248              	.LVL25:
 249 00d0 4909     		lsrs	r1, r1, #5
 250 00d2 FFF7FEFF 		bl	_test_assert
 251              	.LVL26:
 252 00d6 0028     		cmp	r0, #0
 253 00d8 C8D1     		bne	.L1
 254              		.loc 1 188 0
 255 00da 4321     		movs	r1, #67
 256 00dc 2046     		mov	r0, r4
 257 00de FFF7FEFF 		bl	chMBPostAheadI
 258              	.LVL27:
 259              		.loc 1 189 0
 260 00e2 B0FA80F1 		clz	r1, r0
 261 00e6 2320     		movs	r0, #35
 262              	.LVL28:
 263 00e8 4909     		lsrs	r1, r1, #5
 264 00ea FFF7FEFF 		bl	_test_assert
 265              	.LVL29:
 266 00ee 0028     		cmp	r0, #0
 267 00f0 BCD1     		bne	.L1
 268              		.loc 1 190 0
 269 00f2 4221     		movs	r1, #66
 270 00f4 2046     		mov	r0, r4
 271 00f6 FFF7FEFF 		bl	chMBPostAheadI
 272              	.LVL30:
 273              		.loc 1 191 0
 274 00fa B0FA80F1 		clz	r1, r0
 275 00fe 2420     		movs	r0, #36
 276              	.LVL31:
 277 0100 4909     		lsrs	r1, r1, #5
 278 0102 FFF7FEFF 		bl	_test_assert
 279              	.LVL32:
 280 0106 0028     		cmp	r0, #0
 281 0108 B0D1     		bne	.L1
 282              		.loc 1 192 0
 283 010a 8D4C     		ldr	r4, .L39
 284 010c 4121     		movs	r1, #65
 285 010e 2046     		mov	r0, r4
ARM GAS  /tmp/ccMr3Nz9.s 			page 6


 286 0110 FFF7FEFF 		bl	chMBPostAheadI
 287              	.LVL33:
 288              	.LBB366:
 289              	.LBB367:
 290              	.LBB368:
 291              	.LBB369:
 292              	.LBB370:
 293              		.loc 2 546 0
 294 0114 0023     		movs	r3, #0
 295              	.LBE370:
 296              	.LBE369:
 297              	.LBE368:
 298              	.LBE367:
 299              	.LBE366:
 300              		.loc 1 192 0
 301 0116 0146     		mov	r1, r0
 302              	.LVL34:
 303              	.LBB375:
 304              	.LBB374:
 305              	.LBB373:
 306              	.LBB372:
 307              	.LBB371:
 308              		.loc 2 546 0
 309              	@ 546 "../ChibiOS/os/ext/CMSIS/include/core_cmFunc.h" 1
 310 0118 83F31188 		MSR basepri, r3
 311              	@ 0 "" 2
 312              		.thumb
 313              	.LBE371:
 314              	.LBE372:
 315              	.LBE373:
 316              	.LBE374:
 317              	.LBE375:
 318              		.loc 1 194 0
 319 011c 2520     		movs	r0, #37
 320              	.LVL35:
 321 011e B1FA81F1 		clz	r1, r1
 322              	.LVL36:
 323 0122 4909     		lsrs	r1, r1, #5
 324 0124 FFF7FEFF 		bl	_test_assert
 325              	.LVL37:
 326 0128 0028     		cmp	r0, #0
 327 012a 9FD1     		bne	.L1
 328              		.loc 1 195 0
 329 012c E168     		ldr	r1, [r4, #12]
 330 012e A368     		ldr	r3, [r4, #8]
 331 0130 C3EB0108 		rsb	r8, r3, r1
 332 0134 D8F10001 		rsbs	r1, r8, #0
 333 0138 41EB0801 		adc	r1, r1, r8
 334 013c 2620     		movs	r0, #38
 335 013e FFF7FEFF 		bl	_test_assert
 336              	.LVL38:
 337 0142 0028     		cmp	r0, #0
 338 0144 92D1     		bne	.L1
 339              	.LBB376:
 340              	.LBB377:
 341              	.LBB378:
 342              	.LBB379:
ARM GAS  /tmp/ccMr3Nz9.s 			page 7


 343              	.LBB380:
 344              		.loc 2 546 0
 345 0146 0746     		mov	r7, r0
 346              	.LBE380:
 347              	.LBE379:
 348              	.LBE378:
 349              	.LBE377:
 350              	.LBE376:
 351 0148 0524     		movs	r4, #5
 352              	.LBB385:
 353              	.LBB386:
 354              	.LBB387:
 355              	.LBB388:
 356 014a 4FF02008 		mov	r8, #32
 357              	.LVL39:
 358              	.L16:
 359 014e 2026     		movs	r6, #32
 360              	@ 546 "../ChibiOS/os/ext/CMSIS/include/core_cmFunc.h" 1
 361 0150 88F31188 		MSR basepri, r8
 362              	@ 0 "" 2
 363              		.thumb
 364              	.LBE388:
 365              	.LBE387:
 366              	.LBE386:
 367              	.LBE385:
 368              		.loc 1 198 0
 369 0154 7A4D     		ldr	r5, .L39
 370 0156 01A9     		add	r1, sp, #4
 371 0158 2846     		mov	r0, r5
 372 015a FFF7FEFF 		bl	chMBFetchI
 373              	.LVL40:
 374 015e 0146     		mov	r1, r0
 375              	.LVL41:
 376              	.LBB389:
 377              	.LBB384:
 378              	.LBB383:
 379              	.LBB382:
 380              	.LBB381:
 381              		.loc 2 546 0
 382              	@ 546 "../ChibiOS/os/ext/CMSIS/include/core_cmFunc.h" 1
 383 0160 87F31188 		MSR basepri, r7
 384              	@ 0 "" 2
 385              		.thumb
 386              	.LBE381:
 387              	.LBE382:
 388              	.LBE383:
 389              	.LBE384:
 390              	.LBE389:
 391              		.loc 1 200 0
 392 0164 2720     		movs	r0, #39
 393              	.LVL42:
 394 0166 B1FA81F1 		clz	r1, r1
 395              	.LVL43:
 396 016a 4909     		lsrs	r1, r1, #5
 397 016c FFF7FEFF 		bl	_test_assert
 398              	.LVL44:
 399 0170 0028     		cmp	r0, #0
ARM GAS  /tmp/ccMr3Nz9.s 			page 8


 400 0172 7FF47BAF 		bne	.L1
 401              		.loc 1 201 0 discriminator 2
 402 0176 9DF80400 		ldrb	r0, [sp, #4]	@ zero_extendqisi2
 403 017a FFF7FEFF 		bl	test_emit_token
 404              	.LVL45:
 405              		.loc 1 196 0 discriminator 2
 406 017e 013C     		subs	r4, r4, #1
 407              	.LVL46:
 408 0180 E5D1     		bne	.L16
 409              		.loc 1 203 0
 410 0182 2820     		movs	r0, #40
 411 0184 6F49     		ldr	r1, .L39+4
 412 0186 FFF7FEFF 		bl	_test_assert_sequence
 413              	.LVL47:
 414 018a 0028     		cmp	r0, #0
 415 018c 7FF46EAF 		bne	.L1
 416              	.LVL48:
 417              	.LBB390:
 418              	.LBB391:
 419              	.LBB392:
 420              	.LBB393:
 421              		.loc 2 546 0
 422              	@ 546 "../ChibiOS/os/ext/CMSIS/include/core_cmFunc.h" 1
 423 0190 86F31188 		MSR basepri, r6
 424              	@ 0 "" 2
 425              	.LVL49:
 426              		.thumb
 427              	.LBE393:
 428              	.LBE392:
 429              	.LBE391:
 430              	.LBE390:
 431              		.loc 1 204 0
 432 0194 696A     		ldr	r1, [r5, #36]
 433 0196 A1F1050C 		sub	ip, r1, #5
 434 019a DCF10001 		rsbs	r1, ip, #0
 435 019e 41EB0C01 		adc	r1, r1, ip
 436 01a2 2920     		movs	r0, #41
 437 01a4 FFF7FEFF 		bl	_test_assert
 438              	.LVL50:
 439 01a8 0028     		cmp	r0, #0
 440 01aa 40F0C580 		bne	.L30
 441              	.LVL51:
 442              	.LBB394:
 443              	.LBB395:
 444              	.LBB396:
 445              	.LBB397:
 446              	.LBB398:
 447              		.loc 2 546 0
 448              	@ 546 "../ChibiOS/os/ext/CMSIS/include/core_cmFunc.h" 1
 449 01ae 84F31188 		MSR basepri, r4
 450              	@ 0 "" 2
 451              	.LVL52:
 452              		.thumb
 453              	.LBE398:
 454              	.LBE397:
 455              	.LBE396:
 456              	.LBE395:
ARM GAS  /tmp/ccMr3Nz9.s 			page 9


 457              	.LBE394:
 458              	.LBB399:
 459              	.LBB400:
 460              	.LBB401:
 461              	.LBB402:
 462              	@ 546 "../ChibiOS/os/ext/CMSIS/include/core_cmFunc.h" 1
 463 01b2 86F31188 		MSR basepri, r6
 464              	@ 0 "" 2
 465              	.LVL53:
 466              		.thumb
 467              	.LBE402:
 468              	.LBE401:
 469              	.LBE400:
 470              	.LBE399:
 471              		.loc 1 205 0
 472 01b6 2A20     		movs	r0, #42
 473 01b8 A969     		ldr	r1, [r5, #24]
 474 01ba B1FA81F1 		clz	r1, r1
 475 01be 4909     		lsrs	r1, r1, #5
 476 01c0 FFF7FEFF 		bl	_test_assert
 477              	.LVL54:
 478 01c4 0028     		cmp	r0, #0
 479 01c6 40F0B780 		bne	.L30
 480              	.LVL55:
 481              	.LBB403:
 482              	.LBB404:
 483              	.LBB405:
 484              	.LBB406:
 485              	.LBB407:
 486              		.loc 2 546 0
 487              	@ 546 "../ChibiOS/os/ext/CMSIS/include/core_cmFunc.h" 1
 488 01ca 84F31188 		MSR basepri, r4
 489              	@ 0 "" 2
 490              		.thumb
 491              	.LBE407:
 492              	.LBE406:
 493              	.LBE405:
 494              	.LBE404:
 495              	.LBE403:
 496              		.loc 1 206 0
 497 01ce E968     		ldr	r1, [r5, #12]
 498 01d0 AB68     		ldr	r3, [r5, #8]
 499 01d2 C3EB010E 		rsb	lr, r3, r1
 500 01d6 DEF10001 		rsbs	r1, lr, #0
 501 01da 41EB0E01 		adc	r1, r1, lr
 502 01de 2B20     		movs	r0, #43
 503 01e0 FFF7FEFF 		bl	_test_assert
 504              	.LVL56:
 505 01e4 0028     		cmp	r0, #0
 506 01e6 7FF441AF 		bne	.L1
 507              		.loc 1 211 0
 508 01ea 2846     		mov	r0, r5
 509 01ec FFF7FEFF 		bl	chMBReset
 510              	.LVL57:
 511              	.LBB408:
 512              	.LBB409:
 513              	.LBB410:
ARM GAS  /tmp/ccMr3Nz9.s 			page 10


 514              	.LBB411:
 515              		.loc 2 546 0
 516              	@ 546 "../ChibiOS/os/ext/CMSIS/include/core_cmFunc.h" 1
 517 01f0 86F31188 		MSR basepri, r6
 518              	@ 0 "" 2
 519              	.LVL58:
 520              		.thumb
 521              	.LBE411:
 522              	.LBE410:
 523              	.LBE409:
 524              	.LBE408:
 525              		.loc 1 216 0
 526 01f4 696A     		ldr	r1, [r5, #36]
 527 01f6 4F1F     		subs	r7, r1, #5
 528 01f8 7942     		rsbs	r1, r7, #0
 529 01fa 7941     		adcs	r1, r1, r7
 530 01fc 2C20     		movs	r0, #44
 531 01fe FFF7FEFF 		bl	_test_assert
 532              	.LVL59:
 533 0202 0028     		cmp	r0, #0
 534 0204 40F09880 		bne	.L30
 535              	.LVL60:
 536              	.LBB412:
 537              	.LBB413:
 538              	.LBB414:
 539              	.LBB415:
 540              	.LBB416:
 541              		.loc 2 546 0
 542              	@ 546 "../ChibiOS/os/ext/CMSIS/include/core_cmFunc.h" 1
 543 0208 84F31188 		MSR basepri, r4
 544              	@ 0 "" 2
 545              	.LVL61:
 546              		.thumb
 547              	.LBE416:
 548              	.LBE415:
 549              	.LBE414:
 550              	.LBE413:
 551              	.LBE412:
 552              	.LBB417:
 553              	.LBB418:
 554              	.LBB419:
 555              	.LBB420:
 556              	@ 546 "../ChibiOS/os/ext/CMSIS/include/core_cmFunc.h" 1
 557 020c 86F31188 		MSR basepri, r6
 558              	@ 0 "" 2
 559              	.LVL62:
 560              		.thumb
 561              	.LBE420:
 562              	.LBE419:
 563              	.LBE418:
 564              	.LBE417:
 565              		.loc 1 217 0
 566 0210 2D20     		movs	r0, #45
 567 0212 A969     		ldr	r1, [r5, #24]
 568 0214 B1FA81F1 		clz	r1, r1
 569 0218 4909     		lsrs	r1, r1, #5
 570 021a FFF7FEFF 		bl	_test_assert
ARM GAS  /tmp/ccMr3Nz9.s 			page 11


 571              	.LVL63:
 572 021e 0028     		cmp	r0, #0
 573 0220 40F08A80 		bne	.L30
 574              	.LVL64:
 575              	.LBB421:
 576              	.LBB422:
 577              	.LBB423:
 578              	.LBB424:
 579              	.LBB425:
 580              		.loc 2 546 0
 581              	@ 546 "../ChibiOS/os/ext/CMSIS/include/core_cmFunc.h" 1
 582 0224 84F31188 		MSR basepri, r4
 583              	@ 0 "" 2
 584              	.LVL65:
 585              		.thumb
 586              	.LBE425:
 587              	.LBE424:
 588              	.LBE423:
 589              	.LBE422:
 590              	.LBE421:
 591              	.LBB426:
 592              	.LBB427:
 593              	.LBB428:
 594              	.LBB429:
 595              	@ 546 "../ChibiOS/os/ext/CMSIS/include/core_cmFunc.h" 1
 596 0228 86F31188 		MSR basepri, r6
 597              	@ 0 "" 2
 598              		.thumb
 599              	.LBE429:
 600              	.LBE428:
 601              	.LBE427:
 602              	.LBE426:
 603              		.loc 1 218 0
 604 022c 2968     		ldr	r1, [r5]
 605 022e AB68     		ldr	r3, [r5, #8]
 606 0230 CA1A     		subs	r2, r1, r3
 607 0232 5142     		rsbs	r1, r2, #0
 608 0234 5141     		adcs	r1, r1, r2
 609 0236 2E20     		movs	r0, #46
 610 0238 FFF7FEFF 		bl	_test_assert
 611              	.LVL66:
 612 023c 0028     		cmp	r0, #0
 613 023e 7BD1     		bne	.L30
 614              	.LVL67:
 615              	.LBB430:
 616              	.LBB431:
 617              	.LBB432:
 618              	.LBB433:
 619              	.LBB434:
 620              		.loc 2 546 0
 621              	@ 546 "../ChibiOS/os/ext/CMSIS/include/core_cmFunc.h" 1
 622 0240 84F31188 		MSR basepri, r4
 623              	@ 0 "" 2
 624              	.LVL68:
 625              		.thumb
 626              	.LBE434:
 627              	.LBE433:
ARM GAS  /tmp/ccMr3Nz9.s 			page 12


 628              	.LBE432:
 629              	.LBE431:
 630              	.LBE430:
 631              	.LBB435:
 632              	.LBB436:
 633              	.LBB437:
 634              	.LBB438:
 635              	@ 546 "../ChibiOS/os/ext/CMSIS/include/core_cmFunc.h" 1
 636 0244 86F31188 		MSR basepri, r6
 637              	@ 0 "" 2
 638              		.thumb
 639              	.LBE438:
 640              	.LBE437:
 641              	.LBE436:
 642              	.LBE435:
 643              		.loc 1 219 0
 644 0248 2968     		ldr	r1, [r5]
 645 024a EB68     		ldr	r3, [r5, #12]
 646 024c CB1A     		subs	r3, r1, r3
 647 024e 5942     		rsbs	r1, r3, #0
 648 0250 4FF02F00 		mov	r0, #47
 649 0254 5941     		adcs	r1, r1, r3
 650 0256 FFF7FEFF 		bl	_test_assert
 651              	.LVL69:
 652              	.L32:
 653              	.LBB439:
 654              	.LBB440:
 655              	.LBB441:
 656              	.LBB442:
 657              	.LBB443:
 658              		.loc 2 546 0
 659 025a 0023     		movs	r3, #0
 660              	.L22:
 661              	.LVL70:
 662              	.LBE443:
 663              	.LBE442:
 664              	.LBE441:
 665              	.LBE440:
 666              	.LBE439:
 667              	.LBB444:
 668              	.LBB445:
 669              	.LBB446:
 670              	.LBB447:
 671              	.LBB448:
 672              	@ 546 "../ChibiOS/os/ext/CMSIS/include/core_cmFunc.h" 1
 673 025c 83F31188 		MSR basepri, r3
 674              	@ 0 "" 2
 675              		.thumb
 676              	.LBE448:
 677              	.LBE447:
 678              	.LBE446:
 679              	.LBE445:
 680              	.LBE444:
 681              		.loc 1 220 0
 682 0260 02B0     		add	sp, sp, #8
 683              		.cfi_remember_state
 684              		.cfi_def_cfa_offset 24
ARM GAS  /tmp/ccMr3Nz9.s 			page 13


 685              		@ sp needed
 686 0262 BDE8F081 		pop	{r4, r5, r6, r7, r8, pc}
 687              	.LVL71:
 688              	.L34:
 689              		.cfi_restore_state
 690              		.loc 1 98 0
 691 0266 5821     		movs	r1, #88
 692 0268 0122     		movs	r2, #1
 693 026a 2846     		mov	r0, r5
 694 026c FFF7FEFF 		bl	chMBPost
 695              	.LVL72:
 696              		.loc 1 99 0
 697 0270 A0F1FF31 		sub	r1, r0, #-1
 698 0274 0420     		movs	r0, #4
 699              	.LVL73:
 700 0276 B1FA81F1 		clz	r1, r1
 701              	.LVL74:
 702 027a 4909     		lsrs	r1, r1, #5
 703 027c FFF7FEFF 		bl	_test_assert
 704              	.LVL75:
 705 0280 0446     		mov	r4, r0
 706              	.LVL76:
 707 0282 0028     		cmp	r0, #0
 708 0284 7FF4F2AE 		bne	.L1
 709              	.LVL77:
 710              	.LBB449:
 711              	.LBB450:
 712              	.LBB451:
 713              	.LBB452:
 714              		.loc 2 546 0
 715 0288 2027     		movs	r7, #32
 716              	@ 546 "../ChibiOS/os/ext/CMSIS/include/core_cmFunc.h" 1
 717 028a 87F31188 		MSR basepri, r7
 718              	@ 0 "" 2
 719              		.thumb
 720              	.LBE452:
 721              	.LBE451:
 722              	.LBE450:
 723              	.LBE449:
 724              		.loc 1 101 0
 725 028e 5821     		movs	r1, #88
 726 0290 2846     		mov	r0, r5
 727 0292 FFF7FEFF 		bl	chMBPostI
 728              	.LVL78:
 729 0296 0146     		mov	r1, r0
 730              	.LVL79:
 731              	.LBB453:
 732              	.LBB454:
 733              	.LBB455:
 734              	.LBB456:
 735              	.LBB457:
 736              		.loc 2 546 0
 737              	@ 546 "../ChibiOS/os/ext/CMSIS/include/core_cmFunc.h" 1
 738 0298 84F31188 		MSR basepri, r4
 739              	@ 0 "" 2
 740              		.thumb
 741              	.LBE457:
ARM GAS  /tmp/ccMr3Nz9.s 			page 14


 742              	.LBE456:
 743              	.LBE455:
 744              	.LBE454:
 745              	.LBE453:
 746              		.loc 1 103 0
 747 029c 0520     		movs	r0, #5
 748              	.LVL80:
 749 029e A1F1FF31 		sub	r1, r1, #-1
 750              	.LVL81:
 751 02a2 B1FA81F1 		clz	r1, r1
 752              	.LVL82:
 753 02a6 4909     		lsrs	r1, r1, #5
 754 02a8 FFF7FEFF 		bl	_test_assert
 755              	.LVL83:
 756 02ac 0028     		cmp	r0, #0
 757 02ae 7FF4DDAE 		bne	.L1
 758              		.loc 1 104 0
 759 02b2 5821     		movs	r1, #88
 760 02b4 0122     		movs	r2, #1
 761 02b6 2846     		mov	r0, r5
 762 02b8 FFF7FEFF 		bl	chMBPostAhead
 763              	.LVL84:
 764              		.loc 1 105 0
 765 02bc A0F1FF31 		sub	r1, r0, #-1
 766 02c0 0620     		movs	r0, #6
 767              	.LVL85:
 768 02c2 B1FA81F1 		clz	r1, r1
 769              	.LVL86:
 770 02c6 4909     		lsrs	r1, r1, #5
 771 02c8 FFF7FEFF 		bl	_test_assert
 772              	.LVL87:
 773 02cc 0446     		mov	r4, r0
 774 02ce 0028     		cmp	r0, #0
 775 02d0 7FF4CCAE 		bne	.L1
 776              	.LVL88:
 777              	.LBB458:
 778              	.LBB459:
 779              	.LBB460:
 780              	.LBB461:
 781              		.loc 2 546 0
 782              	@ 546 "../ChibiOS/os/ext/CMSIS/include/core_cmFunc.h" 1
 783 02d4 87F31188 		MSR basepri, r7
 784              	@ 0 "" 2
 785              		.thumb
 786              	.LBE461:
 787              	.LBE460:
 788              	.LBE459:
 789              	.LBE458:
 790              		.loc 1 107 0
 791 02d8 5821     		movs	r1, #88
 792 02da 2846     		mov	r0, r5
 793 02dc FFF7FEFF 		bl	chMBPostAheadI
 794              	.LVL89:
 795 02e0 0146     		mov	r1, r0
 796              	.LVL90:
 797              	.LBB462:
 798              	.LBB463:
ARM GAS  /tmp/ccMr3Nz9.s 			page 15


 799              	.LBB464:
 800              	.LBB465:
 801              	.LBB466:
 802              		.loc 2 546 0
 803              	@ 546 "../ChibiOS/os/ext/CMSIS/include/core_cmFunc.h" 1
 804 02e2 84F31188 		MSR basepri, r4
 805              	@ 0 "" 2
 806              		.thumb
 807              	.LBE466:
 808              	.LBE465:
 809              	.LBE464:
 810              	.LBE463:
 811              	.LBE462:
 812              		.loc 1 109 0
 813 02e6 0720     		movs	r0, #7
 814              	.LVL91:
 815 02e8 A1F1FF31 		sub	r1, r1, #-1
 816              	.LVL92:
 817 02ec B1FA81F1 		clz	r1, r1
 818              	.LVL93:
 819 02f0 4909     		lsrs	r1, r1, #5
 820 02f2 FFF7FEFF 		bl	_test_assert
 821              	.LVL94:
 822 02f6 8046     		mov	r8, r0
 823 02f8 0028     		cmp	r0, #0
 824 02fa 7FF4B7AE 		bne	.L1
 825              	.LVL95:
 826              	.LBB467:
 827              	.LBB468:
 828              	.LBB469:
 829              	.LBB470:
 830              		.loc 2 546 0
 831              	@ 546 "../ChibiOS/os/ext/CMSIS/include/core_cmFunc.h" 1
 832 02fe 87F31188 		MSR basepri, r7
 833              	@ 0 "" 2
 834              	.LVL96:
 835              		.thumb
 836              	.LBE470:
 837              	.LBE469:
 838              	.LBE468:
 839              	.LBE467:
 840              		.loc 1 114 0
 841 0302 0820     		movs	r0, #8
 842 0304 696A     		ldr	r1, [r5, #36]
 843 0306 B1FA81F1 		clz	r1, r1
 844 030a 4909     		lsrs	r1, r1, #5
 845 030c FFF7FEFF 		bl	_test_assert
 846              	.LVL97:
 847 0310 0446     		mov	r4, r0
 848 0312 10B1     		cbz	r0, .L6
 849              	.LVL98:
 850              	.LBB471:
 851              	.LBB472:
 852              	.LBB473:
 853              	.LBB474:
 854              	.LBB475:
 855              		.loc 2 546 0
ARM GAS  /tmp/ccMr3Nz9.s 			page 16


 856              	@ 546 "../ChibiOS/os/ext/CMSIS/include/core_cmFunc.h" 1
 857 0314 88F31188 		MSR basepri, r8
 858              	@ 0 "" 2
 859              		.thumb
 860 0318 A8E6     		b	.L1
 861              	.LVL99:
 862              	.L6:
 863              	.LBE475:
 864              	.LBE474:
 865              	.LBE473:
 866              	.LBE472:
 867              	.LBE471:
 868              	.LBB476:
 869              	.LBB477:
 870              	.LBB478:
 871              	.LBB479:
 872              	.LBB480:
 873              	@ 546 "../ChibiOS/os/ext/CMSIS/include/core_cmFunc.h" 1
 874 031a 80F31188 		MSR basepri, r0
 875              	@ 0 "" 2
 876              	.LVL100:
 877              		.thumb
 878              	.LBE480:
 879              	.LBE479:
 880              	.LBE478:
 881              	.LBE477:
 882              	.LBE476:
 883              	.LBB481:
 884              	.LBB482:
 885              	.LBB483:
 886              	.LBB484:
 887              	@ 546 "../ChibiOS/os/ext/CMSIS/include/core_cmFunc.h" 1
 888 031e 87F31188 		MSR basepri, r7
 889              	@ 0 "" 2
 890              	.LVL101:
 891              		.thumb
 892              	.LBE484:
 893              	.LBE483:
 894              	.LBE482:
 895              	.LBE481:
 896              		.loc 1 115 0
 897 0322 A969     		ldr	r1, [r5, #24]
 898 0324 A1F1050E 		sub	lr, r1, #5
 899 0328 DEF10001 		rsbs	r1, lr, #0
 900 032c 41EB0E01 		adc	r1, r1, lr
 901 0330 0920     		movs	r0, #9
 902 0332 FFF7FEFF 		bl	_test_assert
 903              	.LVL102:
 904 0336 38B1     		cbz	r0, .L35
 905              	.LVL103:
 906              	.L30:
 907              	.LBB485:
 908              	.LBB486:
 909              	.LBB487:
 910              	.LBB488:
 911              	.LBB489:
 912              		.loc 2 546 0
ARM GAS  /tmp/ccMr3Nz9.s 			page 17


 913              	@ 546 "../ChibiOS/os/ext/CMSIS/include/core_cmFunc.h" 1
 914 0338 84F31188 		MSR basepri, r4
 915              	@ 0 "" 2
 916              		.thumb
 917 033c 96E6     		b	.L1
 918              	.L40:
 919 033e 00BF     		.align	2
 920              	.L39:
 921 0340 00000000 		.word	.LANCHOR0
 922 0344 00000000 		.word	.LC0
 923              	.LVL104:
 924              	.L35:
 925              	.LBE489:
 926              	.LBE488:
 927              	.LBE487:
 928              	.LBE486:
 929              	.LBE485:
 930              	.LBB490:
 931              	.LBB491:
 932              	.LBB492:
 933              	.LBB493:
 934              	.LBB494:
 935              	@ 546 "../ChibiOS/os/ext/CMSIS/include/core_cmFunc.h" 1
 936 0348 80F31188 		MSR basepri, r0
 937              	@ 0 "" 2
 938              	.LVL105:
 939              		.thumb
 940              	.LBE494:
 941              	.LBE493:
 942              	.LBE492:
 943              	.LBE491:
 944              	.LBE490:
 945              	.LBB495:
 946              	.LBB496:
 947              	.LBB497:
 948              	.LBB498:
 949              	@ 546 "../ChibiOS/os/ext/CMSIS/include/core_cmFunc.h" 1
 950 034c 87F31188 		MSR basepri, r7
 951              	@ 0 "" 2
 952              		.thumb
 953              	.LBE498:
 954              	.LBE497:
 955              	.LBE496:
 956              	.LBE495:
 957              		.loc 1 116 0
 958 0350 E968     		ldr	r1, [r5, #12]
 959 0352 AB68     		ldr	r3, [r5, #8]
 960 0354 CC1A     		subs	r4, r1, r3
 961 0356 6142     		rsbs	r1, r4, #0
 962 0358 4FF00A00 		mov	r0, #10
 963 035c 6141     		adcs	r1, r1, r4
 964 035e FFF7FEFF 		bl	_test_assert
 965              	.LVL106:
 966              	.LBB499:
 967              	.LBB500:
 968              	.LBB501:
 969              	.LBB502:
ARM GAS  /tmp/ccMr3Nz9.s 			page 18


 970              	.LBB503:
 971              		.loc 2 546 0
 972 0362 0023     		movs	r3, #0
 973              	.LBE503:
 974              	.LBE502:
 975              	.LBE501:
 976              	.LBE500:
 977              	.LBE499:
 978              		.loc 1 116 0
 979 0364 0028     		cmp	r0, #0
 980 0366 7FF479AF 		bne	.L22
 981              	.LVL107:
 982              	.LBB504:
 983              	.LBB505:
 984              	.LBB506:
 985              	.LBB507:
 986              	.LBB508:
 987              		.loc 2 546 0
 988              	@ 546 "../ChibiOS/os/ext/CMSIS/include/core_cmFunc.h" 1
 989 036a 83F31188 		MSR basepri, r3
 990              	@ 0 "" 2
 991              	.LVL108:
 992              		.thumb
 993 036e 0525     		movs	r5, #5
 994 0370 05E0     		b	.L9
 995              	.LVL109:
 996              	.L37:
 997              	.LBE508:
 998              	.LBE507:
 999              	.LBE506:
 1000              	.LBE505:
 1001              	.LBE504:
 1002              		.loc 1 124 0 discriminator 2
 1003 0372 9DF80400 		ldrb	r0, [sp, #4]	@ zero_extendqisi2
 1004 0376 FFF7FEFF 		bl	test_emit_token
 1005              	.LVL110:
 1006              		.loc 1 121 0 discriminator 2
 1007 037a 013D     		subs	r5, r5, #1
 1008              	.LVL111:
 1009 037c 0FD0     		beq	.L36
 1010              	.LVL112:
 1011              	.L9:
 1012              		.loc 1 122 0
 1013 037e 954C     		ldr	r4, .L41
 1014 0380 01A9     		add	r1, sp, #4
 1015 0382 2046     		mov	r0, r4
 1016 0384 4FF0FF32 		mov	r2, #-1
 1017 0388 FFF7FEFF 		bl	chMBFetch
 1018              	.LVL113:
 1019              		.loc 1 123 0
 1020 038c B0FA80F1 		clz	r1, r0
 1021 0390 0B20     		movs	r0, #11
 1022              	.LVL114:
 1023 0392 4909     		lsrs	r1, r1, #5
 1024 0394 FFF7FEFF 		bl	_test_assert
 1025              	.LVL115:
 1026 0398 0028     		cmp	r0, #0
ARM GAS  /tmp/ccMr3Nz9.s 			page 19


 1027 039a EAD0     		beq	.L37
 1028 039c 66E6     		b	.L1
 1029              	.L36:
 1030              		.loc 1 126 0
 1031 039e 0C20     		movs	r0, #12
 1032 03a0 8D49     		ldr	r1, .L41+4
 1033 03a2 FFF7FEFF 		bl	_test_assert_sequence
 1034              	.LVL116:
 1035 03a6 0028     		cmp	r0, #0
 1036 03a8 7FF460AE 		bne	.L1
 1037              		.loc 1 131 0
 1038 03ac 4721     		movs	r1, #71
 1039 03ae 2046     		mov	r0, r4
 1040 03b0 4FF0FF32 		mov	r2, #-1
 1041 03b4 FFF7FEFF 		bl	chMBPost
 1042              	.LVL117:
 1043              		.loc 1 132 0
 1044 03b8 B0FA80F1 		clz	r1, r0
 1045 03bc 0D20     		movs	r0, #13
 1046              	.LVL118:
 1047 03be 4909     		lsrs	r1, r1, #5
 1048 03c0 FFF7FEFF 		bl	_test_assert
 1049              	.LVL119:
 1050 03c4 0028     		cmp	r0, #0
 1051 03c6 7FF451AE 		bne	.L1
 1052              		.loc 1 133 0
 1053 03ca 01A9     		add	r1, sp, #4
 1054 03cc 2046     		mov	r0, r4
 1055 03ce 4FF0FF32 		mov	r2, #-1
 1056 03d2 FFF7FEFF 		bl	chMBFetch
 1057              	.LVL120:
 1058              		.loc 1 134 0
 1059 03d6 B0FA80F1 		clz	r1, r0
 1060 03da 0E20     		movs	r0, #14
 1061              	.LVL121:
 1062 03dc 4909     		lsrs	r1, r1, #5
 1063 03de FFF7FEFF 		bl	_test_assert
 1064              	.LVL122:
 1065 03e2 0028     		cmp	r0, #0
 1066 03e4 7FF442AE 		bne	.L1
 1067              		.loc 1 135 0
 1068 03e8 2168     		ldr	r1, [r4]
 1069 03ea A368     		ldr	r3, [r4, #8]
 1070 03ec CA1A     		subs	r2, r1, r3
 1071 03ee 5142     		rsbs	r1, r2, #0
 1072 03f0 5141     		adcs	r1, r1, r2
 1073 03f2 0F20     		movs	r0, #15
 1074 03f4 FFF7FEFF 		bl	_test_assert
 1075              	.LVL123:
 1076 03f8 0028     		cmp	r0, #0
 1077 03fa 7FF437AE 		bne	.L1
 1078              		.loc 1 136 0
 1079 03fe 2168     		ldr	r1, [r4]
 1080 0400 E368     		ldr	r3, [r4, #12]
 1081 0402 CB1A     		subs	r3, r1, r3
 1082 0404 5942     		rsbs	r1, r3, #0
 1083 0406 5941     		adcs	r1, r1, r3
ARM GAS  /tmp/ccMr3Nz9.s 			page 20


 1084 0408 1020     		movs	r0, #16
 1085 040a FFF7FEFF 		bl	_test_assert
 1086              	.LVL124:
 1087 040e 0028     		cmp	r0, #0
 1088 0410 7FF42CAE 		bne	.L1
 1089              		.loc 1 141 0
 1090 0414 01A9     		add	r1, sp, #4
 1091 0416 2046     		mov	r0, r4
 1092 0418 0122     		movs	r2, #1
 1093 041a FFF7FEFF 		bl	chMBFetch
 1094              	.LVL125:
 1095              		.loc 1 142 0
 1096 041e 00F10108 		add	r8, r0, #1
 1097 0422 D8F10001 		rsbs	r1, r8, #0
 1098 0426 41EB0801 		adc	r1, r1, r8
 1099 042a 1120     		movs	r0, #17
 1100              	.LVL126:
 1101 042c FFF7FEFF 		bl	_test_assert
 1102              	.LVL127:
 1103 0430 0028     		cmp	r0, #0
 1104 0432 7FF41BAE 		bne	.L1
 1105              	.LVL128:
 1106              	.LBB509:
 1107              	.LBB510:
 1108              	.LBB511:
 1109              	.LBB512:
 1110              		.loc 2 546 0
 1111 0436 2027     		movs	r7, #32
 1112              	@ 546 "../ChibiOS/os/ext/CMSIS/include/core_cmFunc.h" 1
 1113 0438 87F31188 		MSR basepri, r7
 1114              	@ 0 "" 2
 1115              		.thumb
 1116              	.LBE512:
 1117              	.LBE511:
 1118              	.LBE510:
 1119              	.LBE509:
 1120              		.loc 1 144 0
 1121 043c 01A9     		add	r1, sp, #4
 1122 043e 2046     		mov	r0, r4
 1123 0440 FFF7FEFF 		bl	chMBFetchI
 1124              	.LVL129:
 1125 0444 0146     		mov	r1, r0
 1126              	.LVL130:
 1127              	.LBB513:
 1128              	.LBB514:
 1129              	.LBB515:
 1130              	.LBB516:
 1131              	.LBB517:
 1132              		.loc 2 546 0
 1133              	@ 546 "../ChibiOS/os/ext/CMSIS/include/core_cmFunc.h" 1
 1134 0446 85F31188 		MSR basepri, r5
 1135              	@ 0 "" 2
 1136              		.thumb
 1137              	.LBE517:
 1138              	.LBE516:
 1139              	.LBE515:
 1140              	.LBE514:
ARM GAS  /tmp/ccMr3Nz9.s 			page 21


 1141              	.LBE513:
 1142              		.loc 1 146 0
 1143 044a 01F1010C 		add	ip, r1, #1
 1144 044e DCF10001 		rsbs	r1, ip, #0
 1145 0452 41EB0C01 		adc	r1, r1, ip
 1146 0456 1220     		movs	r0, #18
 1147              	.LVL131:
 1148 0458 FFF7FEFF 		bl	_test_assert
 1149              	.LVL132:
 1150 045c 0028     		cmp	r0, #0
 1151 045e 7FF405AE 		bne	.L1
 1152              	.LVL133:
 1153              	.LBB518:
 1154              	.LBB519:
 1155              	.LBB520:
 1156              	.LBB521:
 1157              		.loc 2 546 0
 1158              	@ 546 "../ChibiOS/os/ext/CMSIS/include/core_cmFunc.h" 1
 1159 0462 87F31188 		MSR basepri, r7
 1160              	@ 0 "" 2
 1161              	.LVL134:
 1162              		.thumb
 1163              	.LBE521:
 1164              	.LBE520:
 1165              	.LBE519:
 1166              	.LBE518:
 1167              		.loc 1 151 0
 1168 0466 616A     		ldr	r1, [r4, #36]
 1169 0468 A1F1050E 		sub	lr, r1, #5
 1170 046c DEF10001 		rsbs	r1, lr, #0
 1171 0470 41EB0E01 		adc	r1, r1, lr
 1172 0474 1320     		movs	r0, #19
 1173 0476 FFF7FEFF 		bl	_test_assert
 1174              	.LVL135:
 1175 047a 0028     		cmp	r0, #0
 1176 047c 7FF4EDAE 		bne	.L32
 1177              	.LVL136:
 1178              	.LBB522:
 1179              	.LBB523:
 1180              	.LBB524:
 1181              	.LBB525:
 1182              	.LBB526:
 1183              		.loc 2 546 0
 1184 0480 0027     		movs	r7, #0
 1185              	@ 546 "../ChibiOS/os/ext/CMSIS/include/core_cmFunc.h" 1
 1186 0482 87F31188 		MSR basepri, r7
 1187              	@ 0 "" 2
 1188              	.LVL137:
 1189              		.thumb
 1190              	.LBE526:
 1191              	.LBE525:
 1192              	.LBE524:
 1193              	.LBE523:
 1194              	.LBE522:
 1195              	.LBB527:
 1196              	.LBB528:
 1197              	.LBB529:
ARM GAS  /tmp/ccMr3Nz9.s 			page 22


 1198              	.LBB530:
 1199 0486 2025     		movs	r5, #32
 1200              	.LVL138:
 1201              	@ 546 "../ChibiOS/os/ext/CMSIS/include/core_cmFunc.h" 1
 1202 0488 85F31188 		MSR basepri, r5
 1203              	@ 0 "" 2
 1204              	.LVL139:
 1205              		.thumb
 1206              	.LBE530:
 1207              	.LBE529:
 1208              	.LBE528:
 1209              	.LBE527:
 1210              		.loc 1 152 0
 1211 048c 1420     		movs	r0, #20
 1212 048e B169     		ldr	r1, [r6, #24]
 1213 0490 B1FA81F1 		clz	r1, r1
 1214 0494 4909     		lsrs	r1, r1, #5
 1215 0496 FFF7FEFF 		bl	_test_assert
 1216              	.LVL140:
 1217 049a 4E4C     		ldr	r4, .L41
 1218 049c 0646     		mov	r6, r0
 1219 049e 10B1     		cbz	r0, .L11
 1220              	.LVL141:
 1221              	.LBB531:
 1222              	.LBB532:
 1223              	.LBB533:
 1224              	.LBB534:
 1225              	.LBB535:
 1226              		.loc 2 546 0
 1227              	@ 546 "../ChibiOS/os/ext/CMSIS/include/core_cmFunc.h" 1
 1228 04a0 87F31188 		MSR basepri, r7
 1229              	@ 0 "" 2
 1230              		.thumb
 1231 04a4 E2E5     		b	.L1
 1232              	.LVL142:
 1233              	.L11:
 1234              	.LBE535:
 1235              	.LBE534:
 1236              	.LBE533:
 1237              	.LBE532:
 1238              	.LBE531:
 1239              	.LBB536:
 1240              	.LBB537:
 1241              	.LBB538:
 1242              	.LBB539:
 1243              	.LBB540:
 1244              	@ 546 "../ChibiOS/os/ext/CMSIS/include/core_cmFunc.h" 1
 1245 04a6 80F31188 		MSR basepri, r0
 1246              	@ 0 "" 2
 1247              	.LVL143:
 1248              		.thumb
 1249              	.LBE540:
 1250              	.LBE539:
 1251              	.LBE538:
 1252              	.LBE537:
 1253              	.LBE536:
 1254              	.LBB541:
ARM GAS  /tmp/ccMr3Nz9.s 			page 23


 1255              	.LBB542:
 1256              	.LBB543:
 1257              	.LBB544:
 1258              	@ 546 "../ChibiOS/os/ext/CMSIS/include/core_cmFunc.h" 1
 1259 04aa 85F31188 		MSR basepri, r5
 1260              	@ 0 "" 2
 1261              		.thumb
 1262              	.LBE544:
 1263              	.LBE543:
 1264              	.LBE542:
 1265              	.LBE541:
 1266              		.loc 1 153 0
 1267 04ae E168     		ldr	r1, [r4, #12]
 1268 04b0 A368     		ldr	r3, [r4, #8]
 1269 04b2 CF1A     		subs	r7, r1, r3
 1270 04b4 7942     		rsbs	r1, r7, #0
 1271 04b6 7941     		adcs	r1, r1, r7
 1272 04b8 1520     		movs	r0, #21
 1273 04ba FFF7FEFF 		bl	_test_assert
 1274              	.LVL144:
 1275 04be 10B1     		cbz	r0, .L12
 1276              	.LVL145:
 1277              	.LBB545:
 1278              	.LBB546:
 1279              	.LBB547:
 1280              	.LBB548:
 1281              	.LBB549:
 1282              		.loc 2 546 0
 1283              	@ 546 "../ChibiOS/os/ext/CMSIS/include/core_cmFunc.h" 1
 1284 04c0 86F31188 		MSR basepri, r6
 1285              	@ 0 "" 2
 1286              		.thumb
 1287 04c4 D2E5     		b	.L1
 1288              	.LVL146:
 1289              	.L12:
 1290              	.LBE549:
 1291              	.LBE548:
 1292              	.LBE547:
 1293              	.LBE546:
 1294              	.LBE545:
 1295              	.LBB550:
 1296              	.LBB551:
 1297              	.LBB552:
 1298              	.LBB553:
 1299              	.LBB554:
 1300              	@ 546 "../ChibiOS/os/ext/CMSIS/include/core_cmFunc.h" 1
 1301 04c6 80F31188 		MSR basepri, r0
 1302              	@ 0 "" 2
 1303              	.LVL147:
 1304              		.thumb
 1305              	.LBE554:
 1306              	.LBE553:
 1307              	.LBE552:
 1308              	.LBE551:
 1309              	.LBE550:
 1310              	.LBB555:
 1311              	.LBB556:
ARM GAS  /tmp/ccMr3Nz9.s 			page 24


 1312              	.LBB557:
 1313              	.LBB558:
 1314              	@ 546 "../ChibiOS/os/ext/CMSIS/include/core_cmFunc.h" 1
 1315 04ca 85F31188 		MSR basepri, r5
 1316              	@ 0 "" 2
 1317              		.thumb
 1318              	.LBE558:
 1319              	.LBE557:
 1320              	.LBE556:
 1321              	.LBE555:
 1322              		.loc 1 159 0
 1323 04ce 4121     		movs	r1, #65
 1324 04d0 2046     		mov	r0, r4
 1325 04d2 FFF7FEFF 		bl	chMBPostI
 1326              	.LVL148:
 1327              		.loc 1 160 0
 1328 04d6 B0FA80F1 		clz	r1, r0
 1329 04da 1620     		movs	r0, #22
 1330              	.LVL149:
 1331 04dc 4909     		lsrs	r1, r1, #5
 1332 04de FFF7FEFF 		bl	_test_assert
 1333              	.LVL150:
 1334 04e2 0028     		cmp	r0, #0
 1335 04e4 7FF4C2AD 		bne	.L1
 1336              		.loc 1 161 0
 1337 04e8 4221     		movs	r1, #66
 1338 04ea 2046     		mov	r0, r4
 1339 04ec FFF7FEFF 		bl	chMBPostI
 1340              	.LVL151:
 1341              		.loc 1 162 0
 1342 04f0 B0FA80F1 		clz	r1, r0
 1343 04f4 1720     		movs	r0, #23
 1344              	.LVL152:
 1345 04f6 4909     		lsrs	r1, r1, #5
 1346 04f8 FFF7FEFF 		bl	_test_assert
 1347              	.LVL153:
 1348 04fc 0028     		cmp	r0, #0
 1349 04fe 7FF4B5AD 		bne	.L1
 1350              		.loc 1 163 0
 1351 0502 4321     		movs	r1, #67
 1352 0504 2046     		mov	r0, r4
 1353 0506 FFF7FEFF 		bl	chMBPostI
 1354              	.LVL154:
 1355              		.loc 1 164 0
 1356 050a B0FA80F1 		clz	r1, r0
 1357 050e 1820     		movs	r0, #24
 1358              	.LVL155:
 1359 0510 4909     		lsrs	r1, r1, #5
 1360 0512 FFF7FEFF 		bl	_test_assert
 1361              	.LVL156:
 1362 0516 0028     		cmp	r0, #0
 1363 0518 7FF4A8AD 		bne	.L1
 1364              		.loc 1 165 0
 1365 051c 4421     		movs	r1, #68
 1366 051e 2046     		mov	r0, r4
 1367 0520 FFF7FEFF 		bl	chMBPostI
 1368              	.LVL157:
ARM GAS  /tmp/ccMr3Nz9.s 			page 25


 1369              		.loc 1 166 0
 1370 0524 B0FA80F1 		clz	r1, r0
 1371 0528 1920     		movs	r0, #25
 1372              	.LVL158:
 1373 052a 4909     		lsrs	r1, r1, #5
 1374 052c FFF7FEFF 		bl	_test_assert
 1375              	.LVL159:
 1376 0530 0646     		mov	r6, r0
 1377 0532 0028     		cmp	r0, #0
 1378 0534 7FF49AAD 		bne	.L1
 1379              		.loc 1 167 0
 1380 0538 2046     		mov	r0, r4
 1381 053a 4521     		movs	r1, #69
 1382 053c FFF7FEFF 		bl	chMBPostI
 1383              	.LVL160:
 1384 0540 0146     		mov	r1, r0
 1385              	.LVL161:
 1386              	.LBB559:
 1387              	.LBB560:
 1388              	.LBB561:
 1389              	.LBB562:
 1390              	.LBB563:
 1391              		.loc 2 546 0
 1392              	@ 546 "../ChibiOS/os/ext/CMSIS/include/core_cmFunc.h" 1
 1393 0542 86F31188 		MSR basepri, r6
 1394              	@ 0 "" 2
 1395              		.thumb
 1396              	.LBE563:
 1397              	.LBE562:
 1398              	.LBE561:
 1399              	.LBE560:
 1400              	.LBE559:
 1401              		.loc 1 169 0
 1402 0546 1A20     		movs	r0, #26
 1403              	.LVL162:
 1404 0548 B1FA81F1 		clz	r1, r1
 1405              	.LVL163:
 1406 054c 4909     		lsrs	r1, r1, #5
 1407 054e FFF7FEFF 		bl	_test_assert
 1408              	.LVL164:
 1409 0552 0028     		cmp	r0, #0
 1410 0554 7FF48AAD 		bne	.L1
 1411              		.loc 1 170 0
 1412 0558 E168     		ldr	r1, [r4, #12]
 1413 055a A368     		ldr	r3, [r4, #8]
 1414 055c CC1A     		subs	r4, r1, r3
 1415 055e 6142     		rsbs	r1, r4, #0
 1416 0560 6141     		adcs	r1, r1, r4
 1417 0562 1B20     		movs	r0, #27
 1418 0564 FFF7FEFF 		bl	_test_assert
 1419              	.LVL165:
 1420 0568 0028     		cmp	r0, #0
 1421 056a 7FF47FAD 		bne	.L1
 1422              	.LBB564:
 1423              	.LBB565:
 1424              	.LBB566:
 1425              	.LBB567:
ARM GAS  /tmp/ccMr3Nz9.s 			page 26


 1426              		.loc 2 546 0
 1427 056e 2E46     		mov	r6, r5
 1428              	.LBE567:
 1429              	.LBE566:
 1430              	.LBE565:
 1431              	.LBE564:
 1432              	.LBB571:
 1433              	.LBB572:
 1434              	.LBB573:
 1435              	.LBB574:
 1436              	.LBB575:
 1437 0570 8046     		mov	r8, r0
 1438              	.LBE575:
 1439              	.LBE574:
 1440              	.LBE573:
 1441              	.LBE572:
 1442              	.LBE571:
 1443 0572 0525     		movs	r5, #5
 1444              	.L13:
 1445              	.LVL166:
 1446              	.LBB580:
 1447              	.LBB570:
 1448              	.LBB569:
 1449              	.LBB568:
 1450 0574 2027     		movs	r7, #32
 1451              	@ 546 "../ChibiOS/os/ext/CMSIS/include/core_cmFunc.h" 1
 1452 0576 86F31188 		MSR basepri, r6
 1453              	@ 0 "" 2
 1454              		.thumb
 1455              	.LBE568:
 1456              	.LBE569:
 1457              	.LBE570:
 1458              	.LBE580:
 1459              		.loc 1 173 0
 1460 057a 164C     		ldr	r4, .L41
 1461 057c 01A9     		add	r1, sp, #4
 1462 057e 2046     		mov	r0, r4
 1463 0580 FFF7FEFF 		bl	chMBFetchI
 1464              	.LVL167:
 1465 0584 0146     		mov	r1, r0
 1466              	.LVL168:
 1467              	.LBB581:
 1468              	.LBB579:
 1469              	.LBB578:
 1470              	.LBB577:
 1471              	.LBB576:
 1472              		.loc 2 546 0
 1473              	@ 546 "../ChibiOS/os/ext/CMSIS/include/core_cmFunc.h" 1
 1474 0586 88F31188 		MSR basepri, r8
 1475              	@ 0 "" 2
 1476              		.thumb
 1477              	.LBE576:
 1478              	.LBE577:
 1479              	.LBE578:
 1480              	.LBE579:
 1481              	.LBE581:
 1482              		.loc 1 175 0
ARM GAS  /tmp/ccMr3Nz9.s 			page 27


 1483 058a 1C20     		movs	r0, #28
 1484              	.LVL169:
 1485 058c B1FA81F1 		clz	r1, r1
 1486              	.LVL170:
 1487 0590 4909     		lsrs	r1, r1, #5
 1488 0592 FFF7FEFF 		bl	_test_assert
 1489              	.LVL171:
 1490 0596 0028     		cmp	r0, #0
 1491 0598 7FF468AD 		bne	.L1
 1492              		.loc 1 176 0 discriminator 2
 1493 059c 9DF80400 		ldrb	r0, [sp, #4]	@ zero_extendqisi2
 1494 05a0 FFF7FEFF 		bl	test_emit_token
 1495              	.LVL172:
 1496              		.loc 1 171 0 discriminator 2
 1497 05a4 013D     		subs	r5, r5, #1
 1498              	.LVL173:
 1499 05a6 E5D1     		bne	.L13
 1500              		.loc 1 178 0
 1501 05a8 1D20     		movs	r0, #29
 1502 05aa 0B49     		ldr	r1, .L41+4
 1503 05ac FFF7FEFF 		bl	_test_assert_sequence
 1504              	.LVL174:
 1505 05b0 0028     		cmp	r0, #0
 1506 05b2 7FF45BAD 		bne	.L1
 1507              	.LVL175:
 1508              	.LBB582:
 1509              	.LBB583:
 1510              	.LBB584:
 1511              	.LBB585:
 1512              		.loc 2 546 0
 1513              	@ 546 "../ChibiOS/os/ext/CMSIS/include/core_cmFunc.h" 1
 1514 05b6 87F31188 		MSR basepri, r7
 1515              	@ 0 "" 2
 1516              	.LVL176:
 1517              		.thumb
 1518              	.LBE585:
 1519              	.LBE584:
 1520              	.LBE583:
 1521              	.LBE582:
 1522              		.loc 1 179 0
 1523 05ba 616A     		ldr	r1, [r4, #36]
 1524 05bc 4A1F     		subs	r2, r1, #5
 1525 05be 5142     		rsbs	r1, r2, #0
 1526 05c0 5141     		adcs	r1, r1, r2
 1527 05c2 1E20     		movs	r0, #30
 1528 05c4 FFF7FEFF 		bl	_test_assert
 1529              	.LVL177:
 1530 05c8 0028     		cmp	r0, #0
 1531 05ca 3FF452AD 		beq	.L38
 1532              	.LVL178:
 1533              	.L31:
 1534              	.LBB586:
 1535              	.LBB587:
 1536              	.LBB588:
 1537              	.LBB589:
 1538              	.LBB590:
 1539              		.loc 2 546 0
ARM GAS  /tmp/ccMr3Nz9.s 			page 28


 1540              	@ 546 "../ChibiOS/os/ext/CMSIS/include/core_cmFunc.h" 1
 1541 05ce 85F31188 		MSR basepri, r5
 1542              	@ 0 "" 2
 1543              		.thumb
 1544 05d2 4BE5     		b	.L1
 1545              	.L42:
 1546              		.align	2
 1547              	.L41:
 1548 05d4 00000000 		.word	.LANCHOR0
 1549 05d8 00000000 		.word	.LC0
 1550              	.LBE590:
 1551              	.LBE589:
 1552              	.LBE588:
 1553              	.LBE587:
 1554              	.LBE586:
 1555              		.cfi_endproc
 1556              	.LFE227:
 1557              		.size	mbox1_execute, .-mbox1_execute
 1558 05dc AFF30080 		.section	.text.mbox1_setup,"ax",%progbits
 1559              		.align	2
 1560              		.p2align 4,,15
 1561              		.thumb
 1562              		.thumb_func
 1563              		.type	mbox1_setup, %function
 1564              	mbox1_setup:
 1565              	.LFB226:
 1566              		.loc 1 71 0
 1567              		.cfi_startproc
 1568              		@ args = 0, pretend = 0, frame = 0
 1569              		@ frame_needed = 0, uses_anonymous_args = 0
 1570              		@ link register save eliminated.
 1571              		.loc 1 73 0
 1572 0000 0248     		ldr	r0, .L44
 1573 0002 0349     		ldr	r1, .L44+4
 1574 0004 0522     		movs	r2, #5
 1575 0006 FFF7FEBF 		b	chMBObjectInit
 1576              	.LVL179:
 1577              	.L45:
 1578 000a 00BF     		.align	2
 1579              	.L44:
 1580 000c 00000000 		.word	.LANCHOR0
 1581 0010 00000000 		.word	test
 1582              		.cfi_endproc
 1583              	.LFE226:
 1584              		.size	mbox1_setup, .-mbox1_setup
 1585              		.global	patternmbox
 1586              		.global	testmbox1
 1587 0014 AFF30080 		.section	.data.mb1,"aw",%progbits
 1587      AFF30080 
 1587      AFF30080 
 1588              		.align	2
 1589              		.set	.LANCHOR0,. + 0
 1590              		.type	mb1, %object
 1591              		.size	mb1, 40
 1592              	mb1:
 1593 0000 00000000 		.word	test
 1594 0004 14000000 		.word	test+20
ARM GAS  /tmp/ccMr3Nz9.s 			page 29


 1595 0008 00000000 		.word	test
 1596 000c 00000000 		.word	test
 1597 0010 10000000 		.word	mb1+16
 1598 0014 10000000 		.word	mb1+16
 1599 0018 00000000 		.word	0
 1600 001c 1C000000 		.word	mb1+28
 1601 0020 1C000000 		.word	mb1+28
 1602 0024 05000000 		.word	5
 1603              		.section	.rodata.patternmbox,"a",%progbits
 1604              		.align	2
 1605              		.type	patternmbox, %object
 1606              		.size	patternmbox, 8
 1607              	patternmbox:
 1608 0000 00000000 		.word	testmbox1
 1609 0004 00000000 		.word	0
 1610              		.section	.rodata.str1.4,"aMS",%progbits,1
 1611              		.align	2
 1612              	.LC0:
 1613 0000 41424344 		.ascii	"ABCDE\000"
 1613      4500
 1614 0006 0000     		.space	2
 1615              	.LC1:
 1616 0008 4D61696C 		.ascii	"Mailboxes, queuing and timeouts\000"
 1616      626F7865 
 1616      732C2071 
 1616      75657569 
 1616      6E672061 
 1617              		.section	.rodata.testmbox1,"a",%progbits
 1618              		.align	2
 1619              		.type	testmbox1, %object
 1620              		.size	testmbox1, 16
 1621              	testmbox1:
 1622 0000 08000000 		.word	.LC1
 1623 0004 00000000 		.word	mbox1_setup
 1624 0008 00000000 		.word	0
 1625 000c 00000000 		.word	mbox1_execute
 1626              		.text
 1627              	.Letext0:
 1628              		.file 3 "/l/arm2/gcc-arm-none-eabi-4_9-2014q4/lib/gcc/arm-none-eabi/4.9.3/include/stddef.h"
 1629              		.file 4 "/l/arm2/gcc-arm-none-eabi-4_9-2014q4/arm-none-eabi/include/machine/_default_types.h"
 1630              		.file 5 "/l/arm2/gcc-arm-none-eabi-4_9-2014q4/arm-none-eabi/include/stdint.h"
 1631              		.file 6 "../ChibiOS/os/rt/ports/ARMCMx/compilers/GCC/chtypes.h"
 1632              		.file 7 "../ChibiOS/os/rt/include/chsystypes.h"
 1633              		.file 8 "../ChibiOS/os/rt/include/chschd.h"
 1634              		.file 9 "../ChibiOS/os/rt/ports/ARMCMx/chcore.h"
 1635              		.file 10 "../ChibiOS/os/rt/ports/ARMCMx/chcore_v7m.h"
 1636              		.file 11 "../ChibiOS/os/rt/include/chtm.h"
 1637              		.file 12 "../ChibiOS/os/rt/include/chmtx.h"
 1638              		.file 13 "../ChibiOS/os/rt/include/chsem.h"
 1639              		.file 14 "../ChibiOS/os/rt/include/chmboxes.h"
 1640              		.file 15 "../ChibiOS/test/rt/test.h"
 1641              		.file 16 "../ChibiOS/os/rt/include/chsys.h"
 1642              		.file 17 "../ChibiOS/os/ext/CMSIS/include/core_cm4.h"