ARM GAS  /tmp/cc97AtNH.s 			page 1


   1              		.syntax unified
   2              		.cpu cortex-m4
   3              		.eabi_attribute 27, 3
   4              		.eabi_attribute 28, 1
   5              		.fpu fpv4-sp-d16
   6              		.eabi_attribute 20, 1
   7              		.eabi_attribute 21, 1
   8              		.eabi_attribute 23, 3
   9              		.eabi_attribute 24, 1
  10              		.eabi_attribute 25, 1
  11              		.eabi_attribute 26, 1
  12              		.eabi_attribute 30, 2
  13              		.eabi_attribute 34, 1
  14              		.eabi_attribute 18, 4
  15              		.thumb
  16              		.file	"testqueues.c"
  17              		.text
  18              	.Ltext0:
  19              		.cfi_sections	.debug_frame
  20              		.section	.text.notify,"ax",%progbits
  21              		.align	2
  22              		.p2align 4,,15
  23              		.thumb
  24              		.thumb_func
  25              		.type	notify, %function
  26              	notify:
  27              	.LFB226:
  28              		.file 1 "../ChibiOS/test/rt/testqueues.c"
  29              		.loc 1 57 0
  30              		.cfi_startproc
  31              		@ args = 0, pretend = 0, frame = 0
  32              		@ frame_needed = 0, uses_anonymous_args = 0
  33              		@ link register save eliminated.
  34              	.LVL0:
  35 0000 7047     		bx	lr
  36              		.cfi_endproc
  37              	.LFE226:
  38              		.size	notify, .-notify
  39 0002 00BFAFF3 		.section	.text.thread1,"ax",%progbits
  39      0080AFF3 
  39      0080AFF3 
  39      0080
  40              		.align	2
  41              		.p2align 4,,15
  42              		.thumb
  43              		.thumb_func
  44              		.type	thread1, %function
  45              	thread1:
  46              	.LFB228:
  47              		.loc 1 83 0
  48              		.cfi_startproc
  49              		@ args = 0, pretend = 0, frame = 0
  50              		@ frame_needed = 0, uses_anonymous_args = 0
  51              	.LVL1:
  52              		.loc 1 83 0
  53 0000 08B5     		push	{r3, lr}
  54              		.cfi_def_cfa_offset 8
ARM GAS  /tmp/cc97AtNH.s 			page 2


  55              		.cfi_offset 3, -8
  56              		.cfi_offset 14, -4
  57              		.loc 1 86 0
  58 0002 4FF4FA61 		mov	r1, #2000
  59 0006 0248     		ldr	r0, .L4
  60              	.LVL2:
  61 0008 FFF7FEFF 		bl	chIQGetTimeout
  62              	.LVL3:
  63              		.loc 1 88 0
  64 000c 0020     		movs	r0, #0
  65 000e 08BD     		pop	{r3, pc}
  66              	.L5:
  67              		.align	2
  68              	.L4:
  69 0010 00000000 		.word	.LANCHOR0
  70              		.cfi_endproc
  71              	.LFE228:
  72              		.size	thread1, .-thread1
  73 0014 AFF30080 		.section	.text.queues1_setup,"ax",%progbits
  73      AFF30080 
  73      AFF30080 
  74              		.align	2
  75              		.p2align 4,,15
  76              		.thumb
  77              		.thumb_func
  78              		.type	queues1_setup, %function
  79              	queues1_setup:
  80              	.LFB227:
  81              		.loc 1 78 0
  82              		.cfi_startproc
  83              		@ args = 0, pretend = 0, frame = 0
  84              		@ frame_needed = 0, uses_anonymous_args = 0
  85 0000 00B5     		push	{lr}
  86              		.cfi_def_cfa_offset 4
  87              		.cfi_offset 14, -4
  88              		.loc 1 80 0
  89 0002 064B     		ldr	r3, .L8
  90 0004 0648     		ldr	r0, .L8+4
  91 0006 1968     		ldr	r1, [r3]
  92 0008 064B     		ldr	r3, .L8+8
  93              		.loc 1 78 0
  94 000a 83B0     		sub	sp, sp, #12
  95              		.cfi_def_cfa_offset 16
  96              		.loc 1 80 0
  97 000c 0022     		movs	r2, #0
  98 000e 0092     		str	r2, [sp]
  99 0010 0422     		movs	r2, #4
 100 0012 FFF7FEFF 		bl	chIQObjectInit
 101              	.LVL4:
 102              		.loc 1 81 0
 103 0016 03B0     		add	sp, sp, #12
 104              		.cfi_def_cfa_offset 4
 105              		@ sp needed
 106 0018 5DF804FB 		ldr	pc, [sp], #4
 107              	.L9:
 108              		.align	2
 109              	.L8:
ARM GAS  /tmp/cc97AtNH.s 			page 3


 110 001c 00000000 		.word	wa
 111 0020 00000000 		.word	.LANCHOR0
 112 0024 00000000 		.word	notify
 113              		.cfi_endproc
 114              	.LFE227:
 115              		.size	queues1_setup, .-queues1_setup
 116 0028 AFF30080 		.section	.text.thread2,"ax",%progbits
 116      AFF30080 
 117              		.align	2
 118              		.p2align 4,,15
 119              		.thumb
 120              		.thumb_func
 121              		.type	thread2, %function
 122              	thread2:
 123              	.LFB231:
 124              		.loc 1 170 0
 125              		.cfi_startproc
 126              		@ args = 0, pretend = 0, frame = 0
 127              		@ frame_needed = 0, uses_anonymous_args = 0
 128              	.LVL5:
 129 0000 08B5     		push	{r3, lr}
 130              		.cfi_def_cfa_offset 8
 131              		.cfi_offset 3, -8
 132              		.cfi_offset 14, -4
 133              		.loc 1 173 0
 134 0002 0021     		movs	r1, #0
 135 0004 4FF4FA62 		mov	r2, #2000
 136 0008 0248     		ldr	r0, .L12
 137              	.LVL6:
 138 000a FFF7FEFF 		bl	chOQPutTimeout
 139              	.LVL7:
 140              		.loc 1 175 0
 141 000e 0020     		movs	r0, #0
 142 0010 08BD     		pop	{r3, pc}
 143              	.L13:
 144 0012 00BF     		.align	2
 145              	.L12:
 146 0014 00000000 		.word	.LANCHOR1
 147              		.cfi_endproc
 148              	.LFE231:
 149              		.size	thread2, .-thread2
 150 0018 AFF30080 		.section	.text.queues2_setup,"ax",%progbits
 150      AFF30080 
 151              		.align	2
 152              		.p2align 4,,15
 153              		.thumb
 154              		.thumb_func
 155              		.type	queues2_setup, %function
 156              	queues2_setup:
 157              	.LFB230:
 158              		.loc 1 165 0
 159              		.cfi_startproc
 160              		@ args = 0, pretend = 0, frame = 0
 161              		@ frame_needed = 0, uses_anonymous_args = 0
 162 0000 00B5     		push	{lr}
 163              		.cfi_def_cfa_offset 4
 164              		.cfi_offset 14, -4
ARM GAS  /tmp/cc97AtNH.s 			page 4


 165              		.loc 1 167 0
 166 0002 064B     		ldr	r3, .L16
 167 0004 0648     		ldr	r0, .L16+4
 168 0006 1968     		ldr	r1, [r3]
 169 0008 064B     		ldr	r3, .L16+8
 170              		.loc 1 165 0
 171 000a 83B0     		sub	sp, sp, #12
 172              		.cfi_def_cfa_offset 16
 173              		.loc 1 167 0
 174 000c 0022     		movs	r2, #0
 175 000e 0092     		str	r2, [sp]
 176 0010 0422     		movs	r2, #4
 177 0012 FFF7FEFF 		bl	chOQObjectInit
 178              	.LVL8:
 179              		.loc 1 168 0
 180 0016 03B0     		add	sp, sp, #12
 181              		.cfi_def_cfa_offset 4
 182              		@ sp needed
 183 0018 5DF804FB 		ldr	pc, [sp], #4
 184              	.L17:
 185              		.align	2
 186              	.L16:
 187 001c 00000000 		.word	wa
 188 0020 00000000 		.word	.LANCHOR1
 189 0024 00000000 		.word	notify
 190              		.cfi_endproc
 191              	.LFE230:
 192              		.size	queues2_setup, .-queues2_setup
 193 0028 AFF30080 		.section	.text.queues1_execute,"ax",%progbits
 193      AFF30080 
 194              		.align	2
 195              		.p2align 4,,15
 196              		.thumb
 197              		.thumb_func
 198              		.type	queues1_execute, %function
 199              	queues1_execute:
 200              	.LFB229:
 201              		.loc 1 90 0
 202              		.cfi_startproc
 203              		@ args = 0, pretend = 0, frame = 0
 204              		@ frame_needed = 0, uses_anonymous_args = 0
 205              	.LVL9:
 206 0000 2DE9F041 		push	{r4, r5, r6, r7, r8, lr}
 207              		.cfi_def_cfa_offset 24
 208              		.cfi_offset 4, -24
 209              		.cfi_offset 5, -20
 210              		.cfi_offset 6, -16
 211              		.cfi_offset 7, -12
 212              		.cfi_offset 8, -8
 213              		.cfi_offset 14, -4
 214              	.LBB882:
 215              	.LBB883:
 216              	.LBB884:
 217              	.LBB885:
 218              		.file 2 "../ChibiOS/os/ext/CMSIS/include/core_cmFunc.h"
 219              		.loc 2 546 0
 220 0004 2024     		movs	r4, #32
ARM GAS  /tmp/cc97AtNH.s 			page 5


 221              	.LBE885:
 222              	.LBE884:
 223              	.LBE883:
 224              	.LBE882:
 225              		.loc 1 90 0
 226 0006 82B0     		sub	sp, sp, #8
 227              		.cfi_def_cfa_offset 32
 228              	.LBB889:
 229              	.LBB888:
 230              	.LBB887:
 231              	.LBB886:
 232              		.loc 2 546 0
 233              	@ 546 "../ChibiOS/os/ext/CMSIS/include/core_cmFunc.h" 1
 234 0008 84F31188 		MSR basepri, r4
 235              	@ 0 "" 2
 236              	.LVL10:
 237              		.thumb
 238 000c 904B     		ldr	r3, .L47
 239              	.LBE886:
 240              	.LBE887:
 241              	.LBE888:
 242              	.LBE889:
 243              		.loc 1 95 0
 244 000e 0120     		movs	r0, #1
 245              	.LBB890:
 246              	.LBB891:
 247              		.file 3 "../ChibiOS/os/rt/include/chqueues.h"
 248              		.loc 3 304 0
 249 0010 9968     		ldr	r1, [r3, #8]
 250              	.LBE891:
 251              	.LBE890:
 252              		.loc 1 95 0
 253 0012 B1FA81F1 		clz	r1, r1
 254 0016 4909     		lsrs	r1, r1, #5
 255 0018 FFF7FEFF 		bl	_test_assert
 256              	.LVL11:
 257 001c 0646     		mov	r6, r0
 258 001e E8B9     		cbnz	r0, .L41
 259              	.LVL12:
 260              	.LBB892:
 261              	.LBB893:
 262              	.LBB894:
 263              	.LBB895:
 264              	.LBB896:
 265              		.loc 2 546 0
 266              	@ 546 "../ChibiOS/os/ext/CMSIS/include/core_cmFunc.h" 1
 267 0020 80F31188 		MSR basepri, r0
 268              	@ 0 "" 2
 269              	.LVL13:
 270              		.thumb
 271              	.LBE896:
 272              	.LBE895:
 273              	.LBE894:
 274              	.LBE893:
 275              	.LBE892:
 276              	.LBB897:
 277              	.LBB898:
ARM GAS  /tmp/cc97AtNH.s 			page 6


 278              	.LBB899:
 279              	.LBB900:
 280              	@ 546 "../ChibiOS/os/ext/CMSIS/include/core_cmFunc.h" 1
 281 0024 84F31188 		MSR basepri, r4
 282              	@ 0 "" 2
 283              	.LVL14:
 284              		.thumb
 285 0028 4124     		movs	r4, #65
 286              	.LVL15:
 287              	.L21:
 288              	.LBE900:
 289              	.LBE899:
 290              	.LBE898:
 291              	.LBE897:
 292              		.loc 1 100 0 discriminator 3
 293 002a 894D     		ldr	r5, .L47
 294 002c 2146     		mov	r1, r4
 295 002e 0134     		adds	r4, r4, #1
 296 0030 2846     		mov	r0, r5
 297 0032 E4B2     		uxtb	r4, r4
 298 0034 FFF7FEFF 		bl	chIQPutI
 299              	.LVL16:
 300              		.loc 1 99 0 discriminator 3
 301 0038 452C     		cmp	r4, #69
 302 003a F6D1     		bne	.L21
 303              	.LVL17:
 304              	.LBB901:
 305              	.LBB902:
 306              	.LBB903:
 307              	.LBB904:
 308              	.LBB905:
 309              		.loc 2 546 0
 310 003c 0023     		movs	r3, #0
 311              	@ 546 "../ChibiOS/os/ext/CMSIS/include/core_cmFunc.h" 1
 312 003e 83F31188 		MSR basepri, r3
 313              	@ 0 "" 2
 314              	.LVL18:
 315              		.thumb
 316              	.LBE905:
 317              	.LBE904:
 318              	.LBE903:
 319              	.LBE902:
 320              	.LBE901:
 321              	.LBB906:
 322              	.LBB907:
 323              	.LBB908:
 324              	.LBB909:
 325 0042 2023     		movs	r3, #32
 326              	@ 546 "../ChibiOS/os/ext/CMSIS/include/core_cmFunc.h" 1
 327 0044 83F31188 		MSR basepri, r3
 328              	@ 0 "" 2
 329              	.LVL19:
 330              		.thumb
 331              	.LBE909:
 332              	.LBE908:
 333              	.LBE907:
 334              	.LBE906:
ARM GAS  /tmp/cc97AtNH.s 			page 7


 335              	.LBB910:
 336              	.LBB911:
 337              		.loc 3 321 0
 338 0048 AA69     		ldr	r2, [r5, #24]
 339 004a 6B69     		ldr	r3, [r5, #20]
 340 004c 9A42     		cmp	r2, r3
 341 004e 3AD0     		beq	.L44
 342              	.L22:
 343              	.LBE911:
 344              	.LBE910:
 345              		.loc 1 102 0
 346 0050 3146     		mov	r1, r6
 347 0052 0220     		movs	r0, #2
 348 0054 FFF7FEFF 		bl	_test_assert
 349              	.LVL20:
 350 0058 0446     		mov	r4, r0
 351 005a 28B1     		cbz	r0, .L23
 352              	.LVL21:
 353              	.L41:
 354              	.LBB913:
 355              	.LBB914:
 356              	.LBB915:
 357              	.LBB916:
 358              	.LBB917:
 359              		.loc 2 546 0
 360 005c 0023     		movs	r3, #0
 361              	@ 546 "../ChibiOS/os/ext/CMSIS/include/core_cmFunc.h" 1
 362 005e 83F31188 		MSR basepri, r3
 363              	@ 0 "" 2
 364              	.LVL22:
 365              		.thumb
 366              	.L18:
 367              	.LBE917:
 368              	.LBE916:
 369              	.LBE915:
 370              	.LBE914:
 371              	.LBE913:
 372              		.loc 1 147 0
 373 0062 02B0     		add	sp, sp, #8
 374              		.cfi_remember_state
 375              		.cfi_def_cfa_offset 24
 376              		@ sp needed
 377 0064 BDE8F081 		pop	{r4, r5, r6, r7, r8, pc}
 378              	.LVL23:
 379              	.L23:
 380              		.cfi_restore_state
 381              	.LBB918:
 382              	.LBB919:
 383              	.LBB920:
 384              	.LBB921:
 385              	.LBB922:
 386              	.LBB923:
 387              	.LBB924:
 388              		.loc 2 546 0
 389              	@ 546 "../ChibiOS/os/ext/CMSIS/include/core_cmFunc.h" 1
 390 0068 80F31188 		MSR basepri, r0
 391              	@ 0 "" 2
ARM GAS  /tmp/cc97AtNH.s 			page 8


 392              	.LVL24:
 393              		.thumb
 394              	.LBE924:
 395              	.LBE923:
 396              	.LBE922:
 397              	.LBE921:
 398              	.LBE920:
 399              	.LBB925:
 400              	.LBB926:
 401              	.LBB927:
 402              	.LBB928:
 403 006c 2023     		movs	r3, #32
 404              	@ 546 "../ChibiOS/os/ext/CMSIS/include/core_cmFunc.h" 1
 405 006e 83F31188 		MSR basepri, r3
 406              	@ 0 "" 2
 407              		.thumb
 408              	.LBE928:
 409              	.LBE927:
 410              	.LBE926:
 411              	.LBE925:
 412              		.loc 1 103 0
 413 0072 7748     		ldr	r0, .L47
 414 0074 2146     		mov	r1, r4
 415 0076 FFF7FEFF 		bl	chIQPutI
 416              	.LVL25:
 417 007a 0430     		adds	r0, r0, #4
 418 007c 14BF     		ite	ne
 419 007e 0021     		movne	r1, #0
 420 0080 0121     		moveq	r1, #1
 421 0082 0320     		movs	r0, #3
 422 0084 FFF7FEFF 		bl	_test_assert
 423              	.LVL26:
 424 0088 C0B9     		cbnz	r0, .L42
 425              	.LVL27:
 426              	.LBB929:
 427              	.LBB930:
 428              	.LBB931:
 429              	.LBB932:
 430              	.LBB933:
 431              		.loc 2 546 0
 432              	@ 546 "../ChibiOS/os/ext/CMSIS/include/core_cmFunc.h" 1
 433 008a 80F31188 		MSR basepri, r0
 434              	@ 0 "" 2
 435              	.LVL28:
 436              		.thumb
 437 008e 0424     		movs	r4, #4
 438              	.LVL29:
 439              	.L25:
 440              	.LBE933:
 441              	.LBE932:
 442              	.LBE931:
 443              	.LBE930:
 444              	.LBE929:
 445              	.LBB934:
 446              	.LBB935:
 447              		.loc 3 338 0
 448 0090 6F4D     		ldr	r5, .L47
ARM GAS  /tmp/cc97AtNH.s 			page 9


 449 0092 4FF0FF31 		mov	r1, #-1
 450 0096 2846     		mov	r0, r5
 451 0098 FFF7FEFF 		bl	chIQGetTimeout
 452              	.LVL30:
 453              	.LBE935:
 454              	.LBE934:
 455              		.loc 1 107 0
 456 009c C0B2     		uxtb	r0, r0
 457 009e FFF7FEFF 		bl	test_emit_token
 458              	.LVL31:
 459              		.loc 1 106 0
 460 00a2 013C     		subs	r4, r4, #1
 461              	.LVL32:
 462 00a4 F4D1     		bne	.L25
 463              	.LVL33:
 464              	.LBB936:
 465              	.LBB937:
 466              	.LBB938:
 467              	.LBB939:
 468              		.loc 2 546 0
 469 00a6 2026     		movs	r6, #32
 470              	@ 546 "../ChibiOS/os/ext/CMSIS/include/core_cmFunc.h" 1
 471 00a8 86F31188 		MSR basepri, r6
 472              	@ 0 "" 2
 473              	.LVL34:
 474              		.thumb
 475              	.LBE939:
 476              	.LBE938:
 477              	.LBE937:
 478              	.LBE936:
 479              		.loc 1 108 0
 480 00ac 0420     		movs	r0, #4
 481              	.LBB940:
 482              	.LBB941:
 483              		.loc 3 304 0
 484 00ae A968     		ldr	r1, [r5, #8]
 485              	.LBE941:
 486              	.LBE940:
 487              		.loc 1 108 0
 488 00b0 B1FA81F1 		clz	r1, r1
 489 00b4 4909     		lsrs	r1, r1, #5
 490 00b6 FFF7FEFF 		bl	_test_assert
 491              	.LVL35:
 492 00ba 48B1     		cbz	r0, .L45
 493              	.LVL36:
 494              	.L42:
 495              	.LBB942:
 496              	.LBB943:
 497              	.LBB944:
 498              	.LBB945:
 499              	.LBB946:
 500              		.loc 2 546 0
 501              	@ 546 "../ChibiOS/os/ext/CMSIS/include/core_cmFunc.h" 1
 502 00bc 84F31188 		MSR basepri, r4
 503              	@ 0 "" 2
 504              		.thumb
 505              	.LBE946:
ARM GAS  /tmp/cc97AtNH.s 			page 10


 506              	.LBE945:
 507              	.LBE944:
 508              	.LBE943:
 509              	.LBE942:
 510              	.LBE919:
 511              	.LBE918:
 512              		.loc 1 147 0
 513 00c0 02B0     		add	sp, sp, #8
 514              		.cfi_remember_state
 515              		.cfi_def_cfa_offset 24
 516              		@ sp needed
 517 00c2 BDE8F081 		pop	{r4, r5, r6, r7, r8, pc}
 518              	.LVL37:
 519              	.L44:
 520              		.cfi_restore_state
 521              	.LBB1032:
 522              	.LBB912:
 523              		.loc 3 321 0
 524 00c6 AE68     		ldr	r6, [r5, #8]
 525 00c8 0036     		adds	r6, r6, #0
 526 00ca 18BF     		it	ne
 527 00cc 0126     		movne	r6, #1
 528 00ce BFE7     		b	.L22
 529              	.LVL38:
 530              	.L45:
 531              	.LBE912:
 532              	.LBE1032:
 533              	.LBB1033:
 534              	.LBB1030:
 535              	.LBB947:
 536              	.LBB948:
 537              	.LBB949:
 538              	.LBB950:
 539              	.LBB951:
 540              		.loc 2 546 0
 541              	@ 546 "../ChibiOS/os/ext/CMSIS/include/core_cmFunc.h" 1
 542 00d0 84F31188 		MSR basepri, r4
 543              	@ 0 "" 2
 544              		.thumb
 545              	.LBE951:
 546              	.LBE950:
 547              	.LBE949:
 548              	.LBE948:
 549              	.LBE947:
 550              		.loc 1 109 0
 551 00d4 0520     		movs	r0, #5
 552 00d6 5F49     		ldr	r1, .L47+4
 553 00d8 FFF7FEFF 		bl	_test_assert_sequence
 554              	.LVL39:
 555 00dc 0028     		cmp	r0, #0
 556 00de C0D1     		bne	.L18
 557              	.LVL40:
 558              	.LBB952:
 559              	.LBB953:
 560              	.LBB954:
 561              	.LBB955:
 562              		.loc 2 546 0
ARM GAS  /tmp/cc97AtNH.s 			page 11


 563              	@ 546 "../ChibiOS/os/ext/CMSIS/include/core_cmFunc.h" 1
 564 00e0 86F31188 		MSR basepri, r6
 565              	@ 0 "" 2
 566              	.LVL41:
 567              		.thumb
 568 00e4 4124     		movs	r4, #65
 569              	.LVL42:
 570              	.L28:
 571              	.LBE955:
 572              	.LBE954:
 573              	.LBE953:
 574              	.LBE952:
 575              		.loc 1 114 0
 576 00e6 5A4D     		ldr	r5, .L47
 577 00e8 2146     		mov	r1, r4
 578 00ea 0134     		adds	r4, r4, #1
 579 00ec 2846     		mov	r0, r5
 580 00ee E4B2     		uxtb	r4, r4
 581 00f0 FFF7FEFF 		bl	chIQPutI
 582              	.LVL43:
 583              		.loc 1 113 0
 584 00f4 452C     		cmp	r4, #69
 585 00f6 F6D1     		bne	.L28
 586              	.LVL44:
 587              	.LBB956:
 588              	.LBB957:
 589              	.LBB958:
 590              	.LBB959:
 591              	.LBB960:
 592              		.loc 2 546 0
 593 00f8 0023     		movs	r3, #0
 594              	@ 546 "../ChibiOS/os/ext/CMSIS/include/core_cmFunc.h" 1
 595 00fa 83F31188 		MSR basepri, r3
 596              	@ 0 "" 2
 597              		.thumb
 598              	.LBE960:
 599              	.LBE959:
 600              	.LBE958:
 601              	.LBE957:
 602              	.LBE956:
 603              		.loc 1 118 0
 604 00fe 564E     		ldr	r6, .L47+8
 605 0100 0822     		movs	r2, #8
 606 0102 7168     		ldr	r1, [r6, #4]
 607 0104 2846     		mov	r0, r5
 608 0106 FFF7FEFF 		bl	chIQReadTimeout
 609              	.LVL45:
 610              		.loc 1 119 0
 611 010a A0F10401 		sub	r1, r0, #4
 612 010e 0620     		movs	r0, #6
 613              	.LVL46:
 614 0110 B1FA81F1 		clz	r1, r1
 615              	.LVL47:
 616 0114 4909     		lsrs	r1, r1, #5
 617 0116 FFF7FEFF 		bl	_test_assert
 618              	.LVL48:
 619 011a 0446     		mov	r4, r0
ARM GAS  /tmp/cc97AtNH.s 			page 12


 620 011c 0028     		cmp	r0, #0
 621 011e A0D1     		bne	.L18
 622              	.LVL49:
 623              	.LBB961:
 624              	.LBB962:
 625              	.LBB963:
 626              	.LBB964:
 627              		.loc 2 546 0
 628 0120 2027     		movs	r7, #32
 629              	@ 546 "../ChibiOS/os/ext/CMSIS/include/core_cmFunc.h" 1
 630 0122 87F31188 		MSR basepri, r7
 631              	@ 0 "" 2
 632              	.LVL50:
 633              		.thumb
 634              	.LBE964:
 635              	.LBE963:
 636              	.LBE962:
 637              	.LBE961:
 638              		.loc 1 120 0
 639 0126 0720     		movs	r0, #7
 640              	.LBB965:
 641              	.LBB966:
 642              		.loc 3 304 0
 643 0128 A968     		ldr	r1, [r5, #8]
 644              	.LBE966:
 645              	.LBE965:
 646              		.loc 1 120 0
 647 012a B1FA81F1 		clz	r1, r1
 648 012e 4909     		lsrs	r1, r1, #5
 649 0130 FFF7FEFF 		bl	_test_assert
 650              	.LVL51:
 651 0134 0028     		cmp	r0, #0
 652 0136 C1D1     		bne	.L42
 653              	.LVL52:
 654              	.LBB967:
 655              	.LBB968:
 656              	.LBB969:
 657              	.LBB970:
 658              	.LBB971:
 659              		.loc 2 546 0
 660              	@ 546 "../ChibiOS/os/ext/CMSIS/include/core_cmFunc.h" 1
 661 0138 80F31188 		MSR basepri, r0
 662              	@ 0 "" 2
 663              	.LVL53:
 664              		.thumb
 665              	.LBE971:
 666              	.LBE970:
 667              	.LBE969:
 668              	.LBE968:
 669              	.LBE967:
 670              	.LBB972:
 671              	.LBB973:
 672              	.LBB974:
 673              	.LBB975:
 674              	@ 546 "../ChibiOS/os/ext/CMSIS/include/core_cmFunc.h" 1
 675 013c 87F31188 		MSR basepri, r7
 676              	@ 0 "" 2
ARM GAS  /tmp/cc97AtNH.s 			page 13


 677              	.LVL54:
 678              		.thumb
 679 0140 4124     		movs	r4, #65
 680              	.LVL55:
 681              	.L31:
 682              	.LBE975:
 683              	.LBE974:
 684              	.LBE973:
 685              	.LBE972:
 686              		.loc 1 125 0
 687 0142 434D     		ldr	r5, .L47
 688 0144 2146     		mov	r1, r4
 689 0146 0134     		adds	r4, r4, #1
 690 0148 2846     		mov	r0, r5
 691 014a E4B2     		uxtb	r4, r4
 692 014c FFF7FEFF 		bl	chIQPutI
 693              	.LVL56:
 694              		.loc 1 124 0
 695 0150 452C     		cmp	r4, #69
 696 0152 F6D1     		bne	.L31
 697              	.LVL57:
 698              	.LBB976:
 699              	.LBB977:
 700              	.LBB978:
 701              	.LBB979:
 702              	.LBB980:
 703              		.loc 2 546 0
 704 0154 0023     		movs	r3, #0
 705              	@ 546 "../ChibiOS/os/ext/CMSIS/include/core_cmFunc.h" 1
 706 0156 83F31188 		MSR basepri, r3
 707              	@ 0 "" 2
 708              		.thumb
 709              	.LBE980:
 710              	.LBE979:
 711              	.LBE978:
 712              	.LBE977:
 713              	.LBE976:
 714              		.loc 1 129 0
 715 015a 7468     		ldr	r4, [r6, #4]
 716 015c DFF8F880 		ldr	r8, .L47+8
 717 0160 2146     		mov	r1, r4
 718 0162 2846     		mov	r0, r5
 719 0164 0222     		movs	r2, #2
 720 0166 FFF7FEFF 		bl	chIQReadTimeout
 721              	.LVL58:
 722              		.loc 1 130 0
 723 016a A0F10201 		sub	r1, r0, #2
 724 016e 0820     		movs	r0, #8
 725              	.LVL59:
 726 0170 B1FA81F1 		clz	r1, r1
 727              	.LVL60:
 728 0174 4909     		lsrs	r1, r1, #5
 729 0176 FFF7FEFF 		bl	_test_assert
 730              	.LVL61:
 731 017a 0028     		cmp	r0, #0
 732 017c 7FF471AF 		bne	.L18
 733              		.loc 1 131 0
ARM GAS  /tmp/cc97AtNH.s 			page 14


 734 0180 0346     		mov	r3, r0
 735 0182 2146     		mov	r1, r4
 736 0184 0222     		movs	r2, #2
 737 0186 2846     		mov	r0, r5
 738 0188 FFF7FEFF 		bl	chIQReadTimeout
 739              	.LVL62:
 740              		.loc 1 132 0
 741 018c A0F10201 		sub	r1, r0, #2
 742 0190 0920     		movs	r0, #9
 743              	.LVL63:
 744 0192 B1FA81F1 		clz	r1, r1
 745              	.LVL64:
 746 0196 4909     		lsrs	r1, r1, #5
 747 0198 FFF7FEFF 		bl	_test_assert
 748              	.LVL65:
 749 019c 0646     		mov	r6, r0
 750 019e 0028     		cmp	r0, #0
 751 01a0 7FF45FAF 		bne	.L18
 752              	.LVL66:
 753              	.LBB981:
 754              	.LBB982:
 755              	.LBB983:
 756              	.LBB984:
 757              		.loc 2 546 0
 758 01a4 2027     		movs	r7, #32
 759              	@ 546 "../ChibiOS/os/ext/CMSIS/include/core_cmFunc.h" 1
 760 01a6 87F31188 		MSR basepri, r7
 761              	@ 0 "" 2
 762              	.LVL67:
 763              		.thumb
 764              	.LBE984:
 765              	.LBE983:
 766              	.LBE982:
 767              	.LBE981:
 768              		.loc 1 133 0
 769 01aa 0A20     		movs	r0, #10
 770              	.LBB985:
 771              	.LBB986:
 772              		.loc 3 304 0
 773 01ac A968     		ldr	r1, [r5, #8]
 774              	.LBE986:
 775              	.LBE985:
 776              		.loc 1 133 0
 777 01ae B1FA81F1 		clz	r1, r1
 778 01b2 4909     		lsrs	r1, r1, #5
 779 01b4 FFF7FEFF 		bl	_test_assert
 780              	.LVL68:
 781 01b8 0446     		mov	r4, r0
 782 01ba 10B1     		cbz	r0, .L46
 783              	.L40:
 784              	.LVL69:
 785              	.LBB987:
 786              	.LBB988:
 787              	.LBB989:
 788              	.LBB990:
 789              	.LBB991:
 790              		.loc 2 546 0
ARM GAS  /tmp/cc97AtNH.s 			page 15


 791              	@ 546 "../ChibiOS/os/ext/CMSIS/include/core_cmFunc.h" 1
 792 01bc 86F31188 		MSR basepri, r6
 793              	@ 0 "" 2
 794              		.thumb
 795 01c0 4FE7     		b	.L18
 796              	.LVL70:
 797              	.L46:
 798              	.LBE991:
 799              	.LBE990:
 800              	.LBE989:
 801              	.LBE988:
 802              	.LBE987:
 803              	.LBB992:
 804              	.LBB993:
 805              	.LBB994:
 806              	.LBB995:
 807              	.LBB996:
 808              	@ 546 "../ChibiOS/os/ext/CMSIS/include/core_cmFunc.h" 1
 809 01c2 80F31188 		MSR basepri, r0
 810              	@ 0 "" 2
 811              	.LVL71:
 812              		.thumb
 813              	.LBE996:
 814              	.LBE995:
 815              	.LBE994:
 816              	.LBE993:
 817              	.LBE992:
 818              	.LBB997:
 819              	.LBB998:
 820              	.LBB999:
 821              	.LBB1000:
 822              	@ 546 "../ChibiOS/os/ext/CMSIS/include/core_cmFunc.h" 1
 823 01c6 87F31188 		MSR basepri, r7
 824              	@ 0 "" 2
 825              		.thumb
 826              	.LBE1000:
 827              	.LBE999:
 828              	.LBE998:
 829              	.LBE997:
 830              		.loc 1 137 0
 831 01ca 2146     		mov	r1, r4
 832 01cc 2846     		mov	r0, r5
 833 01ce FFF7FEFF 		bl	chIQPutI
 834              	.LVL72:
 835              		.loc 1 138 0
 836 01d2 2846     		mov	r0, r5
 837 01d4 FFF7FEFF 		bl	chIQResetI
 838              	.LVL73:
 839              	.LBB1001:
 840              	.LBB1002:
 841              	.LBB1003:
 842              	.LBB1004:
 843              	.LBB1005:
 844              		.loc 2 546 0
 845              	@ 546 "../ChibiOS/os/ext/CMSIS/include/core_cmFunc.h" 1
 846 01d8 84F31188 		MSR basepri, r4
 847              	@ 0 "" 2
ARM GAS  /tmp/cc97AtNH.s 			page 16


 848              	.LVL74:
 849              		.thumb
 850              	.LBE1005:
 851              	.LBE1004:
 852              	.LBE1003:
 853              	.LBE1002:
 854              	.LBE1001:
 855              	.LBB1006:
 856              	.LBB1007:
 857              	.LBB1008:
 858              	.LBB1009:
 859              	@ 546 "../ChibiOS/os/ext/CMSIS/include/core_cmFunc.h" 1
 860 01dc 87F31188 		MSR basepri, r7
 861              	@ 0 "" 2
 862              	.LVL75:
 863              		.thumb
 864              	.LBE1009:
 865              	.LBE1008:
 866              	.LBE1007:
 867              	.LBE1006:
 868              		.loc 1 140 0
 869 01e0 0B20     		movs	r0, #11
 870 01e2 A968     		ldr	r1, [r5, #8]
 871 01e4 B1FA81F1 		clz	r1, r1
 872 01e8 4909     		lsrs	r1, r1, #5
 873 01ea FFF7FEFF 		bl	_test_assert
 874              	.LVL76:
 875 01ee 0646     		mov	r6, r0
 876 01f0 0028     		cmp	r0, #0
 877 01f2 7FF463AF 		bne	.L42
 878              	.LVL77:
 879              	.LBB1010:
 880              	.LBB1011:
 881              	.LBB1012:
 882              	.LBB1013:
 883              	.LBB1014:
 884              		.loc 2 546 0
 885              	@ 546 "../ChibiOS/os/ext/CMSIS/include/core_cmFunc.h" 1
 886 01f6 80F31188 		MSR basepri, r0
 887              	@ 0 "" 2
 888              		.thumb
 889              	.LBE1014:
 890              	.LBE1013:
 891              	.LBE1012:
 892              	.LBE1011:
 893              	.LBE1010:
 894              	.LBB1015:
 895              	.LBB1016:
 896              	.LBB1017:
 897              	.LBB1018:
 898              		.file 4 "../ChibiOS/os/rt/include/chthreads.h"
 899              		.loc 4 179 0
 900 01fa 184B     		ldr	r3, .L47+12
 901              	.LBE1018:
 902              	.LBE1017:
 903              	.LBE1016:
 904              	.LBE1015:
ARM GAS  /tmp/cc97AtNH.s 			page 17


 905              		.loc 1 141 0
 906 01fc D8F80000 		ldr	r0, [r8]
 907              	.LBB1020:
 908              	.LBB1019:
 909              		.loc 4 192 0
 910 0200 9A69     		ldr	r2, [r3, #24]
 911              	.LBE1019:
 912              	.LBE1020:
 913              		.loc 1 141 0
 914 0202 174B     		ldr	r3, .L47+16
 915 0204 9268     		ldr	r2, [r2, #8]
 916 0206 0096     		str	r6, [sp]
 917 0208 0132     		adds	r2, r2, #1
 918 020a 4FF4E871 		mov	r1, #464
 919 020e FFF7FEFF 		bl	chThdCreateStatic
 920              	.LVL78:
 921 0212 144B     		ldr	r3, .L47+20
 922 0214 1860     		str	r0, [r3]
 923              	.LVL79:
 924              	.LBB1021:
 925              	.LBB1022:
 926              	.LBB1023:
 927              	.LBB1024:
 928              		.loc 2 546 0
 929              	@ 546 "../ChibiOS/os/ext/CMSIS/include/core_cmFunc.h" 1
 930 0216 87F31188 		MSR basepri, r7
 931              	@ 0 "" 2
 932              	.LVL80:
 933              		.thumb
 934              	.LBE1024:
 935              	.LBE1023:
 936              	.LBE1022:
 937              	.LBE1021:
 938              		.loc 1 142 0
 939 021a 0C20     		movs	r0, #12
 940 021c A968     		ldr	r1, [r5, #8]
 941 021e B1FA81F1 		clz	r1, r1
 942 0222 4909     		lsrs	r1, r1, #5
 943 0224 FFF7FEFF 		bl	_test_assert
 944              	.LVL81:
 945 0228 0028     		cmp	r0, #0
 946 022a C7D1     		bne	.L40
 947              	.LVL82:
 948              	.LBB1025:
 949              	.LBB1026:
 950              	.LBB1027:
 951              	.LBB1028:
 952              	.LBB1029:
 953              		.loc 2 546 0
 954              	@ 546 "../ChibiOS/os/ext/CMSIS/include/core_cmFunc.h" 1
 955 022c 80F31188 		MSR basepri, r0
 956              	@ 0 "" 2
 957              		.thumb
 958              	.LBE1029:
 959              	.LBE1028:
 960              	.LBE1027:
 961              	.LBE1026:
ARM GAS  /tmp/cc97AtNH.s 			page 18


 962              	.LBE1025:
 963              		.loc 1 143 0
 964 0230 FFF7FEFF 		bl	test_wait_threads
 965              	.LVL83:
 966              		.loc 1 146 0
 967 0234 2846     		mov	r0, r5
 968 0236 0A21     		movs	r1, #10
 969 0238 FFF7FEFF 		bl	chIQGetTimeout
 970              	.LVL84:
 971 023c 431C     		adds	r3, r0, #1
 972 023e 5942     		rsbs	r1, r3, #0
 973 0240 5941     		adcs	r1, r1, r3
 974 0242 0D20     		movs	r0, #13
 975              	.LBE1030:
 976              	.LBE1033:
 977              		.loc 1 147 0
 978 0244 02B0     		add	sp, sp, #8
 979              		.cfi_def_cfa_offset 24
 980              		@ sp needed
 981 0246 BDE8F041 		pop	{r4, r5, r6, r7, r8, lr}
 982              		.cfi_restore 14
 983              		.cfi_restore 8
 984              		.cfi_restore 7
 985              		.cfi_restore 6
 986              		.cfi_restore 5
 987              		.cfi_restore 4
 988              		.cfi_def_cfa_offset 0
 989              	.LBB1034:
 990              	.LBB1031:
 991              		.loc 1 146 0
 992 024a FFF7FEBF 		b	_test_assert
 993              	.LVL85:
 994              	.L48:
 995 024e 00BF     		.align	2
 996              	.L47:
 997 0250 00000000 		.word	.LANCHOR0
 998 0254 00000000 		.word	.LC0
 999 0258 00000000 		.word	wa
 1000 025c 00000000 		.word	ch
 1001 0260 00000000 		.word	thread1
 1002 0264 00000000 		.word	threads
 1003              	.LBE1031:
 1004              	.LBE1034:
 1005              		.cfi_endproc
 1006              	.LFE229:
 1007              		.size	queues1_execute, .-queues1_execute
 1008 0268 AFF30080 		.section	.text.queues2_execute,"ax",%progbits
 1008      AFF30080 
 1009              		.align	2
 1010              		.p2align 4,,15
 1011              		.thumb
 1012              		.thumb_func
 1013              		.type	queues2_execute, %function
 1014              	queues2_execute:
 1015              	.LFB232:
 1016              		.loc 1 177 0
 1017              		.cfi_startproc
ARM GAS  /tmp/cc97AtNH.s 			page 19


 1018              		@ args = 0, pretend = 0, frame = 0
 1019              		@ frame_needed = 0, uses_anonymous_args = 0
 1020              	.LVL86:
 1021 0000 2DE9F043 		push	{r4, r5, r6, r7, r8, r9, lr}
 1022              		.cfi_def_cfa_offset 28
 1023              		.cfi_offset 4, -28
 1024              		.cfi_offset 5, -24
 1025              		.cfi_offset 6, -20
 1026              		.cfi_offset 7, -16
 1027              		.cfi_offset 8, -12
 1028              		.cfi_offset 9, -8
 1029              		.cfi_offset 14, -4
 1030              	.LBB1217:
 1031              	.LBB1218:
 1032              	.LBB1219:
 1033              	.LBB1220:
 1034              		.loc 2 546 0
 1035 0004 2023     		movs	r3, #32
 1036              	.LBE1220:
 1037              	.LBE1219:
 1038              	.LBE1218:
 1039              	.LBE1217:
 1040              		.loc 1 177 0
 1041 0006 83B0     		sub	sp, sp, #12
 1042              		.cfi_def_cfa_offset 40
 1043              	.LBB1224:
 1044              	.LBB1223:
 1045              	.LBB1222:
 1046              	.LBB1221:
 1047              		.loc 2 546 0
 1048              	@ 546 "../ChibiOS/os/ext/CMSIS/include/core_cmFunc.h" 1
 1049 0008 83F31188 		MSR basepri, r3
 1050              	@ 0 "" 2
 1051              	.LVL87:
 1052              		.thumb
 1053              	.LBE1221:
 1054              	.LBE1222:
 1055              	.LBE1223:
 1056              	.LBE1224:
 1057              	.LBB1225:
 1058              	.LBB1226:
 1059              		.loc 3 387 0
 1060 000c 854B     		ldr	r3, .L74
 1061 000e 5969     		ldr	r1, [r3, #20]
 1062 0010 9A69     		ldr	r2, [r3, #24]
 1063 0012 9142     		cmp	r1, r2
 1064 0014 5DD0     		beq	.L71
 1065 0016 0021     		movs	r1, #0
 1066              	.L50:
 1067              	.LBE1226:
 1068              	.LBE1225:
 1069              		.loc 1 182 0
 1070 0018 0120     		movs	r0, #1
 1071 001a FFF7FEFF 		bl	_test_assert
 1072              	.LVL88:
 1073 001e B8BB     		cbnz	r0, .L70
 1074              	.LVL89:
ARM GAS  /tmp/cc97AtNH.s 			page 20


 1075              	.LBB1228:
 1076              	.LBB1229:
 1077              	.LBB1230:
 1078              	.LBB1231:
 1079              	.LBB1232:
 1080              		.loc 2 546 0
 1081              	@ 546 "../ChibiOS/os/ext/CMSIS/include/core_cmFunc.h" 1
 1082 0020 80F31188 		MSR basepri, r0
 1083              	@ 0 "" 2
 1084              	.LVL90:
 1085              		.thumb
 1086 0024 4124     		movs	r4, #65
 1087              	.LVL91:
 1088              	.L53:
 1089              	.LBE1232:
 1090              	.LBE1231:
 1091              	.LBE1230:
 1092              	.LBE1229:
 1093              	.LBE1228:
 1094              	.LBB1233:
 1095              	.LBB1234:
 1096              		.loc 3 423 0 discriminator 3
 1097 0026 7F4D     		ldr	r5, .L74
 1098 0028 2146     		mov	r1, r4
 1099 002a 0134     		adds	r4, r4, #1
 1100              	.LVL92:
 1101 002c 2846     		mov	r0, r5
 1102 002e 4FF0FF32 		mov	r2, #-1
 1103 0032 E4B2     		uxtb	r4, r4
 1104 0034 FFF7FEFF 		bl	chOQPutTimeout
 1105              	.LVL93:
 1106              	.LBE1234:
 1107              	.LBE1233:
 1108              		.loc 1 185 0 discriminator 3
 1109 0038 452C     		cmp	r4, #69
 1110 003a F4D1     		bne	.L53
 1111              	.LVL94:
 1112              	.LBB1235:
 1113              	.LBB1236:
 1114              	.LBB1237:
 1115              	.LBB1238:
 1116              		.loc 2 546 0
 1117 003c 2026     		movs	r6, #32
 1118              	@ 546 "../ChibiOS/os/ext/CMSIS/include/core_cmFunc.h" 1
 1119 003e 86F31188 		MSR basepri, r6
 1120              	@ 0 "" 2
 1121              	.LVL95:
 1122              		.thumb
 1123              	.LBE1238:
 1124              	.LBE1237:
 1125              	.LBE1236:
 1126              	.LBE1235:
 1127              		.loc 1 187 0
 1128 0042 0220     		movs	r0, #2
 1129              	.LBB1239:
 1130              	.LBB1240:
 1131              		.loc 3 404 0
ARM GAS  /tmp/cc97AtNH.s 			page 21


 1132 0044 A968     		ldr	r1, [r5, #8]
 1133              	.LBE1240:
 1134              	.LBE1239:
 1135              		.loc 1 187 0
 1136 0046 B1FA81F1 		clz	r1, r1
 1137 004a 4909     		lsrs	r1, r1, #5
 1138 004c FFF7FEFF 		bl	_test_assert
 1139              	.LVL96:
 1140 0050 0746     		mov	r7, r0
 1141 0052 E8B9     		cbnz	r0, .L70
 1142              	.LVL97:
 1143              	.LBB1241:
 1144              	.LBB1242:
 1145              	.LBB1243:
 1146              	.LBB1244:
 1147              	.LBB1245:
 1148              	.LBB1246:
 1149              	.LBB1247:
 1150              		.loc 2 546 0
 1151              	@ 546 "../ChibiOS/os/ext/CMSIS/include/core_cmFunc.h" 1
 1152 0054 80F31188 		MSR basepri, r0
 1153              	@ 0 "" 2
 1154              	.LVL98:
 1155              		.thumb
 1156 0058 0424     		movs	r4, #4
 1157              	.LBE1247:
 1158              	.LBE1246:
 1159              	.LBE1245:
 1160              	.LBE1244:
 1161              	.LBE1243:
 1162              	.LBB1248:
 1163              	.LBB1249:
 1164              	.LBB1250:
 1165              	.LBB1251:
 1166              	.LBB1252:
 1167              	.LBB1253:
 1168 005a 8146     		mov	r9, r0
 1169              	.LVL99:
 1170              	.L55:
 1171              	.LBE1253:
 1172              	.LBE1252:
 1173              	.LBE1251:
 1174              	.LBE1250:
 1175              	.LBE1249:
 1176              	.LBB1258:
 1177              	.LBB1259:
 1178              	.LBB1260:
 1179              	.LBB1261:
 1180 005c 4FF02008 		mov	r8, #32
 1181              	@ 546 "../ChibiOS/os/ext/CMSIS/include/core_cmFunc.h" 1
 1182 0060 86F31188 		MSR basepri, r6
 1183              	@ 0 "" 2
 1184              		.thumb
 1185              	.LBE1261:
 1186              	.LBE1260:
 1187              	.LBE1259:
 1188              	.LBE1258:
ARM GAS  /tmp/cc97AtNH.s 			page 22


 1189              		.loc 1 194 0
 1190 0064 6F4D     		ldr	r5, .L74
 1191 0066 2846     		mov	r0, r5
 1192 0068 FFF7FEFF 		bl	chOQGetI
 1193              	.LVL100:
 1194              	.LBB1262:
 1195              	.LBB1257:
 1196              	.LBB1256:
 1197              	.LBB1255:
 1198              	.LBB1254:
 1199              		.loc 2 546 0
 1200              	@ 546 "../ChibiOS/os/ext/CMSIS/include/core_cmFunc.h" 1
 1201 006c 89F31188 		MSR basepri, r9
 1202              	@ 0 "" 2
 1203              		.thumb
 1204              	.LBE1254:
 1205              	.LBE1255:
 1206              	.LBE1256:
 1207              	.LBE1257:
 1208              	.LBE1262:
 1209              		.loc 1 196 0
 1210 0070 C0B2     		uxtb	r0, r0
 1211 0072 FFF7FEFF 		bl	test_emit_token
 1212              	.LVL101:
 1213              	.LBE1248:
 1214              		.loc 1 190 0
 1215 0076 013C     		subs	r4, r4, #1
 1216              	.LVL102:
 1217 0078 F0D1     		bne	.L55
 1218              	.LVL103:
 1219              	.LBB1263:
 1220              	.LBB1264:
 1221              	.LBB1265:
 1222              	.LBB1266:
 1223              		.loc 2 546 0
 1224              	@ 546 "../ChibiOS/os/ext/CMSIS/include/core_cmFunc.h" 1
 1225 007a 88F31188 		MSR basepri, r8
 1226              	@ 0 "" 2
 1227              	.LVL104:
 1228              		.thumb
 1229              	.LBE1266:
 1230              	.LBE1265:
 1231              	.LBE1264:
 1232              	.LBE1263:
 1233              	.LBB1267:
 1234              	.LBB1268:
 1235              		.loc 3 387 0
 1236 007e 6A69     		ldr	r2, [r5, #20]
 1237 0080 AB69     		ldr	r3, [r5, #24]
 1238 0082 9A42     		cmp	r2, r3
 1239 0084 2AD0     		beq	.L72
 1240              	.L56:
 1241              	.LBE1268:
 1242              	.LBE1267:
 1243              		.loc 1 198 0
 1244 0086 3946     		mov	r1, r7
 1245 0088 0320     		movs	r0, #3
ARM GAS  /tmp/cc97AtNH.s 			page 23


 1246 008a FFF7FEFF 		bl	_test_assert
 1247              	.LVL105:
 1248 008e 28B1     		cbz	r0, .L73
 1249              	.LVL106:
 1250              	.L70:
 1251              	.LBB1270:
 1252              	.LBB1271:
 1253              	.LBB1272:
 1254              	.LBB1273:
 1255              	.LBB1274:
 1256              		.loc 2 546 0
 1257 0090 0023     		movs	r3, #0
 1258              	@ 546 "../ChibiOS/os/ext/CMSIS/include/core_cmFunc.h" 1
 1259 0092 83F31188 		MSR basepri, r3
 1260              	@ 0 "" 2
 1261              	.LVL107:
 1262              		.thumb
 1263              	.L49:
 1264              	.LBE1274:
 1265              	.LBE1273:
 1266              	.LBE1272:
 1267              	.LBE1271:
 1268              	.LBE1270:
 1269              	.LBE1242:
 1270              	.LBE1241:
 1271              		.loc 1 225 0
 1272 0096 03B0     		add	sp, sp, #12
 1273              		.cfi_remember_state
 1274              		.cfi_def_cfa_offset 28
 1275              		@ sp needed
 1276 0098 BDE8F083 		pop	{r4, r5, r6, r7, r8, r9, pc}
 1277              	.LVL108:
 1278              	.L73:
 1279              		.cfi_restore_state
 1280              	.LBB1372:
 1281              	.LBB1369:
 1282              	.LBB1275:
 1283              	.LBB1276:
 1284              	.LBB1277:
 1285              	.LBB1278:
 1286              	.LBB1279:
 1287              		.loc 2 546 0
 1288              	@ 546 "../ChibiOS/os/ext/CMSIS/include/core_cmFunc.h" 1
 1289 009c 80F31188 		MSR basepri, r0
 1290              	@ 0 "" 2
 1291              		.thumb
 1292              	.LBE1279:
 1293              	.LBE1278:
 1294              	.LBE1277:
 1295              	.LBE1276:
 1296              	.LBE1275:
 1297              		.loc 1 199 0
 1298 00a0 0420     		movs	r0, #4
 1299 00a2 6149     		ldr	r1, .L74+4
 1300 00a4 FFF7FEFF 		bl	_test_assert_sequence
 1301              	.LVL109:
 1302 00a8 0446     		mov	r4, r0
ARM GAS  /tmp/cc97AtNH.s 			page 24


 1303              	.LVL110:
 1304 00aa 0028     		cmp	r0, #0
 1305 00ac F3D1     		bne	.L49
 1306              	.LVL111:
 1307              	.LBB1280:
 1308              	.LBB1281:
 1309              	.LBB1282:
 1310              	.LBB1283:
 1311              		.loc 2 546 0
 1312 00ae 2026     		movs	r6, #32
 1313              	@ 546 "../ChibiOS/os/ext/CMSIS/include/core_cmFunc.h" 1
 1314 00b0 86F31188 		MSR basepri, r6
 1315              	@ 0 "" 2
 1316              		.thumb
 1317              	.LBE1283:
 1318              	.LBE1282:
 1319              	.LBE1281:
 1320              	.LBE1280:
 1321              		.loc 1 200 0
 1322 00b4 5B4D     		ldr	r5, .L74
 1323 00b6 2846     		mov	r0, r5
 1324 00b8 FFF7FEFF 		bl	chOQGetI
 1325              	.LVL112:
 1326 00bc 0330     		adds	r0, r0, #3
 1327 00be 14BF     		ite	ne
 1328 00c0 0021     		movne	r1, #0
 1329 00c2 0121     		moveq	r1, #1
 1330 00c4 0520     		movs	r0, #5
 1331 00c6 FFF7FEFF 		bl	_test_assert
 1332              	.LVL113:
 1333 00ca 60B1     		cbz	r0, .L59
 1334              	.LVL114:
 1335              	.LBB1284:
 1336              	.LBB1285:
 1337              	.LBB1286:
 1338              	.LBB1287:
 1339              	.LBB1288:
 1340              		.loc 2 546 0
 1341              	@ 546 "../ChibiOS/os/ext/CMSIS/include/core_cmFunc.h" 1
 1342 00cc 84F31188 		MSR basepri, r4
 1343              	@ 0 "" 2
 1344              		.thumb
 1345 00d0 E1E7     		b	.L49
 1346              	.LVL115:
 1347              	.L71:
 1348              	.LBE1288:
 1349              	.LBE1287:
 1350              	.LBE1286:
 1351              	.LBE1285:
 1352              	.LBE1284:
 1353              	.LBE1369:
 1354              	.LBE1372:
 1355              	.LBB1373:
 1356              	.LBB1227:
 1357              		.loc 3 387 0
 1358 00d2 9968     		ldr	r1, [r3, #8]
 1359 00d4 0031     		adds	r1, r1, #0
ARM GAS  /tmp/cc97AtNH.s 			page 25


 1360 00d6 18BF     		it	ne
 1361 00d8 0121     		movne	r1, #1
 1362 00da 9DE7     		b	.L50
 1363              	.LVL116:
 1364              	.L72:
 1365              	.LBE1227:
 1366              	.LBE1373:
 1367              	.LBB1374:
 1368              	.LBB1370:
 1369              	.LBB1289:
 1370              	.LBB1269:
 1371 00dc AF68     		ldr	r7, [r5, #8]
 1372 00de 0037     		adds	r7, r7, #0
 1373 00e0 18BF     		it	ne
 1374 00e2 0127     		movne	r7, #1
 1375 00e4 CFE7     		b	.L56
 1376              	.LVL117:
 1377              	.L59:
 1378              	.LBE1269:
 1379              	.LBE1289:
 1380              	.LBB1290:
 1381              	.LBB1291:
 1382              	.LBB1292:
 1383              	.LBB1293:
 1384              	.LBB1294:
 1385              		.loc 2 546 0
 1386              	@ 546 "../ChibiOS/os/ext/CMSIS/include/core_cmFunc.h" 1
 1387 00e6 80F31188 		MSR basepri, r0
 1388              	@ 0 "" 2
 1389              		.thumb
 1390              	.LBE1294:
 1391              	.LBE1293:
 1392              	.LBE1292:
 1393              	.LBE1291:
 1394              	.LBE1290:
 1395              		.loc 1 203 0
 1396 00ea 504F     		ldr	r7, .L74+8
 1397 00ec 7C68     		ldr	r4, [r7, #4]
 1398 00ee 0346     		mov	r3, r0
 1399 00f0 2146     		mov	r1, r4
 1400 00f2 0822     		movs	r2, #8
 1401 00f4 2846     		mov	r0, r5
 1402 00f6 FFF7FEFF 		bl	chOQWriteTimeout
 1403              	.LVL118:
 1404              		.loc 1 204 0
 1405 00fa A0F10401 		sub	r1, r0, #4
 1406 00fe 0620     		movs	r0, #6
 1407              	.LVL119:
 1408 0100 B1FA81F1 		clz	r1, r1
 1409              	.LVL120:
 1410 0104 4909     		lsrs	r1, r1, #5
 1411 0106 FFF7FEFF 		bl	_test_assert
 1412              	.LVL121:
 1413 010a 8046     		mov	r8, r0
 1414 010c 0028     		cmp	r0, #0
 1415 010e C2D1     		bne	.L49
 1416              	.LVL122:
ARM GAS  /tmp/cc97AtNH.s 			page 26


 1417              	.LBB1295:
 1418              	.LBB1296:
 1419              	.LBB1297:
 1420              	.LBB1298:
 1421              		.loc 2 546 0
 1422              	@ 546 "../ChibiOS/os/ext/CMSIS/include/core_cmFunc.h" 1
 1423 0110 86F31188 		MSR basepri, r6
 1424              	@ 0 "" 2
 1425              	.LVL123:
 1426              		.thumb
 1427              	.LBE1298:
 1428              	.LBE1297:
 1429              	.LBE1296:
 1430              	.LBE1295:
 1431              		.loc 1 205 0
 1432 0114 0720     		movs	r0, #7
 1433              	.LBB1299:
 1434              	.LBB1300:
 1435              		.loc 3 404 0
 1436 0116 A968     		ldr	r1, [r5, #8]
 1437              	.LBE1300:
 1438              	.LBE1299:
 1439              		.loc 1 205 0
 1440 0118 B1FA81F1 		clz	r1, r1
 1441 011c 4909     		lsrs	r1, r1, #5
 1442 011e FFF7FEFF 		bl	_test_assert
 1443              	.LVL124:
 1444 0122 8146     		mov	r9, r0
 1445 0124 10B1     		cbz	r0, .L61
 1446              	.LVL125:
 1447              	.LBB1301:
 1448              	.LBB1302:
 1449              	.LBB1303:
 1450              	.LBB1304:
 1451              	.LBB1305:
 1452              		.loc 2 546 0
 1453              	@ 546 "../ChibiOS/os/ext/CMSIS/include/core_cmFunc.h" 1
 1454 0126 88F31188 		MSR basepri, r8
 1455              	@ 0 "" 2
 1456              		.thumb
 1457 012a B4E7     		b	.L49
 1458              	.LVL126:
 1459              	.L61:
 1460              	.LBE1305:
 1461              	.LBE1304:
 1462              	.LBE1303:
 1463              	.LBE1302:
 1464              	.LBE1301:
 1465              	.LBB1306:
 1466              	.LBB1307:
 1467              	.LBB1308:
 1468              	.LBB1309:
 1469              	.LBB1310:
 1470              	@ 546 "../ChibiOS/os/ext/CMSIS/include/core_cmFunc.h" 1
 1471 012c 80F31188 		MSR basepri, r0
 1472              	@ 0 "" 2
 1473              		.thumb
ARM GAS  /tmp/cc97AtNH.s 			page 27


 1474              	.LBE1310:
 1475              	.LBE1309:
 1476              	.LBE1308:
 1477              	.LBE1307:
 1478              	.LBE1306:
 1479              	.LBB1311:
 1480              	.LBB1312:
 1481              	.LBB1313:
 1482              	.LBB1314:
 1483              		.loc 4 179 0
 1484 0130 3F4B     		ldr	r3, .L74+12
 1485              	.LBE1314:
 1486              	.LBE1313:
 1487              	.LBE1312:
 1488              	.LBE1311:
 1489              		.loc 1 206 0
 1490 0132 3868     		ldr	r0, [r7]
 1491              	.LBB1316:
 1492              	.LBB1315:
 1493              		.loc 4 192 0
 1494 0134 9A69     		ldr	r2, [r3, #24]
 1495              	.LBE1315:
 1496              	.LBE1316:
 1497              		.loc 1 206 0
 1498 0136 3F4B     		ldr	r3, .L74+16
 1499 0138 9268     		ldr	r2, [r2, #8]
 1500 013a CDF80090 		str	r9, [sp]
 1501 013e 0132     		adds	r2, r2, #1
 1502 0140 4FF4E871 		mov	r1, #464
 1503 0144 FFF7FEFF 		bl	chThdCreateStatic
 1504              	.LVL127:
 1505 0148 3B4B     		ldr	r3, .L74+20
 1506 014a 1860     		str	r0, [r3]
 1507              	.LVL128:
 1508              	.LBB1317:
 1509              	.LBB1318:
 1510              	.LBB1319:
 1511              	.LBB1320:
 1512              		.loc 2 546 0
 1513              	@ 546 "../ChibiOS/os/ext/CMSIS/include/core_cmFunc.h" 1
 1514 014c 86F31188 		MSR basepri, r6
 1515              	@ 0 "" 2
 1516              	.LVL129:
 1517              		.thumb
 1518              	.LBE1320:
 1519              	.LBE1319:
 1520              	.LBE1318:
 1521              	.LBE1317:
 1522              	.LBB1321:
 1523              	.LBB1322:
 1524              		.loc 3 354 0
 1525 0150 E968     		ldr	r1, [r5, #12]
 1526 0152 2B69     		ldr	r3, [r5, #16]
 1527 0154 AA68     		ldr	r2, [r5, #8]
 1528 0156 5B1A     		subs	r3, r3, r1
 1529 0158 991A     		subs	r1, r3, r2
 1530              	.LBE1322:
ARM GAS  /tmp/cc97AtNH.s 			page 28


 1531              	.LBE1321:
 1532              		.loc 1 207 0
 1533 015a A1F10401 		sub	r1, #4
 1534 015e 0820     		movs	r0, #8
 1535 0160 B1FA81F1 		clz	r1, r1
 1536 0164 4909     		lsrs	r1, r1, #5
 1537 0166 FFF7FEFF 		bl	_test_assert
 1538              	.LVL130:
 1539 016a 0746     		mov	r7, r0
 1540 016c 10B1     		cbz	r0, .L62
 1541              	.LVL131:
 1542              	.LBB1323:
 1543              	.LBB1324:
 1544              	.LBB1325:
 1545              	.LBB1326:
 1546              	.LBB1327:
 1547              		.loc 2 546 0
 1548              	@ 546 "../ChibiOS/os/ext/CMSIS/include/core_cmFunc.h" 1
 1549 016e 89F31188 		MSR basepri, r9
 1550              	@ 0 "" 2
 1551              		.thumb
 1552 0172 90E7     		b	.L49
 1553              	.LVL132:
 1554              	.L62:
 1555              	.LBE1327:
 1556              	.LBE1326:
 1557              	.LBE1325:
 1558              	.LBE1324:
 1559              	.LBE1323:
 1560              	.LBB1328:
 1561              	.LBB1329:
 1562              	.LBB1330:
 1563              	.LBB1331:
 1564              	.LBB1332:
 1565              	@ 546 "../ChibiOS/os/ext/CMSIS/include/core_cmFunc.h" 1
 1566 0174 80F31188 		MSR basepri, r0
 1567              	@ 0 "" 2
 1568              		.thumb
 1569              	.LBE1332:
 1570              	.LBE1331:
 1571              	.LBE1330:
 1572              	.LBE1329:
 1573              	.LBE1328:
 1574              		.loc 1 208 0
 1575 0178 FFF7FEFF 		bl	test_wait_threads
 1576              	.LVL133:
 1577              	.LBB1333:
 1578              	.LBB1334:
 1579              	.LBB1335:
 1580              	.LBB1336:
 1581              		.loc 2 546 0
 1582              	@ 546 "../ChibiOS/os/ext/CMSIS/include/core_cmFunc.h" 1
 1583 017c 86F31188 		MSR basepri, r6
 1584              	@ 0 "" 2
 1585              		.thumb
 1586              	.LBE1336:
 1587              	.LBE1335:
ARM GAS  /tmp/cc97AtNH.s 			page 29


 1588              	.LBE1334:
 1589              	.LBE1333:
 1590              		.loc 1 212 0
 1591 0180 2846     		mov	r0, r5
 1592 0182 FFF7FEFF 		bl	chOQResetI
 1593              	.LVL134:
 1594              	.LBB1337:
 1595              	.LBB1338:
 1596              	.LBB1339:
 1597              	.LBB1340:
 1598              	.LBB1341:
 1599              		.loc 2 546 0
 1600              	@ 546 "../ChibiOS/os/ext/CMSIS/include/core_cmFunc.h" 1
 1601 0186 87F31188 		MSR basepri, r7
 1602              	@ 0 "" 2
 1603              	.LVL135:
 1604              		.thumb
 1605              	.LBE1341:
 1606              	.LBE1340:
 1607              	.LBE1339:
 1608              	.LBE1338:
 1609              	.LBE1337:
 1610              	.LBB1342:
 1611              	.LBB1343:
 1612              	.LBB1344:
 1613              	.LBB1345:
 1614              	@ 546 "../ChibiOS/os/ext/CMSIS/include/core_cmFunc.h" 1
 1615 018a 86F31188 		MSR basepri, r6
 1616              	@ 0 "" 2
 1617              	.LVL136:
 1618              		.thumb
 1619              	.LBE1345:
 1620              	.LBE1344:
 1621              	.LBE1343:
 1622              	.LBE1342:
 1623              		.loc 1 214 0
 1624 018e 05F10801 		add	r1, r5, #8
 1625 0192 0EC9     		ldmia	r1, {r1, r2, r3}
 1626              	.LBB1346:
 1627              	.LBB1347:
 1628              		.loc 3 354 0
 1629 0194 9B1A     		subs	r3, r3, r2
 1630              	.LBE1347:
 1631              	.LBE1346:
 1632              		.loc 1 214 0
 1633 0196 591A     		subs	r1, r3, r1
 1634 0198 0920     		movs	r0, #9
 1635 019a B1FA81F1 		clz	r1, r1
 1636 019e 4909     		lsrs	r1, r1, #5
 1637 01a0 FFF7FEFF 		bl	_test_assert
 1638              	.LVL137:
 1639 01a4 0346     		mov	r3, r0
 1640 01a6 10B1     		cbz	r0, .L63
 1641              	.LVL138:
 1642              	.LBB1348:
 1643              	.LBB1349:
 1644              	.LBB1350:
ARM GAS  /tmp/cc97AtNH.s 			page 30


 1645              	.LBB1351:
 1646              	.LBB1352:
 1647              		.loc 2 546 0
 1648              	@ 546 "../ChibiOS/os/ext/CMSIS/include/core_cmFunc.h" 1
 1649 01a8 87F31188 		MSR basepri, r7
 1650              	@ 0 "" 2
 1651              		.thumb
 1652 01ac 73E7     		b	.L49
 1653              	.LVL139:
 1654              	.L63:
 1655              	.LBE1352:
 1656              	.LBE1351:
 1657              	.LBE1350:
 1658              	.LBE1349:
 1659              	.LBE1348:
 1660              	.LBB1353:
 1661              	.LBB1354:
 1662              	.LBB1355:
 1663              	.LBB1356:
 1664              	.LBB1357:
 1665              	@ 546 "../ChibiOS/os/ext/CMSIS/include/core_cmFunc.h" 1
 1666 01ae 80F31188 		MSR basepri, r0
 1667              	@ 0 "" 2
 1668              		.thumb
 1669              	.LBE1357:
 1670              	.LBE1356:
 1671              	.LBE1355:
 1672              	.LBE1354:
 1673              	.LBE1353:
 1674              		.loc 1 217 0
 1675 01b2 0222     		movs	r2, #2
 1676 01b4 2146     		mov	r1, r4
 1677 01b6 2846     		mov	r0, r5
 1678 01b8 FFF7FEFF 		bl	chOQWriteTimeout
 1679              	.LVL140:
 1680              		.loc 1 218 0
 1681 01bc 0238     		subs	r0, r0, #2
 1682              	.LVL141:
 1683 01be 4142     		rsbs	r1, r0, #0
 1684 01c0 4141     		adcs	r1, r1, r0
 1685 01c2 0A20     		movs	r0, #10
 1686              	.LVL142:
 1687 01c4 FFF7FEFF 		bl	_test_assert
 1688              	.LVL143:
 1689 01c8 0346     		mov	r3, r0
 1690 01ca 0028     		cmp	r0, #0
 1691 01cc 7FF463AF 		bne	.L49
 1692              		.loc 1 219 0
 1693 01d0 2146     		mov	r1, r4
 1694 01d2 0222     		movs	r2, #2
 1695 01d4 2846     		mov	r0, r5
 1696 01d6 FFF7FEFF 		bl	chOQWriteTimeout
 1697              	.LVL144:
 1698              		.loc 1 220 0
 1699 01da 821E     		subs	r2, r0, #2
 1700 01dc 5142     		rsbs	r1, r2, #0
 1701 01de 5141     		adcs	r1, r1, r2
ARM GAS  /tmp/cc97AtNH.s 			page 31


 1702 01e0 0B20     		movs	r0, #11
 1703              	.LVL145:
 1704 01e2 FFF7FEFF 		bl	_test_assert
 1705              	.LVL146:
 1706 01e6 0028     		cmp	r0, #0
 1707 01e8 7FF455AF 		bne	.L49
 1708              	.LVL147:
 1709              	.LBB1358:
 1710              	.LBB1359:
 1711              	.LBB1360:
 1712              	.LBB1361:
 1713              		.loc 2 546 0
 1714              	@ 546 "../ChibiOS/os/ext/CMSIS/include/core_cmFunc.h" 1
 1715 01ec 86F31188 		MSR basepri, r6
 1716              	@ 0 "" 2
 1717              	.LVL148:
 1718              		.thumb
 1719              	.LBE1361:
 1720              	.LBE1360:
 1721              	.LBE1359:
 1722              	.LBE1358:
 1723              		.loc 1 221 0
 1724 01f0 0C20     		movs	r0, #12
 1725              	.LBB1362:
 1726              	.LBB1363:
 1727              		.loc 3 404 0
 1728 01f2 A968     		ldr	r1, [r5, #8]
 1729              	.LBE1363:
 1730              	.LBE1362:
 1731              		.loc 1 221 0
 1732 01f4 B1FA81F1 		clz	r1, r1
 1733 01f8 4909     		lsrs	r1, r1, #5
 1734 01fa FFF7FEFF 		bl	_test_assert
 1735              	.LVL149:
 1736 01fe 0028     		cmp	r0, #0
 1737 0200 7FF446AF 		bne	.L70
 1738              	.LVL150:
 1739              	.LBB1364:
 1740              	.LBB1365:
 1741              	.LBB1366:
 1742              	.LBB1367:
 1743              	.LBB1368:
 1744              		.loc 2 546 0
 1745 0204 0021     		movs	r1, #0
 1746              	@ 546 "../ChibiOS/os/ext/CMSIS/include/core_cmFunc.h" 1
 1747 0206 81F31188 		MSR basepri, r1
 1748              	@ 0 "" 2
 1749              		.thumb
 1750              	.LBE1368:
 1751              	.LBE1367:
 1752              	.LBE1366:
 1753              	.LBE1365:
 1754              	.LBE1364:
 1755              		.loc 1 224 0
 1756 020a 0A22     		movs	r2, #10
 1757 020c 0548     		ldr	r0, .L74
 1758 020e FFF7FEFF 		bl	chOQPutTimeout
ARM GAS  /tmp/cc97AtNH.s 			page 32


 1759              	.LVL151:
 1760 0212 431C     		adds	r3, r0, #1
 1761 0214 5942     		rsbs	r1, r3, #0
 1762 0216 5941     		adcs	r1, r1, r3
 1763 0218 0D20     		movs	r0, #13
 1764              	.LBE1370:
 1765              	.LBE1374:
 1766              		.loc 1 225 0
 1767 021a 03B0     		add	sp, sp, #12
 1768              		.cfi_def_cfa_offset 28
 1769              		@ sp needed
 1770 021c BDE8F043 		pop	{r4, r5, r6, r7, r8, r9, lr}
 1771              		.cfi_restore 14
 1772              		.cfi_restore 9
 1773              		.cfi_restore 8
 1774              		.cfi_restore 7
 1775              		.cfi_restore 6
 1776              		.cfi_restore 5
 1777              		.cfi_restore 4
 1778              		.cfi_def_cfa_offset 0
 1779              	.LBB1375:
 1780              	.LBB1371:
 1781              		.loc 1 224 0
 1782 0220 FFF7FEBF 		b	_test_assert
 1783              	.LVL152:
 1784              	.L75:
 1785              		.align	2
 1786              	.L74:
 1787 0224 00000000 		.word	.LANCHOR1
 1788 0228 00000000 		.word	.LC0
 1789 022c 00000000 		.word	wa
 1790 0230 00000000 		.word	ch
 1791 0234 00000000 		.word	thread2
 1792 0238 00000000 		.word	threads
 1793              	.LBE1371:
 1794              	.LBE1375:
 1795              		.cfi_endproc
 1796              	.LFE232:
 1797              		.size	queues2_execute, .-queues2_execute
 1798              		.global	patternqueues
 1799              		.global	testqueues2
 1800              		.global	testqueues1
 1801 023c AFF30080 		.section	.rodata.testqueues1,"a",%progbits
 1802              		.align	2
 1803              		.type	testqueues1, %object
 1804              		.size	testqueues1, 16
 1805              	testqueues1:
 1806 0000 20000000 		.word	.LC2
 1807 0004 00000000 		.word	queues1_setup
 1808 0008 00000000 		.word	0
 1809 000c 00000000 		.word	queues1_execute
 1810              		.section	.rodata.testqueues2,"a",%progbits
 1811              		.align	2
 1812              		.type	testqueues2, %object
 1813              		.size	testqueues2, 16
 1814              	testqueues2:
 1815 0000 08000000 		.word	.LC1
ARM GAS  /tmp/cc97AtNH.s 			page 33


 1816 0004 00000000 		.word	queues2_setup
 1817 0008 00000000 		.word	0
 1818 000c 00000000 		.word	queues2_execute
 1819              		.section	.rodata.str1.4,"aMS",%progbits,1
 1820              		.align	2
 1821              	.LC0:
 1822 0000 41424344 		.ascii	"ABCD\000"
 1822      00
 1823 0005 000000   		.space	3
 1824              	.LC1:
 1825 0008 51756575 		.ascii	"Queues, output queues\000"
 1825      65732C20 
 1825      6F757470 
 1825      75742071 
 1825      75657565 
 1826 001e 0000     		.space	2
 1827              	.LC2:
 1828 0020 51756575 		.ascii	"Queues, input queues\000"
 1828      65732C20 
 1828      696E7075 
 1828      74207175 
 1828      65756573 
 1829 0035 000000   		.section	.rodata.patternqueues,"a",%progbits
 1830              		.align	2
 1831              		.type	patternqueues, %object
 1832              		.size	patternqueues, 12
 1833              	patternqueues:
 1834 0000 00000000 		.word	testqueues1
 1835 0004 00000000 		.word	testqueues2
 1836 0008 00000000 		.word	0
 1837              		.section	.data.oq,"aw",%progbits
 1838              		.align	2
 1839              		.set	.LANCHOR1,. + 0
 1840              		.type	oq, %object
 1841              		.size	oq, 36
 1842              	oq:
 1843 0000 00000000 		.word	oq
 1844 0004 00000000 		.word	oq
 1845 0008 04000000 		.word	4
 1846 000c D0010000 		.word	test+464
 1847 0010 D4010000 		.word	test+468
 1848 0014 D0010000 		.word	test+464
 1849 0018 D0010000 		.word	test+464
 1850 001c 00000000 		.word	notify
 1851 0020 00000000 		.word	0
 1852              		.section	.data.iq,"aw",%progbits
 1853              		.align	2
 1854              		.set	.LANCHOR0,. + 0
 1855              		.type	iq, %object
 1856              		.size	iq, 36
 1857              	iq:
 1858 0000 00000000 		.word	iq
 1859 0004 00000000 		.word	iq
 1860 0008 00000000 		.word	0
 1861 000c 00000000 		.word	test
 1862 0010 04000000 		.word	test+4
 1863 0014 00000000 		.word	test
ARM GAS  /tmp/cc97AtNH.s 			page 34


 1864 0018 00000000 		.word	test
 1865 001c 00000000 		.word	notify
 1866 0020 00000000 		.word	0
 1867              		.text
 1868              	.Letext0:
 1869              		.file 5 "/l/arm2/gcc-arm-none-eabi-4_9-2014q4/lib/gcc/arm-none-eabi/4.9.3/include/stddef.h"
 1870              		.file 6 "/l/arm2/gcc-arm-none-eabi-4_9-2014q4/arm-none-eabi/include/machine/_default_types.h"
 1871              		.file 7 "/l/arm2/gcc-arm-none-eabi-4_9-2014q4/arm-none-eabi/include/stdint.h"
 1872              		.file 8 "../ChibiOS/os/rt/ports/ARMCMx/compilers/GCC/chtypes.h"
 1873              		.file 9 "../ChibiOS/os/rt/include/chsystypes.h"
 1874              		.file 10 "../ChibiOS/os/rt/include/chschd.h"
 1875              		.file 11 "../ChibiOS/os/rt/ports/ARMCMx/chcore.h"
 1876              		.file 12 "../ChibiOS/os/rt/ports/ARMCMx/chcore_v7m.h"
 1877              		.file 13 "../ChibiOS/os/rt/include/chtm.h"
 1878              		.file 14 "../ChibiOS/os/rt/include/chmtx.h"
 1879              		.file 15 "../ChibiOS/test/rt/test.h"
 1880              		.file 16 "../ChibiOS/os/rt/include/chsys.h"
 1881              		.file 17 "../ChibiOS/os/ext/CMSIS/include/core_cm4.h"