ARM GAS  /tmp/ccXXZxZm.s 			page 1


   1              		.syntax unified
   2              		.cpu cortex-m4
   3              		.eabi_attribute 27, 3
   4              		.eabi_attribute 28, 1
   5              		.fpu fpv4-sp-d16
   6              		.eabi_attribute 20, 1
   7              		.eabi_attribute 21, 1
   8              		.eabi_attribute 23, 3
   9              		.eabi_attribute 24, 1
  10              		.eabi_attribute 25, 1
  11              		.eabi_attribute 26, 1
  12              		.eabi_attribute 30, 2
  13              		.eabi_attribute 34, 1
  14              		.eabi_attribute 18, 4
  15              		.thumb
  16              		.file	"testheap.c"
  17              		.text
  18              	.Ltext0:
  19              		.cfi_sections	.debug_frame
  20              		.section	.text.heap1_execute,"ax",%progbits
  21              		.align	2
  22              		.p2align 4,,15
  23              		.thumb
  24              		.thumb_func
  25              		.type	heap1_execute, %function
  26              	heap1_execute:
  27              	.LFB227:
  28              		.file 1 "../ChibiOS/test/rt/testheap.c"
  29              		.loc 1 69 0
  30              		.cfi_startproc
  31              		@ args = 0, pretend = 0, frame = 8
  32              		@ frame_needed = 0, uses_anonymous_args = 0
  33 0000 70B5     		push	{r4, r5, r6, lr}
  34              		.cfi_def_cfa_offset 16
  35              		.cfi_offset 4, -16
  36              		.cfi_offset 5, -12
  37              		.cfi_offset 6, -8
  38              		.cfi_offset 14, -4
  39 0002 82B0     		sub	sp, sp, #8
  40              		.cfi_def_cfa_offset 24
  41              		.loc 1 74 0
  42 0004 FFF7FEFF 		bl	chCoreGetStatusX
  43              	.LVL0:
  44              		.loc 1 80 0
  45 0008 01A9     		add	r1, sp, #4
  46 000a 0020     		movs	r0, #0
  47 000c FFF7FEFF 		bl	chHeapStatus
  48              	.LVL1:
  49              		.loc 1 81 0
  50 0010 1021     		movs	r1, #16
  51 0012 0020     		movs	r0, #0
  52 0014 FFF7FEFF 		bl	chHeapAlloc
  53              	.LVL2:
  54              		.loc 1 82 0
  55 0018 011C     		adds	r1, r0, #0
  56 001a 0546     		mov	r5, r0
  57 001c 18BF     		it	ne
ARM GAS  /tmp/ccXXZxZm.s 			page 2


  58 001e 0121     		movne	r1, #1
  59 0020 0120     		movs	r0, #1
  60              	.LVL3:
  61 0022 FFF7FEFF 		bl	_test_assert
  62              	.LVL4:
  63 0026 0446     		mov	r4, r0
  64 0028 08B1     		cbz	r0, .L8
  65              	.LVL5:
  66              	.L1:
  67              		.loc 1 140 0
  68 002a 02B0     		add	sp, sp, #8
  69              		.cfi_remember_state
  70              		.cfi_def_cfa_offset 16
  71              		@ sp needed
  72 002c 70BD     		pop	{r4, r5, r6, pc}
  73              	.LVL6:
  74              	.L8:
  75              		.cfi_restore_state
  76              		.loc 1 83 0
  77 002e 2846     		mov	r0, r5
  78 0030 FFF7FEFF 		bl	chHeapFree
  79              	.LVL7:
  80              		.loc 1 84 0
  81 0034 6FF0FF01 		mvn	r1, #255
  82 0038 2046     		mov	r0, r4
  83 003a FFF7FEFF 		bl	chHeapAlloc
  84              	.LVL8:
  85              		.loc 1 85 0
  86 003e B0FA80F1 		clz	r1, r0
  87 0042 0220     		movs	r0, #2
  88              	.LVL9:
  89 0044 4909     		lsrs	r1, r1, #5
  90 0046 FFF7FEFF 		bl	_test_assert
  91              	.LVL10:
  92 004a 0028     		cmp	r0, #0
  93 004c EDD1     		bne	.L1
  94              		.loc 1 88 0
  95 004e 01A9     		add	r1, sp, #4
  96 0050 7B48     		ldr	r0, .L9
  97 0052 FFF7FEFF 		bl	chHeapStatus
  98              	.LVL11:
  99              		.loc 1 91 0
 100 0056 1021     		movs	r1, #16
 101 0058 7948     		ldr	r0, .L9
 102 005a FFF7FEFF 		bl	chHeapAlloc
 103              	.LVL12:
 104              		.loc 1 92 0
 105 005e 1021     		movs	r1, #16
 106              		.loc 1 91 0
 107 0060 0646     		mov	r6, r0
 108              	.LVL13:
 109              		.loc 1 92 0
 110 0062 7748     		ldr	r0, .L9
 111              	.LVL14:
 112 0064 FFF7FEFF 		bl	chHeapAlloc
 113              	.LVL15:
 114              		.loc 1 93 0
ARM GAS  /tmp/ccXXZxZm.s 			page 3


 115 0068 1021     		movs	r1, #16
 116              		.loc 1 92 0
 117 006a 0546     		mov	r5, r0
 118              	.LVL16:
 119              		.loc 1 93 0
 120 006c 7448     		ldr	r0, .L9
 121              	.LVL17:
 122 006e FFF7FEFF 		bl	chHeapAlloc
 123              	.LVL18:
 124 0072 0446     		mov	r4, r0
 125              	.LVL19:
 126              		.loc 1 94 0
 127 0074 3046     		mov	r0, r6
 128              	.LVL20:
 129 0076 FFF7FEFF 		bl	chHeapFree
 130              	.LVL21:
 131              		.loc 1 95 0
 132 007a 2846     		mov	r0, r5
 133 007c FFF7FEFF 		bl	chHeapFree
 134              	.LVL22:
 135              		.loc 1 96 0
 136 0080 2046     		mov	r0, r4
 137 0082 FFF7FEFF 		bl	chHeapFree
 138              	.LVL23:
 139              		.loc 1 97 0
 140 0086 6946     		mov	r1, sp
 141 0088 6D48     		ldr	r0, .L9
 142 008a FFF7FEFF 		bl	chHeapStatus
 143              	.LVL24:
 144 008e A0F10101 		sub	r1, r0, #1
 145 0092 0320     		movs	r0, #3
 146 0094 B1FA81F1 		clz	r1, r1
 147 0098 4909     		lsrs	r1, r1, #5
 148 009a FFF7FEFF 		bl	_test_assert
 149              	.LVL25:
 150 009e 0028     		cmp	r0, #0
 151 00a0 C3D1     		bne	.L1
 152              		.loc 1 100 0
 153 00a2 1021     		movs	r1, #16
 154 00a4 6648     		ldr	r0, .L9
 155 00a6 FFF7FEFF 		bl	chHeapAlloc
 156              	.LVL26:
 157              		.loc 1 101 0
 158 00aa 1021     		movs	r1, #16
 159              		.loc 1 100 0
 160 00ac 0446     		mov	r4, r0
 161              	.LVL27:
 162              		.loc 1 101 0
 163 00ae 6448     		ldr	r0, .L9
 164              	.LVL28:
 165 00b0 FFF7FEFF 		bl	chHeapAlloc
 166              	.LVL29:
 167              		.loc 1 102 0
 168 00b4 1021     		movs	r1, #16
 169              		.loc 1 101 0
 170 00b6 0546     		mov	r5, r0
 171              	.LVL30:
ARM GAS  /tmp/ccXXZxZm.s 			page 4


 172              		.loc 1 102 0
 173 00b8 6148     		ldr	r0, .L9
 174              	.LVL31:
 175 00ba FFF7FEFF 		bl	chHeapAlloc
 176              	.LVL32:
 177              		.loc 1 103 0
 178 00be FFF7FEFF 		bl	chHeapFree
 179              	.LVL33:
 180              		.loc 1 104 0
 181 00c2 2846     		mov	r0, r5
 182 00c4 FFF7FEFF 		bl	chHeapFree
 183              	.LVL34:
 184              		.loc 1 105 0
 185 00c8 2046     		mov	r0, r4
 186 00ca FFF7FEFF 		bl	chHeapFree
 187              	.LVL35:
 188              		.loc 1 106 0
 189 00ce 6946     		mov	r1, sp
 190 00d0 5B48     		ldr	r0, .L9
 191 00d2 FFF7FEFF 		bl	chHeapStatus
 192              	.LVL36:
 193 00d6 A0F10101 		sub	r1, r0, #1
 194 00da 0420     		movs	r0, #4
 195 00dc B1FA81F1 		clz	r1, r1
 196 00e0 4909     		lsrs	r1, r1, #5
 197 00e2 FFF7FEFF 		bl	_test_assert
 198              	.LVL37:
 199 00e6 0028     		cmp	r0, #0
 200 00e8 9FD1     		bne	.L1
 201              		.loc 1 109 0
 202 00ea 1121     		movs	r1, #17
 203 00ec 5448     		ldr	r0, .L9
 204 00ee FFF7FEFF 		bl	chHeapAlloc
 205              	.LVL38:
 206              		.loc 1 110 0
 207 00f2 1021     		movs	r1, #16
 208              		.loc 1 109 0
 209 00f4 0446     		mov	r4, r0
 210              	.LVL39:
 211              		.loc 1 110 0
 212 00f6 5248     		ldr	r0, .L9
 213              	.LVL40:
 214 00f8 FFF7FEFF 		bl	chHeapAlloc
 215              	.LVL41:
 216 00fc 0546     		mov	r5, r0
 217              	.LVL42:
 218              		.loc 1 111 0
 219 00fe 2046     		mov	r0, r4
 220              	.LVL43:
 221 0100 FFF7FEFF 		bl	chHeapFree
 222              	.LVL44:
 223              		.loc 1 112 0
 224 0104 6946     		mov	r1, sp
 225 0106 4E48     		ldr	r0, .L9
 226 0108 FFF7FEFF 		bl	chHeapStatus
 227              	.LVL45:
 228 010c A0F10201 		sub	r1, r0, #2
ARM GAS  /tmp/ccXXZxZm.s 			page 5


 229 0110 0520     		movs	r0, #5
 230 0112 B1FA81F1 		clz	r1, r1
 231 0116 4909     		lsrs	r1, r1, #5
 232 0118 FFF7FEFF 		bl	_test_assert
 233              	.LVL46:
 234 011c 0028     		cmp	r0, #0
 235 011e 84D1     		bne	.L1
 236              		.loc 1 113 0
 237 0120 1021     		movs	r1, #16
 238 0122 4748     		ldr	r0, .L9
 239 0124 FFF7FEFF 		bl	chHeapAlloc
 240              	.LVL47:
 241              		.loc 1 116 0
 242 0128 6946     		mov	r1, sp
 243              		.loc 1 113 0
 244 012a 0446     		mov	r4, r0
 245              	.LVL48:
 246              		.loc 1 116 0
 247 012c 4448     		ldr	r0, .L9
 248              	.LVL49:
 249 012e FFF7FEFF 		bl	chHeapStatus
 250              	.LVL50:
 251 0132 0128     		cmp	r0, #1
 252 0134 00F08180 		beq	.L5
 253              		.loc 1 116 0 is_stmt 0 discriminator 2
 254 0138 6946     		mov	r1, sp
 255 013a 4148     		ldr	r0, .L9
 256 013c FFF7FEFF 		bl	chHeapStatus
 257              	.LVL51:
 258 0140 A0F10201 		sub	r1, r0, #2
 259 0144 B1FA81F1 		clz	r1, r1
 260 0148 4909     		lsrs	r1, r1, #5
 261              	.L3:
 262              		.loc 1 116 0 discriminator 6
 263 014a 0620     		movs	r0, #6
 264 014c FFF7FEFF 		bl	_test_assert
 265              	.LVL52:
 266 0150 0028     		cmp	r0, #0
 267 0152 7FF46AAF 		bne	.L1
 268              		.loc 1 118 0 is_stmt 1
 269 0156 2846     		mov	r0, r5
 270 0158 FFF7FEFF 		bl	chHeapFree
 271              	.LVL53:
 272              		.loc 1 119 0
 273 015c 2046     		mov	r0, r4
 274 015e FFF7FEFF 		bl	chHeapFree
 275              	.LVL54:
 276              		.loc 1 120 0
 277 0162 6946     		mov	r1, sp
 278 0164 3648     		ldr	r0, .L9
 279 0166 FFF7FEFF 		bl	chHeapStatus
 280              	.LVL55:
 281 016a 461E     		subs	r6, r0, #1
 282 016c 7142     		rsbs	r1, r6, #0
 283 016e 7141     		adcs	r1, r1, r6
 284 0170 0720     		movs	r0, #7
 285 0172 FFF7FEFF 		bl	_test_assert
ARM GAS  /tmp/ccXXZxZm.s 			page 6


 286              	.LVL56:
 287 0176 0028     		cmp	r0, #0
 288 0178 7FF457AF 		bne	.L1
 289              		.loc 1 123 0
 290 017c 1021     		movs	r1, #16
 291 017e 3048     		ldr	r0, .L9
 292 0180 FFF7FEFF 		bl	chHeapAlloc
 293              	.LVL57:
 294              		.loc 1 124 0
 295 0184 1021     		movs	r1, #16
 296              		.loc 1 123 0
 297 0186 0546     		mov	r5, r0
 298              	.LVL58:
 299              		.loc 1 124 0
 300 0188 2D48     		ldr	r0, .L9
 301              	.LVL59:
 302 018a FFF7FEFF 		bl	chHeapAlloc
 303              	.LVL60:
 304 018e 0446     		mov	r4, r0
 305              	.LVL61:
 306              		.loc 1 125 0
 307 0190 2846     		mov	r0, r5
 308              	.LVL62:
 309 0192 FFF7FEFF 		bl	chHeapFree
 310              	.LVL63:
 311              		.loc 1 126 0
 312 0196 6946     		mov	r1, sp
 313 0198 2948     		ldr	r0, .L9
 314 019a FFF7FEFF 		bl	chHeapStatus
 315              	.LVL64:
 316 019e 851E     		subs	r5, r0, #2
 317              	.LVL65:
 318 01a0 6942     		rsbs	r1, r5, #0
 319 01a2 6941     		adcs	r1, r1, r5
 320 01a4 0820     		movs	r0, #8
 321 01a6 FFF7FEFF 		bl	_test_assert
 322              	.LVL66:
 323 01aa 0028     		cmp	r0, #0
 324 01ac 7FF43DAF 		bne	.L1
 325              		.loc 1 127 0
 326 01b0 2021     		movs	r1, #32
 327 01b2 2348     		ldr	r0, .L9
 328 01b4 FFF7FEFF 		bl	chHeapAlloc
 329              	.LVL67:
 330              		.loc 1 128 0
 331 01b8 FFF7FEFF 		bl	chHeapFree
 332              	.LVL68:
 333              		.loc 1 129 0
 334 01bc 2046     		mov	r0, r4
 335 01be FFF7FEFF 		bl	chHeapFree
 336              	.LVL69:
 337              		.loc 1 130 0
 338 01c2 6946     		mov	r1, sp
 339 01c4 1E48     		ldr	r0, .L9
 340 01c6 FFF7FEFF 		bl	chHeapStatus
 341              	.LVL70:
 342 01ca 0138     		subs	r0, r0, #1
ARM GAS  /tmp/ccXXZxZm.s 			page 7


 343 01cc 4142     		rsbs	r1, r0, #0
 344 01ce 4141     		adcs	r1, r1, r0
 345 01d0 0920     		movs	r0, #9
 346 01d2 FFF7FEFF 		bl	_test_assert
 347              	.LVL71:
 348 01d6 0028     		cmp	r0, #0
 349 01d8 7FF427AF 		bne	.L1
 350              		.loc 1 133 0
 351 01dc 6946     		mov	r1, sp
 352 01de 1848     		ldr	r0, .L9
 353 01e0 FFF7FEFF 		bl	chHeapStatus
 354              	.LVL72:
 355              		.loc 1 134 0
 356 01e4 0099     		ldr	r1, [sp]
 357 01e6 1648     		ldr	r0, .L9
 358 01e8 FFF7FEFF 		bl	chHeapAlloc
 359              	.LVL73:
 360              		.loc 1 135 0
 361 01ec 6946     		mov	r1, sp
 362              		.loc 1 134 0
 363 01ee 0446     		mov	r4, r0
 364              	.LVL74:
 365              		.loc 1 135 0
 366 01f0 1348     		ldr	r0, .L9
 367              	.LVL75:
 368 01f2 FFF7FEFF 		bl	chHeapStatus
 369              	.LVL76:
 370 01f6 B0FA80F1 		clz	r1, r0
 371 01fa 0A20     		movs	r0, #10
 372 01fc 4909     		lsrs	r1, r1, #5
 373 01fe FFF7FEFF 		bl	_test_assert
 374              	.LVL77:
 375 0202 0028     		cmp	r0, #0
 376 0204 7FF411AF 		bne	.L1
 377              		.loc 1 136 0
 378 0208 2046     		mov	r0, r4
 379 020a FFF7FEFF 		bl	chHeapFree
 380              	.LVL78:
 381              		.loc 1 138 0
 382 020e 6946     		mov	r1, sp
 383 0210 0B48     		ldr	r0, .L9
 384 0212 FFF7FEFF 		bl	chHeapStatus
 385              	.LVL79:
 386 0216 421E     		subs	r2, r0, #1
 387 0218 5142     		rsbs	r1, r2, #0
 388 021a 5141     		adcs	r1, r1, r2
 389 021c 0B20     		movs	r0, #11
 390 021e FFF7FEFF 		bl	_test_assert
 391              	.LVL80:
 392 0222 0028     		cmp	r0, #0
 393 0224 7FF401AF 		bne	.L1
 394              		.loc 1 139 0
 395 0228 9DE80A00 		ldmia	sp, {r1, r3}
 396 022c CB1A     		subs	r3, r1, r3
 397 022e 5942     		rsbs	r1, r3, #0
 398 0230 5941     		adcs	r1, r1, r3
 399 0232 0C20     		movs	r0, #12
ARM GAS  /tmp/ccXXZxZm.s 			page 8


 400 0234 FFF7FEFF 		bl	_test_assert
 401              	.LVL81:
 402 0238 F7E6     		b	.L1
 403              	.LVL82:
 404              	.L5:
 405 023a 0146     		mov	r1, r0
 406 023c 85E7     		b	.L3
 407              	.L10:
 408 023e 00BF     		.align	2
 409              	.L9:
 410 0240 00000000 		.word	.LANCHOR0
 411              		.cfi_endproc
 412              	.LFE227:
 413              		.size	heap1_execute, .-heap1_execute
 414 0244 AFF30080 		.section	.text.heap1_setup,"ax",%progbits
 414      AFF30080 
 414      AFF30080 
 415              		.align	2
 416              		.p2align 4,,15
 417              		.thumb
 418              		.thumb_func
 419              		.type	heap1_setup, %function
 420              	heap1_setup:
 421              	.LFB226:
 422              		.loc 1 64 0
 423              		.cfi_startproc
 424              		@ args = 0, pretend = 0, frame = 0
 425              		@ frame_needed = 0, uses_anonymous_args = 0
 426              		@ link register save eliminated.
 427              		.loc 1 66 0
 428 0000 0248     		ldr	r0, .L12
 429 0002 0349     		ldr	r1, .L12+4
 430 0004 4FF41162 		mov	r2, #2320
 431 0008 FFF7FEBF 		b	chHeapObjectInit
 432              	.LVL83:
 433              	.L13:
 434              		.align	2
 435              	.L12:
 436 000c 00000000 		.word	.LANCHOR0
 437 0010 00000000 		.word	test
 438              		.cfi_endproc
 439              	.LFE226:
 440              		.size	heap1_setup, .-heap1_setup
 441              		.global	patternheap
 442              		.global	testheap1
 443 0014 AFF30080 		.section	.rodata.patternheap,"a",%progbits
 443      AFF30080 
 443      AFF30080 
 444              		.align	2
 445              		.type	patternheap, %object
 446              		.size	patternheap, 8
 447              	patternheap:
 448 0000 00000000 		.word	testheap1
 449 0004 00000000 		.word	0
 450              		.section	.rodata.str1.4,"aMS",%progbits,1
 451              		.align	2
 452              	.LC0:
ARM GAS  /tmp/ccXXZxZm.s 			page 9


 453 0000 48656170 		.ascii	"Heap, allocation and fragmentation test\000"
 453      2C20616C 
 453      6C6F6361 
 453      74696F6E 
 453      20616E64 
 454              		.section	.rodata.testheap1,"a",%progbits
 455              		.align	2
 456              		.type	testheap1, %object
 457              		.size	testheap1, 16
 458              	testheap1:
 459 0000 00000000 		.word	.LC0
 460 0004 00000000 		.word	heap1_setup
 461 0008 00000000 		.word	0
 462 000c 00000000 		.word	heap1_execute
 463              		.section	.bss.test_heap,"aw",%nobits
 464              		.align	3
 465              		.set	.LANCHOR0,. + 0
 466              		.type	test_heap, %object
 467              		.size	test_heap, 32
 468              	test_heap:
 469 0000 00000000 		.space	32
 469      00000000 
 469      00000000 
 469      00000000 
 469      00000000 
 470              		.text
 471              	.Letext0:
 472              		.file 2 "/l/arm2/gcc-arm-none-eabi-4_9-2014q4/lib/gcc/arm-none-eabi/4.9.3/include/stddef.h"
 473              		.file 3 "/l/arm2/gcc-arm-none-eabi-4_9-2014q4/arm-none-eabi/include/machine/_default_types.h"
 474              		.file 4 "/l/arm2/gcc-arm-none-eabi-4_9-2014q4/arm-none-eabi/include/stdint.h"
 475              		.file 5 "../ChibiOS/os/rt/ports/ARMCMx/compilers/GCC/chtypes.h"
 476              		.file 6 "../ChibiOS/os/rt/include/chsystypes.h"
 477              		.file 7 "../ChibiOS/os/rt/include/chschd.h"
 478              		.file 8 "../ChibiOS/os/rt/ports/ARMCMx/chcore.h"
 479              		.file 9 "../ChibiOS/os/rt/ports/ARMCMx/chcore_v7m.h"
 480              		.file 10 "../ChibiOS/os/rt/include/chtm.h"
 481              		.file 11 "../ChibiOS/os/rt/include/chmtx.h"
 482              		.file 12 "../ChibiOS/os/rt/include/chmemcore.h"
 483              		.file 13 "../ChibiOS/os/rt/include/chheap.h"
 484              		.file 14 "../ChibiOS/test/rt/test.h"
 485              		.file 15 "../ChibiOS/os/ext/CMSIS/include/core_cm4.h"