ARM GAS  /tmp/cc9hyemz.s 			page 1


   1              		.syntax unified
   2              		.cpu cortex-m4
   3              		.eabi_attribute 27, 3
   4              		.eabi_attribute 28, 1
   5              		.fpu fpv4-sp-d16
   6              		.eabi_attribute 20, 1
   7              		.eabi_attribute 21, 1
   8              		.eabi_attribute 23, 3
   9              		.eabi_attribute 24, 1
  10              		.eabi_attribute 25, 1
  11              		.eabi_attribute 26, 1
  12              		.eabi_attribute 30, 2
  13              		.eabi_attribute 34, 1
  14              		.eabi_attribute 18, 4
  15              		.thumb
  16              		.file	"testthd.c"
  17              		.text
  18              	.Ltext0:
  19              		.cfi_sections	.debug_frame
  20              		.section	.text.thd1_execute,"ax",%progbits
  21              		.align	2
  22              		.p2align 4,,15
  23              		.thumb
  24              		.thumb_func
  25              		.type	thd1_execute, %function
  26              	thd1_execute:
  27              	.LFB227:
  28              		.file 1 "../ChibiOS/test/rt/testthd.c"
  29              		.loc 1 66 0
  30              		.cfi_startproc
  31              		@ args = 0, pretend = 0, frame = 0
  32              		@ frame_needed = 0, uses_anonymous_args = 0
  33 0000 F0B5     		push	{r4, r5, r6, r7, lr}
  34              		.cfi_def_cfa_offset 20
  35              		.cfi_offset 4, -20
  36              		.cfi_offset 5, -16
  37              		.cfi_offset 6, -12
  38              		.cfi_offset 7, -8
  39              		.cfi_offset 14, -4
  40              	.LBB257:
  41              	.LBB258:
  42              	.LBB259:
  43              	.LBB260:
  44              		.file 2 "../ChibiOS/os/rt/include/chthreads.h"
  45              		.loc 2 179 0
  46 0002 274F     		ldr	r7, .L3
  47              	.LBE260:
  48              	.LBE259:
  49              	.LBE258:
  50              	.LBE257:
  51              		.loc 1 68 0
  52 0004 274E     		ldr	r6, .L3+4
  53              	.LBB262:
  54              	.LBB261:
  55              		.loc 2 192 0
  56 0006 BB69     		ldr	r3, [r7, #24]
  57              	.LBE261:
ARM GAS  /tmp/cc9hyemz.s 			page 2


  58              	.LBE262:
  59              		.loc 1 68 0
  60 0008 274D     		ldr	r5, .L3+8
  61 000a 9A68     		ldr	r2, [r3, #8]
  62 000c 274B     		ldr	r3, .L3+12
  63 000e 3068     		ldr	r0, [r6]
  64 0010 274C     		ldr	r4, .L3+16
  65              		.loc 1 66 0
  66 0012 83B0     		sub	sp, sp, #12
  67              		.cfi_def_cfa_offset 32
  68              		.loc 1 68 0
  69 0014 053A     		subs	r2, r2, #5
  70 0016 0093     		str	r3, [sp]
  71 0018 4FF4E871 		mov	r1, #464
  72 001c 2B46     		mov	r3, r5
  73 001e FFF7FEFF 		bl	chThdCreateStatic
  74              	.LVL0:
  75              	.LBB263:
  76              	.LBB264:
  77              		.loc 2 192 0
  78 0022 BB69     		ldr	r3, [r7, #24]
  79              	.LBE264:
  80              	.LBE263:
  81              		.loc 1 69 0
  82 0024 2349     		ldr	r1, .L3+20
  83 0026 9A68     		ldr	r2, [r3, #8]
  84 0028 7368     		ldr	r3, [r6, #4]
  85              		.loc 1 68 0
  86 002a 2060     		str	r0, [r4]
  87              		.loc 1 69 0
  88 002c 0091     		str	r1, [sp]
  89 002e 043A     		subs	r2, r2, #4
  90 0030 1846     		mov	r0, r3
  91 0032 4FF4E871 		mov	r1, #464
  92 0036 2B46     		mov	r3, r5
  93 0038 FFF7FEFF 		bl	chThdCreateStatic
  94              	.LVL1:
  95              	.LBB265:
  96              	.LBB266:
  97              		.loc 2 192 0
  98 003c BA69     		ldr	r2, [r7, #24]
  99              	.LBE266:
 100              	.LBE265:
 101              		.loc 1 70 0
 102 003e B368     		ldr	r3, [r6, #8]
 103 0040 9268     		ldr	r2, [r2, #8]
 104 0042 1D49     		ldr	r1, .L3+24
 105              		.loc 1 69 0
 106 0044 6060     		str	r0, [r4, #4]
 107              		.loc 1 70 0
 108 0046 0091     		str	r1, [sp]
 109 0048 033A     		subs	r2, r2, #3
 110 004a 1846     		mov	r0, r3
 111 004c 4FF4E871 		mov	r1, #464
 112 0050 2B46     		mov	r3, r5
 113 0052 FFF7FEFF 		bl	chThdCreateStatic
 114              	.LVL2:
ARM GAS  /tmp/cc9hyemz.s 			page 3


 115              	.LBB267:
 116              	.LBB268:
 117              		.loc 2 192 0
 118 0056 BA69     		ldr	r2, [r7, #24]
 119              	.LBE268:
 120              	.LBE267:
 121              		.loc 1 71 0
 122 0058 F368     		ldr	r3, [r6, #12]
 123 005a 9268     		ldr	r2, [r2, #8]
 124 005c 1749     		ldr	r1, .L3+28
 125              		.loc 1 70 0
 126 005e A060     		str	r0, [r4, #8]
 127              		.loc 1 71 0
 128 0060 0091     		str	r1, [sp]
 129 0062 023A     		subs	r2, r2, #2
 130 0064 1846     		mov	r0, r3
 131 0066 4FF4E871 		mov	r1, #464
 132 006a 2B46     		mov	r3, r5
 133 006c FFF7FEFF 		bl	chThdCreateStatic
 134              	.LVL3:
 135              	.LBB269:
 136              	.LBB270:
 137              		.loc 2 192 0
 138 0070 BA69     		ldr	r2, [r7, #24]
 139              	.LBE270:
 140              	.LBE269:
 141              		.loc 1 72 0
 142 0072 3369     		ldr	r3, [r6, #16]
 143 0074 9268     		ldr	r2, [r2, #8]
 144 0076 1249     		ldr	r1, .L3+32
 145              		.loc 1 71 0
 146 0078 E060     		str	r0, [r4, #12]
 147              		.loc 1 72 0
 148 007a 013A     		subs	r2, r2, #1
 149 007c 0091     		str	r1, [sp]
 150 007e 1846     		mov	r0, r3
 151 0080 4FF4E871 		mov	r1, #464
 152 0084 2B46     		mov	r3, r5
 153 0086 FFF7FEFF 		bl	chThdCreateStatic
 154              	.LVL4:
 155 008a 2061     		str	r0, [r4, #16]
 156              		.loc 1 73 0
 157 008c FFF7FEFF 		bl	test_wait_threads
 158              	.LVL5:
 159              		.loc 1 74 0
 160 0090 0C49     		ldr	r1, .L3+36
 161 0092 0120     		movs	r0, #1
 162              		.loc 1 75 0
 163 0094 03B0     		add	sp, sp, #12
 164              		.cfi_def_cfa_offset 20
 165              		@ sp needed
 166 0096 BDE8F040 		pop	{r4, r5, r6, r7, lr}
 167              		.cfi_restore 14
 168              		.cfi_restore 7
 169              		.cfi_restore 6
 170              		.cfi_restore 5
 171              		.cfi_restore 4
ARM GAS  /tmp/cc9hyemz.s 			page 4


 172              		.cfi_def_cfa_offset 0
 173              		.loc 1 74 0
 174 009a FFF7FEBF 		b	_test_assert_sequence
 175              	.LVL6:
 176              	.L4:
 177 009e 00BF     		.align	2
 178              	.L3:
 179 00a0 00000000 		.word	ch
 180 00a4 00000000 		.word	wa
 181 00a8 00000000 		.word	thread
 182 00ac 00000000 		.word	.LC0
 183 00b0 00000000 		.word	threads
 184 00b4 04000000 		.word	.LC1
 185 00b8 08000000 		.word	.LC2
 186 00bc 0C000000 		.word	.LC3
 187 00c0 10000000 		.word	.LC4
 188 00c4 14000000 		.word	.LC5
 189              		.cfi_endproc
 190              	.LFE227:
 191              		.size	thd1_execute, .-thd1_execute
 192 00c8 AFF30080 		.section	.text.thread,"ax",%progbits
 192      AFF30080 
 193              		.align	2
 194              		.p2align 4,,15
 195              		.thumb
 196              		.thumb_func
 197              		.type	thread, %function
 198              	thread:
 199              	.LFB226:
 200              		.loc 1 60 0
 201              		.cfi_startproc
 202              		@ args = 0, pretend = 0, frame = 0
 203              		@ frame_needed = 0, uses_anonymous_args = 0
 204              	.LVL7:
 205 0000 08B5     		push	{r3, lr}
 206              		.cfi_def_cfa_offset 8
 207              		.cfi_offset 3, -8
 208              		.cfi_offset 14, -4
 209              		.loc 1 62 0
 210 0002 0078     		ldrb	r0, [r0]	@ zero_extendqisi2
 211              	.LVL8:
 212 0004 FFF7FEFF 		bl	test_emit_token
 213              	.LVL9:
 214              		.loc 1 64 0
 215 0008 0020     		movs	r0, #0
 216 000a 08BD     		pop	{r3, pc}
 217              		.cfi_endproc
 218              	.LFE226:
 219              		.size	thread, .-thread
 220 000c AFF30080 		.section	.text.thd2_execute,"ax",%progbits
 221              		.align	2
 222              		.p2align 4,,15
 223              		.thumb
 224              		.thumb_func
 225              		.type	thd2_execute, %function
 226              	thd2_execute:
 227              	.LFB228:
ARM GAS  /tmp/cc9hyemz.s 			page 5


 228              		.loc 1 94 0
 229              		.cfi_startproc
 230              		@ args = 0, pretend = 0, frame = 0
 231              		@ frame_needed = 0, uses_anonymous_args = 0
 232 0000 F0B5     		push	{r4, r5, r6, r7, lr}
 233              		.cfi_def_cfa_offset 20
 234              		.cfi_offset 4, -20
 235              		.cfi_offset 5, -16
 236              		.cfi_offset 6, -12
 237              		.cfi_offset 7, -8
 238              		.cfi_offset 14, -4
 239              	.LBB271:
 240              	.LBB272:
 241              	.LBB273:
 242              	.LBB274:
 243              		.loc 2 179 0
 244 0002 2B4F     		ldr	r7, .L9
 245              	.LBE274:
 246              	.LBE273:
 247              	.LBE272:
 248              	.LBE271:
 249              		.loc 1 96 0
 250 0004 2B4E     		ldr	r6, .L9+4
 251              	.LBB276:
 252              	.LBB275:
 253              		.loc 2 192 0
 254 0006 BB69     		ldr	r3, [r7, #24]
 255              	.LBE275:
 256              	.LBE276:
 257              		.loc 1 96 0
 258 0008 2B4D     		ldr	r5, .L9+8
 259 000a 9A68     		ldr	r2, [r3, #8]
 260 000c 2B4B     		ldr	r3, .L9+12
 261 000e 7068     		ldr	r0, [r6, #4]
 262 0010 2B4C     		ldr	r4, .L9+16
 263              		.loc 1 94 0
 264 0012 83B0     		sub	sp, sp, #12
 265              		.cfi_def_cfa_offset 32
 266              		.loc 1 96 0
 267 0014 043A     		subs	r2, r2, #4
 268 0016 0093     		str	r3, [sp]
 269 0018 4FF4E871 		mov	r1, #464
 270 001c 2B46     		mov	r3, r5
 271 001e FFF7FEFF 		bl	chThdCreateStatic
 272              	.LVL10:
 273              	.LBB277:
 274              	.LBB278:
 275              		.loc 2 192 0
 276 0022 BB69     		ldr	r3, [r7, #24]
 277              	.LBE278:
 278              	.LBE277:
 279              		.loc 1 97 0
 280 0024 2749     		ldr	r1, .L9+20
 281 0026 9A68     		ldr	r2, [r3, #8]
 282 0028 3368     		ldr	r3, [r6]
 283              		.loc 1 96 0
 284 002a 6060     		str	r0, [r4, #4]
ARM GAS  /tmp/cc9hyemz.s 			page 6


 285              		.loc 1 97 0
 286 002c 0091     		str	r1, [sp]
 287 002e 053A     		subs	r2, r2, #5
 288 0030 1846     		mov	r0, r3
 289 0032 4FF4E871 		mov	r1, #464
 290 0036 2B46     		mov	r3, r5
 291 0038 FFF7FEFF 		bl	chThdCreateStatic
 292              	.LVL11:
 293              	.LBB279:
 294              	.LBB280:
 295              		.loc 2 192 0
 296 003c BA69     		ldr	r2, [r7, #24]
 297              	.LBE280:
 298              	.LBE279:
 299              		.loc 1 98 0
 300 003e 3369     		ldr	r3, [r6, #16]
 301 0040 9268     		ldr	r2, [r2, #8]
 302 0042 2149     		ldr	r1, .L9+24
 303              		.loc 1 97 0
 304 0044 2060     		str	r0, [r4]
 305              		.loc 1 98 0
 306 0046 0091     		str	r1, [sp]
 307 0048 013A     		subs	r2, r2, #1
 308 004a 1846     		mov	r0, r3
 309 004c 4FF4E871 		mov	r1, #464
 310 0050 2B46     		mov	r3, r5
 311 0052 FFF7FEFF 		bl	chThdCreateStatic
 312              	.LVL12:
 313              	.LBB281:
 314              	.LBB282:
 315              		.loc 2 192 0
 316 0056 BA69     		ldr	r2, [r7, #24]
 317              	.LBE282:
 318              	.LBE281:
 319              		.loc 1 99 0
 320 0058 F368     		ldr	r3, [r6, #12]
 321 005a 9268     		ldr	r2, [r2, #8]
 322 005c 1B49     		ldr	r1, .L9+28
 323              		.loc 1 98 0
 324 005e 2061     		str	r0, [r4, #16]
 325              		.loc 1 99 0
 326 0060 0091     		str	r1, [sp]
 327 0062 023A     		subs	r2, r2, #2
 328 0064 1846     		mov	r0, r3
 329 0066 4FF4E871 		mov	r1, #464
 330 006a 2B46     		mov	r3, r5
 331 006c FFF7FEFF 		bl	chThdCreateStatic
 332              	.LVL13:
 333              	.LBB283:
 334              	.LBB284:
 335              	.LBB285:
 336              	.LBB286:
 337              		.file 3 "../ChibiOS/os/ext/CMSIS/include/core_cmFunc.h"
 338              		.loc 3 546 0
 339 0070 2023     		movs	r3, #32
 340              	.LBE286:
 341              	.LBE285:
ARM GAS  /tmp/cc9hyemz.s 			page 7


 342              	.LBE284:
 343              	.LBE283:
 344              		.loc 1 99 0
 345 0072 E060     		str	r0, [r4, #12]
 346              	.LVL14:
 347              	.LBB290:
 348              	.LBB289:
 349              	.LBB288:
 350              	.LBB287:
 351              		.loc 3 546 0
 352              	@ 546 "../ChibiOS/os/ext/CMSIS/include/core_cmFunc.h" 1
 353 0074 83F31188 		MSR basepri, r3
 354              	@ 0 "" 2
 355              		.thumb
 356              	.LBE287:
 357              	.LBE288:
 358              	.LBE289:
 359              	.LBE290:
 360              	.LBB291:
 361              	.LBB292:
 362              		.loc 2 192 0
 363 0078 BB69     		ldr	r3, [r7, #24]
 364              	.LBE292:
 365              	.LBE291:
 366              		.loc 1 102 0
 367 007a B068     		ldr	r0, [r6, #8]
 368 007c 9A68     		ldr	r2, [r3, #8]
 369 007e 144B     		ldr	r3, .L9+32
 370 0080 0093     		str	r3, [sp]
 371 0082 033A     		subs	r2, r2, #3
 372 0084 2B46     		mov	r3, r5
 373 0086 4FF4E871 		mov	r1, #464
 374 008a FFF7FEFF 		bl	chThdCreateI
 375              	.LVL15:
 376              	.LBB293:
 377              	.LBB294:
 378              	.LBB295:
 379              	.LBB296:
 380              	.LBB297:
 381              		.loc 3 546 0
 382 008e 0023     		movs	r3, #0
 383              	.LBE297:
 384              	.LBE296:
 385              	.LBE295:
 386              	.LBE294:
 387              	.LBE293:
 388              		.loc 1 102 0
 389 0090 A060     		str	r0, [r4, #8]
 390              	.LVL16:
 391              	.LBB302:
 392              	.LBB301:
 393              	.LBB300:
 394              	.LBB299:
 395              	.LBB298:
 396              		.loc 3 546 0
 397              	@ 546 "../ChibiOS/os/ext/CMSIS/include/core_cmFunc.h" 1
 398 0092 83F31188 		MSR basepri, r3
ARM GAS  /tmp/cc9hyemz.s 			page 8


 399              	@ 0 "" 2
 400              		.thumb
 401              	.LBE298:
 402              	.LBE299:
 403              	.LBE300:
 404              	.LBE301:
 405              	.LBE302:
 406              		.loc 1 104 0
 407 0096 A068     		ldr	r0, [r4, #8]
 408 0098 FFF7FEFF 		bl	chThdStart
 409              	.LVL17:
 410              		.loc 1 105 0
 411 009c FFF7FEFF 		bl	test_wait_threads
 412              	.LVL18:
 413              		.loc 1 106 0
 414 00a0 0C49     		ldr	r1, .L9+36
 415 00a2 0120     		movs	r0, #1
 416              		.loc 1 107 0
 417 00a4 03B0     		add	sp, sp, #12
 418              		.cfi_def_cfa_offset 20
 419              		@ sp needed
 420 00a6 BDE8F040 		pop	{r4, r5, r6, r7, lr}
 421              		.cfi_restore 14
 422              		.cfi_restore 7
 423              		.cfi_restore 6
 424              		.cfi_restore 5
 425              		.cfi_restore 4
 426              		.cfi_def_cfa_offset 0
 427              		.loc 1 106 0
 428 00aa FFF7FEBF 		b	_test_assert_sequence
 429              	.LVL19:
 430              	.L10:
 431 00ae 00BF     		.align	2
 432              	.L9:
 433 00b0 00000000 		.word	ch
 434 00b4 00000000 		.word	wa
 435 00b8 00000000 		.word	thread
 436 00bc 04000000 		.word	.LC1
 437 00c0 00000000 		.word	threads
 438 00c4 00000000 		.word	.LC0
 439 00c8 10000000 		.word	.LC4
 440 00cc 0C000000 		.word	.LC3
 441 00d0 08000000 		.word	.LC2
 442 00d4 14000000 		.word	.LC5
 443              		.cfi_endproc
 444              	.LFE228:
 445              		.size	thd2_execute, .-thd2_execute
 446 00d8 AFF30080 		.section	.text.thd3_execute,"ax",%progbits
 446      AFF30080 
 447              		.align	2
 448              		.p2align 4,,15
 449              		.thumb
 450              		.thumb_func
 451              		.type	thd3_execute, %function
 452              	thd3_execute:
 453              	.LFB229:
 454              		.loc 1 126 0
ARM GAS  /tmp/cc9hyemz.s 			page 9


 455              		.cfi_startproc
 456              		@ args = 0, pretend = 0, frame = 0
 457              		@ frame_needed = 0, uses_anonymous_args = 0
 458 0000 F8B5     		push	{r3, r4, r5, r6, r7, lr}
 459              		.cfi_def_cfa_offset 24
 460              		.cfi_offset 3, -24
 461              		.cfi_offset 4, -20
 462              		.cfi_offset 5, -16
 463              		.cfi_offset 6, -12
 464              		.cfi_offset 7, -8
 465              		.cfi_offset 14, -4
 466              	.LBB303:
 467              	.LBB304:
 468              	.LBB305:
 469              	.LBB306:
 470              		.loc 2 179 0
 471 0002 494E     		ldr	r6, .L18
 472              	.LBE306:
 473              	.LBE305:
 474              		.loc 2 192 0
 475 0004 B369     		ldr	r3, [r6, #24]
 476 0006 9C68     		ldr	r4, [r3, #8]
 477              	.LBE304:
 478              	.LBE303:
 479              		.loc 1 130 0
 480 0008 651C     		adds	r5, r4, #1
 481 000a 2846     		mov	r0, r5
 482 000c FFF7FEFF 		bl	chThdSetPriority
 483              	.LVL20:
 484              		.loc 1 131 0
 485 0010 011B     		subs	r1, r0, r4
 486              		.loc 1 130 0
 487 0012 0746     		mov	r7, r0
 488              	.LVL21:
 489              		.loc 1 131 0
 490 0014 B1FA81F1 		clz	r1, r1
 491 0018 0120     		movs	r0, #1
 492              	.LVL22:
 493 001a 4909     		lsrs	r1, r1, #5
 494 001c FFF7FEFF 		bl	_test_assert
 495              	.LVL23:
 496 0020 00B1     		cbz	r0, .L17
 497              	.LVL24:
 498              	.L11:
 499 0022 F8BD     		pop	{r3, r4, r5, r6, r7, pc}
 500              	.LVL25:
 501              	.L17:
 502              	.LBB307:
 503              	.LBB308:
 504              		.loc 2 192 0
 505 0024 B369     		ldr	r3, [r6, #24]
 506              	.LBE308:
 507              	.LBE307:
 508              		.loc 1 133 0
 509 0026 9968     		ldr	r1, [r3, #8]
 510 0028 0220     		movs	r0, #2
 511 002a 691A     		subs	r1, r5, r1
ARM GAS  /tmp/cc9hyemz.s 			page 10


 512 002c B1FA81F1 		clz	r1, r1
 513 0030 4909     		lsrs	r1, r1, #5
 514 0032 FFF7FEFF 		bl	_test_assert
 515              	.LVL26:
 516 0036 0028     		cmp	r0, #0
 517 0038 F3D1     		bne	.L11
 518              		.loc 1 135 0
 519 003a 3846     		mov	r0, r7
 520 003c FFF7FEFF 		bl	chThdSetPriority
 521              	.LVL27:
 522              		.loc 1 136 0
 523 0040 291A     		subs	r1, r5, r0
 524 0042 0320     		movs	r0, #3
 525              	.LVL28:
 526 0044 B1FA81F1 		clz	r1, r1
 527 0048 4909     		lsrs	r1, r1, #5
 528 004a FFF7FEFF 		bl	_test_assert
 529              	.LVL29:
 530 004e 0028     		cmp	r0, #0
 531 0050 E7D1     		bne	.L11
 532              	.LBB309:
 533              	.LBB310:
 534              		.loc 2 192 0
 535 0052 B369     		ldr	r3, [r6, #24]
 536              	.LBE310:
 537              	.LBE309:
 538              		.loc 1 138 0
 539 0054 9968     		ldr	r1, [r3, #8]
 540 0056 0420     		movs	r0, #4
 541 0058 611A     		subs	r1, r4, r1
 542 005a B1FA81F1 		clz	r1, r1
 543 005e 4909     		lsrs	r1, r1, #5
 544 0060 FFF7FEFF 		bl	_test_assert
 545              	.LVL30:
 546 0064 0028     		cmp	r0, #0
 547 0066 DCD1     		bne	.L11
 548              	.LVL31:
 549              	.LBB311:
 550              	.LBB312:
 551              	.LBB313:
 552              	.LBB314:
 553              		.loc 3 546 0
 554 0068 2023     		movs	r3, #32
 555              	@ 546 "../ChibiOS/os/ext/CMSIS/include/core_cmFunc.h" 1
 556 006a 83F31188 		MSR basepri, r3
 557              	@ 0 "" 2
 558              		.thumb
 559              	.LBE314:
 560              	.LBE313:
 561              	.LBE312:
 562              	.LBE311:
 563              	.LBB315:
 564              	.LBB316:
 565              		.loc 2 179 0
 566 006e B269     		ldr	r2, [r6, #24]
 567              	.LBE316:
 568              	.LBE315:
ARM GAS  /tmp/cc9hyemz.s 			page 11


 569              		.loc 1 144 0
 570 0070 9368     		ldr	r3, [r2, #8]
 571 0072 0233     		adds	r3, r3, #2
 572 0074 9360     		str	r3, [r2, #8]
 573              	.LVL32:
 574              	.LBB317:
 575              	.LBB318:
 576              	.LBB319:
 577              	.LBB320:
 578              	.LBB321:
 579              		.loc 3 546 0
 580              	@ 546 "../ChibiOS/os/ext/CMSIS/include/core_cmFunc.h" 1
 581 0076 80F31188 		MSR basepri, r0
 582              	@ 0 "" 2
 583              		.thumb
 584              	.LBE321:
 585              	.LBE320:
 586              	.LBE319:
 587              	.LBE318:
 588              	.LBE317:
 589              	.LBB322:
 590              	.LBB323:
 591              		.loc 2 192 0
 592 007a B369     		ldr	r3, [r6, #24]
 593              	.LBE323:
 594              	.LBE322:
 595              		.loc 1 146 0
 596 007c 9968     		ldr	r1, [r3, #8]
 597 007e A71C     		adds	r7, r4, #2
 598 0080 791A     		subs	r1, r7, r1
 599 0082 0520     		movs	r0, #5
 600 0084 B1FA81F1 		clz	r1, r1
 601 0088 4909     		lsrs	r1, r1, #5
 602 008a FFF7FEFF 		bl	_test_assert
 603              	.LVL33:
 604 008e 0028     		cmp	r0, #0
 605 0090 C7D1     		bne	.L11
 606              		.loc 1 150 0
 607 0092 2846     		mov	r0, r5
 608 0094 FFF7FEFF 		bl	chThdSetPriority
 609              	.LVL34:
 610              		.loc 1 151 0
 611 0098 011B     		subs	r1, r0, r4
 612 009a 0620     		movs	r0, #6
 613              	.LVL35:
 614 009c B1FA81F1 		clz	r1, r1
 615 00a0 4909     		lsrs	r1, r1, #5
 616 00a2 FFF7FEFF 		bl	_test_assert
 617              	.LVL36:
 618 00a6 0028     		cmp	r0, #0
 619 00a8 BBD1     		bne	.L11
 620              		.loc 1 153 0
 621 00aa B369     		ldr	r3, [r6, #24]
 622 00ac 9968     		ldr	r1, [r3, #8]
 623 00ae 0720     		movs	r0, #7
 624 00b0 791A     		subs	r1, r7, r1
 625 00b2 B1FA81F1 		clz	r1, r1
ARM GAS  /tmp/cc9hyemz.s 			page 12


 626 00b6 4909     		lsrs	r1, r1, #5
 627 00b8 FFF7FEFF 		bl	_test_assert
 628              	.LVL37:
 629 00bc 0028     		cmp	r0, #0
 630 00be B0D1     		bne	.L11
 631              		.loc 1 155 0
 632 00c0 B369     		ldr	r3, [r6, #24]
 633 00c2 D96B     		ldr	r1, [r3, #60]
 634 00c4 0820     		movs	r0, #8
 635 00c6 691A     		subs	r1, r5, r1
 636 00c8 B1FA81F1 		clz	r1, r1
 637 00cc 4909     		lsrs	r1, r1, #5
 638 00ce FFF7FEFF 		bl	_test_assert
 639              	.LVL38:
 640 00d2 0028     		cmp	r0, #0
 641 00d4 A5D1     		bne	.L11
 642              		.loc 1 159 0
 643 00d6 E71C     		adds	r7, r4, #3
 644 00d8 3846     		mov	r0, r7
 645 00da FFF7FEFF 		bl	chThdSetPriority
 646              	.LVL39:
 647              		.loc 1 160 0
 648 00de 281A     		subs	r0, r5, r0
 649              	.LVL40:
 650 00e0 4142     		rsbs	r1, r0, #0
 651 00e2 4141     		adcs	r1, r1, r0
 652 00e4 0920     		movs	r0, #9
 653 00e6 FFF7FEFF 		bl	_test_assert
 654              	.LVL41:
 655 00ea 0028     		cmp	r0, #0
 656 00ec 99D1     		bne	.L11
 657              		.loc 1 162 0
 658 00ee B369     		ldr	r3, [r6, #24]
 659 00f0 9968     		ldr	r1, [r3, #8]
 660 00f2 7A1A     		subs	r2, r7, r1
 661 00f4 5142     		rsbs	r1, r2, #0
 662 00f6 5141     		adcs	r1, r1, r2
 663 00f8 0A20     		movs	r0, #10
 664 00fa FFF7FEFF 		bl	_test_assert
 665              	.LVL42:
 666 00fe 0028     		cmp	r0, #0
 667 0100 8FD1     		bne	.L11
 668              		.loc 1 164 0
 669 0102 B369     		ldr	r3, [r6, #24]
 670 0104 D96B     		ldr	r1, [r3, #60]
 671 0106 7B1A     		subs	r3, r7, r1
 672 0108 5942     		rsbs	r1, r3, #0
 673 010a 5941     		adcs	r1, r1, r3
 674 010c 0B20     		movs	r0, #11
 675 010e FFF7FEFF 		bl	_test_assert
 676              	.LVL43:
 677 0112 0028     		cmp	r0, #0
 678 0114 85D1     		bne	.L11
 679              	.LVL44:
 680              	.LBB324:
 681              	.LBB325:
 682              	.LBB326:
ARM GAS  /tmp/cc9hyemz.s 			page 13


 683              	.LBB327:
 684              		.loc 3 546 0
 685 0116 2023     		movs	r3, #32
 686              	@ 546 "../ChibiOS/os/ext/CMSIS/include/core_cmFunc.h" 1
 687 0118 83F31188 		MSR basepri, r3
 688              	@ 0 "" 2
 689              		.thumb
 690              	.LBE327:
 691              	.LBE326:
 692              	.LBE325:
 693              	.LBE324:
 694              	.LBB328:
 695              	.LBB329:
 696              		.loc 2 179 0
 697 011c B369     		ldr	r3, [r6, #24]
 698              	.LBE329:
 699              	.LBE328:
 700              		.loc 1 168 0
 701 011e 9C60     		str	r4, [r3, #8]
 702              		.loc 1 169 0
 703 0120 DC63     		str	r4, [r3, #60]
 704              	.LVL45:
 705              	.LBB330:
 706              	.LBB331:
 707              	.LBB332:
 708              	.LBB333:
 709              	.LBB334:
 710              		.loc 3 546 0
 711              	@ 546 "../ChibiOS/os/ext/CMSIS/include/core_cmFunc.h" 1
 712 0122 80F31188 		MSR basepri, r0
 713              	@ 0 "" 2
 714              		.thumb
 715 0126 7CE7     		b	.L11
 716              	.L19:
 717              		.align	2
 718              	.L18:
 719 0128 00000000 		.word	ch
 720              	.LBE334:
 721              	.LBE333:
 722              	.LBE332:
 723              	.LBE331:
 724              	.LBE330:
 725              		.cfi_endproc
 726              	.LFE229:
 727              		.size	thd3_execute, .-thd3_execute
 728 012c AFF30080 		.section	.text.thd4_execute,"ax",%progbits
 729              		.align	2
 730              		.p2align 4,,15
 731              		.thumb
 732              		.thumb_func
 733              		.type	thd4_execute, %function
 734              	thd4_execute:
 735              	.LFB230:
 736              		.loc 1 189 0
 737              		.cfi_startproc
 738              		@ args = 0, pretend = 0, frame = 0
 739              		@ frame_needed = 0, uses_anonymous_args = 0
ARM GAS  /tmp/cc9hyemz.s 			page 14


 740 0000 70B5     		push	{r4, r5, r6, lr}
 741              		.cfi_def_cfa_offset 16
 742              		.cfi_offset 4, -16
 743              		.cfi_offset 5, -12
 744              		.cfi_offset 6, -8
 745              		.cfi_offset 14, -4
 746              		.loc 1 192 0
 747 0002 FFF7FEFF 		bl	test_wait_tick
 748              	.LVL46:
 749              	.LBB427:
 750              	.LBB428:
 751              	.LBB429:
 752              	.LBB430:
 753              	.LBB431:
 754              	.LBB432:
 755              		.loc 3 546 0
 756 0006 2026     		movs	r6, #32
 757              	@ 546 "../ChibiOS/os/ext/CMSIS/include/core_cmFunc.h" 1
 758 0008 86F31188 		MSR basepri, r6
 759              	@ 0 "" 2
 760              		.thumb
 761              	.LBE432:
 762              	.LBE431:
 763              	.LBE430:
 764              	.LBE429:
 765              	.LBB433:
 766              	.LBB434:
 767              	.LBB435:
 768              	.LBB436:
 769              		.file 4 "../ChibiOS/os/hal/ports/STM32/LLD/TIMv1/st_lld.h"
 770              		.loc 4 128 0
 771 000c 4FF08045 		mov	r5, #1073741824
 772              	.LBE436:
 773              	.LBE435:
 774              	.LBE434:
 775              	.LBE433:
 776              	.LBB440:
 777              	.LBB441:
 778              	.LBB442:
 779              	.LBB443:
 780              	.LBB444:
 781              		.loc 3 546 0
 782 0010 0023     		movs	r3, #0
 783              	.LBE444:
 784              	.LBE443:
 785              	.LBE442:
 786              	.LBE441:
 787              	.LBE440:
 788              	.LBB449:
 789              	.LBB439:
 790              	.LBB438:
 791              	.LBB437:
 792              		.loc 4 128 0
 793 0012 6C6A     		ldr	r4, [r5, #36]
 794              	.LVL47:
 795              	.LBE437:
 796              	.LBE438:
ARM GAS  /tmp/cc9hyemz.s 			page 15


 797              	.LBE439:
 798              	.LBE449:
 799              	.LBB450:
 800              	.LBB448:
 801              	.LBB447:
 802              	.LBB446:
 803              	.LBB445:
 804              		.loc 3 546 0
 805              	@ 546 "../ChibiOS/os/ext/CMSIS/include/core_cmFunc.h" 1
 806 0014 83F31188 		MSR basepri, r3
 807              	@ 0 "" 2
 808              		.thumb
 809              	.LBE445:
 810              	.LBE446:
 811              	.LBE447:
 812              	.LBE448:
 813              	.LBE450:
 814              	.LBE428:
 815              	.LBE427:
 816              		.loc 1 196 0
 817 0018 4FF47A70 		mov	r0, #1000
 818 001c FFF7FEFF 		bl	chThdSleep
 819              	.LVL48:
 820              		.loc 1 197 0
 821 0020 04F57A71 		add	r1, r4, #1000
 822 0024 04F2EB32 		addw	r2, r4, #1003
 823 0028 0120     		movs	r0, #1
 824 002a FFF7FEFF 		bl	_test_assert_time_window
 825              	.LVL49:
 826 002e 00B1     		cbz	r0, .L25
 827              	.L20:
 828 0030 70BD     		pop	{r4, r5, r6, pc}
 829              	.L25:
 830              	.LVL50:
 831              	.LBB451:
 832              	.LBB452:
 833              	.LBB453:
 834              	.LBB454:
 835              	.LBB455:
 836              	.LBB456:
 837              		.loc 3 546 0
 838              	@ 546 "../ChibiOS/os/ext/CMSIS/include/core_cmFunc.h" 1
 839 0032 86F31188 		MSR basepri, r6
 840              	@ 0 "" 2
 841              		.thumb
 842              	.LBE456:
 843              	.LBE455:
 844              	.LBE454:
 845              	.LBE453:
 846              	.LBB457:
 847              	.LBB458:
 848              	.LBB459:
 849              	.LBB460:
 850              		.loc 4 128 0
 851 0036 6C6A     		ldr	r4, [r5, #36]
 852              	.LVL51:
 853              	.LBE460:
ARM GAS  /tmp/cc9hyemz.s 			page 16


 854              	.LBE459:
 855              	.LBE458:
 856              	.LBE457:
 857              	.LBB461:
 858              	.LBB462:
 859              	.LBB463:
 860              	.LBB464:
 861              	.LBB465:
 862              		.loc 3 546 0
 863              	@ 546 "../ChibiOS/os/ext/CMSIS/include/core_cmFunc.h" 1
 864 0038 80F31188 		MSR basepri, r0
 865              	@ 0 "" 2
 866              		.thumb
 867              	.LBE465:
 868              	.LBE464:
 869              	.LBE463:
 870              	.LBE462:
 871              	.LBE461:
 872              	.LBE452:
 873              	.LBE451:
 874              		.loc 1 203 0
 875 003c 4FF47A70 		mov	r0, #1000
 876 0040 FFF7FEFF 		bl	chThdSleep
 877              	.LVL52:
 878              		.loc 1 204 0
 879 0044 04F57A71 		add	r1, r4, #1000
 880 0048 04F2EB32 		addw	r2, r4, #1003
 881 004c 0220     		movs	r0, #2
 882 004e FFF7FEFF 		bl	_test_assert_time_window
 883              	.LVL53:
 884 0052 0028     		cmp	r0, #0
 885 0054 ECD1     		bne	.L20
 886              	.LVL54:
 887              	.LBB466:
 888              	.LBB467:
 889              	.LBB468:
 890              	.LBB469:
 891              	.LBB470:
 892              	.LBB471:
 893              	.LBB472:
 894              	.LBB473:
 895              		.loc 3 546 0
 896              	@ 546 "../ChibiOS/os/ext/CMSIS/include/core_cmFunc.h" 1
 897 0056 86F31188 		MSR basepri, r6
 898              	@ 0 "" 2
 899              		.thumb
 900              	.LBE473:
 901              	.LBE472:
 902              	.LBE471:
 903              	.LBE470:
 904              	.LBB474:
 905              	.LBB475:
 906              	.LBB476:
 907              	.LBB477:
 908              		.loc 4 128 0
 909 005a 6C6A     		ldr	r4, [r5, #36]
 910              	.LVL55:
ARM GAS  /tmp/cc9hyemz.s 			page 17


 911              	.LBE477:
 912              	.LBE476:
 913              	.LBE475:
 914              	.LBE474:
 915              	.LBB478:
 916              	.LBB479:
 917              	.LBB480:
 918              	.LBB481:
 919              	.LBB482:
 920              		.loc 3 546 0
 921              	@ 546 "../ChibiOS/os/ext/CMSIS/include/core_cmFunc.h" 1
 922 005c 80F31188 		MSR basepri, r0
 923              	@ 0 "" 2
 924              		.thumb
 925              	.LBE482:
 926              	.LBE481:
 927              	.LBE480:
 928              	.LBE479:
 929              	.LBE478:
 930              	.LBE469:
 931              	.LBE468:
 932              		.loc 1 210 0
 933 0060 42F21070 		movw	r0, #10000
 934 0064 FFF7FEFF 		bl	chThdSleep
 935              	.LVL56:
 936              		.loc 1 211 0
 937 0068 04F51C51 		add	r1, r4, #9984
 938 006c 0A46     		mov	r2, r1
 939 006e 1332     		adds	r2, r2, #19
 940 0070 1031     		adds	r1, r1, #16
 941 0072 0320     		movs	r0, #3
 942 0074 FFF7FEFF 		bl	_test_assert_time_window
 943              	.LVL57:
 944 0078 0028     		cmp	r0, #0
 945 007a D9D1     		bne	.L20
 946              	.LVL58:
 947              	.LBB483:
 948              	.LBB484:
 949              	.LBB485:
 950              	.LBB486:
 951              	.LBB487:
 952              	.LBB488:
 953              		.loc 3 546 0
 954              	@ 546 "../ChibiOS/os/ext/CMSIS/include/core_cmFunc.h" 1
 955 007c 86F31188 		MSR basepri, r6
 956              	@ 0 "" 2
 957              		.thumb
 958              	.LBE488:
 959              	.LBE487:
 960              	.LBE486:
 961              	.LBE485:
 962              	.LBB489:
 963              	.LBB490:
 964              	.LBB491:
 965              	.LBB492:
 966              		.loc 4 128 0
 967 0080 6C6A     		ldr	r4, [r5, #36]
ARM GAS  /tmp/cc9hyemz.s 			page 18


 968              	.LVL59:
 969              	.LBE492:
 970              	.LBE491:
 971              	.LBE490:
 972              	.LBE489:
 973              	.LBB493:
 974              	.LBB494:
 975              	.LBB495:
 976              	.LBB496:
 977              	.LBB497:
 978              		.loc 3 546 0
 979              	@ 546 "../ChibiOS/os/ext/CMSIS/include/core_cmFunc.h" 1
 980 0082 80F31188 		MSR basepri, r0
 981              	@ 0 "" 2
 982              		.thumb
 983              	.LBE497:
 984              	.LBE496:
 985              	.LBE495:
 986              	.LBE494:
 987              	.LBE493:
 988              	.LBE484:
 989              	.LBE483:
 990              		.loc 1 216 0
 991 0086 04F57A75 		add	r5, r4, #1000
 992              	.LVL60:
 993              		.loc 1 217 0
 994 008a 2846     		mov	r0, r5
 995 008c FFF7FEFF 		bl	chThdSleepUntil
 996              	.LVL61:
 997              		.loc 1 218 0
 998 0090 2946     		mov	r1, r5
 999 0092 04F2EB32 		addw	r2, r4, #1003
 1000 0096 0420     		movs	r0, #4
 1001              	.LBE467:
 1002              	.LBE466:
 1003              		.loc 1 221 0
 1004 0098 BDE87040 		pop	{r4, r5, r6, lr}
 1005              		.cfi_restore 14
 1006              		.cfi_restore 6
 1007              		.cfi_restore 5
 1008              		.cfi_restore 4
 1009              		.cfi_def_cfa_offset 0
 1010              	.LVL62:
 1011              	.LBB499:
 1012              	.LBB498:
 1013              		.loc 1 218 0
 1014 009c FFF7FEBF 		b	_test_assert_time_window
 1015              	.LVL63:
 1016              	.LBE498:
 1017              	.LBE499:
 1018              		.cfi_endproc
 1019              	.LFE230:
 1020              		.size	thd4_execute, .-thd4_execute
 1021              		.global	patternthd
 1022              		.global	testthd4
 1023              		.global	testthd3
 1024              		.global	testthd2
ARM GAS  /tmp/cc9hyemz.s 			page 19


 1025              		.global	testthd1
 1026              		.section	.rodata.testthd1,"a",%progbits
 1027              		.align	2
 1028              		.type	testthd1, %object
 1029              		.size	testthd1, 16
 1030              	testthd1:
 1031 0000 64000000 		.word	.LC9
 1032 0004 00000000 		.word	0
 1033 0008 00000000 		.word	0
 1034 000c 00000000 		.word	thd1_execute
 1035              		.section	.rodata.testthd2,"a",%progbits
 1036              		.align	2
 1037              		.type	testthd2, %object
 1038              		.size	testthd2, 16
 1039              	testthd2:
 1040 0000 48000000 		.word	.LC8
 1041 0004 00000000 		.word	0
 1042 0008 00000000 		.word	0
 1043 000c 00000000 		.word	thd2_execute
 1044              		.section	.rodata.testthd3,"a",%progbits
 1045              		.align	2
 1046              		.type	testthd3, %object
 1047              		.size	testthd3, 16
 1048              	testthd3:
 1049 0000 2C000000 		.word	.LC7
 1050 0004 00000000 		.word	0
 1051 0008 00000000 		.word	0
 1052 000c 00000000 		.word	thd3_execute
 1053              		.section	.rodata.testthd4,"a",%progbits
 1054              		.align	2
 1055              		.type	testthd4, %object
 1056              		.size	testthd4, 16
 1057              	testthd4:
 1058 0000 1C000000 		.word	.LC6
 1059 0004 00000000 		.word	0
 1060 0008 00000000 		.word	0
 1061 000c 00000000 		.word	thd4_execute
 1062              		.section	.rodata.patternthd,"a",%progbits
 1063              		.align	2
 1064              		.type	patternthd, %object
 1065              		.size	patternthd, 20
 1066              	patternthd:
 1067 0000 00000000 		.word	testthd1
 1068 0004 00000000 		.word	testthd2
 1069 0008 00000000 		.word	testthd3
 1070 000c 00000000 		.word	testthd4
 1071 0010 00000000 		.word	0
 1072              		.section	.rodata.str1.4,"aMS",%progbits,1
 1073              		.align	2
 1074              	.LC0:
 1075 0000 4500     		.ascii	"E\000"
 1076 0002 0000     		.space	2
 1077              	.LC1:
 1078 0004 4400     		.ascii	"D\000"
 1079 0006 0000     		.space	2
 1080              	.LC2:
 1081 0008 4300     		.ascii	"C\000"
ARM GAS  /tmp/cc9hyemz.s 			page 20


 1082 000a 0000     		.space	2
 1083              	.LC3:
 1084 000c 4200     		.ascii	"B\000"
 1085 000e 0000     		.space	2
 1086              	.LC4:
 1087 0010 4100     		.ascii	"A\000"
 1088 0012 0000     		.space	2
 1089              	.LC5:
 1090 0014 41424344 		.ascii	"ABCDE\000"
 1090      4500
 1091 001a 0000     		.space	2
 1092              	.LC6:
 1093 001c 54687265 		.ascii	"Threads, delays\000"
 1093      6164732C 
 1093      2064656C 
 1093      61797300 
 1094              	.LC7:
 1095 002c 54687265 		.ascii	"Threads, priority change\000"
 1095      6164732C 
 1095      20707269 
 1095      6F726974 
 1095      79206368 
 1096 0045 000000   		.space	3
 1097              	.LC8:
 1098 0048 54687265 		.ascii	"Threads, enqueuing test #2\000"
 1098      6164732C 
 1098      20656E71 
 1098      75657569 
 1098      6E672074 
 1099 0063 00       		.space	1
 1100              	.LC9:
 1101 0064 54687265 		.ascii	"Threads, enqueuing test #1\000"
 1101      6164732C 
 1101      20656E71 
 1101      75657569 
 1101      6E672074 
 1102 007f 00       		.text
 1103              	.Letext0:
 1104              		.file 5 "/l/arm2/gcc-arm-none-eabi-4_9-2014q4/lib/gcc/arm-none-eabi/4.9.3/include/stddef.h"
 1105              		.file 6 "/l/arm2/gcc-arm-none-eabi-4_9-2014q4/arm-none-eabi/include/machine/_default_types.h"
 1106              		.file 7 "/l/arm2/gcc-arm-none-eabi-4_9-2014q4/arm-none-eabi/include/stdint.h"
 1107              		.file 8 "../ChibiOS/os/rt/ports/ARMCMx/compilers/GCC/chtypes.h"
 1108              		.file 9 "../ChibiOS/os/rt/include/chsystypes.h"
 1109              		.file 10 "../ChibiOS/os/rt/include/chschd.h"
 1110              		.file 11 "../ChibiOS/os/rt/ports/ARMCMx/chcore.h"
 1111              		.file 12 "../ChibiOS/os/rt/ports/ARMCMx/chcore_v7m.h"
 1112              		.file 13 "../ChibiOS/os/hal/ports/STM32/LLD/TIMv1/stm32_tim.h"
 1113              		.file 14 "../ChibiOS/os/rt/include/chtm.h"
 1114              		.file 15 "../ChibiOS/os/rt/include/chmtx.h"
 1115              		.file 16 "../ChibiOS/test/rt/test.h"
 1116              		.file 17 "../ChibiOS/os/rt/ports/ARMCMx/chcore_timer.h"
 1117              		.file 18 "../ChibiOS/os/rt/include/chsys.h"
 1118              		.file 19 "../ChibiOS/os/rt/include/chvt.h"
 1119              		.file 20 "../ChibiOS/os/ext/CMSIS/include/core_cm4.h"
 1120              		.section	.debug_info,"",%progbits
 1121              	.Ldebug_info0:
 1122 0000 AA150000 		.4byte	0x15aa
ARM GAS  /tmp/cc9hyemz.s 			page 21


 1123 0004 0400     		.2byte	0x4
 1124 0006 00000000 		.4byte	.Ldebug_abbrev0
 1125 000a 04       		.byte	0x4
 1126 000b 01       		.uleb128 0x1
 1127 000c A2020000 		.4byte	.LASF146
 1128 0010 01       		.byte	0x1
 1129 0011 30020000 		.4byte	.LASF147
 1130 0015 FE050000 		.4byte	.LASF148
 1131 0019 A8000000 		.4byte	.Ldebug_ranges0+0xa8
 1132 001d 00000000 		.4byte	0
 1133 0021 00000000 		.4byte	.Ldebug_line0
 1134 0025 02       		.uleb128 0x2
 1135 0026 04       		.byte	0x4
 1136 0027 05       		.byte	0x5
 1137 0028 696E7400 		.ascii	"int\000"
 1138 002c 03       		.uleb128 0x3
 1139 002d 1A000000 		.4byte	.LASF2
 1140 0031 05       		.byte	0x5
 1141 0032 D4       		.byte	0xd4
 1142 0033 37000000 		.4byte	0x37
 1143 0037 04       		.uleb128 0x4
 1144 0038 04       		.byte	0x4
 1145 0039 07       		.byte	0x7
 1146 003a D7010000 		.4byte	.LASF0
 1147 003e 04       		.uleb128 0x4
 1148 003f 01       		.byte	0x1
 1149 0040 06       		.byte	0x6
 1150 0041 DD000000 		.4byte	.LASF1
 1151 0045 03       		.uleb128 0x3
 1152 0046 31000000 		.4byte	.LASF3
 1153 004a 06       		.byte	0x6
 1154 004b 1D       		.byte	0x1d
 1155 004c 50000000 		.4byte	0x50
 1156 0050 04       		.uleb128 0x4
 1157 0051 01       		.byte	0x1
 1158 0052 08       		.byte	0x8
 1159 0053 FB040000 		.4byte	.LASF4
 1160 0057 04       		.uleb128 0x4
 1161 0058 02       		.byte	0x2
 1162 0059 05       		.byte	0x5
 1163 005a 2A050000 		.4byte	.LASF5
 1164 005e 04       		.uleb128 0x4
 1165 005f 02       		.byte	0x2
 1166 0060 07       		.byte	0x7
 1167 0061 5E010000 		.4byte	.LASF6
 1168 0065 03       		.uleb128 0x3
 1169 0066 7B020000 		.4byte	.LASF7
 1170 006a 06       		.byte	0x6
 1171 006b 3F       		.byte	0x3f
 1172 006c 70000000 		.4byte	0x70
 1173 0070 04       		.uleb128 0x4
 1174 0071 04       		.byte	0x4
 1175 0072 05       		.byte	0x5
 1176 0073 2B010000 		.4byte	.LASF8
 1177 0077 03       		.uleb128 0x3
 1178 0078 91060000 		.4byte	.LASF9
 1179 007c 06       		.byte	0x6
ARM GAS  /tmp/cc9hyemz.s 			page 22


 1180 007d 41       		.byte	0x41
 1181 007e 82000000 		.4byte	0x82
 1182 0082 04       		.uleb128 0x4
 1183 0083 04       		.byte	0x4
 1184 0084 07       		.byte	0x7
 1185 0085 20060000 		.4byte	.LASF10
 1186 0089 04       		.uleb128 0x4
 1187 008a 08       		.byte	0x8
 1188 008b 05       		.byte	0x5
 1189 008c 9F010000 		.4byte	.LASF11
 1190 0090 03       		.uleb128 0x3
 1191 0091 98040000 		.4byte	.LASF12
 1192 0095 06       		.byte	0x6
 1193 0096 5B       		.byte	0x5b
 1194 0097 9B000000 		.4byte	0x9b
 1195 009b 04       		.uleb128 0x4
 1196 009c 08       		.byte	0x8
 1197 009d 07       		.byte	0x7
 1198 009e 60000000 		.4byte	.LASF13
 1199 00a2 03       		.uleb128 0x3
 1200 00a3 24070000 		.4byte	.LASF14
 1201 00a7 07       		.byte	0x7
 1202 00a8 15       		.byte	0x15
 1203 00a9 45000000 		.4byte	0x45
 1204 00ad 03       		.uleb128 0x3
 1205 00ae F3040000 		.4byte	.LASF15
 1206 00b2 07       		.byte	0x7
 1207 00b3 2C       		.byte	0x2c
 1208 00b4 65000000 		.4byte	0x65
 1209 00b8 03       		.uleb128 0x3
 1210 00b9 CB050000 		.4byte	.LASF16
 1211 00bd 07       		.byte	0x7
 1212 00be 2D       		.byte	0x2d
 1213 00bf 77000000 		.4byte	0x77
 1214 00c3 03       		.uleb128 0x3
 1215 00c4 28000000 		.4byte	.LASF17
 1216 00c8 07       		.byte	0x7
 1217 00c9 39       		.byte	0x39
 1218 00ca 90000000 		.4byte	0x90
 1219 00ce 05       		.uleb128 0x5
 1220 00cf AD000000 		.4byte	0xad
 1221 00d3 05       		.uleb128 0x5
 1222 00d4 B8000000 		.4byte	0xb8
 1223 00d8 03       		.uleb128 0x3
 1224 00d9 EA060000 		.4byte	.LASF18
 1225 00dd 08       		.byte	0x8
 1226 00de 45       		.byte	0x45
 1227 00df B8000000 		.4byte	0xb8
 1228 00e3 03       		.uleb128 0x3
 1229 00e4 56070000 		.4byte	.LASF19
 1230 00e8 08       		.byte	0x8
 1231 00e9 48       		.byte	0x48
 1232 00ea A2000000 		.4byte	0xa2
 1233 00ee 03       		.uleb128 0x3
 1234 00ef 34010000 		.4byte	.LASF20
 1235 00f3 08       		.byte	0x8
 1236 00f4 49       		.byte	0x49
ARM GAS  /tmp/cc9hyemz.s 			page 23


 1237 00f5 A2000000 		.4byte	0xa2
 1238 00f9 03       		.uleb128 0x3
 1239 00fa A3040000 		.4byte	.LASF21
 1240 00fe 08       		.byte	0x8
 1241 00ff 4A       		.byte	0x4a
 1242 0100 A2000000 		.4byte	0xa2
 1243 0104 03       		.uleb128 0x3
 1244 0105 CF040000 		.4byte	.LASF22
 1245 0109 08       		.byte	0x8
 1246 010a 4C       		.byte	0x4c
 1247 010b B8000000 		.4byte	0xb8
 1248 010f 03       		.uleb128 0x3
 1249 0110 2A020000 		.4byte	.LASF23
 1250 0114 08       		.byte	0x8
 1251 0115 4D       		.byte	0x4d
 1252 0116 AD000000 		.4byte	0xad
 1253 011a 03       		.uleb128 0x3
 1254 011b 6F020000 		.4byte	.LASF24
 1255 011f 08       		.byte	0x8
 1256 0120 4F       		.byte	0x4f
 1257 0121 B8000000 		.4byte	0xb8
 1258 0125 03       		.uleb128 0x3
 1259 0126 73060000 		.4byte	.LASF25
 1260 012a 09       		.byte	0x9
 1261 012b 33       		.byte	0x33
 1262 012c B8000000 		.4byte	0xb8
 1263 0130 03       		.uleb128 0x3
 1264 0131 5E060000 		.4byte	.LASF26
 1265 0135 09       		.byte	0x9
 1266 0136 3F       		.byte	0x3f
 1267 0137 3B010000 		.4byte	0x13b
 1268 013b 06       		.uleb128 0x6
 1269 013c 20020000 		.4byte	.LASF45
 1270 0140 44       		.byte	0x44
 1271 0141 0A       		.byte	0xa
 1272 0142 BE       		.byte	0xbe
 1273 0143 28020000 		.4byte	0x228
 1274 0147 07       		.uleb128 0x7
 1275 0148 52050000 		.4byte	.LASF27
 1276 014c 0A       		.byte	0xa
 1277 014d BF       		.byte	0xbf
 1278 014e 14070000 		.4byte	0x714
 1279 0152 00       		.byte	0
 1280 0153 07       		.uleb128 0x7
 1281 0154 C8040000 		.4byte	.LASF28
 1282 0158 0A       		.byte	0xa
 1283 0159 C1       		.byte	0xc1
 1284 015a 14070000 		.4byte	0x714
 1285 015e 04       		.byte	0x4
 1286 015f 07       		.uleb128 0x7
 1287 0160 C4000000 		.4byte	.LASF29
 1288 0164 0A       		.byte	0xa
 1289 0165 C3       		.byte	0xc3
 1290 0166 04010000 		.4byte	0x104
 1291 016a 08       		.byte	0x8
 1292 016b 07       		.uleb128 0x7
 1293 016c 89070000 		.4byte	.LASF30
ARM GAS  /tmp/cc9hyemz.s 			page 24


 1294 0170 0A       		.byte	0xa
 1295 0171 C4       		.byte	0xc4
 1296 0172 72040000 		.4byte	0x472
 1297 0176 0C       		.byte	0xc
 1298 0177 07       		.uleb128 0x7
 1299 0178 56010000 		.4byte	.LASF31
 1300 017c 0A       		.byte	0xa
 1301 017d C6       		.byte	0xc6
 1302 017e 14070000 		.4byte	0x714
 1303 0182 10       		.byte	0x10
 1304 0183 07       		.uleb128 0x7
 1305 0184 2F040000 		.4byte	.LASF32
 1306 0188 0A       		.byte	0xa
 1307 0189 C7       		.byte	0xc7
 1308 018a 14070000 		.4byte	0x714
 1309 018e 14       		.byte	0x14
 1310 018f 07       		.uleb128 0x7
 1311 0190 33070000 		.4byte	.LASF33
 1312 0194 0A       		.byte	0xa
 1313 0195 CE       		.byte	0xce
 1314 0196 52070000 		.4byte	0x752
 1315 019a 18       		.byte	0x18
 1316 019b 07       		.uleb128 0x7
 1317 019c 34050000 		.4byte	.LASF34
 1318 01a0 0A       		.byte	0xa
 1319 01a1 D9       		.byte	0xd9
 1320 01a2 EE000000 		.4byte	0xee
 1321 01a6 1C       		.byte	0x1c
 1322 01a7 07       		.uleb128 0x7
 1323 01a8 59050000 		.4byte	.LASF35
 1324 01ac 0A       		.byte	0xa
 1325 01ad DD       		.byte	0xdd
 1326 01ae E3000000 		.4byte	0xe3
 1327 01b2 1D       		.byte	0x1d
 1328 01b3 07       		.uleb128 0x7
 1329 01b4 09070000 		.4byte	.LASF36
 1330 01b8 0A       		.byte	0xa
 1331 01b9 E2       		.byte	0xe2
 1332 01ba F9000000 		.4byte	0xf9
 1333 01be 1E       		.byte	0x1e
 1334 01bf 08       		.uleb128 0x8
 1335 01c0 705F7500 		.ascii	"p_u\000"
 1336 01c4 0A       		.byte	0xa
 1337 01c5 1401     		.2byte	0x114
 1338 01c7 1A070000 		.4byte	0x71a
 1339 01cb 20       		.byte	0x20
 1340 01cc 09       		.uleb128 0x9
 1341 01cd BB030000 		.4byte	.LASF37
 1342 01d1 0A       		.byte	0xa
 1343 01d2 1901     		.2byte	0x119
 1344 01d4 28020000 		.4byte	0x228
 1345 01d8 24       		.byte	0x24
 1346 01d9 09       		.uleb128 0x9
 1347 01da 02020000 		.4byte	.LASF38
 1348 01de 0A       		.byte	0xa
 1349 01df 1F01     		.2byte	0x11f
 1350 01e1 4C020000 		.4byte	0x24c
ARM GAS  /tmp/cc9hyemz.s 			page 25


 1351 01e5 28       		.byte	0x28
 1352 01e6 09       		.uleb128 0x9
 1353 01e7 6A070000 		.4byte	.LASF39
 1354 01eb 0A       		.byte	0xa
 1355 01ec 2301     		.2byte	0x123
 1356 01ee 0F010000 		.4byte	0x10f
 1357 01f2 30       		.byte	0x30
 1358 01f3 09       		.uleb128 0x9
 1359 01f4 A2050000 		.4byte	.LASF40
 1360 01f8 0A       		.byte	0xa
 1361 01f9 2901     		.2byte	0x129
 1362 01fb 1A010000 		.4byte	0x11a
 1363 01ff 34       		.byte	0x34
 1364 0200 09       		.uleb128 0x9
 1365 0201 20050000 		.4byte	.LASF41
 1366 0205 0A       		.byte	0xa
 1367 0206 3001     		.2byte	0x130
 1368 0208 95070000 		.4byte	0x795
 1369 020c 38       		.byte	0x38
 1370 020d 09       		.uleb128 0x9
 1371 020e 7D060000 		.4byte	.LASF42
 1372 0212 0A       		.byte	0xa
 1373 0213 3401     		.2byte	0x134
 1374 0215 04010000 		.4byte	0x104
 1375 0219 3C       		.byte	0x3c
 1376 021a 09       		.uleb128 0x9
 1377 021b 79010000 		.4byte	.LASF43
 1378 021f 0A       		.byte	0xa
 1379 0220 3A01     		.2byte	0x13a
 1380 0222 FF020000 		.4byte	0x2ff
 1381 0226 40       		.byte	0x40
 1382 0227 00       		.byte	0
 1383 0228 03       		.uleb128 0x3
 1384 0229 47070000 		.4byte	.LASF44
 1385 022d 09       		.byte	0x9
 1386 022e 44       		.byte	0x44
 1387 022f 33020000 		.4byte	0x233
 1388 0233 06       		.uleb128 0x6
 1389 0234 EE050000 		.4byte	.LASF46
 1390 0238 04       		.byte	0x4
 1391 0239 0A       		.byte	0xa
 1392 023a AC       		.byte	0xac
 1393 023b 4C020000 		.4byte	0x24c
 1394 023f 07       		.uleb128 0x7
 1395 0240 52050000 		.4byte	.LASF27
 1396 0244 0A       		.byte	0xa
 1397 0245 AD       		.byte	0xad
 1398 0246 14070000 		.4byte	0x714
 1399 024a 00       		.byte	0
 1400 024b 00       		.byte	0
 1401 024c 03       		.uleb128 0x3
 1402 024d F9060000 		.4byte	.LASF47
 1403 0251 09       		.byte	0x9
 1404 0252 4B       		.byte	0x4b
 1405 0253 57020000 		.4byte	0x257
 1406 0257 06       		.uleb128 0x6
 1407 0258 B3000000 		.4byte	.LASF48
ARM GAS  /tmp/cc9hyemz.s 			page 26


 1408 025c 08       		.byte	0x8
 1409 025d 0A       		.byte	0xa
 1410 025e B3       		.byte	0xb3
 1411 025f 7C020000 		.4byte	0x27c
 1412 0263 07       		.uleb128 0x7
 1413 0264 52050000 		.4byte	.LASF27
 1414 0268 0A       		.byte	0xa
 1415 0269 B4       		.byte	0xb4
 1416 026a 14070000 		.4byte	0x714
 1417 026e 00       		.byte	0
 1418 026f 07       		.uleb128 0x7
 1419 0270 C8040000 		.4byte	.LASF28
 1420 0274 0A       		.byte	0xa
 1421 0275 B5       		.byte	0xb5
 1422 0276 14070000 		.4byte	0x714
 1423 027a 04       		.byte	0x4
 1424 027b 00       		.byte	0
 1425 027c 03       		.uleb128 0x3
 1426 027d 08000000 		.4byte	.LASF49
 1427 0281 09       		.byte	0x9
 1428 0282 52       		.byte	0x52
 1429 0283 87020000 		.4byte	0x287
 1430 0287 0A       		.uleb128 0xa
 1431 0288 61020000 		.4byte	.LASF50
 1432 028c 1C       		.byte	0x1c
 1433 028d 0A       		.byte	0xa
 1434 028e 7201     		.2byte	0x172
 1435 0290 E3020000 		.4byte	0x2e3
 1436 0294 09       		.uleb128 0x9
 1437 0295 E6050000 		.4byte	.LASF51
 1438 0299 0A       		.byte	0xa
 1439 029a 7301     		.2byte	0x173
 1440 029c 4C020000 		.4byte	0x24c
 1441 02a0 00       		.byte	0
 1442 02a1 09       		.uleb128 0x9
 1443 02a2 44050000 		.4byte	.LASF52
 1444 02a6 0A       		.byte	0xa
 1445 02a7 7401     		.2byte	0x174
 1446 02a9 04010000 		.4byte	0x104
 1447 02ad 08       		.byte	0x8
 1448 02ae 09       		.uleb128 0x9
 1449 02af 37040000 		.4byte	.LASF53
 1450 02b3 0A       		.byte	0xa
 1451 02b4 7601     		.2byte	0x176
 1452 02b6 72040000 		.4byte	0x472
 1453 02ba 0C       		.byte	0xc
 1454 02bb 09       		.uleb128 0x9
 1455 02bc 71010000 		.4byte	.LASF54
 1456 02c0 0A       		.byte	0xa
 1457 02c1 7901     		.2byte	0x179
 1458 02c3 14070000 		.4byte	0x714
 1459 02c7 10       		.byte	0x10
 1460 02c8 09       		.uleb128 0x9
 1461 02c9 75040000 		.4byte	.LASF55
 1462 02cd 0A       		.byte	0xa
 1463 02ce 7A01     		.2byte	0x17a
 1464 02d0 14070000 		.4byte	0x714
ARM GAS  /tmp/cc9hyemz.s 			page 27


 1465 02d4 14       		.byte	0x14
 1466 02d5 09       		.uleb128 0x9
 1467 02d6 32060000 		.4byte	.LASF56
 1468 02da 0A       		.byte	0xa
 1469 02db 7D01     		.2byte	0x17d
 1470 02dd 14070000 		.4byte	0x714
 1471 02e1 18       		.byte	0x18
 1472 02e2 00       		.byte	0
 1473 02e3 03       		.uleb128 0x3
 1474 02e4 88060000 		.4byte	.LASF57
 1475 02e8 09       		.byte	0x9
 1476 02e9 57       		.byte	0x57
 1477 02ea EE020000 		.4byte	0x2ee
 1478 02ee 0B       		.uleb128 0xb
 1479 02ef 04       		.byte	0x4
 1480 02f0 F4020000 		.4byte	0x2f4
 1481 02f4 0C       		.uleb128 0xc
 1482 02f5 FF020000 		.4byte	0x2ff
 1483 02f9 0D       		.uleb128 0xd
 1484 02fa FF020000 		.4byte	0x2ff
 1485 02fe 00       		.byte	0
 1486 02ff 0E       		.uleb128 0xe
 1487 0300 04       		.byte	0x4
 1488 0301 03       		.uleb128 0x3
 1489 0302 B8040000 		.4byte	.LASF58
 1490 0306 09       		.byte	0x9
 1491 0307 5C       		.byte	0x5c
 1492 0308 0C030000 		.4byte	0x30c
 1493 030c 0A       		.uleb128 0xa
 1494 030d 83050000 		.4byte	.LASF59
 1495 0311 14       		.byte	0x14
 1496 0312 0A       		.byte	0xa
 1497 0313 4D01     		.2byte	0x14d
 1498 0315 5B030000 		.4byte	0x35b
 1499 0319 09       		.uleb128 0x9
 1500 031a F1010000 		.4byte	.LASF60
 1501 031e 0A       		.byte	0xa
 1502 031f 4E01     		.2byte	0x14e
 1503 0321 9B070000 		.4byte	0x79b
 1504 0325 00       		.byte	0
 1505 0326 09       		.uleb128 0x9
 1506 0327 8A010000 		.4byte	.LASF61
 1507 032b 0A       		.byte	0xa
 1508 032c 4F01     		.2byte	0x14f
 1509 032e 9B070000 		.4byte	0x79b
 1510 0332 04       		.byte	0x4
 1511 0333 09       		.uleb128 0x9
 1512 0334 F9010000 		.4byte	.LASF62
 1513 0338 0A       		.byte	0xa
 1514 0339 5001     		.2byte	0x150
 1515 033b 25010000 		.4byte	0x125
 1516 033f 08       		.byte	0x8
 1517 0340 09       		.uleb128 0x9
 1518 0341 8F070000 		.4byte	.LASF63
 1519 0345 0A       		.byte	0xa
 1520 0346 5101     		.2byte	0x151
 1521 0348 E3020000 		.4byte	0x2e3
ARM GAS  /tmp/cc9hyemz.s 			page 28


 1522 034c 0C       		.byte	0xc
 1523 034d 09       		.uleb128 0x9
 1524 034e F2060000 		.4byte	.LASF64
 1525 0352 0A       		.byte	0xa
 1526 0353 5301     		.2byte	0x153
 1527 0355 FF020000 		.4byte	0x2ff
 1528 0359 10       		.byte	0x10
 1529 035a 00       		.byte	0
 1530 035b 03       		.uleb128 0x3
 1531 035c 8B000000 		.4byte	.LASF65
 1532 0360 09       		.byte	0x9
 1533 0361 61       		.byte	0x61
 1534 0362 66030000 		.4byte	0x366
 1535 0366 0A       		.uleb128 0xa
 1536 0367 E0030000 		.4byte	.LASF66
 1537 036b 10       		.byte	0x10
 1538 036c 0A       		.byte	0xa
 1539 036d 5D01     		.2byte	0x15d
 1540 036f A8030000 		.4byte	0x3a8
 1541 0373 09       		.uleb128 0x9
 1542 0374 F1010000 		.4byte	.LASF60
 1543 0378 0A       		.byte	0xa
 1544 0379 5E01     		.2byte	0x15e
 1545 037b 9B070000 		.4byte	0x79b
 1546 037f 00       		.byte	0
 1547 0380 09       		.uleb128 0x9
 1548 0381 8A010000 		.4byte	.LASF61
 1549 0385 0A       		.byte	0xa
 1550 0386 6001     		.2byte	0x160
 1551 0388 9B070000 		.4byte	0x79b
 1552 038c 04       		.byte	0x4
 1553 038d 09       		.uleb128 0x9
 1554 038e F9010000 		.4byte	.LASF62
 1555 0392 0A       		.byte	0xa
 1556 0393 6201     		.2byte	0x162
 1557 0395 25010000 		.4byte	0x125
 1558 0399 08       		.byte	0x8
 1559 039a 09       		.uleb128 0x9
 1560 039b 11040000 		.4byte	.LASF67
 1561 039f 0A       		.byte	0xa
 1562 03a0 6A01     		.2byte	0x16a
 1563 03a2 25010000 		.4byte	0x125
 1564 03a6 0C       		.byte	0xc
 1565 03a7 00       		.byte	0
 1566 03a8 03       		.uleb128 0x3
 1567 03a9 47000000 		.4byte	.LASF68
 1568 03ad 09       		.byte	0x9
 1569 03ae 66       		.byte	0x66
 1570 03af B3030000 		.4byte	0x3b3
 1571 03b3 0A       		.uleb128 0xa
 1572 03b4 DD040000 		.4byte	.LASF69
 1573 03b8 04       		.byte	0x4
 1574 03b9 0A       		.byte	0xa
 1575 03ba 8401     		.2byte	0x184
 1576 03bc CE030000 		.4byte	0x3ce
 1577 03c0 09       		.uleb128 0x9
 1578 03c1 B1060000 		.4byte	.LASF70
ARM GAS  /tmp/cc9hyemz.s 			page 29


 1579 03c5 0A       		.byte	0xa
 1580 03c6 8C01     		.2byte	0x18c
 1581 03c8 A1070000 		.4byte	0x7a1
 1582 03cc 00       		.byte	0
 1583 03cd 00       		.byte	0
 1584 03ce 03       		.uleb128 0x3
 1585 03cf CA060000 		.4byte	.LASF71
 1586 03d3 09       		.byte	0x9
 1587 03d4 6B       		.byte	0x6b
 1588 03d5 D9030000 		.4byte	0x3d9
 1589 03d9 0F       		.uleb128 0xf
 1590 03da 21010000 		.4byte	.LASF72
 1591 03de D801     		.2byte	0x1d8
 1592 03e0 0A       		.byte	0xa
 1593 03e1 A401     		.2byte	0x1a4
 1594 03e3 35040000 		.4byte	0x435
 1595 03e7 09       		.uleb128 0x9
 1596 03e8 10070000 		.4byte	.LASF73
 1597 03ec 0A       		.byte	0xa
 1598 03ed A801     		.2byte	0x1a8
 1599 03ef 7C020000 		.4byte	0x27c
 1600 03f3 00       		.byte	0
 1601 03f4 09       		.uleb128 0x9
 1602 03f5 01010000 		.4byte	.LASF74
 1603 03f9 0A       		.byte	0xa
 1604 03fa AC01     		.2byte	0x1ac
 1605 03fc 5B030000 		.4byte	0x35b
 1606 0400 1C       		.byte	0x1c
 1607 0401 08       		.uleb128 0x8
 1608 0402 64626700 		.ascii	"dbg\000"
 1609 0406 0A       		.byte	0xa
 1610 0407 B001     		.2byte	0x1b0
 1611 0409 A8030000 		.4byte	0x3a8
 1612 040d 2C       		.byte	0x2c
 1613 040e 09       		.uleb128 0x9
 1614 040f 80000000 		.4byte	.LASF75
 1615 0413 0A       		.byte	0xa
 1616 0414 B401     		.2byte	0x1b4
 1617 0416 30010000 		.4byte	0x130
 1618 041a 30       		.byte	0x30
 1619 041b 08       		.uleb128 0x8
 1620 041c 746D00   		.ascii	"tm\000"
 1621 041f 0A       		.byte	0xa
 1622 0420 B901     		.2byte	0x1b9
 1623 0422 09070000 		.4byte	0x709
 1624 0426 74       		.byte	0x74
 1625 0427 09       		.uleb128 0x9
 1626 0428 6A050000 		.4byte	.LASF76
 1627 042c 0A       		.byte	0xa
 1628 042d C501     		.2byte	0x1c5
 1629 042f A6070000 		.4byte	0x7a6
 1630 0433 78       		.byte	0x78
 1631 0434 00       		.byte	0
 1632 0435 04       		.uleb128 0x4
 1633 0436 04       		.byte	0x4
 1634 0437 07       		.byte	0x7
 1635 0438 C5030000 		.4byte	.LASF77
ARM GAS  /tmp/cc9hyemz.s 			page 30


 1636 043c 10       		.uleb128 0x10
 1637 043d B8000000 		.4byte	0xb8
 1638 0441 4C040000 		.4byte	0x44c
 1639 0445 11       		.uleb128 0x11
 1640 0446 35040000 		.4byte	0x435
 1641 044a 01       		.byte	0x1
 1642 044b 00       		.byte	0
 1643 044c 10       		.uleb128 0x10
 1644 044d B8000000 		.4byte	0xb8
 1645 0451 5C040000 		.4byte	0x45c
 1646 0455 11       		.uleb128 0x11
 1647 0456 35040000 		.4byte	0x435
 1648 045a 03       		.byte	0x3
 1649 045b 00       		.byte	0
 1650 045c 03       		.uleb128 0x3
 1651 045d 81010000 		.4byte	.LASF78
 1652 0461 0B       		.byte	0xb
 1653 0462 85       		.byte	0x85
 1654 0463 FF020000 		.4byte	0x2ff
 1655 0467 03       		.uleb128 0x3
 1656 0468 85020000 		.4byte	.LASF79
 1657 046c 0B       		.byte	0xb
 1658 046d 8D       		.byte	0x8d
 1659 046e C3000000 		.4byte	0xc3
 1660 0472 06       		.uleb128 0x6
 1661 0473 C2060000 		.4byte	.LASF80
 1662 0477 04       		.byte	0x4
 1663 0478 0B       		.byte	0xb
 1664 0479 A9       		.byte	0xa9
 1665 047a 8B040000 		.4byte	0x48b
 1666 047e 12       		.uleb128 0x12
 1667 047f 72313300 		.ascii	"r13\000"
 1668 0483 0B       		.byte	0xb
 1669 0484 AA       		.byte	0xaa
 1670 0485 CC050000 		.4byte	0x5cc
 1671 0489 00       		.byte	0
 1672 048a 00       		.byte	0
 1673 048b 06       		.uleb128 0x6
 1674 048c 3B000000 		.4byte	.LASF81
 1675 0490 64       		.byte	0x64
 1676 0491 0C       		.byte	0xc
 1677 0492 F4       		.byte	0xf4
 1678 0493 CC050000 		.4byte	0x5cc
 1679 0497 12       		.uleb128 0x12
 1680 0498 73313600 		.ascii	"s16\000"
 1681 049c 0C       		.byte	0xc
 1682 049d F6       		.byte	0xf6
 1683 049e 5C040000 		.4byte	0x45c
 1684 04a2 00       		.byte	0
 1685 04a3 12       		.uleb128 0x12
 1686 04a4 73313700 		.ascii	"s17\000"
 1687 04a8 0C       		.byte	0xc
 1688 04a9 F7       		.byte	0xf7
 1689 04aa 5C040000 		.4byte	0x45c
 1690 04ae 04       		.byte	0x4
 1691 04af 12       		.uleb128 0x12
 1692 04b0 73313800 		.ascii	"s18\000"
ARM GAS  /tmp/cc9hyemz.s 			page 31


 1693 04b4 0C       		.byte	0xc
 1694 04b5 F8       		.byte	0xf8
 1695 04b6 5C040000 		.4byte	0x45c
 1696 04ba 08       		.byte	0x8
 1697 04bb 12       		.uleb128 0x12
 1698 04bc 73313900 		.ascii	"s19\000"
 1699 04c0 0C       		.byte	0xc
 1700 04c1 F9       		.byte	0xf9
 1701 04c2 5C040000 		.4byte	0x45c
 1702 04c6 0C       		.byte	0xc
 1703 04c7 12       		.uleb128 0x12
 1704 04c8 73323000 		.ascii	"s20\000"
 1705 04cc 0C       		.byte	0xc
 1706 04cd FA       		.byte	0xfa
 1707 04ce 5C040000 		.4byte	0x45c
 1708 04d2 10       		.byte	0x10
 1709 04d3 12       		.uleb128 0x12
 1710 04d4 73323100 		.ascii	"s21\000"
 1711 04d8 0C       		.byte	0xc
 1712 04d9 FB       		.byte	0xfb
 1713 04da 5C040000 		.4byte	0x45c
 1714 04de 14       		.byte	0x14
 1715 04df 12       		.uleb128 0x12
 1716 04e0 73323200 		.ascii	"s22\000"
 1717 04e4 0C       		.byte	0xc
 1718 04e5 FC       		.byte	0xfc
 1719 04e6 5C040000 		.4byte	0x45c
 1720 04ea 18       		.byte	0x18
 1721 04eb 12       		.uleb128 0x12
 1722 04ec 73323300 		.ascii	"s23\000"
 1723 04f0 0C       		.byte	0xc
 1724 04f1 FD       		.byte	0xfd
 1725 04f2 5C040000 		.4byte	0x45c
 1726 04f6 1C       		.byte	0x1c
 1727 04f7 12       		.uleb128 0x12
 1728 04f8 73323400 		.ascii	"s24\000"
 1729 04fc 0C       		.byte	0xc
 1730 04fd FE       		.byte	0xfe
 1731 04fe 5C040000 		.4byte	0x45c
 1732 0502 20       		.byte	0x20
 1733 0503 12       		.uleb128 0x12
 1734 0504 73323500 		.ascii	"s25\000"
 1735 0508 0C       		.byte	0xc
 1736 0509 FF       		.byte	0xff
 1737 050a 5C040000 		.4byte	0x45c
 1738 050e 24       		.byte	0x24
 1739 050f 08       		.uleb128 0x8
 1740 0510 73323600 		.ascii	"s26\000"
 1741 0514 0C       		.byte	0xc
 1742 0515 0001     		.2byte	0x100
 1743 0517 5C040000 		.4byte	0x45c
 1744 051b 28       		.byte	0x28
 1745 051c 08       		.uleb128 0x8
 1746 051d 73323700 		.ascii	"s27\000"
 1747 0521 0C       		.byte	0xc
 1748 0522 0101     		.2byte	0x101
 1749 0524 5C040000 		.4byte	0x45c
ARM GAS  /tmp/cc9hyemz.s 			page 32


 1750 0528 2C       		.byte	0x2c
 1751 0529 08       		.uleb128 0x8
 1752 052a 73323800 		.ascii	"s28\000"
 1753 052e 0C       		.byte	0xc
 1754 052f 0201     		.2byte	0x102
 1755 0531 5C040000 		.4byte	0x45c
 1756 0535 30       		.byte	0x30
 1757 0536 08       		.uleb128 0x8
 1758 0537 73323900 		.ascii	"s29\000"
 1759 053b 0C       		.byte	0xc
 1760 053c 0301     		.2byte	0x103
 1761 053e 5C040000 		.4byte	0x45c
 1762 0542 34       		.byte	0x34
 1763 0543 08       		.uleb128 0x8
 1764 0544 73333000 		.ascii	"s30\000"
 1765 0548 0C       		.byte	0xc
 1766 0549 0401     		.2byte	0x104
 1767 054b 5C040000 		.4byte	0x45c
 1768 054f 38       		.byte	0x38
 1769 0550 08       		.uleb128 0x8
 1770 0551 73333100 		.ascii	"s31\000"
 1771 0555 0C       		.byte	0xc
 1772 0556 0501     		.2byte	0x105
 1773 0558 5C040000 		.4byte	0x45c
 1774 055c 3C       		.byte	0x3c
 1775 055d 08       		.uleb128 0x8
 1776 055e 723400   		.ascii	"r4\000"
 1777 0561 0C       		.byte	0xc
 1778 0562 0701     		.2byte	0x107
 1779 0564 5C040000 		.4byte	0x45c
 1780 0568 40       		.byte	0x40
 1781 0569 08       		.uleb128 0x8
 1782 056a 723500   		.ascii	"r5\000"
 1783 056d 0C       		.byte	0xc
 1784 056e 0801     		.2byte	0x108
 1785 0570 5C040000 		.4byte	0x45c
 1786 0574 44       		.byte	0x44
 1787 0575 08       		.uleb128 0x8
 1788 0576 723600   		.ascii	"r6\000"
 1789 0579 0C       		.byte	0xc
 1790 057a 0901     		.2byte	0x109
 1791 057c 5C040000 		.4byte	0x45c
 1792 0580 48       		.byte	0x48
 1793 0581 08       		.uleb128 0x8
 1794 0582 723700   		.ascii	"r7\000"
 1795 0585 0C       		.byte	0xc
 1796 0586 0A01     		.2byte	0x10a
 1797 0588 5C040000 		.4byte	0x45c
 1798 058c 4C       		.byte	0x4c
 1799 058d 08       		.uleb128 0x8
 1800 058e 723800   		.ascii	"r8\000"
 1801 0591 0C       		.byte	0xc
 1802 0592 0B01     		.2byte	0x10b
 1803 0594 5C040000 		.4byte	0x45c
 1804 0598 50       		.byte	0x50
 1805 0599 08       		.uleb128 0x8
 1806 059a 723900   		.ascii	"r9\000"
ARM GAS  /tmp/cc9hyemz.s 			page 33


 1807 059d 0C       		.byte	0xc
 1808 059e 0C01     		.2byte	0x10c
 1809 05a0 5C040000 		.4byte	0x45c
 1810 05a4 54       		.byte	0x54
 1811 05a5 08       		.uleb128 0x8
 1812 05a6 72313000 		.ascii	"r10\000"
 1813 05aa 0C       		.byte	0xc
 1814 05ab 0D01     		.2byte	0x10d
 1815 05ad 5C040000 		.4byte	0x45c
 1816 05b1 58       		.byte	0x58
 1817 05b2 08       		.uleb128 0x8
 1818 05b3 72313100 		.ascii	"r11\000"
 1819 05b7 0C       		.byte	0xc
 1820 05b8 0E01     		.2byte	0x10e
 1821 05ba 5C040000 		.4byte	0x45c
 1822 05be 5C       		.byte	0x5c
 1823 05bf 08       		.uleb128 0x8
 1824 05c0 6C7200   		.ascii	"lr\000"
 1825 05c3 0C       		.byte	0xc
 1826 05c4 0F01     		.2byte	0x10f
 1827 05c6 5C040000 		.4byte	0x45c
 1828 05ca 60       		.byte	0x60
 1829 05cb 00       		.byte	0
 1830 05cc 0B       		.uleb128 0xb
 1831 05cd 04       		.byte	0x4
 1832 05ce 8B040000 		.4byte	0x48b
 1833 05d2 13       		.uleb128 0x13
 1834 05d3 60       		.byte	0x60
 1835 05d4 0D       		.byte	0xd
 1836 05d5 9E01     		.2byte	0x19e
 1837 05d7 DE060000 		.4byte	0x6de
 1838 05db 08       		.uleb128 0x8
 1839 05dc 43523100 		.ascii	"CR1\000"
 1840 05e0 0D       		.byte	0xd
 1841 05e1 9F01     		.2byte	0x19f
 1842 05e3 D3000000 		.4byte	0xd3
 1843 05e7 00       		.byte	0
 1844 05e8 08       		.uleb128 0x8
 1845 05e9 43523200 		.ascii	"CR2\000"
 1846 05ed 0D       		.byte	0xd
 1847 05ee A001     		.2byte	0x1a0
 1848 05f0 D3000000 		.4byte	0xd3
 1849 05f4 04       		.byte	0x4
 1850 05f5 09       		.uleb128 0x9
 1851 05f6 1B020000 		.4byte	.LASF82
 1852 05fa 0D       		.byte	0xd
 1853 05fb A101     		.2byte	0x1a1
 1854 05fd D3000000 		.4byte	0xd3
 1855 0601 08       		.byte	0x8
 1856 0602 09       		.uleb128 0x9
 1857 0603 15000000 		.4byte	.LASF83
 1858 0607 0D       		.byte	0xd
 1859 0608 A201     		.2byte	0x1a2
 1860 060a D3000000 		.4byte	0xd3
 1861 060e 0C       		.byte	0xc
 1862 060f 08       		.uleb128 0x8
 1863 0610 535200   		.ascii	"SR\000"
ARM GAS  /tmp/cc9hyemz.s 			page 34


 1864 0613 0D       		.byte	0xd
 1865 0614 A301     		.2byte	0x1a3
 1866 0616 D3000000 		.4byte	0xd3
 1867 061a 10       		.byte	0x10
 1868 061b 08       		.uleb128 0x8
 1869 061c 45475200 		.ascii	"EGR\000"
 1870 0620 0D       		.byte	0xd
 1871 0621 A401     		.2byte	0x1a4
 1872 0623 D3000000 		.4byte	0xd3
 1873 0627 14       		.byte	0x14
 1874 0628 09       		.uleb128 0x9
 1875 0629 CB000000 		.4byte	.LASF84
 1876 062d 0D       		.byte	0xd
 1877 062e A501     		.2byte	0x1a5
 1878 0630 D3000000 		.4byte	0xd3
 1879 0634 18       		.byte	0x18
 1880 0635 09       		.uleb128 0x9
 1881 0636 D1000000 		.4byte	.LASF85
 1882 063a 0D       		.byte	0xd
 1883 063b A601     		.2byte	0x1a6
 1884 063d D3000000 		.4byte	0xd3
 1885 0641 1C       		.byte	0x1c
 1886 0642 09       		.uleb128 0x9
 1887 0643 67060000 		.4byte	.LASF86
 1888 0647 0D       		.byte	0xd
 1889 0648 A701     		.2byte	0x1a7
 1890 064a D3000000 		.4byte	0xd3
 1891 064e 20       		.byte	0x20
 1892 064f 08       		.uleb128 0x8
 1893 0650 434E5400 		.ascii	"CNT\000"
 1894 0654 0D       		.byte	0xd
 1895 0655 A801     		.2byte	0x1a8
 1896 0657 D3000000 		.4byte	0xd3
 1897 065b 24       		.byte	0x24
 1898 065c 08       		.uleb128 0x8
 1899 065d 50534300 		.ascii	"PSC\000"
 1900 0661 0D       		.byte	0xd
 1901 0662 A901     		.2byte	0x1a9
 1902 0664 D3000000 		.4byte	0xd3
 1903 0668 28       		.byte	0x28
 1904 0669 08       		.uleb128 0x8
 1905 066a 41525200 		.ascii	"ARR\000"
 1906 066e 0D       		.byte	0xd
 1907 066f AA01     		.2byte	0x1aa
 1908 0671 D3000000 		.4byte	0xd3
 1909 0675 2C       		.byte	0x2c
 1910 0676 08       		.uleb128 0x8
 1911 0677 52435200 		.ascii	"RCR\000"
 1912 067b 0D       		.byte	0xd
 1913 067c AB01     		.2byte	0x1ab
 1914 067e D3000000 		.4byte	0xd3
 1915 0682 30       		.byte	0x30
 1916 0683 08       		.uleb128 0x8
 1917 0684 43435200 		.ascii	"CCR\000"
 1918 0688 0D       		.byte	0xd
 1919 0689 AC01     		.2byte	0x1ac
 1920 068b DE060000 		.4byte	0x6de
ARM GAS  /tmp/cc9hyemz.s 			page 35


 1921 068f 34       		.byte	0x34
 1922 0690 09       		.uleb128 0x9
 1923 0691 AE000000 		.4byte	.LASF87
 1924 0695 0D       		.byte	0xd
 1925 0696 AD01     		.2byte	0x1ad
 1926 0698 D3000000 		.4byte	0xd3
 1927 069c 44       		.byte	0x44
 1928 069d 08       		.uleb128 0x8
 1929 069e 44435200 		.ascii	"DCR\000"
 1930 06a2 0D       		.byte	0xd
 1931 06a3 AE01     		.2byte	0x1ae
 1932 06a5 D3000000 		.4byte	0xd3
 1933 06a9 48       		.byte	0x48
 1934 06aa 09       		.uleb128 0x9
 1935 06ab 4E060000 		.4byte	.LASF88
 1936 06af 0D       		.byte	0xd
 1937 06b0 AF01     		.2byte	0x1af
 1938 06b2 D3000000 		.4byte	0xd3
 1939 06b6 4C       		.byte	0x4c
 1940 06b7 08       		.uleb128 0x8
 1941 06b8 4F5200   		.ascii	"OR\000"
 1942 06bb 0D       		.byte	0xd
 1943 06bc B001     		.2byte	0x1b0
 1944 06be D3000000 		.4byte	0xd3
 1945 06c2 50       		.byte	0x50
 1946 06c3 09       		.uleb128 0x9
 1947 06c4 D7000000 		.4byte	.LASF89
 1948 06c8 0D       		.byte	0xd
 1949 06c9 B101     		.2byte	0x1b1
 1950 06cb D3000000 		.4byte	0xd3
 1951 06cf 54       		.byte	0x54
 1952 06d0 09       		.uleb128 0x9
 1953 06d1 9D050000 		.4byte	.LASF90
 1954 06d5 0D       		.byte	0xd
 1955 06d6 B201     		.2byte	0x1b2
 1956 06d8 E3060000 		.4byte	0x6e3
 1957 06dc 58       		.byte	0x58
 1958 06dd 00       		.byte	0
 1959 06de 05       		.uleb128 0x5
 1960 06df 4C040000 		.4byte	0x44c
 1961 06e3 05       		.uleb128 0x5
 1962 06e4 3C040000 		.4byte	0x43c
 1963 06e8 14       		.uleb128 0x14
 1964 06e9 4D020000 		.4byte	.LASF91
 1965 06ed 0D       		.byte	0xd
 1966 06ee B301     		.2byte	0x1b3
 1967 06f0 D2050000 		.4byte	0x5d2
 1968 06f4 15       		.uleb128 0x15
 1969 06f5 04       		.byte	0x4
 1970 06f6 0E       		.byte	0xe
 1971 06f7 38       		.byte	0x38
 1972 06f8 09070000 		.4byte	0x709
 1973 06fc 07       		.uleb128 0x7
 1974 06fd BB060000 		.4byte	.LASF92
 1975 0701 0E       		.byte	0xe
 1976 0702 3C       		.byte	0x3c
 1977 0703 D8000000 		.4byte	0xd8
ARM GAS  /tmp/cc9hyemz.s 			page 36


 1978 0707 00       		.byte	0
 1979 0708 00       		.byte	0
 1980 0709 03       		.uleb128 0x3
 1981 070a 00040000 		.4byte	.LASF93
 1982 070e 0E       		.byte	0xe
 1983 070f 3D       		.byte	0x3d
 1984 0710 F4060000 		.4byte	0x6f4
 1985 0714 0B       		.uleb128 0xb
 1986 0715 04       		.byte	0x4
 1987 0716 30010000 		.4byte	0x130
 1988 071a 16       		.uleb128 0x16
 1989 071b 04       		.byte	0x4
 1990 071c 0A       		.byte	0xa
 1991 071d F6       		.byte	0xf6
 1992 071e 52070000 		.4byte	0x752
 1993 0722 17       		.uleb128 0x17
 1994 0723 21000000 		.4byte	.LASF94
 1995 0727 0A       		.byte	0xa
 1996 0728 FD       		.byte	0xfd
 1997 0729 0F010000 		.4byte	0x10f
 1998 072d 18       		.uleb128 0x18
 1999 072e 77000000 		.4byte	.LASF95
 2000 0732 0A       		.byte	0xa
 2001 0733 0401     		.2byte	0x104
 2002 0735 0F010000 		.4byte	0x10f
 2003 0739 18       		.uleb128 0x18
 2004 073a 2C070000 		.4byte	.LASF96
 2005 073e 0A       		.byte	0xa
 2006 073f 0B01     		.2byte	0x10b
 2007 0741 FF020000 		.4byte	0x2ff
 2008 0745 18       		.uleb128 0x18
 2009 0746 4B050000 		.4byte	.LASF97
 2010 074a 0A       		.byte	0xa
 2011 074b 1201     		.2byte	0x112
 2012 074d 1A010000 		.4byte	0x11a
 2013 0751 00       		.byte	0
 2014 0752 0B       		.uleb128 0xb
 2015 0753 04       		.byte	0x4
 2016 0754 58070000 		.4byte	0x758
 2017 0758 19       		.uleb128 0x19
 2018 0759 5D070000 		.4byte	0x75d
 2019 075d 04       		.uleb128 0x4
 2020 075e 01       		.byte	0x1
 2021 075f 08       		.byte	0x8
 2022 0760 3C060000 		.4byte	.LASF98
 2023 0764 06       		.uleb128 0x6
 2024 0765 D7040000 		.4byte	.LASF99
 2025 0769 10       		.byte	0x10
 2026 076a 0F       		.byte	0xf
 2027 076b 39       		.byte	0x39
 2028 076c 95070000 		.4byte	0x795
 2029 0770 07       		.uleb128 0x7
 2030 0771 E9000000 		.4byte	.LASF100
 2031 0775 0F       		.byte	0xf
 2032 0776 3A       		.byte	0x3a
 2033 0777 4C020000 		.4byte	0x24c
 2034 077b 00       		.byte	0
ARM GAS  /tmp/cc9hyemz.s 			page 37


 2035 077c 07       		.uleb128 0x7
 2036 077d 81070000 		.4byte	.LASF101
 2037 0781 0F       		.byte	0xf
 2038 0782 3C       		.byte	0x3c
 2039 0783 14070000 		.4byte	0x714
 2040 0787 08       		.byte	0x8
 2041 0788 07       		.uleb128 0x7
 2042 0789 6C060000 		.4byte	.LASF102
 2043 078d 0F       		.byte	0xf
 2044 078e 3E       		.byte	0x3e
 2045 078f E1070000 		.4byte	0x7e1
 2046 0793 0C       		.byte	0xc
 2047 0794 00       		.byte	0
 2048 0795 0B       		.uleb128 0xb
 2049 0796 04       		.byte	0x4
 2050 0797 64070000 		.4byte	0x764
 2051 079b 0B       		.uleb128 0xb
 2052 079c 04       		.byte	0x4
 2053 079d 01030000 		.4byte	0x301
 2054 07a1 05       		.uleb128 0x5
 2055 07a2 52070000 		.4byte	0x752
 2056 07a6 10       		.uleb128 0x10
 2057 07a7 67040000 		.4byte	0x467
 2058 07ab B6070000 		.4byte	0x7b6
 2059 07af 11       		.uleb128 0x11
 2060 07b0 35040000 		.4byte	0x435
 2061 07b4 2B       		.byte	0x2b
 2062 07b5 00       		.byte	0
 2063 07b6 03       		.uleb128 0x3
 2064 07b7 00000000 		.4byte	.LASF103
 2065 07bb 02       		.byte	0x2
 2066 07bc 37       		.byte	0x37
 2067 07bd C1070000 		.4byte	0x7c1
 2068 07c1 0B       		.uleb128 0xb
 2069 07c2 04       		.byte	0x4
 2070 07c3 C7070000 		.4byte	0x7c7
 2071 07c7 1A       		.uleb128 0x1a
 2072 07c8 0F010000 		.4byte	0x10f
 2073 07cc D6070000 		.4byte	0x7d6
 2074 07d0 0D       		.uleb128 0xd
 2075 07d1 FF020000 		.4byte	0x2ff
 2076 07d5 00       		.byte	0
 2077 07d6 03       		.uleb128 0x3
 2078 07d7 79070000 		.4byte	.LASF104
 2079 07db 0F       		.byte	0xf
 2080 07dc 34       		.byte	0x34
 2081 07dd 64070000 		.4byte	0x764
 2082 07e1 0B       		.uleb128 0xb
 2083 07e2 04       		.byte	0x4
 2084 07e3 D6070000 		.4byte	0x7d6
 2085 07e7 06       		.uleb128 0x6
 2086 07e8 94050000 		.4byte	.LASF105
 2087 07ec 10       		.byte	0x10
 2088 07ed 10       		.byte	0x10
 2089 07ee 3B       		.byte	0x3b
 2090 07ef 24080000 		.4byte	0x824
 2091 07f3 07       		.uleb128 0x7
ARM GAS  /tmp/cc9hyemz.s 			page 38


 2092 07f4 16020000 		.4byte	.LASF106
 2093 07f8 10       		.byte	0x10
 2094 07f9 3C       		.byte	0x3c
 2095 07fa 52070000 		.4byte	0x752
 2096 07fe 00       		.byte	0
 2097 07ff 07       		.uleb128 0x7
 2098 0800 4F040000 		.4byte	.LASF107
 2099 0804 10       		.byte	0x10
 2100 0805 3D       		.byte	0x3d
 2101 0806 25080000 		.4byte	0x825
 2102 080a 04       		.byte	0x4
 2103 080b 07       		.uleb128 0x7
 2104 080c 0D020000 		.4byte	.LASF108
 2105 0810 10       		.byte	0x10
 2106 0811 3E       		.byte	0x3e
 2107 0812 25080000 		.4byte	0x825
 2108 0816 08       		.byte	0x8
 2109 0817 07       		.uleb128 0x7
 2110 0818 18050000 		.4byte	.LASF109
 2111 081c 10       		.byte	0x10
 2112 081d 3F       		.byte	0x3f
 2113 081e 25080000 		.4byte	0x825
 2114 0822 0C       		.byte	0xc
 2115 0823 00       		.byte	0
 2116 0824 1B       		.uleb128 0x1b
 2117 0825 0B       		.uleb128 0xb
 2118 0826 04       		.byte	0x4
 2119 0827 24080000 		.4byte	0x824
 2120 082b 1C       		.uleb128 0x1c
 2121 082c 9C060000 		.4byte	.LASF116
 2122 0830 03       		.byte	0x3
 2123 0831 2002     		.2byte	0x220
 2124 0833 03       		.byte	0x3
 2125 0834 45080000 		.4byte	0x845
 2126 0838 1D       		.uleb128 0x1d
 2127 0839 AD010000 		.4byte	.LASF149
 2128 083d 03       		.byte	0x3
 2129 083e 2002     		.2byte	0x220
 2130 0840 B8000000 		.4byte	0xb8
 2131 0844 00       		.byte	0
 2132 0845 1E       		.uleb128 0x1e
 2133 0846 B8050000 		.4byte	.LASF112
 2134 084a 04       		.byte	0x4
 2135 084b 7E       		.byte	0x7e
 2136 084c 25010000 		.4byte	0x125
 2137 0850 03       		.byte	0x3
 2138 0851 1F       		.uleb128 0x1f
 2139 0852 56000000 		.4byte	.LASF110
 2140 0856 0C       		.byte	0xc
 2141 0857 BB01     		.2byte	0x1bb
 2142 0859 03       		.byte	0x3
 2143 085a 1F       		.uleb128 0x1f
 2144 085b 08010000 		.4byte	.LASF111
 2145 085f 0C       		.byte	0xc
 2146 0860 C901     		.2byte	0x1c9
 2147 0862 03       		.byte	0x3
 2148 0863 1E       		.uleb128 0x1e
ARM GAS  /tmp/cc9hyemz.s 			page 39


 2149 0864 D6060000 		.4byte	.LASF113
 2150 0868 11       		.byte	0x11
 2151 0869 69       		.byte	0x69
 2152 086a 25010000 		.4byte	0x125
 2153 086e 03       		.byte	0x3
 2154 086f 1F       		.uleb128 0x1f
 2155 0870 79050000 		.4byte	.LASF114
 2156 0874 12       		.byte	0x12
 2157 0875 2901     		.2byte	0x129
 2158 0877 03       		.byte	0x3
 2159 0878 1E       		.uleb128 0x1e
 2160 0879 C4010000 		.4byte	.LASF115
 2161 087d 13       		.byte	0x13
 2162 087e E2       		.byte	0xe2
 2163 087f 25010000 		.4byte	0x125
 2164 0883 03       		.byte	0x3
 2165 0884 1C       		.uleb128 0x1c
 2166 0885 5E070000 		.4byte	.LASF117
 2167 0889 12       		.byte	0x12
 2168 088a 3501     		.2byte	0x135
 2169 088c 03       		.byte	0x3
 2170 088d 9F080000 		.4byte	0x89f
 2171 0891 20       		.uleb128 0x20
 2172 0892 61050000 		.4byte	.LASF120
 2173 0896 AF080000 		.4byte	0x8af
 2174 089a 5E070000 		.4byte	.LASF117
 2175 089e 00       		.byte	0
 2176 089f 10       		.uleb128 0x10
 2177 08a0 5D070000 		.4byte	0x75d
 2178 08a4 AF080000 		.4byte	0x8af
 2179 08a8 11       		.uleb128 0x11
 2180 08a9 35040000 		.4byte	0x435
 2181 08ad 0B       		.byte	0xb
 2182 08ae 00       		.byte	0
 2183 08af 19       		.uleb128 0x19
 2184 08b0 9F080000 		.4byte	0x89f
 2185 08b4 1E       		.uleb128 0x1e
 2186 08b5 16070000 		.4byte	.LASF118
 2187 08b9 02       		.byte	0x2
 2188 08ba B1       		.byte	0xb1
 2189 08bb 14070000 		.4byte	0x714
 2190 08bf 03       		.byte	0x3
 2191 08c0 1E       		.uleb128 0x1e
 2192 08c1 3D040000 		.4byte	.LASF119
 2193 08c5 02       		.byte	0x2
 2194 08c6 BE       		.byte	0xbe
 2195 08c7 04010000 		.4byte	0x104
 2196 08cb 03       		.byte	0x3
 2197 08cc 21       		.uleb128 0x21
 2198 08cd D4050000 		.4byte	.LASF150
 2199 08d1 13       		.byte	0x13
 2200 08d2 F5       		.byte	0xf5
 2201 08d3 25010000 		.4byte	0x125
 2202 08d7 03       		.byte	0x3
 2203 08d8 E8080000 		.4byte	0x8e8
 2204 08dc 22       		.uleb128 0x22
 2205 08dd 59020000 		.4byte	.LASF121
ARM GAS  /tmp/cc9hyemz.s 			page 40


 2206 08e1 13       		.byte	0x13
 2207 08e2 F6       		.byte	0xf6
 2208 08e3 25010000 		.4byte	0x125
 2209 08e7 00       		.byte	0
 2210 08e8 23       		.uleb128 0x23
 2211 08e9 41060000 		.4byte	.LASF122
 2212 08ed 01       		.byte	0x1
 2213 08ee BD       		.byte	0xbd
 2214 08ef 01       		.byte	0x1
 2215 08f0 00090000 		.4byte	0x900
 2216 08f4 22       		.uleb128 0x22
 2217 08f5 6B040000 		.4byte	.LASF123
 2218 08f9 01       		.byte	0x1
 2219 08fa BE       		.byte	0xbe
 2220 08fb 25010000 		.4byte	0x125
 2221 08ff 00       		.byte	0
 2222 0900 24       		.uleb128 0x24
 2223 0901 92010000 		.4byte	.LASF124
 2224 0905 01       		.byte	0x1
 2225 0906 42       		.byte	0x42
 2226 0907 00000000 		.4byte	.LFB227
 2227 090b C8000000 		.4byte	.LFE227-.LFB227
 2228 090f 01       		.uleb128 0x1
 2229 0910 9C       		.byte	0x9c
 2230 0911 720A0000 		.4byte	0xa72
 2231 0915 25       		.uleb128 0x25
 2232 0916 C0080000 		.4byte	0x8c0
 2233 091a 02000000 		.4byte	.LBB257
 2234 091e 00000000 		.4byte	.Ldebug_ranges0+0
 2235 0922 01       		.byte	0x1
 2236 0923 44       		.byte	0x44
 2237 0924 38090000 		.4byte	0x938
 2238 0928 26       		.uleb128 0x26
 2239 0929 B4080000 		.4byte	0x8b4
 2240 092d 02000000 		.4byte	.LBB259
 2241 0931 02000000 		.4byte	.LBE259-.LBB259
 2242 0935 02       		.byte	0x2
 2243 0936 C0       		.byte	0xc0
 2244 0937 00       		.byte	0
 2245 0938 26       		.uleb128 0x26
 2246 0939 C0080000 		.4byte	0x8c0
 2247 093d 22000000 		.4byte	.LBB263
 2248 0941 02000000 		.4byte	.LBE263-.LBB263
 2249 0945 01       		.byte	0x1
 2250 0946 45       		.byte	0x45
 2251 0947 26       		.uleb128 0x26
 2252 0948 C0080000 		.4byte	0x8c0
 2253 094c 3C000000 		.4byte	.LBB265
 2254 0950 02000000 		.4byte	.LBE265-.LBB265
 2255 0954 01       		.byte	0x1
 2256 0955 46       		.byte	0x46
 2257 0956 26       		.uleb128 0x26
 2258 0957 C0080000 		.4byte	0x8c0
 2259 095b 56000000 		.4byte	.LBB267
 2260 095f 02000000 		.4byte	.LBE267-.LBB267
 2261 0963 01       		.byte	0x1
 2262 0964 47       		.byte	0x47
ARM GAS  /tmp/cc9hyemz.s 			page 41


 2263 0965 26       		.uleb128 0x26
 2264 0966 C0080000 		.4byte	0x8c0
 2265 096a 70000000 		.4byte	.LBB269
 2266 096e 02000000 		.4byte	.LBE269-.LBB269
 2267 0972 01       		.byte	0x1
 2268 0973 48       		.byte	0x48
 2269 0974 27       		.uleb128 0x27
 2270 0975 22000000 		.4byte	.LVL0
 2271 0979 8C140000 		.4byte	0x148c
 2272 097d A0090000 		.4byte	0x9a0
 2273 0981 28       		.uleb128 0x28
 2274 0982 01       		.uleb128 0x1
 2275 0983 53       		.byte	0x53
 2276 0984 02       		.uleb128 0x2
 2277 0985 75       		.byte	0x75
 2278 0986 00       		.sleb128 0
 2279 0987 28       		.uleb128 0x28
 2280 0988 01       		.uleb128 0x1
 2281 0989 51       		.byte	0x51
 2282 098a 03       		.uleb128 0x3
 2283 098b 0A       		.byte	0xa
 2284 098c D001     		.2byte	0x1d0
 2285 098e 28       		.uleb128 0x28
 2286 098f 01       		.uleb128 0x1
 2287 0990 50       		.byte	0x50
 2288 0991 03       		.uleb128 0x3
 2289 0992 76       		.byte	0x76
 2290 0993 00       		.sleb128 0
 2291 0994 06       		.byte	0x6
 2292 0995 28       		.uleb128 0x28
 2293 0996 02       		.uleb128 0x2
 2294 0997 7D       		.byte	0x7d
 2295 0998 00       		.sleb128 0
 2296 0999 05       		.uleb128 0x5
 2297 099a 03       		.byte	0x3
 2298 099b 00000000 		.4byte	.LC0
 2299 099f 00       		.byte	0
 2300 09a0 27       		.uleb128 0x27
 2301 09a1 3C000000 		.4byte	.LVL1
 2302 09a5 8C140000 		.4byte	0x148c
 2303 09a9 CC090000 		.4byte	0x9cc
 2304 09ad 28       		.uleb128 0x28
 2305 09ae 01       		.uleb128 0x1
 2306 09af 53       		.byte	0x53
 2307 09b0 02       		.uleb128 0x2
 2308 09b1 75       		.byte	0x75
 2309 09b2 00       		.sleb128 0
 2310 09b3 28       		.uleb128 0x28
 2311 09b4 01       		.uleb128 0x1
 2312 09b5 51       		.byte	0x51
 2313 09b6 03       		.uleb128 0x3
 2314 09b7 0A       		.byte	0xa
 2315 09b8 D001     		.2byte	0x1d0
 2316 09ba 28       		.uleb128 0x28
 2317 09bb 01       		.uleb128 0x1
 2318 09bc 50       		.byte	0x50
 2319 09bd 03       		.uleb128 0x3
ARM GAS  /tmp/cc9hyemz.s 			page 42


 2320 09be 76       		.byte	0x76
 2321 09bf 04       		.sleb128 4
 2322 09c0 06       		.byte	0x6
 2323 09c1 28       		.uleb128 0x28
 2324 09c2 02       		.uleb128 0x2
 2325 09c3 7D       		.byte	0x7d
 2326 09c4 00       		.sleb128 0
 2327 09c5 05       		.uleb128 0x5
 2328 09c6 03       		.byte	0x3
 2329 09c7 04000000 		.4byte	.LC1
 2330 09cb 00       		.byte	0
 2331 09cc 27       		.uleb128 0x27
 2332 09cd 56000000 		.4byte	.LVL2
 2333 09d1 8C140000 		.4byte	0x148c
 2334 09d5 F8090000 		.4byte	0x9f8
 2335 09d9 28       		.uleb128 0x28
 2336 09da 01       		.uleb128 0x1
 2337 09db 53       		.byte	0x53
 2338 09dc 02       		.uleb128 0x2
 2339 09dd 75       		.byte	0x75
 2340 09de 00       		.sleb128 0
 2341 09df 28       		.uleb128 0x28
 2342 09e0 01       		.uleb128 0x1
 2343 09e1 51       		.byte	0x51
 2344 09e2 03       		.uleb128 0x3
 2345 09e3 0A       		.byte	0xa
 2346 09e4 D001     		.2byte	0x1d0
 2347 09e6 28       		.uleb128 0x28
 2348 09e7 01       		.uleb128 0x1
 2349 09e8 50       		.byte	0x50
 2350 09e9 03       		.uleb128 0x3
 2351 09ea 76       		.byte	0x76
 2352 09eb 08       		.sleb128 8
 2353 09ec 06       		.byte	0x6
 2354 09ed 28       		.uleb128 0x28
 2355 09ee 02       		.uleb128 0x2
 2356 09ef 7D       		.byte	0x7d
 2357 09f0 00       		.sleb128 0
 2358 09f1 05       		.uleb128 0x5
 2359 09f2 03       		.byte	0x3
 2360 09f3 08000000 		.4byte	.LC2
 2361 09f7 00       		.byte	0
 2362 09f8 27       		.uleb128 0x27
 2363 09f9 70000000 		.4byte	.LVL3
 2364 09fd 8C140000 		.4byte	0x148c
 2365 0a01 240A0000 		.4byte	0xa24
 2366 0a05 28       		.uleb128 0x28
 2367 0a06 01       		.uleb128 0x1
 2368 0a07 53       		.byte	0x53
 2369 0a08 02       		.uleb128 0x2
 2370 0a09 75       		.byte	0x75
 2371 0a0a 00       		.sleb128 0
 2372 0a0b 28       		.uleb128 0x28
 2373 0a0c 01       		.uleb128 0x1
 2374 0a0d 51       		.byte	0x51
 2375 0a0e 03       		.uleb128 0x3
 2376 0a0f 0A       		.byte	0xa
ARM GAS  /tmp/cc9hyemz.s 			page 43


 2377 0a10 D001     		.2byte	0x1d0
 2378 0a12 28       		.uleb128 0x28
 2379 0a13 01       		.uleb128 0x1
 2380 0a14 50       		.byte	0x50
 2381 0a15 03       		.uleb128 0x3
 2382 0a16 76       		.byte	0x76
 2383 0a17 0C       		.sleb128 12
 2384 0a18 06       		.byte	0x6
 2385 0a19 28       		.uleb128 0x28
 2386 0a1a 02       		.uleb128 0x2
 2387 0a1b 7D       		.byte	0x7d
 2388 0a1c 00       		.sleb128 0
 2389 0a1d 05       		.uleb128 0x5
 2390 0a1e 03       		.byte	0x3
 2391 0a1f 0C000000 		.4byte	.LC3
 2392 0a23 00       		.byte	0
 2393 0a24 27       		.uleb128 0x27
 2394 0a25 8A000000 		.4byte	.LVL4
 2395 0a29 8C140000 		.4byte	0x148c
 2396 0a2d 500A0000 		.4byte	0xa50
 2397 0a31 28       		.uleb128 0x28
 2398 0a32 01       		.uleb128 0x1
 2399 0a33 53       		.byte	0x53
 2400 0a34 02       		.uleb128 0x2
 2401 0a35 75       		.byte	0x75
 2402 0a36 00       		.sleb128 0
 2403 0a37 28       		.uleb128 0x28
 2404 0a38 01       		.uleb128 0x1
 2405 0a39 51       		.byte	0x51
 2406 0a3a 03       		.uleb128 0x3
 2407 0a3b 0A       		.byte	0xa
 2408 0a3c D001     		.2byte	0x1d0
 2409 0a3e 28       		.uleb128 0x28
 2410 0a3f 01       		.uleb128 0x1
 2411 0a40 50       		.byte	0x50
 2412 0a41 03       		.uleb128 0x3
 2413 0a42 76       		.byte	0x76
 2414 0a43 10       		.sleb128 16
 2415 0a44 06       		.byte	0x6
 2416 0a45 28       		.uleb128 0x28
 2417 0a46 02       		.uleb128 0x2
 2418 0a47 7D       		.byte	0x7d
 2419 0a48 00       		.sleb128 0
 2420 0a49 05       		.uleb128 0x5
 2421 0a4a 03       		.byte	0x3
 2422 0a4b 10000000 		.4byte	.LC4
 2423 0a4f 00       		.byte	0
 2424 0a50 29       		.uleb128 0x29
 2425 0a51 90000000 		.4byte	.LVL5
 2426 0a55 B5140000 		.4byte	0x14b5
 2427 0a59 2A       		.uleb128 0x2a
 2428 0a5a 9E000000 		.4byte	.LVL6
 2429 0a5e BC140000 		.4byte	0x14bc
 2430 0a62 28       		.uleb128 0x28
 2431 0a63 01       		.uleb128 0x1
 2432 0a64 51       		.byte	0x51
 2433 0a65 05       		.uleb128 0x5
ARM GAS  /tmp/cc9hyemz.s 			page 44


 2434 0a66 03       		.byte	0x3
 2435 0a67 14000000 		.4byte	.LC5
 2436 0a6b 28       		.uleb128 0x28
 2437 0a6c 01       		.uleb128 0x1
 2438 0a6d 50       		.byte	0x50
 2439 0a6e 01       		.uleb128 0x1
 2440 0a6f 31       		.byte	0x31
 2441 0a70 00       		.byte	0
 2442 0a71 00       		.byte	0
 2443 0a72 2B       		.uleb128 0x2b
 2444 0a73 AA060000 		.4byte	.LASF151
 2445 0a77 01       		.byte	0x1
 2446 0a78 3C       		.byte	0x3c
 2447 0a79 0F010000 		.4byte	0x10f
 2448 0a7d 00000000 		.4byte	.LFB226
 2449 0a81 0C000000 		.4byte	.LFE226-.LFB226
 2450 0a85 01       		.uleb128 0x1
 2451 0a86 9C       		.byte	0x9c
 2452 0a87 A20A0000 		.4byte	0xaa2
 2453 0a8b 2C       		.uleb128 0x2c
 2454 0a8c 7000     		.ascii	"p\000"
 2455 0a8e 01       		.byte	0x1
 2456 0a8f 3C       		.byte	0x3c
 2457 0a90 FF020000 		.4byte	0x2ff
 2458 0a94 00000000 		.4byte	.LLST0
 2459 0a98 29       		.uleb128 0x29
 2460 0a99 08000000 		.4byte	.LVL9
 2461 0a9d E3140000 		.4byte	0x14e3
 2462 0aa1 00       		.byte	0
 2463 0aa2 24       		.uleb128 0x24
 2464 0aa3 E4010000 		.4byte	.LASF125
 2465 0aa7 01       		.byte	0x1
 2466 0aa8 5E       		.byte	0x5e
 2467 0aa9 00000000 		.4byte	.LFB228
 2468 0aad D8000000 		.4byte	.LFE228-.LFB228
 2469 0ab1 01       		.uleb128 0x1
 2470 0ab2 9C       		.byte	0x9c
 2471 0ab3 A00C0000 		.4byte	0xca0
 2472 0ab7 25       		.uleb128 0x25
 2473 0ab8 C0080000 		.4byte	0x8c0
 2474 0abc 02000000 		.4byte	.LBB271
 2475 0ac0 18000000 		.4byte	.Ldebug_ranges0+0x18
 2476 0ac4 01       		.byte	0x1
 2477 0ac5 60       		.byte	0x60
 2478 0ac6 DA0A0000 		.4byte	0xada
 2479 0aca 26       		.uleb128 0x26
 2480 0acb B4080000 		.4byte	0x8b4
 2481 0acf 02000000 		.4byte	.LBB273
 2482 0ad3 02000000 		.4byte	.LBE273-.LBB273
 2483 0ad7 02       		.byte	0x2
 2484 0ad8 C0       		.byte	0xc0
 2485 0ad9 00       		.byte	0
 2486 0ada 26       		.uleb128 0x26
 2487 0adb C0080000 		.4byte	0x8c0
 2488 0adf 22000000 		.4byte	.LBB277
 2489 0ae3 02000000 		.4byte	.LBE277-.LBB277
 2490 0ae7 01       		.byte	0x1
ARM GAS  /tmp/cc9hyemz.s 			page 45


 2491 0ae8 61       		.byte	0x61
 2492 0ae9 26       		.uleb128 0x26
 2493 0aea C0080000 		.4byte	0x8c0
 2494 0aee 3C000000 		.4byte	.LBB279
 2495 0af2 02000000 		.4byte	.LBE279-.LBB279
 2496 0af6 01       		.byte	0x1
 2497 0af7 62       		.byte	0x62
 2498 0af8 26       		.uleb128 0x26
 2499 0af9 C0080000 		.4byte	0x8c0
 2500 0afd 56000000 		.4byte	.LBB281
 2501 0b01 02000000 		.4byte	.LBE281-.LBB281
 2502 0b05 01       		.byte	0x1
 2503 0b06 63       		.byte	0x63
 2504 0b07 25       		.uleb128 0x25
 2505 0b08 6F080000 		.4byte	0x86f
 2506 0b0c 70000000 		.4byte	.LBB283
 2507 0b10 30000000 		.4byte	.Ldebug_ranges0+0x30
 2508 0b14 01       		.byte	0x1
 2509 0b15 65       		.byte	0x65
 2510 0b16 430B0000 		.4byte	0xb43
 2511 0b1a 2D       		.uleb128 0x2d
 2512 0b1b 51080000 		.4byte	0x851
 2513 0b1f 70000000 		.4byte	.LBB284
 2514 0b23 30000000 		.4byte	.Ldebug_ranges0+0x30
 2515 0b27 12       		.byte	0x12
 2516 0b28 2B01     		.2byte	0x12b
 2517 0b2a 2D       		.uleb128 0x2d
 2518 0b2b 2B080000 		.4byte	0x82b
 2519 0b2f 70000000 		.4byte	.LBB285
 2520 0b33 30000000 		.4byte	.Ldebug_ranges0+0x30
 2521 0b37 0C       		.byte	0xc
 2522 0b38 BE01     		.2byte	0x1be
 2523 0b3a 2E       		.uleb128 0x2e
 2524 0b3b 38080000 		.4byte	0x838
 2525 0b3f 20       		.byte	0x20
 2526 0b40 00       		.byte	0
 2527 0b41 00       		.byte	0
 2528 0b42 00       		.byte	0
 2529 0b43 26       		.uleb128 0x26
 2530 0b44 C0080000 		.4byte	0x8c0
 2531 0b48 78000000 		.4byte	.LBB291
 2532 0b4c 02000000 		.4byte	.LBE291-.LBB291
 2533 0b50 01       		.byte	0x1
 2534 0b51 66       		.byte	0x66
 2535 0b52 25       		.uleb128 0x25
 2536 0b53 84080000 		.4byte	0x884
 2537 0b57 8E000000 		.4byte	.LBB293
 2538 0b5b 48000000 		.4byte	.Ldebug_ranges0+0x48
 2539 0b5f 01       		.byte	0x1
 2540 0b60 67       		.byte	0x67
 2541 0b61 990B0000 		.4byte	0xb99
 2542 0b65 2F       		.uleb128 0x2f
 2543 0b66 48000000 		.4byte	.Ldebug_ranges0+0x48
 2544 0b6a 30       		.uleb128 0x30
 2545 0b6b 91080000 		.4byte	0x891
 2546 0b6f 2D       		.uleb128 0x2d
 2547 0b70 5A080000 		.4byte	0x85a
ARM GAS  /tmp/cc9hyemz.s 			page 46


 2548 0b74 8E000000 		.4byte	.LBB295
 2549 0b78 48000000 		.4byte	.Ldebug_ranges0+0x48
 2550 0b7c 12       		.byte	0x12
 2551 0b7d 4101     		.2byte	0x141
 2552 0b7f 2D       		.uleb128 0x2d
 2553 0b80 2B080000 		.4byte	0x82b
 2554 0b84 8E000000 		.4byte	.LBB296
 2555 0b88 48000000 		.4byte	.Ldebug_ranges0+0x48
 2556 0b8c 0C       		.byte	0xc
 2557 0b8d CC01     		.2byte	0x1cc
 2558 0b8f 2E       		.uleb128 0x2e
 2559 0b90 38080000 		.4byte	0x838
 2560 0b94 00       		.byte	0
 2561 0b95 00       		.byte	0
 2562 0b96 00       		.byte	0
 2563 0b97 00       		.byte	0
 2564 0b98 00       		.byte	0
 2565 0b99 27       		.uleb128 0x27
 2566 0b9a 22000000 		.4byte	.LVL10
 2567 0b9e 8C140000 		.4byte	0x148c
 2568 0ba2 C50B0000 		.4byte	0xbc5
 2569 0ba6 28       		.uleb128 0x28
 2570 0ba7 01       		.uleb128 0x1
 2571 0ba8 53       		.byte	0x53
 2572 0ba9 02       		.uleb128 0x2
 2573 0baa 75       		.byte	0x75
 2574 0bab 00       		.sleb128 0
 2575 0bac 28       		.uleb128 0x28
 2576 0bad 01       		.uleb128 0x1
 2577 0bae 51       		.byte	0x51
 2578 0baf 03       		.uleb128 0x3
 2579 0bb0 0A       		.byte	0xa
 2580 0bb1 D001     		.2byte	0x1d0
 2581 0bb3 28       		.uleb128 0x28
 2582 0bb4 01       		.uleb128 0x1
 2583 0bb5 50       		.byte	0x50
 2584 0bb6 03       		.uleb128 0x3
 2585 0bb7 76       		.byte	0x76
 2586 0bb8 04       		.sleb128 4
 2587 0bb9 06       		.byte	0x6
 2588 0bba 28       		.uleb128 0x28
 2589 0bbb 02       		.uleb128 0x2
 2590 0bbc 7D       		.byte	0x7d
 2591 0bbd 00       		.sleb128 0
 2592 0bbe 05       		.uleb128 0x5
 2593 0bbf 03       		.byte	0x3
 2594 0bc0 04000000 		.4byte	.LC1
 2595 0bc4 00       		.byte	0
 2596 0bc5 27       		.uleb128 0x27
 2597 0bc6 3C000000 		.4byte	.LVL11
 2598 0bca 8C140000 		.4byte	0x148c
 2599 0bce F10B0000 		.4byte	0xbf1
 2600 0bd2 28       		.uleb128 0x28
 2601 0bd3 01       		.uleb128 0x1
 2602 0bd4 53       		.byte	0x53
 2603 0bd5 02       		.uleb128 0x2
 2604 0bd6 75       		.byte	0x75
ARM GAS  /tmp/cc9hyemz.s 			page 47


 2605 0bd7 00       		.sleb128 0
 2606 0bd8 28       		.uleb128 0x28
 2607 0bd9 01       		.uleb128 0x1
 2608 0bda 51       		.byte	0x51
 2609 0bdb 03       		.uleb128 0x3
 2610 0bdc 0A       		.byte	0xa
 2611 0bdd D001     		.2byte	0x1d0
 2612 0bdf 28       		.uleb128 0x28
 2613 0be0 01       		.uleb128 0x1
 2614 0be1 50       		.byte	0x50
 2615 0be2 03       		.uleb128 0x3
 2616 0be3 76       		.byte	0x76
 2617 0be4 00       		.sleb128 0
 2618 0be5 06       		.byte	0x6
 2619 0be6 28       		.uleb128 0x28
 2620 0be7 02       		.uleb128 0x2
 2621 0be8 7D       		.byte	0x7d
 2622 0be9 00       		.sleb128 0
 2623 0bea 05       		.uleb128 0x5
 2624 0beb 03       		.byte	0x3
 2625 0bec 00000000 		.4byte	.LC0
 2626 0bf0 00       		.byte	0
 2627 0bf1 27       		.uleb128 0x27
 2628 0bf2 56000000 		.4byte	.LVL12
 2629 0bf6 8C140000 		.4byte	0x148c
 2630 0bfa 1D0C0000 		.4byte	0xc1d
 2631 0bfe 28       		.uleb128 0x28
 2632 0bff 01       		.uleb128 0x1
 2633 0c00 53       		.byte	0x53
 2634 0c01 02       		.uleb128 0x2
 2635 0c02 75       		.byte	0x75
 2636 0c03 00       		.sleb128 0
 2637 0c04 28       		.uleb128 0x28
 2638 0c05 01       		.uleb128 0x1
 2639 0c06 51       		.byte	0x51
 2640 0c07 03       		.uleb128 0x3
 2641 0c08 0A       		.byte	0xa
 2642 0c09 D001     		.2byte	0x1d0
 2643 0c0b 28       		.uleb128 0x28
 2644 0c0c 01       		.uleb128 0x1
 2645 0c0d 50       		.byte	0x50
 2646 0c0e 03       		.uleb128 0x3
 2647 0c0f 76       		.byte	0x76
 2648 0c10 10       		.sleb128 16
 2649 0c11 06       		.byte	0x6
 2650 0c12 28       		.uleb128 0x28
 2651 0c13 02       		.uleb128 0x2
 2652 0c14 7D       		.byte	0x7d
 2653 0c15 00       		.sleb128 0
 2654 0c16 05       		.uleb128 0x5
 2655 0c17 03       		.byte	0x3
 2656 0c18 10000000 		.4byte	.LC4
 2657 0c1c 00       		.byte	0
 2658 0c1d 27       		.uleb128 0x27
 2659 0c1e 70000000 		.4byte	.LVL13
 2660 0c22 8C140000 		.4byte	0x148c
 2661 0c26 490C0000 		.4byte	0xc49
ARM GAS  /tmp/cc9hyemz.s 			page 48


 2662 0c2a 28       		.uleb128 0x28
 2663 0c2b 01       		.uleb128 0x1
 2664 0c2c 53       		.byte	0x53
 2665 0c2d 02       		.uleb128 0x2
 2666 0c2e 75       		.byte	0x75
 2667 0c2f 00       		.sleb128 0
 2668 0c30 28       		.uleb128 0x28
 2669 0c31 01       		.uleb128 0x1
 2670 0c32 51       		.byte	0x51
 2671 0c33 03       		.uleb128 0x3
 2672 0c34 0A       		.byte	0xa
 2673 0c35 D001     		.2byte	0x1d0
 2674 0c37 28       		.uleb128 0x28
 2675 0c38 01       		.uleb128 0x1
 2676 0c39 50       		.byte	0x50
 2677 0c3a 03       		.uleb128 0x3
 2678 0c3b 76       		.byte	0x76
 2679 0c3c 0C       		.sleb128 12
 2680 0c3d 06       		.byte	0x6
 2681 0c3e 28       		.uleb128 0x28
 2682 0c3f 02       		.uleb128 0x2
 2683 0c40 7D       		.byte	0x7d
 2684 0c41 00       		.sleb128 0
 2685 0c42 05       		.uleb128 0x5
 2686 0c43 03       		.byte	0x3
 2687 0c44 0C000000 		.4byte	.LC3
 2688 0c48 00       		.byte	0
 2689 0c49 27       		.uleb128 0x27
 2690 0c4a 8E000000 		.4byte	.LVL15
 2691 0c4e F4140000 		.4byte	0x14f4
 2692 0c52 750C0000 		.4byte	0xc75
 2693 0c56 28       		.uleb128 0x28
 2694 0c57 01       		.uleb128 0x1
 2695 0c58 53       		.byte	0x53
 2696 0c59 02       		.uleb128 0x2
 2697 0c5a 75       		.byte	0x75
 2698 0c5b 00       		.sleb128 0
 2699 0c5c 28       		.uleb128 0x28
 2700 0c5d 01       		.uleb128 0x1
 2701 0c5e 51       		.byte	0x51
 2702 0c5f 03       		.uleb128 0x3
 2703 0c60 0A       		.byte	0xa
 2704 0c61 D001     		.2byte	0x1d0
 2705 0c63 28       		.uleb128 0x28
 2706 0c64 01       		.uleb128 0x1
 2707 0c65 50       		.byte	0x50
 2708 0c66 03       		.uleb128 0x3
 2709 0c67 76       		.byte	0x76
 2710 0c68 08       		.sleb128 8
 2711 0c69 06       		.byte	0x6
 2712 0c6a 28       		.uleb128 0x28
 2713 0c6b 02       		.uleb128 0x2
 2714 0c6c 7D       		.byte	0x7d
 2715 0c6d 00       		.sleb128 0
 2716 0c6e 05       		.uleb128 0x5
 2717 0c6f 03       		.byte	0x3
 2718 0c70 08000000 		.4byte	.LC2
ARM GAS  /tmp/cc9hyemz.s 			page 49


 2719 0c74 00       		.byte	0
 2720 0c75 29       		.uleb128 0x29
 2721 0c76 9C000000 		.4byte	.LVL17
 2722 0c7a 1D150000 		.4byte	0x151d
 2723 0c7e 29       		.uleb128 0x29
 2724 0c7f A0000000 		.4byte	.LVL18
 2725 0c83 B5140000 		.4byte	0x14b5
 2726 0c87 2A       		.uleb128 0x2a
 2727 0c88 AE000000 		.4byte	.LVL19
 2728 0c8c BC140000 		.4byte	0x14bc
 2729 0c90 28       		.uleb128 0x28
 2730 0c91 01       		.uleb128 0x1
 2731 0c92 51       		.byte	0x51
 2732 0c93 05       		.uleb128 0x5
 2733 0c94 03       		.byte	0x3
 2734 0c95 14000000 		.4byte	.LC5
 2735 0c99 28       		.uleb128 0x28
 2736 0c9a 01       		.uleb128 0x1
 2737 0c9b 50       		.byte	0x50
 2738 0c9c 01       		.uleb128 0x1
 2739 0c9d 31       		.byte	0x31
 2740 0c9e 00       		.byte	0
 2741 0c9f 00       		.byte	0
 2742 0ca0 24       		.uleb128 0x24
 2743 0ca1 AB040000 		.4byte	.LASF126
 2744 0ca5 01       		.byte	0x1
 2745 0ca6 7E       		.byte	0x7e
 2746 0ca7 00000000 		.4byte	.LFB229
 2747 0cab 2C010000 		.4byte	.LFE229-.LFB229
 2748 0caf 01       		.uleb128 0x1
 2749 0cb0 9C       		.byte	0x9c
 2750 0cb1 730F0000 		.4byte	0xf73
 2751 0cb5 22       		.uleb128 0x22
 2752 0cb6 70040000 		.4byte	.LASF127
 2753 0cba 01       		.byte	0x1
 2754 0cbb 7F       		.byte	0x7f
 2755 0cbc 04010000 		.4byte	0x104
 2756 0cc0 31       		.uleb128 0x31
 2757 0cc1 703100   		.ascii	"p1\000"
 2758 0cc4 01       		.byte	0x1
 2759 0cc5 7F       		.byte	0x7f
 2760 0cc6 04010000 		.4byte	0x104
 2761 0cca 21000000 		.4byte	.LLST1
 2762 0cce 32       		.uleb128 0x32
 2763 0ccf C0080000 		.4byte	0x8c0
 2764 0cd3 02000000 		.4byte	.LBB303
 2765 0cd7 06000000 		.4byte	.LBE303-.LBB303
 2766 0cdb 01       		.byte	0x1
 2767 0cdc 81       		.byte	0x81
 2768 0cdd F10C0000 		.4byte	0xcf1
 2769 0ce1 26       		.uleb128 0x26
 2770 0ce2 B4080000 		.4byte	0x8b4
 2771 0ce6 02000000 		.4byte	.LBB305
 2772 0cea 02000000 		.4byte	.LBE305-.LBB305
 2773 0cee 02       		.byte	0x2
 2774 0cef C0       		.byte	0xc0
 2775 0cf0 00       		.byte	0
ARM GAS  /tmp/cc9hyemz.s 			page 50


 2776 0cf1 26       		.uleb128 0x26
 2777 0cf2 C0080000 		.4byte	0x8c0
 2778 0cf6 24000000 		.4byte	.LBB307
 2779 0cfa 02000000 		.4byte	.LBE307-.LBB307
 2780 0cfe 01       		.byte	0x1
 2781 0cff 85       		.byte	0x85
 2782 0d00 26       		.uleb128 0x26
 2783 0d01 C0080000 		.4byte	0x8c0
 2784 0d05 52000000 		.4byte	.LBB309
 2785 0d09 02000000 		.4byte	.LBE309-.LBB309
 2786 0d0d 01       		.byte	0x1
 2787 0d0e 8A       		.byte	0x8a
 2788 0d0f 32       		.uleb128 0x32
 2789 0d10 6F080000 		.4byte	0x86f
 2790 0d14 68000000 		.4byte	.LBB311
 2791 0d18 06000000 		.4byte	.LBE311-.LBB311
 2792 0d1c 01       		.byte	0x1
 2793 0d1d 8F       		.byte	0x8f
 2794 0d1e 4B0D0000 		.4byte	0xd4b
 2795 0d22 33       		.uleb128 0x33
 2796 0d23 51080000 		.4byte	0x851
 2797 0d27 68000000 		.4byte	.LBB312
 2798 0d2b 06000000 		.4byte	.LBE312-.LBB312
 2799 0d2f 12       		.byte	0x12
 2800 0d30 2B01     		.2byte	0x12b
 2801 0d32 33       		.uleb128 0x33
 2802 0d33 2B080000 		.4byte	0x82b
 2803 0d37 68000000 		.4byte	.LBB313
 2804 0d3b 06000000 		.4byte	.LBE313-.LBB313
 2805 0d3f 0C       		.byte	0xc
 2806 0d40 BE01     		.2byte	0x1be
 2807 0d42 2E       		.uleb128 0x2e
 2808 0d43 38080000 		.4byte	0x838
 2809 0d47 20       		.byte	0x20
 2810 0d48 00       		.byte	0
 2811 0d49 00       		.byte	0
 2812 0d4a 00       		.byte	0
 2813 0d4b 26       		.uleb128 0x26
 2814 0d4c B4080000 		.4byte	0x8b4
 2815 0d50 6E000000 		.4byte	.LBB315
 2816 0d54 02000000 		.4byte	.LBE315-.LBB315
 2817 0d58 01       		.byte	0x1
 2818 0d59 90       		.byte	0x90
 2819 0d5a 32       		.uleb128 0x32
 2820 0d5b 84080000 		.4byte	0x884
 2821 0d5f 76000000 		.4byte	.LBB317
 2822 0d63 04000000 		.4byte	.LBE317-.LBB317
 2823 0d67 01       		.byte	0x1
 2824 0d68 91       		.byte	0x91
 2825 0d69 A50D0000 		.4byte	0xda5
 2826 0d6d 34       		.uleb128 0x34
 2827 0d6e 76000000 		.4byte	.LBB318
 2828 0d72 04000000 		.4byte	.LBE318-.LBB318
 2829 0d76 30       		.uleb128 0x30
 2830 0d77 91080000 		.4byte	0x891
 2831 0d7b 33       		.uleb128 0x33
 2832 0d7c 5A080000 		.4byte	0x85a
ARM GAS  /tmp/cc9hyemz.s 			page 51


 2833 0d80 76000000 		.4byte	.LBB319
 2834 0d84 04000000 		.4byte	.LBE319-.LBB319
 2835 0d88 12       		.byte	0x12
 2836 0d89 4101     		.2byte	0x141
 2837 0d8b 33       		.uleb128 0x33
 2838 0d8c 2B080000 		.4byte	0x82b
 2839 0d90 76000000 		.4byte	.LBB320
 2840 0d94 04000000 		.4byte	.LBE320-.LBB320
 2841 0d98 0C       		.byte	0xc
 2842 0d99 CC01     		.2byte	0x1cc
 2843 0d9b 2E       		.uleb128 0x2e
 2844 0d9c 38080000 		.4byte	0x838
 2845 0da0 00       		.byte	0
 2846 0da1 00       		.byte	0
 2847 0da2 00       		.byte	0
 2848 0da3 00       		.byte	0
 2849 0da4 00       		.byte	0
 2850 0da5 26       		.uleb128 0x26
 2851 0da6 C0080000 		.4byte	0x8c0
 2852 0daa 7A000000 		.4byte	.LBB322
 2853 0dae 02000000 		.4byte	.LBE322-.LBB322
 2854 0db2 01       		.byte	0x1
 2855 0db3 92       		.byte	0x92
 2856 0db4 32       		.uleb128 0x32
 2857 0db5 6F080000 		.4byte	0x86f
 2858 0db9 16010000 		.4byte	.LBB324
 2859 0dbd 06000000 		.4byte	.LBE324-.LBB324
 2860 0dc1 01       		.byte	0x1
 2861 0dc2 A7       		.byte	0xa7
 2862 0dc3 F00D0000 		.4byte	0xdf0
 2863 0dc7 33       		.uleb128 0x33
 2864 0dc8 51080000 		.4byte	0x851
 2865 0dcc 16010000 		.4byte	.LBB325
 2866 0dd0 06000000 		.4byte	.LBE325-.LBB325
 2867 0dd4 12       		.byte	0x12
 2868 0dd5 2B01     		.2byte	0x12b
 2869 0dd7 33       		.uleb128 0x33
 2870 0dd8 2B080000 		.4byte	0x82b
 2871 0ddc 16010000 		.4byte	.LBB326
 2872 0de0 06000000 		.4byte	.LBE326-.LBB326
 2873 0de4 0C       		.byte	0xc
 2874 0de5 BE01     		.2byte	0x1be
 2875 0de7 2E       		.uleb128 0x2e
 2876 0de8 38080000 		.4byte	0x838
 2877 0dec 20       		.byte	0x20
 2878 0ded 00       		.byte	0
 2879 0dee 00       		.byte	0
 2880 0def 00       		.byte	0
 2881 0df0 26       		.uleb128 0x26
 2882 0df1 B4080000 		.4byte	0x8b4
 2883 0df5 1C010000 		.4byte	.LBB328
 2884 0df9 02000000 		.4byte	.LBE328-.LBB328
 2885 0dfd 01       		.byte	0x1
 2886 0dfe A8       		.byte	0xa8
 2887 0dff 32       		.uleb128 0x32
 2888 0e00 84080000 		.4byte	0x884
 2889 0e04 22010000 		.4byte	.LBB330
ARM GAS  /tmp/cc9hyemz.s 			page 52


 2890 0e08 0A000000 		.4byte	.LBE330-.LBB330
 2891 0e0c 01       		.byte	0x1
 2892 0e0d AA       		.byte	0xaa
 2893 0e0e 4A0E0000 		.4byte	0xe4a
 2894 0e12 34       		.uleb128 0x34
 2895 0e13 22010000 		.4byte	.LBB331
 2896 0e17 0A000000 		.4byte	.LBE331-.LBB331
 2897 0e1b 30       		.uleb128 0x30
 2898 0e1c 91080000 		.4byte	0x891
 2899 0e20 33       		.uleb128 0x33
 2900 0e21 5A080000 		.4byte	0x85a
 2901 0e25 22010000 		.4byte	.LBB332
 2902 0e29 0A000000 		.4byte	.LBE332-.LBB332
 2903 0e2d 12       		.byte	0x12
 2904 0e2e 4101     		.2byte	0x141
 2905 0e30 33       		.uleb128 0x33
 2906 0e31 2B080000 		.4byte	0x82b
 2907 0e35 22010000 		.4byte	.LBB333
 2908 0e39 0A000000 		.4byte	.LBE333-.LBB333
 2909 0e3d 0C       		.byte	0xc
 2910 0e3e CC01     		.2byte	0x1cc
 2911 0e40 2E       		.uleb128 0x2e
 2912 0e41 38080000 		.4byte	0x838
 2913 0e45 00       		.byte	0
 2914 0e46 00       		.byte	0
 2915 0e47 00       		.byte	0
 2916 0e48 00       		.byte	0
 2917 0e49 00       		.byte	0
 2918 0e4a 27       		.uleb128 0x27
 2919 0e4b 10000000 		.4byte	.LVL20
 2920 0e4f 32150000 		.4byte	0x1532
 2921 0e53 5E0E0000 		.4byte	0xe5e
 2922 0e57 28       		.uleb128 0x28
 2923 0e58 01       		.uleb128 0x1
 2924 0e59 50       		.byte	0x50
 2925 0e5a 02       		.uleb128 0x2
 2926 0e5b 75       		.byte	0x75
 2927 0e5c 00       		.sleb128 0
 2928 0e5d 00       		.byte	0
 2929 0e5e 27       		.uleb128 0x27
 2930 0e5f 20000000 		.4byte	.LVL23
 2931 0e63 47150000 		.4byte	0x1547
 2932 0e67 7C0E0000 		.4byte	0xe7c
 2933 0e6b 28       		.uleb128 0x28
 2934 0e6c 01       		.uleb128 0x1
 2935 0e6d 51       		.byte	0x51
 2936 0e6e 07       		.uleb128 0x7
 2937 0e6f 77       		.byte	0x77
 2938 0e70 00       		.sleb128 0
 2939 0e71 74       		.byte	0x74
 2940 0e72 00       		.sleb128 0
 2941 0e73 1C       		.byte	0x1c
 2942 0e74 30       		.byte	0x30
 2943 0e75 29       		.byte	0x29
 2944 0e76 28       		.uleb128 0x28
 2945 0e77 01       		.uleb128 0x1
 2946 0e78 50       		.byte	0x50
ARM GAS  /tmp/cc9hyemz.s 			page 53


 2947 0e79 01       		.uleb128 0x1
 2948 0e7a 31       		.byte	0x31
 2949 0e7b 00       		.byte	0
 2950 0e7c 27       		.uleb128 0x27
 2951 0e7d 36000000 		.4byte	.LVL26
 2952 0e81 47150000 		.4byte	0x1547
 2953 0e85 8F0E0000 		.4byte	0xe8f
 2954 0e89 28       		.uleb128 0x28
 2955 0e8a 01       		.uleb128 0x1
 2956 0e8b 50       		.byte	0x50
 2957 0e8c 01       		.uleb128 0x1
 2958 0e8d 32       		.byte	0x32
 2959 0e8e 00       		.byte	0
 2960 0e8f 27       		.uleb128 0x27
 2961 0e90 40000000 		.4byte	.LVL27
 2962 0e94 32150000 		.4byte	0x1532
 2963 0e98 A30E0000 		.4byte	0xea3
 2964 0e9c 28       		.uleb128 0x28
 2965 0e9d 01       		.uleb128 0x1
 2966 0e9e 50       		.byte	0x50
 2967 0e9f 02       		.uleb128 0x2
 2968 0ea0 77       		.byte	0x77
 2969 0ea1 00       		.sleb128 0
 2970 0ea2 00       		.byte	0
 2971 0ea3 27       		.uleb128 0x27
 2972 0ea4 4E000000 		.4byte	.LVL29
 2973 0ea8 47150000 		.4byte	0x1547
 2974 0eac B60E0000 		.4byte	0xeb6
 2975 0eb0 28       		.uleb128 0x28
 2976 0eb1 01       		.uleb128 0x1
 2977 0eb2 50       		.byte	0x50
 2978 0eb3 01       		.uleb128 0x1
 2979 0eb4 33       		.byte	0x33
 2980 0eb5 00       		.byte	0
 2981 0eb6 27       		.uleb128 0x27
 2982 0eb7 64000000 		.4byte	.LVL30
 2983 0ebb 47150000 		.4byte	0x1547
 2984 0ebf C90E0000 		.4byte	0xec9
 2985 0ec3 28       		.uleb128 0x28
 2986 0ec4 01       		.uleb128 0x1
 2987 0ec5 50       		.byte	0x50
 2988 0ec6 01       		.uleb128 0x1
 2989 0ec7 34       		.byte	0x34
 2990 0ec8 00       		.byte	0
 2991 0ec9 27       		.uleb128 0x27
 2992 0eca 8E000000 		.4byte	.LVL33
 2993 0ece 47150000 		.4byte	0x1547
 2994 0ed2 DC0E0000 		.4byte	0xedc
 2995 0ed6 28       		.uleb128 0x28
 2996 0ed7 01       		.uleb128 0x1
 2997 0ed8 50       		.byte	0x50
 2998 0ed9 01       		.uleb128 0x1
 2999 0eda 35       		.byte	0x35
 3000 0edb 00       		.byte	0
 3001 0edc 27       		.uleb128 0x27
 3002 0edd 98000000 		.4byte	.LVL34
 3003 0ee1 32150000 		.4byte	0x1532
ARM GAS  /tmp/cc9hyemz.s 			page 54


 3004 0ee5 F00E0000 		.4byte	0xef0
 3005 0ee9 28       		.uleb128 0x28
 3006 0eea 01       		.uleb128 0x1
 3007 0eeb 50       		.byte	0x50
 3008 0eec 02       		.uleb128 0x2
 3009 0eed 75       		.byte	0x75
 3010 0eee 00       		.sleb128 0
 3011 0eef 00       		.byte	0
 3012 0ef0 27       		.uleb128 0x27
 3013 0ef1 A6000000 		.4byte	.LVL36
 3014 0ef5 47150000 		.4byte	0x1547
 3015 0ef9 030F0000 		.4byte	0xf03
 3016 0efd 28       		.uleb128 0x28
 3017 0efe 01       		.uleb128 0x1
 3018 0eff 50       		.byte	0x50
 3019 0f00 01       		.uleb128 0x1
 3020 0f01 36       		.byte	0x36
 3021 0f02 00       		.byte	0
 3022 0f03 27       		.uleb128 0x27
 3023 0f04 BC000000 		.4byte	.LVL37
 3024 0f08 47150000 		.4byte	0x1547
 3025 0f0c 160F0000 		.4byte	0xf16
 3026 0f10 28       		.uleb128 0x28
 3027 0f11 01       		.uleb128 0x1
 3028 0f12 50       		.byte	0x50
 3029 0f13 01       		.uleb128 0x1
 3030 0f14 37       		.byte	0x37
 3031 0f15 00       		.byte	0
 3032 0f16 27       		.uleb128 0x27
 3033 0f17 D2000000 		.4byte	.LVL38
 3034 0f1b 47150000 		.4byte	0x1547
 3035 0f1f 290F0000 		.4byte	0xf29
 3036 0f23 28       		.uleb128 0x28
 3037 0f24 01       		.uleb128 0x1
 3038 0f25 50       		.byte	0x50
 3039 0f26 01       		.uleb128 0x1
 3040 0f27 38       		.byte	0x38
 3041 0f28 00       		.byte	0
 3042 0f29 27       		.uleb128 0x27
 3043 0f2a DE000000 		.4byte	.LVL39
 3044 0f2e 32150000 		.4byte	0x1532
 3045 0f32 3D0F0000 		.4byte	0xf3d
 3046 0f36 28       		.uleb128 0x28
 3047 0f37 01       		.uleb128 0x1
 3048 0f38 50       		.byte	0x50
 3049 0f39 02       		.uleb128 0x2
 3050 0f3a 77       		.byte	0x77
 3051 0f3b 00       		.sleb128 0
 3052 0f3c 00       		.byte	0
 3053 0f3d 27       		.uleb128 0x27
 3054 0f3e EA000000 		.4byte	.LVL41
 3055 0f42 47150000 		.4byte	0x1547
 3056 0f46 500F0000 		.4byte	0xf50
 3057 0f4a 28       		.uleb128 0x28
 3058 0f4b 01       		.uleb128 0x1
 3059 0f4c 50       		.byte	0x50
 3060 0f4d 01       		.uleb128 0x1
ARM GAS  /tmp/cc9hyemz.s 			page 55


 3061 0f4e 39       		.byte	0x39
 3062 0f4f 00       		.byte	0
 3063 0f50 27       		.uleb128 0x27
 3064 0f51 FE000000 		.4byte	.LVL42
 3065 0f55 47150000 		.4byte	0x1547
 3066 0f59 630F0000 		.4byte	0xf63
 3067 0f5d 28       		.uleb128 0x28
 3068 0f5e 01       		.uleb128 0x1
 3069 0f5f 50       		.byte	0x50
 3070 0f60 01       		.uleb128 0x1
 3071 0f61 3A       		.byte	0x3a
 3072 0f62 00       		.byte	0
 3073 0f63 35       		.uleb128 0x35
 3074 0f64 12010000 		.4byte	.LVL43
 3075 0f68 47150000 		.4byte	0x1547
 3076 0f6c 28       		.uleb128 0x28
 3077 0f6d 01       		.uleb128 0x1
 3078 0f6e 50       		.byte	0x50
 3079 0f6f 01       		.uleb128 0x1
 3080 0f70 3B       		.byte	0x3b
 3081 0f71 00       		.byte	0
 3082 0f72 00       		.byte	0
 3083 0f73 36       		.uleb128 0x36
 3084 0f74 E8080000 		.4byte	0x8e8
 3085 0f78 00000000 		.4byte	.LFB230
 3086 0f7c A0000000 		.4byte	.LFE230-.LFB230
 3087 0f80 01       		.uleb128 0x1
 3088 0f81 9C       		.byte	0x9c
 3089 0f82 CB130000 		.4byte	0x13cb
 3090 0f86 30       		.uleb128 0x30
 3091 0f87 F4080000 		.4byte	0x8f4
 3092 0f8b 32       		.uleb128 0x32
 3093 0f8c CC080000 		.4byte	0x8cc
 3094 0f90 06000000 		.4byte	.LBB427
 3095 0f94 12000000 		.4byte	.LBE427-.LBB427
 3096 0f98 01       		.byte	0x1
 3097 0f99 C3       		.byte	0xc3
 3098 0f9a 60100000 		.4byte	0x1060
 3099 0f9e 34       		.uleb128 0x34
 3100 0f9f 06000000 		.4byte	.LBB428
 3101 0fa3 12000000 		.4byte	.LBE428-.LBB428
 3102 0fa7 30       		.uleb128 0x30
 3103 0fa8 DC080000 		.4byte	0x8dc
 3104 0fac 32       		.uleb128 0x32
 3105 0fad 6F080000 		.4byte	0x86f
 3106 0fb1 06000000 		.4byte	.LBB429
 3107 0fb5 06000000 		.4byte	.LBE429-.LBB429
 3108 0fb9 13       		.byte	0x13
 3109 0fba F8       		.byte	0xf8
 3110 0fbb E80F0000 		.4byte	0xfe8
 3111 0fbf 33       		.uleb128 0x33
 3112 0fc0 51080000 		.4byte	0x851
 3113 0fc4 06000000 		.4byte	.LBB430
 3114 0fc8 06000000 		.4byte	.LBE430-.LBB430
 3115 0fcc 12       		.byte	0x12
 3116 0fcd 2B01     		.2byte	0x12b
 3117 0fcf 33       		.uleb128 0x33
ARM GAS  /tmp/cc9hyemz.s 			page 56


 3118 0fd0 2B080000 		.4byte	0x82b
 3119 0fd4 06000000 		.4byte	.LBB431
 3120 0fd8 06000000 		.4byte	.LBE431-.LBB431
 3121 0fdc 0C       		.byte	0xc
 3122 0fdd BE01     		.2byte	0x1be
 3123 0fdf 2E       		.uleb128 0x2e
 3124 0fe0 38080000 		.4byte	0x838
 3125 0fe4 20       		.byte	0x20
 3126 0fe5 00       		.byte	0
 3127 0fe6 00       		.byte	0
 3128 0fe7 00       		.byte	0
 3129 0fe8 25       		.uleb128 0x25
 3130 0fe9 78080000 		.4byte	0x878
 3131 0fed 0C000000 		.4byte	.LBB433
 3132 0ff1 60000000 		.4byte	.Ldebug_ranges0+0x60
 3133 0ff5 13       		.byte	0x13
 3134 0ff6 F9       		.byte	0xf9
 3135 0ff7 1B100000 		.4byte	0x101b
 3136 0ffb 37       		.uleb128 0x37
 3137 0ffc 63080000 		.4byte	0x863
 3138 1000 0C000000 		.4byte	.LBB434
 3139 1004 60000000 		.4byte	.Ldebug_ranges0+0x60
 3140 1008 13       		.byte	0x13
 3141 1009 E7       		.byte	0xe7
 3142 100a 38       		.uleb128 0x38
 3143 100b 45080000 		.4byte	0x845
 3144 100f 0C000000 		.4byte	.LBB435
 3145 1013 60000000 		.4byte	.Ldebug_ranges0+0x60
 3146 1017 11       		.byte	0x11
 3147 1018 6B       		.byte	0x6b
 3148 1019 00       		.byte	0
 3149 101a 00       		.byte	0
 3150 101b 37       		.uleb128 0x37
 3151 101c 84080000 		.4byte	0x884
 3152 1020 10000000 		.4byte	.LBB440
 3153 1024 78000000 		.4byte	.Ldebug_ranges0+0x78
 3154 1028 13       		.byte	0x13
 3155 1029 FA       		.byte	0xfa
 3156 102a 2F       		.uleb128 0x2f
 3157 102b 78000000 		.4byte	.Ldebug_ranges0+0x78
 3158 102f 30       		.uleb128 0x30
 3159 1030 91080000 		.4byte	0x891
 3160 1034 2D       		.uleb128 0x2d
 3161 1035 5A080000 		.4byte	0x85a
 3162 1039 10000000 		.4byte	.LBB442
 3163 103d 78000000 		.4byte	.Ldebug_ranges0+0x78
 3164 1041 12       		.byte	0x12
 3165 1042 4101     		.2byte	0x141
 3166 1044 2D       		.uleb128 0x2d
 3167 1045 2B080000 		.4byte	0x82b
 3168 1049 10000000 		.4byte	.LBB443
 3169 104d 78000000 		.4byte	.Ldebug_ranges0+0x78
 3170 1051 0C       		.byte	0xc
 3171 1052 CC01     		.2byte	0x1cc
 3172 1054 2E       		.uleb128 0x2e
 3173 1055 38080000 		.4byte	0x838
 3174 1059 00       		.byte	0
ARM GAS  /tmp/cc9hyemz.s 			page 57


 3175 105a 00       		.byte	0
 3176 105b 00       		.byte	0
 3177 105c 00       		.byte	0
 3178 105d 00       		.byte	0
 3179 105e 00       		.byte	0
 3180 105f 00       		.byte	0
 3181 1060 32       		.uleb128 0x32
 3182 1061 CC080000 		.4byte	0x8cc
 3183 1065 32000000 		.4byte	.LBB451
 3184 1069 0A000000 		.4byte	.LBE451-.LBB451
 3185 106d 01       		.byte	0x1
 3186 106e CA       		.byte	0xca
 3187 106f 39110000 		.4byte	0x1139
 3188 1073 34       		.uleb128 0x34
 3189 1074 32000000 		.4byte	.LBB452
 3190 1078 0A000000 		.4byte	.LBE452-.LBB452
 3191 107c 30       		.uleb128 0x30
 3192 107d DC080000 		.4byte	0x8dc
 3193 1081 32       		.uleb128 0x32
 3194 1082 6F080000 		.4byte	0x86f
 3195 1086 32000000 		.4byte	.LBB453
 3196 108a 04000000 		.4byte	.LBE453-.LBB453
 3197 108e 13       		.byte	0x13
 3198 108f F8       		.byte	0xf8
 3199 1090 BD100000 		.4byte	0x10bd
 3200 1094 33       		.uleb128 0x33
 3201 1095 51080000 		.4byte	0x851
 3202 1099 32000000 		.4byte	.LBB454
 3203 109d 04000000 		.4byte	.LBE454-.LBB454
 3204 10a1 12       		.byte	0x12
 3205 10a2 2B01     		.2byte	0x12b
 3206 10a4 33       		.uleb128 0x33
 3207 10a5 2B080000 		.4byte	0x82b
 3208 10a9 32000000 		.4byte	.LBB455
 3209 10ad 04000000 		.4byte	.LBE455-.LBB455
 3210 10b1 0C       		.byte	0xc
 3211 10b2 BE01     		.2byte	0x1be
 3212 10b4 2E       		.uleb128 0x2e
 3213 10b5 38080000 		.4byte	0x838
 3214 10b9 20       		.byte	0x20
 3215 10ba 00       		.byte	0
 3216 10bb 00       		.byte	0
 3217 10bc 00       		.byte	0
 3218 10bd 32       		.uleb128 0x32
 3219 10be 78080000 		.4byte	0x878
 3220 10c2 36000000 		.4byte	.LBB457
 3221 10c6 02000000 		.4byte	.LBE457-.LBB457
 3222 10ca 13       		.byte	0x13
 3223 10cb F9       		.byte	0xf9
 3224 10cc F0100000 		.4byte	0x10f0
 3225 10d0 39       		.uleb128 0x39
 3226 10d1 63080000 		.4byte	0x863
 3227 10d5 36000000 		.4byte	.LBB458
 3228 10d9 02000000 		.4byte	.LBE458-.LBB458
 3229 10dd 13       		.byte	0x13
 3230 10de E7       		.byte	0xe7
 3231 10df 26       		.uleb128 0x26
ARM GAS  /tmp/cc9hyemz.s 			page 58


 3232 10e0 45080000 		.4byte	0x845
 3233 10e4 36000000 		.4byte	.LBB459
 3234 10e8 02000000 		.4byte	.LBE459-.LBB459
 3235 10ec 11       		.byte	0x11
 3236 10ed 6B       		.byte	0x6b
 3237 10ee 00       		.byte	0
 3238 10ef 00       		.byte	0
 3239 10f0 39       		.uleb128 0x39
 3240 10f1 84080000 		.4byte	0x884
 3241 10f5 38000000 		.4byte	.LBB461
 3242 10f9 04000000 		.4byte	.LBE461-.LBB461
 3243 10fd 13       		.byte	0x13
 3244 10fe FA       		.byte	0xfa
 3245 10ff 34       		.uleb128 0x34
 3246 1100 38000000 		.4byte	.LBB462
 3247 1104 04000000 		.4byte	.LBE462-.LBB462
 3248 1108 30       		.uleb128 0x30
 3249 1109 91080000 		.4byte	0x891
 3250 110d 33       		.uleb128 0x33
 3251 110e 5A080000 		.4byte	0x85a
 3252 1112 38000000 		.4byte	.LBB463
 3253 1116 04000000 		.4byte	.LBE463-.LBB463
 3254 111a 12       		.byte	0x12
 3255 111b 4101     		.2byte	0x141
 3256 111d 33       		.uleb128 0x33
 3257 111e 2B080000 		.4byte	0x82b
 3258 1122 38000000 		.4byte	.LBB464
 3259 1126 04000000 		.4byte	.LBE464-.LBB464
 3260 112a 0C       		.byte	0xc
 3261 112b CC01     		.2byte	0x1cc
 3262 112d 2E       		.uleb128 0x2e
 3263 112e 38080000 		.4byte	0x838
 3264 1132 00       		.byte	0
 3265 1133 00       		.byte	0
 3266 1134 00       		.byte	0
 3267 1135 00       		.byte	0
 3268 1136 00       		.byte	0
 3269 1137 00       		.byte	0
 3270 1138 00       		.byte	0
 3271 1139 3A       		.uleb128 0x3a
 3272 113a 90000000 		.4byte	.Ldebug_ranges0+0x90
 3273 113e 59130000 		.4byte	0x1359
 3274 1142 3B       		.uleb128 0x3b
 3275 1143 F4080000 		.4byte	0x8f4
 3276 1147 6B000000 		.4byte	.LLST2
 3277 114b 32       		.uleb128 0x32
 3278 114c CC080000 		.4byte	0x8cc
 3279 1150 56000000 		.4byte	.LBB468
 3280 1154 0A000000 		.4byte	.LBE468-.LBB468
 3281 1158 01       		.byte	0x1
 3282 1159 D1       		.byte	0xd1
 3283 115a 24120000 		.4byte	0x1224
 3284 115e 34       		.uleb128 0x34
 3285 115f 56000000 		.4byte	.LBB469
 3286 1163 0A000000 		.4byte	.LBE469-.LBB469
 3287 1167 30       		.uleb128 0x30
 3288 1168 DC080000 		.4byte	0x8dc
ARM GAS  /tmp/cc9hyemz.s 			page 59


 3289 116c 32       		.uleb128 0x32
 3290 116d 6F080000 		.4byte	0x86f
 3291 1171 56000000 		.4byte	.LBB470
 3292 1175 04000000 		.4byte	.LBE470-.LBB470
 3293 1179 13       		.byte	0x13
 3294 117a F8       		.byte	0xf8
 3295 117b A8110000 		.4byte	0x11a8
 3296 117f 33       		.uleb128 0x33
 3297 1180 51080000 		.4byte	0x851
 3298 1184 56000000 		.4byte	.LBB471
 3299 1188 04000000 		.4byte	.LBE471-.LBB471
 3300 118c 12       		.byte	0x12
 3301 118d 2B01     		.2byte	0x12b
 3302 118f 33       		.uleb128 0x33
 3303 1190 2B080000 		.4byte	0x82b
 3304 1194 56000000 		.4byte	.LBB472
 3305 1198 04000000 		.4byte	.LBE472-.LBB472
 3306 119c 0C       		.byte	0xc
 3307 119d BE01     		.2byte	0x1be
 3308 119f 2E       		.uleb128 0x2e
 3309 11a0 38080000 		.4byte	0x838
 3310 11a4 20       		.byte	0x20
 3311 11a5 00       		.byte	0
 3312 11a6 00       		.byte	0
 3313 11a7 00       		.byte	0
 3314 11a8 32       		.uleb128 0x32
 3315 11a9 78080000 		.4byte	0x878
 3316 11ad 5A000000 		.4byte	.LBB474
 3317 11b1 02000000 		.4byte	.LBE474-.LBB474
 3318 11b5 13       		.byte	0x13
 3319 11b6 F9       		.byte	0xf9
 3320 11b7 DB110000 		.4byte	0x11db
 3321 11bb 39       		.uleb128 0x39
 3322 11bc 63080000 		.4byte	0x863
 3323 11c0 5A000000 		.4byte	.LBB475
 3324 11c4 02000000 		.4byte	.LBE475-.LBB475
 3325 11c8 13       		.byte	0x13
 3326 11c9 E7       		.byte	0xe7
 3327 11ca 26       		.uleb128 0x26
 3328 11cb 45080000 		.4byte	0x845
 3329 11cf 5A000000 		.4byte	.LBB476
 3330 11d3 02000000 		.4byte	.LBE476-.LBB476
 3331 11d7 11       		.byte	0x11
 3332 11d8 6B       		.byte	0x6b
 3333 11d9 00       		.byte	0
 3334 11da 00       		.byte	0
 3335 11db 39       		.uleb128 0x39
 3336 11dc 84080000 		.4byte	0x884
 3337 11e0 5C000000 		.4byte	.LBB478
 3338 11e4 04000000 		.4byte	.LBE478-.LBB478
 3339 11e8 13       		.byte	0x13
 3340 11e9 FA       		.byte	0xfa
 3341 11ea 34       		.uleb128 0x34
 3342 11eb 5C000000 		.4byte	.LBB479
 3343 11ef 04000000 		.4byte	.LBE479-.LBB479
 3344 11f3 30       		.uleb128 0x30
 3345 11f4 91080000 		.4byte	0x891
ARM GAS  /tmp/cc9hyemz.s 			page 60


 3346 11f8 33       		.uleb128 0x33
 3347 11f9 5A080000 		.4byte	0x85a
 3348 11fd 5C000000 		.4byte	.LBB480
 3349 1201 04000000 		.4byte	.LBE480-.LBB480
 3350 1205 12       		.byte	0x12
 3351 1206 4101     		.2byte	0x141
 3352 1208 33       		.uleb128 0x33
 3353 1209 2B080000 		.4byte	0x82b
 3354 120d 5C000000 		.4byte	.LBB481
 3355 1211 04000000 		.4byte	.LBE481-.LBB481
 3356 1215 0C       		.byte	0xc
 3357 1216 CC01     		.2byte	0x1cc
 3358 1218 2E       		.uleb128 0x2e
 3359 1219 38080000 		.4byte	0x838
 3360 121d 00       		.byte	0
 3361 121e 00       		.byte	0
 3362 121f 00       		.byte	0
 3363 1220 00       		.byte	0
 3364 1221 00       		.byte	0
 3365 1222 00       		.byte	0
 3366 1223 00       		.byte	0
 3367 1224 32       		.uleb128 0x32
 3368 1225 CC080000 		.4byte	0x8cc
 3369 1229 7C000000 		.4byte	.LBB483
 3370 122d 0A000000 		.4byte	.LBE483-.LBB483
 3371 1231 01       		.byte	0x1
 3372 1232 D8       		.byte	0xd8
 3373 1233 FD120000 		.4byte	0x12fd
 3374 1237 34       		.uleb128 0x34
 3375 1238 7C000000 		.4byte	.LBB484
 3376 123c 0A000000 		.4byte	.LBE484-.LBB484
 3377 1240 30       		.uleb128 0x30
 3378 1241 DC080000 		.4byte	0x8dc
 3379 1245 32       		.uleb128 0x32
 3380 1246 6F080000 		.4byte	0x86f
 3381 124a 7C000000 		.4byte	.LBB485
 3382 124e 04000000 		.4byte	.LBE485-.LBB485
 3383 1252 13       		.byte	0x13
 3384 1253 F8       		.byte	0xf8
 3385 1254 81120000 		.4byte	0x1281
 3386 1258 33       		.uleb128 0x33
 3387 1259 51080000 		.4byte	0x851
 3388 125d 7C000000 		.4byte	.LBB486
 3389 1261 04000000 		.4byte	.LBE486-.LBB486
 3390 1265 12       		.byte	0x12
 3391 1266 2B01     		.2byte	0x12b
 3392 1268 33       		.uleb128 0x33
 3393 1269 2B080000 		.4byte	0x82b
 3394 126d 7C000000 		.4byte	.LBB487
 3395 1271 04000000 		.4byte	.LBE487-.LBB487
 3396 1275 0C       		.byte	0xc
 3397 1276 BE01     		.2byte	0x1be
 3398 1278 2E       		.uleb128 0x2e
 3399 1279 38080000 		.4byte	0x838
 3400 127d 20       		.byte	0x20
 3401 127e 00       		.byte	0
 3402 127f 00       		.byte	0
ARM GAS  /tmp/cc9hyemz.s 			page 61


 3403 1280 00       		.byte	0
 3404 1281 32       		.uleb128 0x32
 3405 1282 78080000 		.4byte	0x878
 3406 1286 80000000 		.4byte	.LBB489
 3407 128a 02000000 		.4byte	.LBE489-.LBB489
 3408 128e 13       		.byte	0x13
 3409 128f F9       		.byte	0xf9
 3410 1290 B4120000 		.4byte	0x12b4
 3411 1294 39       		.uleb128 0x39
 3412 1295 63080000 		.4byte	0x863
 3413 1299 80000000 		.4byte	.LBB490
 3414 129d 02000000 		.4byte	.LBE490-.LBB490
 3415 12a1 13       		.byte	0x13
 3416 12a2 E7       		.byte	0xe7
 3417 12a3 26       		.uleb128 0x26
 3418 12a4 45080000 		.4byte	0x845
 3419 12a8 80000000 		.4byte	.LBB491
 3420 12ac 02000000 		.4byte	.LBE491-.LBB491
 3421 12b0 11       		.byte	0x11
 3422 12b1 6B       		.byte	0x6b
 3423 12b2 00       		.byte	0
 3424 12b3 00       		.byte	0
 3425 12b4 39       		.uleb128 0x39
 3426 12b5 84080000 		.4byte	0x884
 3427 12b9 82000000 		.4byte	.LBB493
 3428 12bd 04000000 		.4byte	.LBE493-.LBB493
 3429 12c1 13       		.byte	0x13
 3430 12c2 FA       		.byte	0xfa
 3431 12c3 34       		.uleb128 0x34
 3432 12c4 82000000 		.4byte	.LBB494
 3433 12c8 04000000 		.4byte	.LBE494-.LBB494
 3434 12cc 30       		.uleb128 0x30
 3435 12cd 91080000 		.4byte	0x891
 3436 12d1 33       		.uleb128 0x33
 3437 12d2 5A080000 		.4byte	0x85a
 3438 12d6 82000000 		.4byte	.LBB495
 3439 12da 04000000 		.4byte	.LBE495-.LBB495
 3440 12de 12       		.byte	0x12
 3441 12df 4101     		.2byte	0x141
 3442 12e1 33       		.uleb128 0x33
 3443 12e2 2B080000 		.4byte	0x82b
 3444 12e6 82000000 		.4byte	.LBB496
 3445 12ea 04000000 		.4byte	.LBE496-.LBB496
 3446 12ee 0C       		.byte	0xc
 3447 12ef CC01     		.2byte	0x1cc
 3448 12f1 2E       		.uleb128 0x2e
 3449 12f2 38080000 		.4byte	0x838
 3450 12f6 00       		.byte	0
 3451 12f7 00       		.byte	0
 3452 12f8 00       		.byte	0
 3453 12f9 00       		.byte	0
 3454 12fa 00       		.byte	0
 3455 12fb 00       		.byte	0
 3456 12fc 00       		.byte	0
 3457 12fd 27       		.uleb128 0x27
 3458 12fe 68000000 		.4byte	.LVL56
 3459 1302 61150000 		.4byte	0x1561
ARM GAS  /tmp/cc9hyemz.s 			page 62


 3460 1306 12130000 		.4byte	0x1312
 3461 130a 28       		.uleb128 0x28
 3462 130b 01       		.uleb128 0x1
 3463 130c 50       		.byte	0x50
 3464 130d 03       		.uleb128 0x3
 3465 130e 0A       		.byte	0xa
 3466 130f 1027     		.2byte	0x2710
 3467 1311 00       		.byte	0
 3468 1312 27       		.uleb128 0x27
 3469 1313 78000000 		.4byte	.LVL57
 3470 1317 72150000 		.4byte	0x1572
 3471 131b 35130000 		.4byte	0x1335
 3472 131f 28       		.uleb128 0x28
 3473 1320 01       		.uleb128 0x1
 3474 1321 52       		.byte	0x52
 3475 1322 04       		.uleb128 0x4
 3476 1323 74       		.byte	0x74
 3477 1324 93CE00   		.sleb128 10003
 3478 1327 28       		.uleb128 0x28
 3479 1328 01       		.uleb128 0x1
 3480 1329 51       		.byte	0x51
 3481 132a 04       		.uleb128 0x4
 3482 132b 74       		.byte	0x74
 3483 132c 90CE00   		.sleb128 10000
 3484 132f 28       		.uleb128 0x28
 3485 1330 01       		.uleb128 0x1
 3486 1331 50       		.byte	0x50
 3487 1332 01       		.uleb128 0x1
 3488 1333 33       		.byte	0x33
 3489 1334 00       		.byte	0
 3490 1335 27       		.uleb128 0x27
 3491 1336 90000000 		.4byte	.LVL61
 3492 133a 91150000 		.4byte	0x1591
 3493 133e 49130000 		.4byte	0x1349
 3494 1342 28       		.uleb128 0x28
 3495 1343 01       		.uleb128 0x1
 3496 1344 50       		.byte	0x50
 3497 1345 02       		.uleb128 0x2
 3498 1346 75       		.byte	0x75
 3499 1347 00       		.sleb128 0
 3500 1348 00       		.byte	0
 3501 1349 2A       		.uleb128 0x2a
 3502 134a A0000000 		.4byte	.LVL63
 3503 134e 72150000 		.4byte	0x1572
 3504 1352 28       		.uleb128 0x28
 3505 1353 01       		.uleb128 0x1
 3506 1354 50       		.byte	0x50
 3507 1355 01       		.uleb128 0x1
 3508 1356 34       		.byte	0x34
 3509 1357 00       		.byte	0
 3510 1358 00       		.byte	0
 3511 1359 29       		.uleb128 0x29
 3512 135a 06000000 		.4byte	.LVL46
 3513 135e A2150000 		.4byte	0x15a2
 3514 1362 27       		.uleb128 0x27
 3515 1363 20000000 		.4byte	.LVL48
 3516 1367 61150000 		.4byte	0x1561
ARM GAS  /tmp/cc9hyemz.s 			page 63


 3517 136b 77130000 		.4byte	0x1377
 3518 136f 28       		.uleb128 0x28
 3519 1370 01       		.uleb128 0x1
 3520 1371 50       		.byte	0x50
 3521 1372 03       		.uleb128 0x3
 3522 1373 0A       		.byte	0xa
 3523 1374 E803     		.2byte	0x3e8
 3524 1376 00       		.byte	0
 3525 1377 27       		.uleb128 0x27
 3526 1378 2E000000 		.4byte	.LVL49
 3527 137c 72150000 		.4byte	0x1572
 3528 1380 98130000 		.4byte	0x1398
 3529 1384 28       		.uleb128 0x28
 3530 1385 01       		.uleb128 0x1
 3531 1386 52       		.byte	0x52
 3532 1387 03       		.uleb128 0x3
 3533 1388 74       		.byte	0x74
 3534 1389 EB07     		.sleb128 1003
 3535 138b 28       		.uleb128 0x28
 3536 138c 01       		.uleb128 0x1
 3537 138d 51       		.byte	0x51
 3538 138e 03       		.uleb128 0x3
 3539 138f 74       		.byte	0x74
 3540 1390 E807     		.sleb128 1000
 3541 1392 28       		.uleb128 0x28
 3542 1393 01       		.uleb128 0x1
 3543 1394 50       		.byte	0x50
 3544 1395 01       		.uleb128 0x1
 3545 1396 31       		.byte	0x31
 3546 1397 00       		.byte	0
 3547 1398 27       		.uleb128 0x27
 3548 1399 44000000 		.4byte	.LVL52
 3549 139d 61150000 		.4byte	0x1561
 3550 13a1 AD130000 		.4byte	0x13ad
 3551 13a5 28       		.uleb128 0x28
 3552 13a6 01       		.uleb128 0x1
 3553 13a7 50       		.byte	0x50
 3554 13a8 03       		.uleb128 0x3
 3555 13a9 0A       		.byte	0xa
 3556 13aa E803     		.2byte	0x3e8
 3557 13ac 00       		.byte	0
 3558 13ad 35       		.uleb128 0x35
 3559 13ae 52000000 		.4byte	.LVL53
 3560 13b2 72150000 		.4byte	0x1572
 3561 13b6 28       		.uleb128 0x28
 3562 13b7 01       		.uleb128 0x1
 3563 13b8 52       		.byte	0x52
 3564 13b9 03       		.uleb128 0x3
 3565 13ba 74       		.byte	0x74
 3566 13bb EB07     		.sleb128 1003
 3567 13bd 28       		.uleb128 0x28
 3568 13be 01       		.uleb128 0x1
 3569 13bf 51       		.byte	0x51
 3570 13c0 03       		.uleb128 0x3
 3571 13c1 74       		.byte	0x74
 3572 13c2 E807     		.sleb128 1000
 3573 13c4 28       		.uleb128 0x28
ARM GAS  /tmp/cc9hyemz.s 			page 64


 3574 13c5 01       		.uleb128 0x1
 3575 13c6 50       		.byte	0x50
 3576 13c7 01       		.uleb128 0x1
 3577 13c8 32       		.byte	0x32
 3578 13c9 00       		.byte	0
 3579 13ca 00       		.byte	0
 3580 13cb 3C       		.uleb128 0x3c
 3581 13cc A1000000 		.4byte	.LASF128
 3582 13d0 14       		.byte	0x14
 3583 13d1 A706     		.2byte	0x6a7
 3584 13d3 CE000000 		.4byte	0xce
 3585 13d7 3D       		.uleb128 0x3d
 3586 13d8 636800   		.ascii	"ch\000"
 3587 13db 0A       		.byte	0xa
 3588 13dc EB01     		.2byte	0x1eb
 3589 13de CE030000 		.4byte	0x3ce
 3590 13e2 10       		.uleb128 0x10
 3591 13e3 14070000 		.4byte	0x714
 3592 13e7 F2130000 		.4byte	0x13f2
 3593 13eb 11       		.uleb128 0x11
 3594 13ec 35040000 		.4byte	0x435
 3595 13f0 04       		.byte	0x4
 3596 13f1 00       		.byte	0
 3597 13f2 3E       		.uleb128 0x3e
 3598 13f3 3C050000 		.4byte	.LASF129
 3599 13f7 10       		.byte	0x10
 3600 13f8 A5       		.byte	0xa5
 3601 13f9 E2130000 		.4byte	0x13e2
 3602 13fd 10       		.uleb128 0x10
 3603 13fe FF020000 		.4byte	0x2ff
 3604 1402 08140000 		.4byte	0x1408
 3605 1406 3F       		.uleb128 0x3f
 3606 1407 00       		.byte	0
 3607 1408 40       		.uleb128 0x40
 3608 1409 776100   		.ascii	"wa\000"
 3609 140c 10       		.byte	0x10
 3610 140d A7       		.byte	0xa7
 3611 140e 12140000 		.4byte	0x1412
 3612 1412 19       		.uleb128 0x19
 3613 1413 FD130000 		.4byte	0x13fd
 3614 1417 41       		.uleb128 0x41
 3615 1418 CE030000 		.4byte	.LASF130
 3616 141c 01       		.byte	0x1
 3617 141d 4D       		.byte	0x4d
 3618 141e 28140000 		.4byte	0x1428
 3619 1422 05       		.uleb128 0x5
 3620 1423 03       		.byte	0x3
 3621 1424 00000000 		.4byte	testthd1
 3622 1428 19       		.uleb128 0x19
 3623 1429 E7070000 		.4byte	0x7e7
 3624 142d 41       		.uleb128 0x41
 3625 142e D7030000 		.4byte	.LASF131
 3626 1432 01       		.byte	0x1
 3627 1433 6D       		.byte	0x6d
 3628 1434 28140000 		.4byte	0x1428
 3629 1438 05       		.uleb128 0x5
 3630 1439 03       		.byte	0x3
ARM GAS  /tmp/cc9hyemz.s 			page 65


 3631 143a 00000000 		.4byte	testthd2
 3632 143e 41       		.uleb128 0x41
 3633 143f 70070000 		.4byte	.LASF132
 3634 1443 01       		.byte	0x1
 3635 1444 AE       		.byte	0xae
 3636 1445 28140000 		.4byte	0x1428
 3637 1449 05       		.uleb128 0x5
 3638 144a 03       		.byte	0x3
 3639 144b 00000000 		.4byte	testthd3
 3640 144f 41       		.uleb128 0x41
 3641 1450 F7030000 		.4byte	.LASF133
 3642 1454 01       		.byte	0x1
 3643 1455 DF       		.byte	0xdf
 3644 1456 28140000 		.4byte	0x1428
 3645 145a 05       		.uleb128 0x5
 3646 145b 03       		.byte	0x3
 3647 145c 00000000 		.4byte	testthd4
 3648 1460 10       		.uleb128 0x10
 3649 1461 70140000 		.4byte	0x1470
 3650 1465 70140000 		.4byte	0x1470
 3651 1469 11       		.uleb128 0x11
 3652 146a 35040000 		.4byte	0x435
 3653 146e 04       		.byte	0x4
 3654 146f 00       		.byte	0
 3655 1470 0B       		.uleb128 0xb
 3656 1471 04       		.byte	0x4
 3657 1472 28140000 		.4byte	0x1428
 3658 1476 41       		.uleb128 0x41
 3659 1477 53060000 		.4byte	.LASF134
 3660 147b 01       		.byte	0x1
 3661 147c E9       		.byte	0xe9
 3662 147d 87140000 		.4byte	0x1487
 3663 1481 05       		.uleb128 0x5
 3664 1482 03       		.byte	0x3
 3665 1483 00000000 		.4byte	patternthd
 3666 1487 19       		.uleb128 0x19
 3667 1488 60140000 		.4byte	0x1460
 3668 148c 42       		.uleb128 0x42
 3669 148d 90020000 		.4byte	.LASF135
 3670 1491 02       		.byte	0x2
 3671 1492 8C       		.byte	0x8c
 3672 1493 14070000 		.4byte	0x714
 3673 1497 B5140000 		.4byte	0x14b5
 3674 149b 0D       		.uleb128 0xd
 3675 149c FF020000 		.4byte	0x2ff
 3676 14a0 0D       		.uleb128 0xd
 3677 14a1 2C000000 		.4byte	0x2c
 3678 14a5 0D       		.uleb128 0xd
 3679 14a6 04010000 		.4byte	0x104
 3680 14aa 0D       		.uleb128 0xd
 3681 14ab B6070000 		.4byte	0x7b6
 3682 14af 0D       		.uleb128 0xd
 3683 14b0 FF020000 		.4byte	0x2ff
 3684 14b4 00       		.byte	0
 3685 14b5 43       		.uleb128 0x43
 3686 14b6 1D040000 		.4byte	.LASF152
 3687 14ba 10       		.byte	0x10
ARM GAS  /tmp/cc9hyemz.s 			page 66


 3688 14bb 5C       		.byte	0x5c
 3689 14bc 42       		.uleb128 0x42
 3690 14bd 55040000 		.4byte	.LASF136
 3691 14c1 10       		.byte	0x10
 3692 14c2 59       		.byte	0x59
 3693 14c3 D6140000 		.4byte	0x14d6
 3694 14c7 D6140000 		.4byte	0x14d6
 3695 14cb 0D       		.uleb128 0xd
 3696 14cc 37000000 		.4byte	0x37
 3697 14d0 0D       		.uleb128 0xd
 3698 14d1 DD140000 		.4byte	0x14dd
 3699 14d5 00       		.byte	0
 3700 14d6 04       		.uleb128 0x4
 3701 14d7 01       		.byte	0x1
 3702 14d8 02       		.byte	0x2
 3703 14d9 ED040000 		.4byte	.LASF137
 3704 14dd 0B       		.uleb128 0xb
 3705 14de 04       		.byte	0x4
 3706 14df 5D070000 		.4byte	0x75d
 3707 14e3 44       		.uleb128 0x44
 3708 14e4 F1000000 		.4byte	.LASF142
 3709 14e8 10       		.byte	0x10
 3710 14e9 56       		.byte	0x56
 3711 14ea F4140000 		.4byte	0x14f4
 3712 14ee 0D       		.uleb128 0xd
 3713 14ef 5D070000 		.4byte	0x75d
 3714 14f3 00       		.byte	0
 3715 14f4 42       		.uleb128 0x42
 3716 14f5 14010000 		.4byte	.LASF138
 3717 14f9 02       		.byte	0x2
 3718 14fa 8A       		.byte	0x8a
 3719 14fb 14070000 		.4byte	0x714
 3720 14ff 1D150000 		.4byte	0x151d
 3721 1503 0D       		.uleb128 0xd
 3722 1504 FF020000 		.4byte	0x2ff
 3723 1508 0D       		.uleb128 0xd
 3724 1509 2C000000 		.4byte	0x2c
 3725 150d 0D       		.uleb128 0xd
 3726 150e 04010000 		.4byte	0x104
 3727 1512 0D       		.uleb128 0xd
 3728 1513 B6070000 		.4byte	0x7b6
 3729 1517 0D       		.uleb128 0xd
 3730 1518 FF020000 		.4byte	0x2ff
 3731 151c 00       		.byte	0
 3732 151d 42       		.uleb128 0x42
 3733 151e 8D040000 		.4byte	.LASF139
 3734 1522 02       		.byte	0x2
 3735 1523 8E       		.byte	0x8e
 3736 1524 14070000 		.4byte	0x714
 3737 1528 32150000 		.4byte	0x1532
 3738 152c 0D       		.uleb128 0xd
 3739 152d 14070000 		.4byte	0x714
 3740 1531 00       		.byte	0
 3741 1532 42       		.uleb128 0x42
 3742 1533 B3010000 		.4byte	.LASF140
 3743 1537 02       		.byte	0x2
 3744 1538 8F       		.byte	0x8f
ARM GAS  /tmp/cc9hyemz.s 			page 67


 3745 1539 04010000 		.4byte	0x104
 3746 153d 47150000 		.4byte	0x1547
 3747 1541 0D       		.uleb128 0xd
 3748 1542 04010000 		.4byte	0x104
 3749 1546 00       		.byte	0
 3750 1547 42       		.uleb128 0x42
 3751 1548 3A070000 		.4byte	.LASF141
 3752 154c 10       		.byte	0x10
 3753 154d 58       		.byte	0x58
 3754 154e D6140000 		.4byte	0x14d6
 3755 1552 61150000 		.4byte	0x1561
 3756 1556 0D       		.uleb128 0xd
 3757 1557 37000000 		.4byte	0x37
 3758 155b 0D       		.uleb128 0xd
 3759 155c D6140000 		.4byte	0x14d6
 3760 1560 00       		.byte	0
 3761 1561 44       		.uleb128 0x44
 3762 1562 AD050000 		.4byte	.LASF143
 3763 1566 02       		.byte	0x2
 3764 1567 99       		.byte	0x99
 3765 1568 72150000 		.4byte	0x1572
 3766 156c 0D       		.uleb128 0xd
 3767 156d 25010000 		.4byte	0x125
 3768 1571 00       		.byte	0
 3769 1572 42       		.uleb128 0x42
 3770 1573 3D010000 		.4byte	.LASF144
 3771 1577 10       		.byte	0x10
 3772 1578 5A       		.byte	0x5a
 3773 1579 D6140000 		.4byte	0x14d6
 3774 157d 91150000 		.4byte	0x1591
 3775 1581 0D       		.uleb128 0xd
 3776 1582 37000000 		.4byte	0x37
 3777 1586 0D       		.uleb128 0xd
 3778 1587 25010000 		.4byte	0x125
 3779 158b 0D       		.uleb128 0xd
 3780 158c 25010000 		.4byte	0x125
 3781 1590 00       		.byte	0
 3782 1591 44       		.uleb128 0x44
 3783 1592 7D040000 		.4byte	.LASF145
 3784 1596 02       		.byte	0x2
 3785 1597 9A       		.byte	0x9a
 3786 1598 A2150000 		.4byte	0x15a2
 3787 159c 0D       		.uleb128 0xd
 3788 159d 25010000 		.4byte	0x125
 3789 15a1 00       		.byte	0
 3790 15a2 45       		.uleb128 0x45
 3791 15a3 09050000 		.4byte	.LASF153
 3792 15a7 10       		.byte	0x10
 3793 15a8 5D       		.byte	0x5d
 3794 15a9 25010000 		.4byte	0x125
 3795 15ad 00       		.byte	0
 3796              		.section	.debug_abbrev,"",%progbits
 3797              	.Ldebug_abbrev0:
 3798 0000 01       		.uleb128 0x1
 3799 0001 11       		.uleb128 0x11
 3800 0002 01       		.byte	0x1
 3801 0003 25       		.uleb128 0x25
ARM GAS  /tmp/cc9hyemz.s 			page 68


 3802 0004 0E       		.uleb128 0xe
 3803 0005 13       		.uleb128 0x13
 3804 0006 0B       		.uleb128 0xb
 3805 0007 03       		.uleb128 0x3
 3806 0008 0E       		.uleb128 0xe
 3807 0009 1B       		.uleb128 0x1b
 3808 000a 0E       		.uleb128 0xe
 3809 000b 55       		.uleb128 0x55
 3810 000c 17       		.uleb128 0x17
 3811 000d 11       		.uleb128 0x11
 3812 000e 01       		.uleb128 0x1
 3813 000f 10       		.uleb128 0x10
 3814 0010 17       		.uleb128 0x17
 3815 0011 00       		.byte	0
 3816 0012 00       		.byte	0
 3817 0013 02       		.uleb128 0x2
 3818 0014 24       		.uleb128 0x24
 3819 0015 00       		.byte	0
 3820 0016 0B       		.uleb128 0xb
 3821 0017 0B       		.uleb128 0xb
 3822 0018 3E       		.uleb128 0x3e
 3823 0019 0B       		.uleb128 0xb
 3824 001a 03       		.uleb128 0x3
 3825 001b 08       		.uleb128 0x8
 3826 001c 00       		.byte	0
 3827 001d 00       		.byte	0
 3828 001e 03       		.uleb128 0x3
 3829 001f 16       		.uleb128 0x16
 3830 0020 00       		.byte	0
 3831 0021 03       		.uleb128 0x3
 3832 0022 0E       		.uleb128 0xe
 3833 0023 3A       		.uleb128 0x3a
 3834 0024 0B       		.uleb128 0xb
 3835 0025 3B       		.uleb128 0x3b
 3836 0026 0B       		.uleb128 0xb
 3837 0027 49       		.uleb128 0x49
 3838 0028 13       		.uleb128 0x13
 3839 0029 00       		.byte	0
 3840 002a 00       		.byte	0
 3841 002b 04       		.uleb128 0x4
 3842 002c 24       		.uleb128 0x24
 3843 002d 00       		.byte	0
 3844 002e 0B       		.uleb128 0xb
 3845 002f 0B       		.uleb128 0xb
 3846 0030 3E       		.uleb128 0x3e
 3847 0031 0B       		.uleb128 0xb
 3848 0032 03       		.uleb128 0x3
 3849 0033 0E       		.uleb128 0xe
 3850 0034 00       		.byte	0
 3851 0035 00       		.byte	0
 3852 0036 05       		.uleb128 0x5
 3853 0037 35       		.uleb128 0x35
 3854 0038 00       		.byte	0
 3855 0039 49       		.uleb128 0x49
 3856 003a 13       		.uleb128 0x13
 3857 003b 00       		.byte	0
 3858 003c 00       		.byte	0
ARM GAS  /tmp/cc9hyemz.s 			page 69


 3859 003d 06       		.uleb128 0x6
 3860 003e 13       		.uleb128 0x13
 3861 003f 01       		.byte	0x1
 3862 0040 03       		.uleb128 0x3
 3863 0041 0E       		.uleb128 0xe
 3864 0042 0B       		.uleb128 0xb
 3865 0043 0B       		.uleb128 0xb
 3866 0044 3A       		.uleb128 0x3a
 3867 0045 0B       		.uleb128 0xb
 3868 0046 3B       		.uleb128 0x3b
 3869 0047 0B       		.uleb128 0xb
 3870 0048 01       		.uleb128 0x1
 3871 0049 13       		.uleb128 0x13
 3872 004a 00       		.byte	0
 3873 004b 00       		.byte	0
 3874 004c 07       		.uleb128 0x7
 3875 004d 0D       		.uleb128 0xd
 3876 004e 00       		.byte	0
 3877 004f 03       		.uleb128 0x3
 3878 0050 0E       		.uleb128 0xe
 3879 0051 3A       		.uleb128 0x3a
 3880 0052 0B       		.uleb128 0xb
 3881 0053 3B       		.uleb128 0x3b
 3882 0054 0B       		.uleb128 0xb
 3883 0055 49       		.uleb128 0x49
 3884 0056 13       		.uleb128 0x13
 3885 0057 38       		.uleb128 0x38
 3886 0058 0B       		.uleb128 0xb
 3887 0059 00       		.byte	0
 3888 005a 00       		.byte	0
 3889 005b 08       		.uleb128 0x8
 3890 005c 0D       		.uleb128 0xd
 3891 005d 00       		.byte	0
 3892 005e 03       		.uleb128 0x3
 3893 005f 08       		.uleb128 0x8
 3894 0060 3A       		.uleb128 0x3a
 3895 0061 0B       		.uleb128 0xb
 3896 0062 3B       		.uleb128 0x3b
 3897 0063 05       		.uleb128 0x5
 3898 0064 49       		.uleb128 0x49
 3899 0065 13       		.uleb128 0x13
 3900 0066 38       		.uleb128 0x38
 3901 0067 0B       		.uleb128 0xb
 3902 0068 00       		.byte	0
 3903 0069 00       		.byte	0
 3904 006a 09       		.uleb128 0x9
 3905 006b 0D       		.uleb128 0xd
 3906 006c 00       		.byte	0
 3907 006d 03       		.uleb128 0x3
 3908 006e 0E       		.uleb128 0xe
 3909 006f 3A       		.uleb128 0x3a
 3910 0070 0B       		.uleb128 0xb
 3911 0071 3B       		.uleb128 0x3b
 3912 0072 05       		.uleb128 0x5
 3913 0073 49       		.uleb128 0x49
 3914 0074 13       		.uleb128 0x13
 3915 0075 38       		.uleb128 0x38
ARM GAS  /tmp/cc9hyemz.s 			page 70


 3916 0076 0B       		.uleb128 0xb
 3917 0077 00       		.byte	0
 3918 0078 00       		.byte	0
 3919 0079 0A       		.uleb128 0xa
 3920 007a 13       		.uleb128 0x13
 3921 007b 01       		.byte	0x1
 3922 007c 03       		.uleb128 0x3
 3923 007d 0E       		.uleb128 0xe
 3924 007e 0B       		.uleb128 0xb
 3925 007f 0B       		.uleb128 0xb
 3926 0080 3A       		.uleb128 0x3a
 3927 0081 0B       		.uleb128 0xb
 3928 0082 3B       		.uleb128 0x3b
 3929 0083 05       		.uleb128 0x5
 3930 0084 01       		.uleb128 0x1
 3931 0085 13       		.uleb128 0x13
 3932 0086 00       		.byte	0
 3933 0087 00       		.byte	0
 3934 0088 0B       		.uleb128 0xb
 3935 0089 0F       		.uleb128 0xf
 3936 008a 00       		.byte	0
 3937 008b 0B       		.uleb128 0xb
 3938 008c 0B       		.uleb128 0xb
 3939 008d 49       		.uleb128 0x49
 3940 008e 13       		.uleb128 0x13
 3941 008f 00       		.byte	0
 3942 0090 00       		.byte	0
 3943 0091 0C       		.uleb128 0xc
 3944 0092 15       		.uleb128 0x15
 3945 0093 01       		.byte	0x1
 3946 0094 27       		.uleb128 0x27
 3947 0095 19       		.uleb128 0x19
 3948 0096 01       		.uleb128 0x1
 3949 0097 13       		.uleb128 0x13
 3950 0098 00       		.byte	0
 3951 0099 00       		.byte	0
 3952 009a 0D       		.uleb128 0xd
 3953 009b 05       		.uleb128 0x5
 3954 009c 00       		.byte	0
 3955 009d 49       		.uleb128 0x49
 3956 009e 13       		.uleb128 0x13
 3957 009f 00       		.byte	0
 3958 00a0 00       		.byte	0
 3959 00a1 0E       		.uleb128 0xe
 3960 00a2 0F       		.uleb128 0xf
 3961 00a3 00       		.byte	0
 3962 00a4 0B       		.uleb128 0xb
 3963 00a5 0B       		.uleb128 0xb
 3964 00a6 00       		.byte	0
 3965 00a7 00       		.byte	0
 3966 00a8 0F       		.uleb128 0xf
 3967 00a9 13       		.uleb128 0x13
 3968 00aa 01       		.byte	0x1
 3969 00ab 03       		.uleb128 0x3
 3970 00ac 0E       		.uleb128 0xe
 3971 00ad 0B       		.uleb128 0xb
 3972 00ae 05       		.uleb128 0x5
ARM GAS  /tmp/cc9hyemz.s 			page 71


 3973 00af 3A       		.uleb128 0x3a
 3974 00b0 0B       		.uleb128 0xb
 3975 00b1 3B       		.uleb128 0x3b
 3976 00b2 05       		.uleb128 0x5
 3977 00b3 01       		.uleb128 0x1
 3978 00b4 13       		.uleb128 0x13
 3979 00b5 00       		.byte	0
 3980 00b6 00       		.byte	0
 3981 00b7 10       		.uleb128 0x10
 3982 00b8 01       		.uleb128 0x1
 3983 00b9 01       		.byte	0x1
 3984 00ba 49       		.uleb128 0x49
 3985 00bb 13       		.uleb128 0x13
 3986 00bc 01       		.uleb128 0x1
 3987 00bd 13       		.uleb128 0x13
 3988 00be 00       		.byte	0
 3989 00bf 00       		.byte	0
 3990 00c0 11       		.uleb128 0x11
 3991 00c1 21       		.uleb128 0x21
 3992 00c2 00       		.byte	0
 3993 00c3 49       		.uleb128 0x49
 3994 00c4 13       		.uleb128 0x13
 3995 00c5 2F       		.uleb128 0x2f
 3996 00c6 0B       		.uleb128 0xb
 3997 00c7 00       		.byte	0
 3998 00c8 00       		.byte	0
 3999 00c9 12       		.uleb128 0x12
 4000 00ca 0D       		.uleb128 0xd
 4001 00cb 00       		.byte	0
 4002 00cc 03       		.uleb128 0x3
 4003 00cd 08       		.uleb128 0x8
 4004 00ce 3A       		.uleb128 0x3a
 4005 00cf 0B       		.uleb128 0xb
 4006 00d0 3B       		.uleb128 0x3b
 4007 00d1 0B       		.uleb128 0xb
 4008 00d2 49       		.uleb128 0x49
 4009 00d3 13       		.uleb128 0x13
 4010 00d4 38       		.uleb128 0x38
 4011 00d5 0B       		.uleb128 0xb
 4012 00d6 00       		.byte	0
 4013 00d7 00       		.byte	0
 4014 00d8 13       		.uleb128 0x13
 4015 00d9 13       		.uleb128 0x13
 4016 00da 01       		.byte	0x1
 4017 00db 0B       		.uleb128 0xb
 4018 00dc 0B       		.uleb128 0xb
 4019 00dd 3A       		.uleb128 0x3a
 4020 00de 0B       		.uleb128 0xb
 4021 00df 3B       		.uleb128 0x3b
 4022 00e0 05       		.uleb128 0x5
 4023 00e1 01       		.uleb128 0x1
 4024 00e2 13       		.uleb128 0x13
 4025 00e3 00       		.byte	0
 4026 00e4 00       		.byte	0
 4027 00e5 14       		.uleb128 0x14
 4028 00e6 16       		.uleb128 0x16
 4029 00e7 00       		.byte	0
ARM GAS  /tmp/cc9hyemz.s 			page 72


 4030 00e8 03       		.uleb128 0x3
 4031 00e9 0E       		.uleb128 0xe
 4032 00ea 3A       		.uleb128 0x3a
 4033 00eb 0B       		.uleb128 0xb
 4034 00ec 3B       		.uleb128 0x3b
 4035 00ed 05       		.uleb128 0x5
 4036 00ee 49       		.uleb128 0x49
 4037 00ef 13       		.uleb128 0x13
 4038 00f0 00       		.byte	0
 4039 00f1 00       		.byte	0
 4040 00f2 15       		.uleb128 0x15
 4041 00f3 13       		.uleb128 0x13
 4042 00f4 01       		.byte	0x1
 4043 00f5 0B       		.uleb128 0xb
 4044 00f6 0B       		.uleb128 0xb
 4045 00f7 3A       		.uleb128 0x3a
 4046 00f8 0B       		.uleb128 0xb
 4047 00f9 3B       		.uleb128 0x3b
 4048 00fa 0B       		.uleb128 0xb
 4049 00fb 01       		.uleb128 0x1
 4050 00fc 13       		.uleb128 0x13
 4051 00fd 00       		.byte	0
 4052 00fe 00       		.byte	0
 4053 00ff 16       		.uleb128 0x16
 4054 0100 17       		.uleb128 0x17
 4055 0101 01       		.byte	0x1
 4056 0102 0B       		.uleb128 0xb
 4057 0103 0B       		.uleb128 0xb
 4058 0104 3A       		.uleb128 0x3a
 4059 0105 0B       		.uleb128 0xb
 4060 0106 3B       		.uleb128 0x3b
 4061 0107 0B       		.uleb128 0xb
 4062 0108 01       		.uleb128 0x1
 4063 0109 13       		.uleb128 0x13
 4064 010a 00       		.byte	0
 4065 010b 00       		.byte	0
 4066 010c 17       		.uleb128 0x17
 4067 010d 0D       		.uleb128 0xd
 4068 010e 00       		.byte	0
 4069 010f 03       		.uleb128 0x3
 4070 0110 0E       		.uleb128 0xe
 4071 0111 3A       		.uleb128 0x3a
 4072 0112 0B       		.uleb128 0xb
 4073 0113 3B       		.uleb128 0x3b
 4074 0114 0B       		.uleb128 0xb
 4075 0115 49       		.uleb128 0x49
 4076 0116 13       		.uleb128 0x13
 4077 0117 00       		.byte	0
 4078 0118 00       		.byte	0
 4079 0119 18       		.uleb128 0x18
 4080 011a 0D       		.uleb128 0xd
 4081 011b 00       		.byte	0
 4082 011c 03       		.uleb128 0x3
 4083 011d 0E       		.uleb128 0xe
 4084 011e 3A       		.uleb128 0x3a
 4085 011f 0B       		.uleb128 0xb
 4086 0120 3B       		.uleb128 0x3b
ARM GAS  /tmp/cc9hyemz.s 			page 73


 4087 0121 05       		.uleb128 0x5
 4088 0122 49       		.uleb128 0x49
 4089 0123 13       		.uleb128 0x13
 4090 0124 00       		.byte	0
 4091 0125 00       		.byte	0
 4092 0126 19       		.uleb128 0x19
 4093 0127 26       		.uleb128 0x26
 4094 0128 00       		.byte	0
 4095 0129 49       		.uleb128 0x49
 4096 012a 13       		.uleb128 0x13
 4097 012b 00       		.byte	0
 4098 012c 00       		.byte	0
 4099 012d 1A       		.uleb128 0x1a
 4100 012e 15       		.uleb128 0x15
 4101 012f 01       		.byte	0x1
 4102 0130 27       		.uleb128 0x27
 4103 0131 19       		.uleb128 0x19
 4104 0132 49       		.uleb128 0x49
 4105 0133 13       		.uleb128 0x13
 4106 0134 01       		.uleb128 0x1
 4107 0135 13       		.uleb128 0x13
 4108 0136 00       		.byte	0
 4109 0137 00       		.byte	0
 4110 0138 1B       		.uleb128 0x1b
 4111 0139 15       		.uleb128 0x15
 4112 013a 00       		.byte	0
 4113 013b 27       		.uleb128 0x27
 4114 013c 19       		.uleb128 0x19
 4115 013d 00       		.byte	0
 4116 013e 00       		.byte	0
 4117 013f 1C       		.uleb128 0x1c
 4118 0140 2E       		.uleb128 0x2e
 4119 0141 01       		.byte	0x1
 4120 0142 03       		.uleb128 0x3
 4121 0143 0E       		.uleb128 0xe
 4122 0144 3A       		.uleb128 0x3a
 4123 0145 0B       		.uleb128 0xb
 4124 0146 3B       		.uleb128 0x3b
 4125 0147 05       		.uleb128 0x5
 4126 0148 27       		.uleb128 0x27
 4127 0149 19       		.uleb128 0x19
 4128 014a 20       		.uleb128 0x20
 4129 014b 0B       		.uleb128 0xb
 4130 014c 01       		.uleb128 0x1
 4131 014d 13       		.uleb128 0x13
 4132 014e 00       		.byte	0
 4133 014f 00       		.byte	0
 4134 0150 1D       		.uleb128 0x1d
 4135 0151 05       		.uleb128 0x5
 4136 0152 00       		.byte	0
 4137 0153 03       		.uleb128 0x3
 4138 0154 0E       		.uleb128 0xe
 4139 0155 3A       		.uleb128 0x3a
 4140 0156 0B       		.uleb128 0xb
 4141 0157 3B       		.uleb128 0x3b
 4142 0158 05       		.uleb128 0x5
 4143 0159 49       		.uleb128 0x49
ARM GAS  /tmp/cc9hyemz.s 			page 74


 4144 015a 13       		.uleb128 0x13
 4145 015b 00       		.byte	0
 4146 015c 00       		.byte	0
 4147 015d 1E       		.uleb128 0x1e
 4148 015e 2E       		.uleb128 0x2e
 4149 015f 00       		.byte	0
 4150 0160 03       		.uleb128 0x3
 4151 0161 0E       		.uleb128 0xe
 4152 0162 3A       		.uleb128 0x3a
 4153 0163 0B       		.uleb128 0xb
 4154 0164 3B       		.uleb128 0x3b
 4155 0165 0B       		.uleb128 0xb
 4156 0166 27       		.uleb128 0x27
 4157 0167 19       		.uleb128 0x19
 4158 0168 49       		.uleb128 0x49
 4159 0169 13       		.uleb128 0x13
 4160 016a 20       		.uleb128 0x20
 4161 016b 0B       		.uleb128 0xb
 4162 016c 00       		.byte	0
 4163 016d 00       		.byte	0
 4164 016e 1F       		.uleb128 0x1f
 4165 016f 2E       		.uleb128 0x2e
 4166 0170 00       		.byte	0
 4167 0171 03       		.uleb128 0x3
 4168 0172 0E       		.uleb128 0xe
 4169 0173 3A       		.uleb128 0x3a
 4170 0174 0B       		.uleb128 0xb
 4171 0175 3B       		.uleb128 0x3b
 4172 0176 05       		.uleb128 0x5
 4173 0177 27       		.uleb128 0x27
 4174 0178 19       		.uleb128 0x19
 4175 0179 20       		.uleb128 0x20
 4176 017a 0B       		.uleb128 0xb
 4177 017b 00       		.byte	0
 4178 017c 00       		.byte	0
 4179 017d 20       		.uleb128 0x20
 4180 017e 34       		.uleb128 0x34
 4181 017f 00       		.byte	0
 4182 0180 03       		.uleb128 0x3
 4183 0181 0E       		.uleb128 0xe
 4184 0182 49       		.uleb128 0x49
 4185 0183 13       		.uleb128 0x13
 4186 0184 34       		.uleb128 0x34
 4187 0185 19       		.uleb128 0x19
 4188 0186 1C       		.uleb128 0x1c
 4189 0187 0E       		.uleb128 0xe
 4190 0188 00       		.byte	0
 4191 0189 00       		.byte	0
 4192 018a 21       		.uleb128 0x21
 4193 018b 2E       		.uleb128 0x2e
 4194 018c 01       		.byte	0x1
 4195 018d 03       		.uleb128 0x3
 4196 018e 0E       		.uleb128 0xe
 4197 018f 3A       		.uleb128 0x3a
 4198 0190 0B       		.uleb128 0xb
 4199 0191 3B       		.uleb128 0x3b
 4200 0192 0B       		.uleb128 0xb
ARM GAS  /tmp/cc9hyemz.s 			page 75


 4201 0193 27       		.uleb128 0x27
 4202 0194 19       		.uleb128 0x19
 4203 0195 49       		.uleb128 0x49
 4204 0196 13       		.uleb128 0x13
 4205 0197 20       		.uleb128 0x20
 4206 0198 0B       		.uleb128 0xb
 4207 0199 01       		.uleb128 0x1
 4208 019a 13       		.uleb128 0x13
 4209 019b 00       		.byte	0
 4210 019c 00       		.byte	0
 4211 019d 22       		.uleb128 0x22
 4212 019e 34       		.uleb128 0x34
 4213 019f 00       		.byte	0
 4214 01a0 03       		.uleb128 0x3
 4215 01a1 0E       		.uleb128 0xe
 4216 01a2 3A       		.uleb128 0x3a
 4217 01a3 0B       		.uleb128 0xb
 4218 01a4 3B       		.uleb128 0x3b
 4219 01a5 0B       		.uleb128 0xb
 4220 01a6 49       		.uleb128 0x49
 4221 01a7 13       		.uleb128 0x13
 4222 01a8 00       		.byte	0
 4223 01a9 00       		.byte	0
 4224 01aa 23       		.uleb128 0x23
 4225 01ab 2E       		.uleb128 0x2e
 4226 01ac 01       		.byte	0x1
 4227 01ad 03       		.uleb128 0x3
 4228 01ae 0E       		.uleb128 0xe
 4229 01af 3A       		.uleb128 0x3a
 4230 01b0 0B       		.uleb128 0xb
 4231 01b1 3B       		.uleb128 0x3b
 4232 01b2 0B       		.uleb128 0xb
 4233 01b3 27       		.uleb128 0x27
 4234 01b4 19       		.uleb128 0x19
 4235 01b5 20       		.uleb128 0x20
 4236 01b6 0B       		.uleb128 0xb
 4237 01b7 01       		.uleb128 0x1
 4238 01b8 13       		.uleb128 0x13
 4239 01b9 00       		.byte	0
 4240 01ba 00       		.byte	0
 4241 01bb 24       		.uleb128 0x24
 4242 01bc 2E       		.uleb128 0x2e
 4243 01bd 01       		.byte	0x1
 4244 01be 03       		.uleb128 0x3
 4245 01bf 0E       		.uleb128 0xe
 4246 01c0 3A       		.uleb128 0x3a
 4247 01c1 0B       		.uleb128 0xb
 4248 01c2 3B       		.uleb128 0x3b
 4249 01c3 0B       		.uleb128 0xb
 4250 01c4 27       		.uleb128 0x27
 4251 01c5 19       		.uleb128 0x19
 4252 01c6 11       		.uleb128 0x11
 4253 01c7 01       		.uleb128 0x1
 4254 01c8 12       		.uleb128 0x12
 4255 01c9 06       		.uleb128 0x6
 4256 01ca 40       		.uleb128 0x40
 4257 01cb 18       		.uleb128 0x18
ARM GAS  /tmp/cc9hyemz.s 			page 76


 4258 01cc 9742     		.uleb128 0x2117
 4259 01ce 19       		.uleb128 0x19
 4260 01cf 01       		.uleb128 0x1
 4261 01d0 13       		.uleb128 0x13
 4262 01d1 00       		.byte	0
 4263 01d2 00       		.byte	0
 4264 01d3 25       		.uleb128 0x25
 4265 01d4 1D       		.uleb128 0x1d
 4266 01d5 01       		.byte	0x1
 4267 01d6 31       		.uleb128 0x31
 4268 01d7 13       		.uleb128 0x13
 4269 01d8 52       		.uleb128 0x52
 4270 01d9 01       		.uleb128 0x1
 4271 01da 55       		.uleb128 0x55
 4272 01db 17       		.uleb128 0x17
 4273 01dc 58       		.uleb128 0x58
 4274 01dd 0B       		.uleb128 0xb
 4275 01de 59       		.uleb128 0x59
 4276 01df 0B       		.uleb128 0xb
 4277 01e0 01       		.uleb128 0x1
 4278 01e1 13       		.uleb128 0x13
 4279 01e2 00       		.byte	0
 4280 01e3 00       		.byte	0
 4281 01e4 26       		.uleb128 0x26
 4282 01e5 1D       		.uleb128 0x1d
 4283 01e6 00       		.byte	0
 4284 01e7 31       		.uleb128 0x31
 4285 01e8 13       		.uleb128 0x13
 4286 01e9 11       		.uleb128 0x11
 4287 01ea 01       		.uleb128 0x1
 4288 01eb 12       		.uleb128 0x12
 4289 01ec 06       		.uleb128 0x6
 4290 01ed 58       		.uleb128 0x58
 4291 01ee 0B       		.uleb128 0xb
 4292 01ef 59       		.uleb128 0x59
 4293 01f0 0B       		.uleb128 0xb
 4294 01f1 00       		.byte	0
 4295 01f2 00       		.byte	0
 4296 01f3 27       		.uleb128 0x27
 4297 01f4 898201   		.uleb128 0x4109
 4298 01f7 01       		.byte	0x1
 4299 01f8 11       		.uleb128 0x11
 4300 01f9 01       		.uleb128 0x1
 4301 01fa 31       		.uleb128 0x31
 4302 01fb 13       		.uleb128 0x13
 4303 01fc 01       		.uleb128 0x1
 4304 01fd 13       		.uleb128 0x13
 4305 01fe 00       		.byte	0
 4306 01ff 00       		.byte	0
 4307 0200 28       		.uleb128 0x28
 4308 0201 8A8201   		.uleb128 0x410a
 4309 0204 00       		.byte	0
 4310 0205 02       		.uleb128 0x2
 4311 0206 18       		.uleb128 0x18
 4312 0207 9142     		.uleb128 0x2111
 4313 0209 18       		.uleb128 0x18
 4314 020a 00       		.byte	0
ARM GAS  /tmp/cc9hyemz.s 			page 77


 4315 020b 00       		.byte	0
 4316 020c 29       		.uleb128 0x29
 4317 020d 898201   		.uleb128 0x4109
 4318 0210 00       		.byte	0
 4319 0211 11       		.uleb128 0x11
 4320 0212 01       		.uleb128 0x1
 4321 0213 31       		.uleb128 0x31
 4322 0214 13       		.uleb128 0x13
 4323 0215 00       		.byte	0
 4324 0216 00       		.byte	0
 4325 0217 2A       		.uleb128 0x2a
 4326 0218 898201   		.uleb128 0x4109
 4327 021b 01       		.byte	0x1
 4328 021c 11       		.uleb128 0x11
 4329 021d 01       		.uleb128 0x1
 4330 021e 9542     		.uleb128 0x2115
 4331 0220 19       		.uleb128 0x19
 4332 0221 31       		.uleb128 0x31
 4333 0222 13       		.uleb128 0x13
 4334 0223 00       		.byte	0
 4335 0224 00       		.byte	0
 4336 0225 2B       		.uleb128 0x2b
 4337 0226 2E       		.uleb128 0x2e
 4338 0227 01       		.byte	0x1
 4339 0228 03       		.uleb128 0x3
 4340 0229 0E       		.uleb128 0xe
 4341 022a 3A       		.uleb128 0x3a
 4342 022b 0B       		.uleb128 0xb
 4343 022c 3B       		.uleb128 0x3b
 4344 022d 0B       		.uleb128 0xb
 4345 022e 27       		.uleb128 0x27
 4346 022f 19       		.uleb128 0x19
 4347 0230 49       		.uleb128 0x49
 4348 0231 13       		.uleb128 0x13
 4349 0232 11       		.uleb128 0x11
 4350 0233 01       		.uleb128 0x1
 4351 0234 12       		.uleb128 0x12
 4352 0235 06       		.uleb128 0x6
 4353 0236 40       		.uleb128 0x40
 4354 0237 18       		.uleb128 0x18
 4355 0238 9742     		.uleb128 0x2117
 4356 023a 19       		.uleb128 0x19
 4357 023b 01       		.uleb128 0x1
 4358 023c 13       		.uleb128 0x13
 4359 023d 00       		.byte	0
 4360 023e 00       		.byte	0
 4361 023f 2C       		.uleb128 0x2c
 4362 0240 05       		.uleb128 0x5
 4363 0241 00       		.byte	0
 4364 0242 03       		.uleb128 0x3
 4365 0243 08       		.uleb128 0x8
 4366 0244 3A       		.uleb128 0x3a
 4367 0245 0B       		.uleb128 0xb
 4368 0246 3B       		.uleb128 0x3b
 4369 0247 0B       		.uleb128 0xb
 4370 0248 49       		.uleb128 0x49
 4371 0249 13       		.uleb128 0x13
ARM GAS  /tmp/cc9hyemz.s 			page 78


 4372 024a 02       		.uleb128 0x2
 4373 024b 17       		.uleb128 0x17
 4374 024c 00       		.byte	0
 4375 024d 00       		.byte	0
 4376 024e 2D       		.uleb128 0x2d
 4377 024f 1D       		.uleb128 0x1d
 4378 0250 01       		.byte	0x1
 4379 0251 31       		.uleb128 0x31
 4380 0252 13       		.uleb128 0x13
 4381 0253 52       		.uleb128 0x52
 4382 0254 01       		.uleb128 0x1
 4383 0255 55       		.uleb128 0x55
 4384 0256 17       		.uleb128 0x17
 4385 0257 58       		.uleb128 0x58
 4386 0258 0B       		.uleb128 0xb
 4387 0259 59       		.uleb128 0x59
 4388 025a 05       		.uleb128 0x5
 4389 025b 00       		.byte	0
 4390 025c 00       		.byte	0
 4391 025d 2E       		.uleb128 0x2e
 4392 025e 05       		.uleb128 0x5
 4393 025f 00       		.byte	0
 4394 0260 31       		.uleb128 0x31
 4395 0261 13       		.uleb128 0x13
 4396 0262 1C       		.uleb128 0x1c
 4397 0263 0B       		.uleb128 0xb
 4398 0264 00       		.byte	0
 4399 0265 00       		.byte	0
 4400 0266 2F       		.uleb128 0x2f
 4401 0267 0B       		.uleb128 0xb
 4402 0268 01       		.byte	0x1
 4403 0269 55       		.uleb128 0x55
 4404 026a 17       		.uleb128 0x17
 4405 026b 00       		.byte	0
 4406 026c 00       		.byte	0
 4407 026d 30       		.uleb128 0x30
 4408 026e 34       		.uleb128 0x34
 4409 026f 00       		.byte	0
 4410 0270 31       		.uleb128 0x31
 4411 0271 13       		.uleb128 0x13
 4412 0272 00       		.byte	0
 4413 0273 00       		.byte	0
 4414 0274 31       		.uleb128 0x31
 4415 0275 34       		.uleb128 0x34
 4416 0276 00       		.byte	0
 4417 0277 03       		.uleb128 0x3
 4418 0278 08       		.uleb128 0x8
 4419 0279 3A       		.uleb128 0x3a
 4420 027a 0B       		.uleb128 0xb
 4421 027b 3B       		.uleb128 0x3b
 4422 027c 0B       		.uleb128 0xb
 4423 027d 49       		.uleb128 0x49
 4424 027e 13       		.uleb128 0x13
 4425 027f 02       		.uleb128 0x2
 4426 0280 17       		.uleb128 0x17
 4427 0281 00       		.byte	0
 4428 0282 00       		.byte	0
ARM GAS  /tmp/cc9hyemz.s 			page 79


 4429 0283 32       		.uleb128 0x32
 4430 0284 1D       		.uleb128 0x1d
 4431 0285 01       		.byte	0x1
 4432 0286 31       		.uleb128 0x31
 4433 0287 13       		.uleb128 0x13
 4434 0288 11       		.uleb128 0x11
 4435 0289 01       		.uleb128 0x1
 4436 028a 12       		.uleb128 0x12
 4437 028b 06       		.uleb128 0x6
 4438 028c 58       		.uleb128 0x58
 4439 028d 0B       		.uleb128 0xb
 4440 028e 59       		.uleb128 0x59
 4441 028f 0B       		.uleb128 0xb
 4442 0290 01       		.uleb128 0x1
 4443 0291 13       		.uleb128 0x13
 4444 0292 00       		.byte	0
 4445 0293 00       		.byte	0
 4446 0294 33       		.uleb128 0x33
 4447 0295 1D       		.uleb128 0x1d
 4448 0296 01       		.byte	0x1
 4449 0297 31       		.uleb128 0x31
 4450 0298 13       		.uleb128 0x13
 4451 0299 11       		.uleb128 0x11
 4452 029a 01       		.uleb128 0x1
 4453 029b 12       		.uleb128 0x12
 4454 029c 06       		.uleb128 0x6
 4455 029d 58       		.uleb128 0x58
 4456 029e 0B       		.uleb128 0xb
 4457 029f 59       		.uleb128 0x59
 4458 02a0 05       		.uleb128 0x5
 4459 02a1 00       		.byte	0
 4460 02a2 00       		.byte	0
 4461 02a3 34       		.uleb128 0x34
 4462 02a4 0B       		.uleb128 0xb
 4463 02a5 01       		.byte	0x1
 4464 02a6 11       		.uleb128 0x11
 4465 02a7 01       		.uleb128 0x1
 4466 02a8 12       		.uleb128 0x12
 4467 02a9 06       		.uleb128 0x6
 4468 02aa 00       		.byte	0
 4469 02ab 00       		.byte	0
 4470 02ac 35       		.uleb128 0x35
 4471 02ad 898201   		.uleb128 0x4109
 4472 02b0 01       		.byte	0x1
 4473 02b1 11       		.uleb128 0x11
 4474 02b2 01       		.uleb128 0x1
 4475 02b3 31       		.uleb128 0x31
 4476 02b4 13       		.uleb128 0x13
 4477 02b5 00       		.byte	0
 4478 02b6 00       		.byte	0
 4479 02b7 36       		.uleb128 0x36
 4480 02b8 2E       		.uleb128 0x2e
 4481 02b9 01       		.byte	0x1
 4482 02ba 31       		.uleb128 0x31
 4483 02bb 13       		.uleb128 0x13
 4484 02bc 11       		.uleb128 0x11
 4485 02bd 01       		.uleb128 0x1
ARM GAS  /tmp/cc9hyemz.s 			page 80


 4486 02be 12       		.uleb128 0x12
 4487 02bf 06       		.uleb128 0x6
 4488 02c0 40       		.uleb128 0x40
 4489 02c1 18       		.uleb128 0x18
 4490 02c2 9742     		.uleb128 0x2117
 4491 02c4 19       		.uleb128 0x19
 4492 02c5 01       		.uleb128 0x1
 4493 02c6 13       		.uleb128 0x13
 4494 02c7 00       		.byte	0
 4495 02c8 00       		.byte	0
 4496 02c9 37       		.uleb128 0x37
 4497 02ca 1D       		.uleb128 0x1d
 4498 02cb 01       		.byte	0x1
 4499 02cc 31       		.uleb128 0x31
 4500 02cd 13       		.uleb128 0x13
 4501 02ce 52       		.uleb128 0x52
 4502 02cf 01       		.uleb128 0x1
 4503 02d0 55       		.uleb128 0x55
 4504 02d1 17       		.uleb128 0x17
 4505 02d2 58       		.uleb128 0x58
 4506 02d3 0B       		.uleb128 0xb
 4507 02d4 59       		.uleb128 0x59
 4508 02d5 0B       		.uleb128 0xb
 4509 02d6 00       		.byte	0
 4510 02d7 00       		.byte	0
 4511 02d8 38       		.uleb128 0x38
 4512 02d9 1D       		.uleb128 0x1d
 4513 02da 00       		.byte	0
 4514 02db 31       		.uleb128 0x31
 4515 02dc 13       		.uleb128 0x13
 4516 02dd 52       		.uleb128 0x52
 4517 02de 01       		.uleb128 0x1
 4518 02df 55       		.uleb128 0x55
 4519 02e0 17       		.uleb128 0x17
 4520 02e1 58       		.uleb128 0x58
 4521 02e2 0B       		.uleb128 0xb
 4522 02e3 59       		.uleb128 0x59
 4523 02e4 0B       		.uleb128 0xb
 4524 02e5 00       		.byte	0
 4525 02e6 00       		.byte	0
 4526 02e7 39       		.uleb128 0x39
 4527 02e8 1D       		.uleb128 0x1d
 4528 02e9 01       		.byte	0x1
 4529 02ea 31       		.uleb128 0x31
 4530 02eb 13       		.uleb128 0x13
 4531 02ec 11       		.uleb128 0x11
 4532 02ed 01       		.uleb128 0x1
 4533 02ee 12       		.uleb128 0x12
 4534 02ef 06       		.uleb128 0x6
 4535 02f0 58       		.uleb128 0x58
 4536 02f1 0B       		.uleb128 0xb
 4537 02f2 59       		.uleb128 0x59
 4538 02f3 0B       		.uleb128 0xb
 4539 02f4 00       		.byte	0
 4540 02f5 00       		.byte	0
 4541 02f6 3A       		.uleb128 0x3a
 4542 02f7 0B       		.uleb128 0xb
ARM GAS  /tmp/cc9hyemz.s 			page 81


 4543 02f8 01       		.byte	0x1
 4544 02f9 55       		.uleb128 0x55
 4545 02fa 17       		.uleb128 0x17
 4546 02fb 01       		.uleb128 0x1
 4547 02fc 13       		.uleb128 0x13
 4548 02fd 00       		.byte	0
 4549 02fe 00       		.byte	0
 4550 02ff 3B       		.uleb128 0x3b
 4551 0300 34       		.uleb128 0x34
 4552 0301 00       		.byte	0
 4553 0302 31       		.uleb128 0x31
 4554 0303 13       		.uleb128 0x13
 4555 0304 02       		.uleb128 0x2
 4556 0305 17       		.uleb128 0x17
 4557 0306 00       		.byte	0
 4558 0307 00       		.byte	0
 4559 0308 3C       		.uleb128 0x3c
 4560 0309 34       		.uleb128 0x34
 4561 030a 00       		.byte	0
 4562 030b 03       		.uleb128 0x3
 4563 030c 0E       		.uleb128 0xe
 4564 030d 3A       		.uleb128 0x3a
 4565 030e 0B       		.uleb128 0xb
 4566 030f 3B       		.uleb128 0x3b
 4567 0310 05       		.uleb128 0x5
 4568 0311 49       		.uleb128 0x49
 4569 0312 13       		.uleb128 0x13
 4570 0313 3F       		.uleb128 0x3f
 4571 0314 19       		.uleb128 0x19
 4572 0315 3C       		.uleb128 0x3c
 4573 0316 19       		.uleb128 0x19
 4574 0317 00       		.byte	0
 4575 0318 00       		.byte	0
 4576 0319 3D       		.uleb128 0x3d
 4577 031a 34       		.uleb128 0x34
 4578 031b 00       		.byte	0
 4579 031c 03       		.uleb128 0x3
 4580 031d 08       		.uleb128 0x8
 4581 031e 3A       		.uleb128 0x3a
 4582 031f 0B       		.uleb128 0xb
 4583 0320 3B       		.uleb128 0x3b
 4584 0321 05       		.uleb128 0x5
 4585 0322 49       		.uleb128 0x49
 4586 0323 13       		.uleb128 0x13
 4587 0324 3F       		.uleb128 0x3f
 4588 0325 19       		.uleb128 0x19
 4589 0326 3C       		.uleb128 0x3c
 4590 0327 19       		.uleb128 0x19
 4591 0328 00       		.byte	0
 4592 0329 00       		.byte	0
 4593 032a 3E       		.uleb128 0x3e
 4594 032b 34       		.uleb128 0x34
 4595 032c 00       		.byte	0
 4596 032d 03       		.uleb128 0x3
 4597 032e 0E       		.uleb128 0xe
 4598 032f 3A       		.uleb128 0x3a
 4599 0330 0B       		.uleb128 0xb
ARM GAS  /tmp/cc9hyemz.s 			page 82


 4600 0331 3B       		.uleb128 0x3b
 4601 0332 0B       		.uleb128 0xb
 4602 0333 49       		.uleb128 0x49
 4603 0334 13       		.uleb128 0x13
 4604 0335 3F       		.uleb128 0x3f
 4605 0336 19       		.uleb128 0x19
 4606 0337 3C       		.uleb128 0x3c
 4607 0338 19       		.uleb128 0x19
 4608 0339 00       		.byte	0
 4609 033a 00       		.byte	0
 4610 033b 3F       		.uleb128 0x3f
 4611 033c 21       		.uleb128 0x21
 4612 033d 00       		.byte	0
 4613 033e 00       		.byte	0
 4614 033f 00       		.byte	0
 4615 0340 40       		.uleb128 0x40
 4616 0341 34       		.uleb128 0x34
 4617 0342 00       		.byte	0
 4618 0343 03       		.uleb128 0x3
 4619 0344 08       		.uleb128 0x8
 4620 0345 3A       		.uleb128 0x3a
 4621 0346 0B       		.uleb128 0xb
 4622 0347 3B       		.uleb128 0x3b
 4623 0348 0B       		.uleb128 0xb
 4624 0349 49       		.uleb128 0x49
 4625 034a 13       		.uleb128 0x13
 4626 034b 3F       		.uleb128 0x3f
 4627 034c 19       		.uleb128 0x19
 4628 034d 3C       		.uleb128 0x3c
 4629 034e 19       		.uleb128 0x19
 4630 034f 00       		.byte	0
 4631 0350 00       		.byte	0
 4632 0351 41       		.uleb128 0x41
 4633 0352 34       		.uleb128 0x34
 4634 0353 00       		.byte	0
 4635 0354 03       		.uleb128 0x3
 4636 0355 0E       		.uleb128 0xe
 4637 0356 3A       		.uleb128 0x3a
 4638 0357 0B       		.uleb128 0xb
 4639 0358 3B       		.uleb128 0x3b
 4640 0359 0B       		.uleb128 0xb
 4641 035a 49       		.uleb128 0x49
 4642 035b 13       		.uleb128 0x13
 4643 035c 3F       		.uleb128 0x3f
 4644 035d 19       		.uleb128 0x19
 4645 035e 02       		.uleb128 0x2
 4646 035f 18       		.uleb128 0x18
 4647 0360 00       		.byte	0
 4648 0361 00       		.byte	0
 4649 0362 42       		.uleb128 0x42
 4650 0363 2E       		.uleb128 0x2e
 4651 0364 01       		.byte	0x1
 4652 0365 3F       		.uleb128 0x3f
 4653 0366 19       		.uleb128 0x19
 4654 0367 03       		.uleb128 0x3
 4655 0368 0E       		.uleb128 0xe
 4656 0369 3A       		.uleb128 0x3a
ARM GAS  /tmp/cc9hyemz.s 			page 83


 4657 036a 0B       		.uleb128 0xb
 4658 036b 3B       		.uleb128 0x3b
 4659 036c 0B       		.uleb128 0xb
 4660 036d 27       		.uleb128 0x27
 4661 036e 19       		.uleb128 0x19
 4662 036f 49       		.uleb128 0x49
 4663 0370 13       		.uleb128 0x13
 4664 0371 3C       		.uleb128 0x3c
 4665 0372 19       		.uleb128 0x19
 4666 0373 01       		.uleb128 0x1
 4667 0374 13       		.uleb128 0x13
 4668 0375 00       		.byte	0
 4669 0376 00       		.byte	0
 4670 0377 43       		.uleb128 0x43
 4671 0378 2E       		.uleb128 0x2e
 4672 0379 00       		.byte	0
 4673 037a 3F       		.uleb128 0x3f
 4674 037b 19       		.uleb128 0x19
 4675 037c 03       		.uleb128 0x3
 4676 037d 0E       		.uleb128 0xe
 4677 037e 3A       		.uleb128 0x3a
 4678 037f 0B       		.uleb128 0xb
 4679 0380 3B       		.uleb128 0x3b
 4680 0381 0B       		.uleb128 0xb
 4681 0382 27       		.uleb128 0x27
 4682 0383 19       		.uleb128 0x19
 4683 0384 3C       		.uleb128 0x3c
 4684 0385 19       		.uleb128 0x19
 4685 0386 00       		.byte	0
 4686 0387 00       		.byte	0
 4687 0388 44       		.uleb128 0x44
 4688 0389 2E       		.uleb128 0x2e
 4689 038a 01       		.byte	0x1
 4690 038b 3F       		.uleb128 0x3f
 4691 038c 19       		.uleb128 0x19
 4692 038d 03       		.uleb128 0x3
 4693 038e 0E       		.uleb128 0xe
 4694 038f 3A       		.uleb128 0x3a
 4695 0390 0B       		.uleb128 0xb
 4696 0391 3B       		.uleb128 0x3b
 4697 0392 0B       		.uleb128 0xb
 4698 0393 27       		.uleb128 0x27
 4699 0394 19       		.uleb128 0x19
 4700 0395 3C       		.uleb128 0x3c
 4701 0396 19       		.uleb128 0x19
 4702 0397 01       		.uleb128 0x1
 4703 0398 13       		.uleb128 0x13
 4704 0399 00       		.byte	0
 4705 039a 00       		.byte	0
 4706 039b 45       		.uleb128 0x45
 4707 039c 2E       		.uleb128 0x2e
 4708 039d 00       		.byte	0
 4709 039e 3F       		.uleb128 0x3f
 4710 039f 19       		.uleb128 0x19
 4711 03a0 03       		.uleb128 0x3
 4712 03a1 0E       		.uleb128 0xe
 4713 03a2 3A       		.uleb128 0x3a
ARM GAS  /tmp/cc9hyemz.s 			page 84


 4714 03a3 0B       		.uleb128 0xb
 4715 03a4 3B       		.uleb128 0x3b
 4716 03a5 0B       		.uleb128 0xb
 4717 03a6 27       		.uleb128 0x27
 4718 03a7 19       		.uleb128 0x19
 4719 03a8 49       		.uleb128 0x49
 4720 03a9 13       		.uleb128 0x13
 4721 03aa 3C       		.uleb128 0x3c
 4722 03ab 19       		.uleb128 0x19
 4723 03ac 00       		.byte	0
 4724 03ad 00       		.byte	0
 4725 03ae 00       		.byte	0
 4726              		.section	.debug_loc,"",%progbits
 4727              	.Ldebug_loc0:
 4728              	.LLST0:
 4729 0000 00000000 		.4byte	.LVL7
 4730 0004 04000000 		.4byte	.LVL8
 4731 0008 0100     		.2byte	0x1
 4732 000a 50       		.byte	0x50
 4733 000b 04000000 		.4byte	.LVL8
 4734 000f 0C000000 		.4byte	.LFE226
 4735 0013 0400     		.2byte	0x4
 4736 0015 F3       		.byte	0xf3
 4737 0016 01       		.uleb128 0x1
 4738 0017 50       		.byte	0x50
 4739 0018 9F       		.byte	0x9f
 4740 0019 00000000 		.4byte	0
 4741 001d 00000000 		.4byte	0
 4742              	.LLST1:
 4743 0021 14000000 		.4byte	.LVL21
 4744 0025 1A000000 		.4byte	.LVL22
 4745 0029 0100     		.2byte	0x1
 4746 002b 50       		.byte	0x50
 4747 002c 1A000000 		.4byte	.LVL22
 4748 0030 22000000 		.4byte	.LVL24
 4749 0034 0100     		.2byte	0x1
 4750 0036 57       		.byte	0x57
 4751 0037 24000000 		.4byte	.LVL25
 4752 003b 40000000 		.4byte	.LVL27
 4753 003f 0100     		.2byte	0x1
 4754 0041 57       		.byte	0x57
 4755 0042 40000000 		.4byte	.LVL27
 4756 0046 44000000 		.4byte	.LVL28
 4757 004a 0100     		.2byte	0x1
 4758 004c 50       		.byte	0x50
 4759 004d 98000000 		.4byte	.LVL34
 4760 0051 9C000000 		.4byte	.LVL35
 4761 0055 0100     		.2byte	0x1
 4762 0057 50       		.byte	0x50
 4763 0058 DE000000 		.4byte	.LVL39
 4764 005c E0000000 		.4byte	.LVL40
 4765 0060 0100     		.2byte	0x1
 4766 0062 50       		.byte	0x50
 4767 0063 00000000 		.4byte	0
 4768 0067 00000000 		.4byte	0
 4769              	.LLST2:
 4770 006b 8A000000 		.4byte	.LVL60
ARM GAS  /tmp/cc9hyemz.s 			page 85


 4771 006f 9C000000 		.4byte	.LVL62
 4772 0073 0100     		.2byte	0x1
 4773 0075 55       		.byte	0x55
 4774 0076 9C000000 		.4byte	.LVL62
 4775 007a 9F000000 		.4byte	.LVL63-1
 4776 007e 0100     		.2byte	0x1
 4777 0080 51       		.byte	0x51
 4778 0081 00000000 		.4byte	0
 4779 0085 00000000 		.4byte	0
 4780              		.section	.debug_aranges,"",%progbits
 4781 0000 3C000000 		.4byte	0x3c
 4782 0004 0200     		.2byte	0x2
 4783 0006 00000000 		.4byte	.Ldebug_info0
 4784 000a 04       		.byte	0x4
 4785 000b 00       		.byte	0
 4786 000c 0000     		.2byte	0
 4787 000e 0000     		.2byte	0
 4788 0010 00000000 		.4byte	.LFB227
 4789 0014 C8000000 		.4byte	.LFE227-.LFB227
 4790 0018 00000000 		.4byte	.LFB226
 4791 001c 0C000000 		.4byte	.LFE226-.LFB226
 4792 0020 00000000 		.4byte	.LFB228
 4793 0024 D8000000 		.4byte	.LFE228-.LFB228
 4794 0028 00000000 		.4byte	.LFB229
 4795 002c 2C010000 		.4byte	.LFE229-.LFB229
 4796 0030 00000000 		.4byte	.LFB230
 4797 0034 A0000000 		.4byte	.LFE230-.LFB230
 4798 0038 00000000 		.4byte	0
 4799 003c 00000000 		.4byte	0
 4800              		.section	.debug_ranges,"",%progbits
 4801              	.Ldebug_ranges0:
 4802 0000 02000000 		.4byte	.LBB257
 4803 0004 04000000 		.4byte	.LBE257
 4804 0008 06000000 		.4byte	.LBB262
 4805 000c 08000000 		.4byte	.LBE262
 4806 0010 00000000 		.4byte	0
 4807 0014 00000000 		.4byte	0
 4808 0018 02000000 		.4byte	.LBB271
 4809 001c 04000000 		.4byte	.LBE271
 4810 0020 06000000 		.4byte	.LBB276
 4811 0024 08000000 		.4byte	.LBE276
 4812 0028 00000000 		.4byte	0
 4813 002c 00000000 		.4byte	0
 4814 0030 70000000 		.4byte	.LBB283
 4815 0034 72000000 		.4byte	.LBE283
 4816 0038 74000000 		.4byte	.LBB290
 4817 003c 78000000 		.4byte	.LBE290
 4818 0040 00000000 		.4byte	0
 4819 0044 00000000 		.4byte	0
 4820 0048 8E000000 		.4byte	.LBB293
 4821 004c 90000000 		.4byte	.LBE293
 4822 0050 92000000 		.4byte	.LBB302
 4823 0054 96000000 		.4byte	.LBE302
 4824 0058 00000000 		.4byte	0
 4825 005c 00000000 		.4byte	0
 4826 0060 0C000000 		.4byte	.LBB433
 4827 0064 10000000 		.4byte	.LBE433
ARM GAS  /tmp/cc9hyemz.s 			page 86


 4828 0068 12000000 		.4byte	.LBB449
 4829 006c 14000000 		.4byte	.LBE449
 4830 0070 00000000 		.4byte	0
 4831 0074 00000000 		.4byte	0
 4832 0078 10000000 		.4byte	.LBB440
 4833 007c 12000000 		.4byte	.LBE440
 4834 0080 14000000 		.4byte	.LBB450
 4835 0084 18000000 		.4byte	.LBE450
 4836 0088 00000000 		.4byte	0
 4837 008c 00000000 		.4byte	0
 4838 0090 56000000 		.4byte	.LBB467
 4839 0094 98000000 		.4byte	.LBE467
 4840 0098 9C000000 		.4byte	.LBB498
 4841 009c A0000000 		.4byte	.LBE498
 4842 00a0 00000000 		.4byte	0
 4843 00a4 00000000 		.4byte	0
 4844 00a8 00000000 		.4byte	.LFB227
 4845 00ac C8000000 		.4byte	.LFE227
 4846 00b0 00000000 		.4byte	.LFB226
 4847 00b4 0C000000 		.4byte	.LFE226
 4848 00b8 00000000 		.4byte	.LFB228
 4849 00bc D8000000 		.4byte	.LFE228
 4850 00c0 00000000 		.4byte	.LFB229
 4851 00c4 2C010000 		.4byte	.LFE229
 4852 00c8 00000000 		.4byte	.LFB230
 4853 00cc A0000000 		.4byte	.LFE230
 4854 00d0 00000000 		.4byte	0
 4855 00d4 00000000 		.4byte	0
 4856              		.section	.debug_line,"",%progbits
 4857              	.Ldebug_line0:
 4858 0000 AC040000 		.section	.debug_str,"MS",%progbits,1
 4858      0200A502 
 4858      00000201 
 4858      FB0E0D00 
 4858      01010101 
 4859              	.LASF103:
 4860 0000 7466756E 		.ascii	"tfunc_t\000"
 4860      635F7400 
 4861              	.LASF49:
 4862 0008 72656164 		.ascii	"ready_list_t\000"
 4862      795F6C69 
 4862      73745F74 
 4862      00
 4863              	.LASF83:
 4864 0015 44494552 		.ascii	"DIER\000"
 4864      00
 4865              	.LASF2:
 4866 001a 73697A65 		.ascii	"size_t\000"
 4866      5F7400
 4867              	.LASF94:
 4868 0021 7264796D 		.ascii	"rdymsg\000"
 4868      736700
 4869              	.LASF17:
 4870 0028 75696E74 		.ascii	"uint64_t\000"
 4870      36345F74 
 4870      00
 4871              	.LASF3:
ARM GAS  /tmp/cc9hyemz.s 			page 87


 4872 0031 5F5F7569 		.ascii	"__uint8_t\000"
 4872      6E74385F 
 4872      7400
 4873              	.LASF81:
 4874 003b 706F7274 		.ascii	"port_intctx\000"
 4874      5F696E74 
 4874      63747800 
 4875              	.LASF68:
 4876 0047 73797374 		.ascii	"system_debug_t\000"
 4876      656D5F64 
 4876      65627567 
 4876      5F7400
 4877              	.LASF110:
 4878 0056 706F7274 		.ascii	"port_lock\000"
 4878      5F6C6F63 
 4878      6B00
 4879              	.LASF13:
 4880 0060 6C6F6E67 		.ascii	"long long unsigned int\000"
 4880      206C6F6E 
 4880      6720756E 
 4880      7369676E 
 4880      65642069 
 4881              	.LASF95:
 4882 0077 65786974 		.ascii	"exitcode\000"
 4882      636F6465 
 4882      00
 4883              	.LASF75:
 4884 0080 6D61696E 		.ascii	"mainthread\000"
 4884      74687265 
 4884      616400
 4885              	.LASF65:
 4886 008b 76697274 		.ascii	"virtual_timers_list_t\000"
 4886      75616C5F 
 4886      74696D65 
 4886      72735F6C 
 4886      6973745F 
 4887              	.LASF128:
 4888 00a1 49544D5F 		.ascii	"ITM_RxBuffer\000"
 4888      52784275 
 4888      66666572 
 4888      00
 4889              	.LASF87:
 4890 00ae 42445452 		.ascii	"BDTR\000"
 4890      00
 4891              	.LASF48:
 4892 00b3 63685F74 		.ascii	"ch_threads_queue\000"
 4892      68726561 
 4892      64735F71 
 4892      75657565 
 4892      00
 4893              	.LASF29:
 4894 00c4 705F7072 		.ascii	"p_prio\000"
 4894      696F00
 4895              	.LASF84:
 4896 00cb 43434D52 		.ascii	"CCMR1\000"
 4896      3100
 4897              	.LASF85:
ARM GAS  /tmp/cc9hyemz.s 			page 88


 4898 00d1 43434D52 		.ascii	"CCMR2\000"
 4898      3200
 4899              	.LASF89:
 4900 00d7 43434D52 		.ascii	"CCMR3\000"
 4900      3300
 4901              	.LASF1:
 4902 00dd 7369676E 		.ascii	"signed char\000"
 4902      65642063 
 4902      68617200 
 4903              	.LASF100:
 4904 00e9 6D5F7175 		.ascii	"m_queue\000"
 4904      65756500 
 4905              	.LASF142:
 4906 00f1 74657374 		.ascii	"test_emit_token\000"
 4906      5F656D69 
 4906      745F746F 
 4906      6B656E00 
 4907              	.LASF74:
 4908 0101 76746C69 		.ascii	"vtlist\000"
 4908      737400
 4909              	.LASF111:
 4910 0108 706F7274 		.ascii	"port_unlock\000"
 4910      5F756E6C 
 4910      6F636B00 
 4911              	.LASF138:
 4912 0114 63685468 		.ascii	"chThdCreateI\000"
 4912      64437265 
 4912      61746549 
 4912      00
 4913              	.LASF72:
 4914 0121 63685F73 		.ascii	"ch_system\000"
 4914      79737465 
 4914      6D00
 4915              	.LASF8:
 4916 012b 6C6F6E67 		.ascii	"long int\000"
 4916      20696E74 
 4916      00
 4917              	.LASF20:
 4918 0134 74737461 		.ascii	"tstate_t\000"
 4918      74655F74 
 4918      00
 4919              	.LASF144:
 4920 013d 5F746573 		.ascii	"_test_assert_time_window\000"
 4920      745F6173 
 4920      73657274 
 4920      5F74696D 
 4920      655F7769 
 4921              	.LASF31:
 4922 0156 705F6E65 		.ascii	"p_newer\000"
 4922      77657200 
 4923              	.LASF6:
 4924 015e 73686F72 		.ascii	"short unsigned int\000"
 4924      7420756E 
 4924      7369676E 
 4924      65642069 
 4924      6E7400
 4925              	.LASF54:
ARM GAS  /tmp/cc9hyemz.s 			page 89


 4926 0171 725F6E65 		.ascii	"r_newer\000"
 4926      77657200 
 4927              	.LASF43:
 4928 0179 705F6D70 		.ascii	"p_mpool\000"
 4928      6F6F6C00 
 4929              	.LASF78:
 4930 0181 72656761 		.ascii	"regarm_t\000"
 4930      726D5F74 
 4930      00
 4931              	.LASF61:
 4932 018a 76745F70 		.ascii	"vt_prev\000"
 4932      72657600 
 4933              	.LASF124:
 4934 0192 74686431 		.ascii	"thd1_execute\000"
 4934      5F657865 
 4934      63757465 
 4934      00
 4935              	.LASF11:
 4936 019f 6C6F6E67 		.ascii	"long long int\000"
 4936      206C6F6E 
 4936      6720696E 
 4936      7400
 4937              	.LASF149:
 4938 01ad 76616C75 		.ascii	"value\000"
 4938      6500
 4939              	.LASF140:
 4940 01b3 63685468 		.ascii	"chThdSetPriority\000"
 4940      64536574 
 4940      5072696F 
 4940      72697479 
 4940      00
 4941              	.LASF115:
 4942 01c4 63685654 		.ascii	"chVTGetSystemTimeX\000"
 4942      47657453 
 4942      79737465 
 4942      6D54696D 
 4942      655800
 4943              	.LASF0:
 4944 01d7 756E7369 		.ascii	"unsigned int\000"
 4944      676E6564 
 4944      20696E74 
 4944      00
 4945              	.LASF125:
 4946 01e4 74686432 		.ascii	"thd2_execute\000"
 4946      5F657865 
 4946      63757465 
 4946      00
 4947              	.LASF60:
 4948 01f1 76745F6E 		.ascii	"vt_next\000"
 4948      65787400 
 4949              	.LASF62:
 4950 01f9 76745F64 		.ascii	"vt_delta\000"
 4950      656C7461 
 4950      00
 4951              	.LASF38:
 4952 0202 705F6D73 		.ascii	"p_msgqueue\000"
 4952      67717565 
ARM GAS  /tmp/cc9hyemz.s 			page 90


 4952      756500
 4953              	.LASF108:
 4954 020d 74656172 		.ascii	"teardown\000"
 4954      646F776E 
 4954      00
 4955              	.LASF106:
 4956 0216 6E616D65 		.ascii	"name\000"
 4956      00
 4957              	.LASF82:
 4958 021b 534D4352 		.ascii	"SMCR\000"
 4958      00
 4959              	.LASF45:
 4960 0220 63685F74 		.ascii	"ch_thread\000"
 4960      68726561 
 4960      6400
 4961              	.LASF23:
 4962 022a 6D73675F 		.ascii	"msg_t\000"
 4962      7400
 4963              	.LASF147:
 4964 0230 2E2E2F43 		.ascii	"../ChibiOS/test/rt/testthd.c\000"
 4964      68696269 
 4964      4F532F74 
 4964      6573742F 
 4964      72742F74 
 4965              	.LASF91:
 4966 024d 73746D33 		.ascii	"stm32_tim_t\000"
 4966      325F7469 
 4966      6D5F7400 
 4967              	.LASF121:
 4968 0259 73797374 		.ascii	"systime\000"
 4968      696D6500 
 4969              	.LASF50:
 4970 0261 63685F72 		.ascii	"ch_ready_list\000"
 4970      65616479 
 4970      5F6C6973 
 4970      7400
 4971              	.LASF24:
 4972 026f 6576656E 		.ascii	"eventmask_t\000"
 4972      746D6173 
 4972      6B5F7400 
 4973              	.LASF7:
 4974 027b 5F5F696E 		.ascii	"__int32_t\000"
 4974      7433325F 
 4974      7400
 4975              	.LASF79:
 4976 0285 73746B61 		.ascii	"stkalign_t\000"
 4976      6C69676E 
 4976      5F7400
 4977              	.LASF135:
 4978 0290 63685468 		.ascii	"chThdCreateStatic\000"
 4978      64437265 
 4978      61746553 
 4978      74617469 
 4978      6300
 4979              	.LASF146:
 4980 02a2 474E5520 		.ascii	"GNU C 4.9.3 20141119 (release) [ARM/embedded-4_9-br"
 4980      4320342E 
ARM GAS  /tmp/cc9hyemz.s 			page 91


 4980      392E3320 
 4980      32303134 
 4980      31313139 
 4981 02d5 616E6368 		.ascii	"anch revision 218278] -mcpu=cortex-m4 -mfloat-abi=h"
 4981      20726576 
 4981      6973696F 
 4981      6E203231 
 4981      38323738 
 4982 0308 61726420 		.ascii	"ard -mfpu=fpv4-sp-d16 -mno-thumb-interwork -mthumb "
 4982      2D6D6670 
 4982      753D6670 
 4982      76342D73 
 4982      702D6431 
 4983 033b 2D676764 		.ascii	"-ggdb -O2 -fomit-frame-pointer -falign-functions=16"
 4983      62202D4F 
 4983      32202D66 
 4983      6F6D6974 
 4983      2D667261 
 4984 036e 202D6666 		.ascii	" -ffunction-sections -fdata-sections -fno-common -f"
 4984      756E6374 
 4984      696F6E2D 
 4984      73656374 
 4984      696F6E73 
 4985 03a1 73696E67 		.ascii	"single-precision-constant\000"
 4985      6C652D70 
 4985      72656369 
 4985      73696F6E 
 4985      2D636F6E 
 4986              	.LASF37:
 4987 03bb 705F7761 		.ascii	"p_waiting\000"
 4987      6974696E 
 4987      6700
 4988              	.LASF77:
 4989 03c5 73697A65 		.ascii	"sizetype\000"
 4989      74797065 
 4989      00
 4990              	.LASF130:
 4991 03ce 74657374 		.ascii	"testthd1\000"
 4991      74686431 
 4991      00
 4992              	.LASF131:
 4993 03d7 74657374 		.ascii	"testthd2\000"
 4993      74686432 
 4993      00
 4994              	.LASF66:
 4995 03e0 63685F76 		.ascii	"ch_virtual_timers_list\000"
 4995      69727475 
 4995      616C5F74 
 4995      696D6572 
 4995      735F6C69 
 4996              	.LASF133:
 4997 03f7 74657374 		.ascii	"testthd4\000"
 4997      74686434 
 4997      00
 4998              	.LASF93:
 4999 0400 746D5F63 		.ascii	"tm_calibration_t\000"
 4999      616C6962 
ARM GAS  /tmp/cc9hyemz.s 			page 92


 4999      72617469 
 4999      6F6E5F74 
 4999      00
 5000              	.LASF67:
 5001 0411 76745F6C 		.ascii	"vt_lasttime\000"
 5001      61737474 
 5001      696D6500 
 5002              	.LASF152:
 5003 041d 74657374 		.ascii	"test_wait_threads\000"
 5003      5F776169 
 5003      745F7468 
 5003      72656164 
 5003      7300
 5004              	.LASF32:
 5005 042f 705F6F6C 		.ascii	"p_older\000"
 5005      64657200 
 5006              	.LASF53:
 5007 0437 725F6374 		.ascii	"r_ctx\000"
 5007      7800
 5008              	.LASF119:
 5009 043d 63685468 		.ascii	"chThdGetPriorityX\000"
 5009      64476574 
 5009      5072696F 
 5009      72697479 
 5009      5800
 5010              	.LASF107:
 5011 044f 73657475 		.ascii	"setup\000"
 5011      7000
 5012              	.LASF136:
 5013 0455 5F746573 		.ascii	"_test_assert_sequence\000"
 5013      745F6173 
 5013      73657274 
 5013      5F736571 
 5013      75656E63 
 5014              	.LASF123:
 5015 046b 74696D65 		.ascii	"time\000"
 5015      00
 5016              	.LASF127:
 5017 0470 7072696F 		.ascii	"prio\000"
 5017      00
 5018              	.LASF55:
 5019 0475 725F6F6C 		.ascii	"r_older\000"
 5019      64657200 
 5020              	.LASF145:
 5021 047d 63685468 		.ascii	"chThdSleepUntil\000"
 5021      64536C65 
 5021      6570556E 
 5021      74696C00 
 5022              	.LASF139:
 5023 048d 63685468 		.ascii	"chThdStart\000"
 5023      64537461 
 5023      727400
 5024              	.LASF12:
 5025 0498 5F5F7569 		.ascii	"__uint64_t\000"
 5025      6E743634 
 5025      5F7400
 5026              	.LASF21:
ARM GAS  /tmp/cc9hyemz.s 			page 93


 5027 04a3 74726566 		.ascii	"trefs_t\000"
 5027      735F7400 
 5028              	.LASF126:
 5029 04ab 74686433 		.ascii	"thd3_execute\000"
 5029      5F657865 
 5029      63757465 
 5029      00
 5030              	.LASF58:
 5031 04b8 76697274 		.ascii	"virtual_timer_t\000"
 5031      75616C5F 
 5031      74696D65 
 5031      725F7400 
 5032              	.LASF28:
 5033 04c8 705F7072 		.ascii	"p_prev\000"
 5033      657600
 5034              	.LASF22:
 5035 04cf 74707269 		.ascii	"tprio_t\000"
 5035      6F5F7400 
 5036              	.LASF99:
 5037 04d7 6D757465 		.ascii	"mutex\000"
 5037      7800
 5038              	.LASF69:
 5039 04dd 63685F73 		.ascii	"ch_system_debug\000"
 5039      79737465 
 5039      6D5F6465 
 5039      62756700 
 5040              	.LASF137:
 5041 04ed 5F426F6F 		.ascii	"_Bool\000"
 5041      6C00
 5042              	.LASF15:
 5043 04f3 696E7433 		.ascii	"int32_t\000"
 5043      325F7400 
 5044              	.LASF4:
 5045 04fb 756E7369 		.ascii	"unsigned char\000"
 5045      676E6564 
 5045      20636861 
 5045      7200
 5046              	.LASF153:
 5047 0509 74657374 		.ascii	"test_wait_tick\000"
 5047      5F776169 
 5047      745F7469 
 5047      636B00
 5048              	.LASF109:
 5049 0518 65786563 		.ascii	"execute\000"
 5049      75746500 
 5050              	.LASF41:
 5051 0520 705F6D74 		.ascii	"p_mtxlist\000"
 5051      786C6973 
 5051      7400
 5052              	.LASF5:
 5053 052a 73686F72 		.ascii	"short int\000"
 5053      7420696E 
 5053      7400
 5054              	.LASF34:
 5055 0534 705F7374 		.ascii	"p_state\000"
 5055      61746500 
 5056              	.LASF129:
ARM GAS  /tmp/cc9hyemz.s 			page 94


 5057 053c 74687265 		.ascii	"threads\000"
 5057      61647300 
 5058              	.LASF52:
 5059 0544 725F7072 		.ascii	"r_prio\000"
 5059      696F00
 5060              	.LASF97:
 5061 054b 65776D61 		.ascii	"ewmask\000"
 5061      736B00
 5062              	.LASF27:
 5063 0552 705F6E65 		.ascii	"p_next\000"
 5063      787400
 5064              	.LASF35:
 5065 0559 705F666C 		.ascii	"p_flags\000"
 5065      61677300 
 5066              	.LASF120:
 5067 0561 5F5F6675 		.ascii	"__func__\000"
 5067      6E635F5F 
 5067      00
 5068              	.LASF76:
 5069 056a 69646C65 		.ascii	"idle_thread_wa\000"
 5069      5F746872 
 5069      6561645F 
 5069      776100
 5070              	.LASF114:
 5071 0579 63685379 		.ascii	"chSysLock\000"
 5071      734C6F63 
 5071      6B00
 5072              	.LASF59:
 5073 0583 63685F76 		.ascii	"ch_virtual_timer\000"
 5073      69727475 
 5073      616C5F74 
 5073      696D6572 
 5073      00
 5074              	.LASF105:
 5075 0594 74657374 		.ascii	"testcase\000"
 5075      63617365 
 5075      00
 5076              	.LASF90:
 5077 059d 43435852 		.ascii	"CCXR\000"
 5077      00
 5078              	.LASF40:
 5079 05a2 705F6570 		.ascii	"p_epending\000"
 5079      656E6469 
 5079      6E6700
 5080              	.LASF143:
 5081 05ad 63685468 		.ascii	"chThdSleep\000"
 5081      64536C65 
 5081      657000
 5082              	.LASF112:
 5083 05b8 73745F6C 		.ascii	"st_lld_get_counter\000"
 5083      6C645F67 
 5083      65745F63 
 5083      6F756E74 
 5083      657200
 5084              	.LASF16:
 5085 05cb 75696E74 		.ascii	"uint32_t\000"
 5085      33325F74 
ARM GAS  /tmp/cc9hyemz.s 			page 95


 5085      00
 5086              	.LASF150:
 5087 05d4 63685654 		.ascii	"chVTGetSystemTime\000"
 5087      47657453 
 5087      79737465 
 5087      6D54696D 
 5087      6500
 5088              	.LASF51:
 5089 05e6 725F7175 		.ascii	"r_queue\000"
 5089      65756500 
 5090              	.LASF46:
 5091 05ee 63685F74 		.ascii	"ch_threads_list\000"
 5091      68726561 
 5091      64735F6C 
 5091      69737400 
 5092              	.LASF148:
 5093 05fe 2F686F6D 		.ascii	"/home/bhimebau/forge/annsynth/src\000"
 5093      652F6268 
 5093      696D6562 
 5093      61752F66 
 5093      6F726765 
 5094              	.LASF10:
 5095 0620 6C6F6E67 		.ascii	"long unsigned int\000"
 5095      20756E73 
 5095      69676E65 
 5095      6420696E 
 5095      7400
 5096              	.LASF56:
 5097 0632 725F6375 		.ascii	"r_current\000"
 5097      7272656E 
 5097      7400
 5098              	.LASF98:
 5099 063c 63686172 		.ascii	"char\000"
 5099      00
 5100              	.LASF122:
 5101 0641 74686434 		.ascii	"thd4_execute\000"
 5101      5F657865 
 5101      63757465 
 5101      00
 5102              	.LASF88:
 5103 064e 444D4152 		.ascii	"DMAR\000"
 5103      00
 5104              	.LASF134:
 5105 0653 70617474 		.ascii	"patternthd\000"
 5105      65726E74 
 5105      686400
 5106              	.LASF26:
 5107 065e 74687265 		.ascii	"thread_t\000"
 5107      61645F74 
 5107      00
 5108              	.LASF86:
 5109 0667 43434552 		.ascii	"CCER\000"
 5109      00
 5110              	.LASF102:
 5111 066c 6D5F6E65 		.ascii	"m_next\000"
 5111      787400
 5112              	.LASF25:
ARM GAS  /tmp/cc9hyemz.s 			page 96


 5113 0673 73797374 		.ascii	"systime_t\000"
 5113      696D655F 
 5113      7400
 5114              	.LASF42:
 5115 067d 705F7265 		.ascii	"p_realprio\000"
 5115      616C7072 
 5115      696F00
 5116              	.LASF57:
 5117 0688 76746675 		.ascii	"vtfunc_t\000"
 5117      6E635F74 
 5117      00
 5118              	.LASF9:
 5119 0691 5F5F7569 		.ascii	"__uint32_t\000"
 5119      6E743332 
 5119      5F7400
 5120              	.LASF116:
 5121 069c 5F5F7365 		.ascii	"__set_BASEPRI\000"
 5121      745F4241 
 5121      53455052 
 5121      4900
 5122              	.LASF151:
 5123 06aa 74687265 		.ascii	"thread\000"
 5123      616400
 5124              	.LASF70:
 5125 06b1 70616E69 		.ascii	"panic_msg\000"
 5125      635F6D73 
 5125      6700
 5126              	.LASF92:
 5127 06bb 6F666673 		.ascii	"offset\000"
 5127      657400
 5128              	.LASF80:
 5129 06c2 636F6E74 		.ascii	"context\000"
 5129      65787400 
 5130              	.LASF71:
 5131 06ca 63685F73 		.ascii	"ch_system_t\000"
 5131      79737465 
 5131      6D5F7400 
 5132              	.LASF113:
 5133 06d6 706F7274 		.ascii	"port_timer_get_time\000"
 5133      5F74696D 
 5133      65725F67 
 5133      65745F74 
 5133      696D6500 
 5134              	.LASF18:
 5135 06ea 7274636E 		.ascii	"rtcnt_t\000"
 5135      745F7400 
 5136              	.LASF64:
 5137 06f2 76745F70 		.ascii	"vt_par\000"
 5137      617200
 5138              	.LASF47:
 5139 06f9 74687265 		.ascii	"threads_queue_t\000"
 5139      6164735F 
 5139      71756575 
 5139      655F7400 
 5140              	.LASF36:
 5141 0709 705F7265 		.ascii	"p_refs\000"
 5141      667300
ARM GAS  /tmp/cc9hyemz.s 			page 97


 5142              	.LASF73:
 5143 0710 726C6973 		.ascii	"rlist\000"
 5143      7400
 5144              	.LASF118:
 5145 0716 63685468 		.ascii	"chThdGetSelfX\000"
 5145      64476574 
 5145      53656C66 
 5145      5800
 5146              	.LASF14:
 5147 0724 75696E74 		.ascii	"uint8_t\000"
 5147      385F7400 
 5148              	.LASF96:
 5149 072c 77746F62 		.ascii	"wtobjp\000"
 5149      6A7000
 5150              	.LASF33:
 5151 0733 705F6E61 		.ascii	"p_name\000"
 5151      6D6500
 5152              	.LASF141:
 5153 073a 5F746573 		.ascii	"_test_assert\000"
 5153      745F6173 
 5153      73657274 
 5153      00
 5154              	.LASF44:
 5155 0747 74687265 		.ascii	"threads_list_t\000"
 5155      6164735F 
 5155      6C697374 
 5155      5F7400
 5156              	.LASF19:
 5157 0756 746D6F64 		.ascii	"tmode_t\000"
 5157      655F7400 
 5158              	.LASF117:
 5159 075e 63685379 		.ascii	"chSysUnlock\000"
 5159      73556E6C 
 5159      6F636B00 
 5160              	.LASF39:
 5161 076a 705F6D73 		.ascii	"p_msg\000"
 5161      6700
 5162              	.LASF132:
 5163 0770 74657374 		.ascii	"testthd3\000"
 5163      74686433 
 5163      00
 5164              	.LASF104:
 5165 0779 6D757465 		.ascii	"mutex_t\000"
 5165      785F7400 
 5166              	.LASF101:
 5167 0781 6D5F6F77 		.ascii	"m_owner\000"
 5167      6E657200 
 5168              	.LASF30:
 5169 0789 705F6374 		.ascii	"p_ctx\000"
 5169      7800
 5170              	.LASF63:
 5171 078f 76745F66 		.ascii	"vt_func\000"
 5171      756E6300 
 5172              		.ident	"GCC: (GNU Tools for ARM Embedded Processors) 4.9.3 20141119 (release) [ARM/embedded-4_9-br
ARM GAS  /tmp/cc9hyemz.s 			page 98


DEFINED SYMBOLS
                            *ABS*:00000000 testthd.c
     /tmp/cc9hyemz.s:21     .text.thd1_execute:00000000 $t
     /tmp/cc9hyemz.s:26     .text.thd1_execute:00000000 thd1_execute
     /tmp/cc9hyemz.s:179    .text.thd1_execute:000000a0 $d
     /tmp/cc9hyemz.s:198    .text.thread:00000000 thread
     /tmp/cc9hyemz.s:193    .text.thread:00000000 $t
     /tmp/cc9hyemz.s:221    .text.thd2_execute:00000000 $t
     /tmp/cc9hyemz.s:226    .text.thd2_execute:00000000 thd2_execute
     /tmp/cc9hyemz.s:433    .text.thd2_execute:000000b0 $d
     /tmp/cc9hyemz.s:447    .text.thd3_execute:00000000 $t
     /tmp/cc9hyemz.s:452    .text.thd3_execute:00000000 thd3_execute
     /tmp/cc9hyemz.s:719    .text.thd3_execute:00000128 $d
     /tmp/cc9hyemz.s:729    .text.thd4_execute:00000000 $t
     /tmp/cc9hyemz.s:734    .text.thd4_execute:00000000 thd4_execute
     /tmp/cc9hyemz.s:1066   .rodata.patternthd:00000000 patternthd
     /tmp/cc9hyemz.s:1057   .rodata.testthd4:00000000 testthd4
     /tmp/cc9hyemz.s:1048   .rodata.testthd3:00000000 testthd3
     /tmp/cc9hyemz.s:1039   .rodata.testthd2:00000000 testthd2
     /tmp/cc9hyemz.s:1030   .rodata.testthd1:00000000 testthd1
     /tmp/cc9hyemz.s:1027   .rodata.testthd1:00000000 $d
     /tmp/cc9hyemz.s:1036   .rodata.testthd2:00000000 $d
     /tmp/cc9hyemz.s:1045   .rodata.testthd3:00000000 $d
     /tmp/cc9hyemz.s:1054   .rodata.testthd4:00000000 $d
     /tmp/cc9hyemz.s:1063   .rodata.patternthd:00000000 $d
     /tmp/cc9hyemz.s:1073   .rodata.str1.4:00000000 $d
                     .debug_frame:00000010 $d
     /tmp/cc9hyemz.s:192    .text.thd1_execute:000000c8 $t
     /tmp/cc9hyemz.s:446    .text.thd2_execute:000000d8 $t
     /tmp/cc9hyemz.s:728    .text.thd3_execute:0000012c $t

UNDEFINED SYMBOLS
chThdCreateStatic
test_wait_threads
_test_assert_sequence
ch
wa
threads
test_emit_token
chThdCreateI
chThdStart
chThdSetPriority
_test_assert
test_wait_tick
chThdSleep
_test_assert_time_window
chThdSleepUntil
