ARM GAS  /tmp/ccb5ffhJ.s 			page 1


   1              		.syntax unified
   2              		.cpu cortex-m4
   3              		.eabi_attribute 27, 3
   4              		.eabi_attribute 28, 1
   5              		.fpu fpv4-sp-d16
   6              		.eabi_attribute 20, 1
   7              		.eabi_attribute 21, 1
   8              		.eabi_attribute 23, 3
   9              		.eabi_attribute 24, 1
  10              		.eabi_attribute 25, 1
  11              		.eabi_attribute 26, 1
  12              		.eabi_attribute 30, 2
  13              		.eabi_attribute 34, 1
  14              		.eabi_attribute 18, 4
  15              		.thumb
  16              		.file	"testsem.c"
  17              		.text
  18              	.Ltext0:
  19              		.cfi_sections	.debug_frame
  20              		.section	.text.sem1_execute,"ax",%progbits
  21              		.align	2
  22              		.p2align 4,,15
  23              		.thumb
  24              		.thumb_func
  25              		.type	sem1_execute, %function
  26              	sem1_execute:
  27              	.LFB228:
  28              		.file 1 "../ChibiOS/test/rt/testsem.c"
  29              		.loc 1 84 0
  30              		.cfi_startproc
  31              		@ args = 0, pretend = 0, frame = 0
  32              		@ frame_needed = 0, uses_anonymous_args = 0
  33 0000 2DE9F043 		push	{r4, r5, r6, r7, r8, r9, lr}
  34              		.cfi_def_cfa_offset 28
  35              		.cfi_offset 4, -28
  36              		.cfi_offset 5, -24
  37              		.cfi_offset 6, -20
  38              		.cfi_offset 7, -16
  39              		.cfi_offset 8, -12
  40              		.cfi_offset 9, -8
  41              		.cfi_offset 14, -4
  42              	.LBB288:
  43              	.LBB289:
  44              	.LBB290:
  45              	.LBB291:
  46              		.file 2 "../ChibiOS/os/rt/include/chthreads.h"
  47              		.loc 2 179 0
  48 0004 484E     		ldr	r6, .L8
  49              	.LBE291:
  50              	.LBE290:
  51              	.LBE289:
  52              	.LBE288:
  53              		.loc 1 86 0
  54 0006 494F     		ldr	r7, .L8+4
  55              	.LBB293:
  56              	.LBB292:
  57              		.loc 2 192 0
ARM GAS  /tmp/ccb5ffhJ.s 			page 2


  58 0008 B369     		ldr	r3, [r6, #24]
  59              	.LBE292:
  60              	.LBE293:
  61              		.loc 1 86 0
  62 000a D7F80080 		ldr	r8, [r7]
  63 000e 9A68     		ldr	r2, [r3, #8]
  64 0010 DFF83C91 		ldr	r9, .L8+40
  65 0014 464B     		ldr	r3, .L8+8
  66 0016 474D     		ldr	r5, .L8+12
  67              		.loc 1 91 0
  68 0018 474C     		ldr	r4, .L8+16
  69              		.loc 1 84 0
  70 001a 83B0     		sub	sp, sp, #12
  71              		.cfi_def_cfa_offset 40
  72              		.loc 1 86 0
  73 001c 0532     		adds	r2, r2, #5
  74 001e 4FF4E871 		mov	r1, #464
  75 0022 CDF80090 		str	r9, [sp]
  76 0026 4046     		mov	r0, r8
  77 0028 FFF7FEFF 		bl	chThdCreateStatic
  78              	.LVL0:
  79              	.LBB294:
  80              	.LBB295:
  81              		.loc 2 192 0
  82 002c B369     		ldr	r3, [r6, #24]
  83              	.LBE295:
  84              	.LBE294:
  85              		.loc 1 87 0
  86 002e 7968     		ldr	r1, [r7, #4]
  87 0030 9A68     		ldr	r2, [r3, #8]
  88 0032 424B     		ldr	r3, .L8+20
  89              		.loc 1 86 0
  90 0034 2860     		str	r0, [r5]
  91              		.loc 1 87 0
  92 0036 0132     		adds	r2, r2, #1
  93 0038 0846     		mov	r0, r1
  94 003a 0093     		str	r3, [sp]
  95 003c 4FF4E871 		mov	r1, #464
  96 0040 3B4B     		ldr	r3, .L8+8
  97 0042 FFF7FEFF 		bl	chThdCreateStatic
  98              	.LVL1:
  99              	.LBB296:
 100              	.LBB297:
 101              		.loc 2 192 0
 102 0046 B369     		ldr	r3, [r6, #24]
 103              	.LBE297:
 104              	.LBE296:
 105              		.loc 1 88 0
 106 0048 B968     		ldr	r1, [r7, #8]
 107 004a 9A68     		ldr	r2, [r3, #8]
 108 004c 3C4B     		ldr	r3, .L8+24
 109              		.loc 1 87 0
 110 004e 6860     		str	r0, [r5, #4]
 111              		.loc 1 88 0
 112 0050 0332     		adds	r2, r2, #3
 113 0052 0846     		mov	r0, r1
 114 0054 0093     		str	r3, [sp]
ARM GAS  /tmp/ccb5ffhJ.s 			page 3


 115 0056 4FF4E871 		mov	r1, #464
 116 005a 354B     		ldr	r3, .L8+8
 117 005c FFF7FEFF 		bl	chThdCreateStatic
 118              	.LVL2:
 119              	.LBB298:
 120              	.LBB299:
 121              		.loc 2 192 0
 122 0060 B369     		ldr	r3, [r6, #24]
 123              	.LBE299:
 124              	.LBE298:
 125              		.loc 1 89 0
 126 0062 F968     		ldr	r1, [r7, #12]
 127 0064 9A68     		ldr	r2, [r3, #8]
 128 0066 374B     		ldr	r3, .L8+28
 129              		.loc 1 88 0
 130 0068 A860     		str	r0, [r5, #8]
 131              		.loc 1 89 0
 132 006a 0432     		adds	r2, r2, #4
 133 006c 0846     		mov	r0, r1
 134 006e 0093     		str	r3, [sp]
 135 0070 4FF4E871 		mov	r1, #464
 136 0074 2E4B     		ldr	r3, .L8+8
 137 0076 FFF7FEFF 		bl	chThdCreateStatic
 138              	.LVL3:
 139              	.LBB300:
 140              	.LBB301:
 141              		.loc 2 192 0
 142 007a B369     		ldr	r3, [r6, #24]
 143              	.LBE301:
 144              	.LBE300:
 145              		.loc 1 90 0
 146 007c 3969     		ldr	r1, [r7, #16]
 147 007e 9A68     		ldr	r2, [r3, #8]
 148 0080 314B     		ldr	r3, .L8+32
 149              		.loc 1 89 0
 150 0082 E860     		str	r0, [r5, #12]
 151              		.loc 1 90 0
 152 0084 0232     		adds	r2, r2, #2
 153 0086 0846     		mov	r0, r1
 154 0088 0093     		str	r3, [sp]
 155 008a 4FF4E871 		mov	r1, #464
 156 008e 284B     		ldr	r3, .L8+8
 157 0090 FFF7FEFF 		bl	chThdCreateStatic
 158              	.LVL4:
 159 0094 2861     		str	r0, [r5, #16]
 160              		.loc 1 91 0
 161 0096 2046     		mov	r0, r4
 162 0098 FFF7FEFF 		bl	chSemSignal
 163              	.LVL5:
 164              		.loc 1 92 0
 165 009c 2046     		mov	r0, r4
 166 009e FFF7FEFF 		bl	chSemSignal
 167              	.LVL6:
 168              		.loc 1 93 0
 169 00a2 2046     		mov	r0, r4
 170 00a4 FFF7FEFF 		bl	chSemSignal
 171              	.LVL7:
ARM GAS  /tmp/ccb5ffhJ.s 			page 4


 172              		.loc 1 94 0
 173 00a8 2046     		mov	r0, r4
 174 00aa FFF7FEFF 		bl	chSemSignal
 175              	.LVL8:
 176              		.loc 1 95 0
 177 00ae 2046     		mov	r0, r4
 178 00b0 FFF7FEFF 		bl	chSemSignal
 179              	.LVL9:
 180              		.loc 1 96 0
 181 00b4 FFF7FEFF 		bl	test_wait_threads
 182              	.LVL10:
 183              		.loc 1 100 0
 184 00b8 0120     		movs	r0, #1
 185 00ba 2449     		ldr	r1, .L8+36
 186 00bc FFF7FEFF 		bl	_test_assert_sequence
 187              	.LVL11:
 188 00c0 0746     		mov	r7, r0
 189 00c2 10B1     		cbz	r0, .L6
 190              		.loc 1 109 0
 191 00c4 03B0     		add	sp, sp, #12
 192              		.cfi_remember_state
 193              		.cfi_def_cfa_offset 28
 194              		@ sp needed
 195 00c6 BDE8F083 		pop	{r4, r5, r6, r7, r8, r9, pc}
 196              	.L6:
 197              		.cfi_restore_state
 198              	.LBB302:
 199              	.LBB303:
 200              		.loc 2 192 0
 201 00ca B269     		ldr	r2, [r6, #24]
 202              	.LBE303:
 203              	.LBE302:
 204              		.loc 1 102 0
 205 00cc 184B     		ldr	r3, .L8+8
 206 00ce 9268     		ldr	r2, [r2, #8]
 207 00d0 CDF80090 		str	r9, [sp]
 208 00d4 0532     		adds	r2, r2, #5
 209 00d6 4046     		mov	r0, r8
 210 00d8 4FF4E871 		mov	r1, #464
 211 00dc FFF7FEFF 		bl	chThdCreateStatic
 212              	.LVL12:
 213              	.LBB304:
 214              	.LBB305:
 215              	.LBB306:
 216              	.LBB307:
 217              		.file 3 "../ChibiOS/os/ext/CMSIS/include/core_cmFunc.h"
 218              		.loc 3 546 0
 219 00e0 2026     		movs	r6, #32
 220              	.LBE307:
 221              	.LBE306:
 222              	.LBE305:
 223              	.LBE304:
 224              		.loc 1 102 0
 225 00e2 2860     		str	r0, [r5]
 226              	.LVL13:
 227              	.LBB311:
 228              	.LBB310:
ARM GAS  /tmp/ccb5ffhJ.s 			page 5


 229              	.LBB309:
 230              	.LBB308:
 231              		.loc 3 546 0
 232              	@ 546 "../ChibiOS/os/ext/CMSIS/include/core_cmFunc.h" 1
 233 00e4 86F31188 		MSR basepri, r6
 234              	@ 0 "" 2
 235              		.thumb
 236              	.LBE308:
 237              	.LBE309:
 238              	.LBE310:
 239              	.LBE311:
 240              		.loc 1 104 0
 241 00e8 0221     		movs	r1, #2
 242 00ea 2046     		mov	r0, r4
 243 00ec FFF7FEFF 		bl	chSemAddCounterI
 244              	.LVL14:
 245              		.loc 1 105 0
 246 00f0 FFF7FEFF 		bl	chSchRescheduleS
 247              	.LVL15:
 248              	.LBB312:
 249              	.LBB313:
 250              	.LBB314:
 251              	.LBB315:
 252              	.LBB316:
 253              		.loc 3 546 0
 254              	@ 546 "../ChibiOS/os/ext/CMSIS/include/core_cmFunc.h" 1
 255 00f4 87F31188 		MSR basepri, r7
 256              	@ 0 "" 2
 257              		.thumb
 258              	.LBE316:
 259              	.LBE315:
 260              	.LBE314:
 261              	.LBE313:
 262              	.LBE312:
 263              		.loc 1 107 0
 264 00f8 FFF7FEFF 		bl	test_wait_threads
 265              	.LVL16:
 266              	.LBB317:
 267              	.LBB318:
 268              	.LBB319:
 269              	.LBB320:
 270              		.loc 3 546 0
 271              	@ 546 "../ChibiOS/os/ext/CMSIS/include/core_cmFunc.h" 1
 272 00fc 86F31188 		MSR basepri, r6
 273              	@ 0 "" 2
 274              	.LVL17:
 275              		.thumb
 276              	.LBE320:
 277              	.LBE319:
 278              	.LBE318:
 279              	.LBE317:
 280              		.loc 1 108 0
 281 0100 A168     		ldr	r1, [r4, #8]
 282 0102 0220     		movs	r0, #2
 283 0104 A1F10101 		sub	r1, #1
 284 0108 B1FA81F1 		clz	r1, r1
 285 010c 4909     		lsrs	r1, r1, #5
ARM GAS  /tmp/ccb5ffhJ.s 			page 6


 286 010e FFF7FEFF 		bl	_test_assert
 287              	.LVL18:
 288 0112 20B9     		cbnz	r0, .L7
 289              	.LVL19:
 290              	.LBB321:
 291              	.LBB322:
 292              	.LBB323:
 293              	.LBB324:
 294              	.LBB325:
 295              		.loc 3 546 0
 296              	@ 546 "../ChibiOS/os/ext/CMSIS/include/core_cmFunc.h" 1
 297 0114 80F31188 		MSR basepri, r0
 298              	@ 0 "" 2
 299              		.thumb
 300              	.LBE325:
 301              	.LBE324:
 302              	.LBE323:
 303              	.LBE322:
 304              	.LBE321:
 305              		.loc 1 109 0
 306 0118 03B0     		add	sp, sp, #12
 307              		.cfi_remember_state
 308              		.cfi_def_cfa_offset 28
 309              		@ sp needed
 310 011a BDE8F083 		pop	{r4, r5, r6, r7, r8, r9, pc}
 311              	.LVL20:
 312              	.L7:
 313              		.cfi_restore_state
 314              	.LBB326:
 315              	.LBB327:
 316              	.LBB328:
 317              	.LBB329:
 318              	.LBB330:
 319              		.loc 3 546 0
 320              	@ 546 "../ChibiOS/os/ext/CMSIS/include/core_cmFunc.h" 1
 321 011e 87F31188 		MSR basepri, r7
 322              	@ 0 "" 2
 323              		.thumb
 324              	.LBE330:
 325              	.LBE329:
 326              	.LBE328:
 327              	.LBE327:
 328              	.LBE326:
 329              		.loc 1 109 0
 330 0122 03B0     		add	sp, sp, #12
 331              		.cfi_def_cfa_offset 28
 332              		@ sp needed
 333 0124 BDE8F083 		pop	{r4, r5, r6, r7, r8, r9, pc}
 334              	.L9:
 335              		.align	2
 336              	.L8:
 337 0128 00000000 		.word	ch
 338 012c 00000000 		.word	wa
 339 0130 00000000 		.word	thread1
 340 0134 00000000 		.word	threads
 341 0138 00000000 		.word	.LANCHOR0
 342 013c 04000000 		.word	.LC1
ARM GAS  /tmp/ccb5ffhJ.s 			page 7


 343 0140 08000000 		.word	.LC2
 344 0144 0C000000 		.word	.LC3
 345 0148 10000000 		.word	.LC4
 346 014c 14000000 		.word	.LC5
 347 0150 00000000 		.word	.LC0
 348              		.cfi_endproc
 349              	.LFE228:
 350              		.size	sem1_execute, .-sem1_execute
 351 0154 AFF30080 		.section	.text.thread3,"ax",%progbits
 351      AFF30080 
 351      AFF30080 
 352              		.align	2
 353              		.p2align 4,,15
 354              		.thumb
 355              		.thumb_func
 356              		.type	thread3, %function
 357              	thread3:
 358              	.LFB233:
 359              		.loc 1 209 0
 360              		.cfi_startproc
 361              		@ args = 0, pretend = 0, frame = 0
 362              		@ frame_needed = 0, uses_anonymous_args = 0
 363              	.LVL21:
 364 0000 10B5     		push	{r4, lr}
 365              		.cfi_def_cfa_offset 8
 366              		.cfi_offset 4, -8
 367              		.cfi_offset 14, -4
 368              		.loc 1 212 0
 369 0002 044C     		ldr	r4, .L12
 370 0004 2046     		mov	r0, r4
 371              	.LVL22:
 372 0006 FFF7FEFF 		bl	chSemWait
 373              	.LVL23:
 374              		.loc 1 213 0
 375 000a 2046     		mov	r0, r4
 376 000c FFF7FEFF 		bl	chSemSignal
 377              	.LVL24:
 378              		.loc 1 215 0
 379 0010 0020     		movs	r0, #0
 380 0012 10BD     		pop	{r4, pc}
 381              	.L13:
 382              		.align	2
 383              	.L12:
 384 0014 00000000 		.word	.LANCHOR0
 385              		.cfi_endproc
 386              	.LFE233:
 387              		.size	thread3, .-thread3
 388 0018 AFF30080 		.section	.text.thread1,"ax",%progbits
 388      AFF30080 
 389              		.align	2
 390              		.p2align 4,,15
 391              		.thumb
 392              		.thumb_func
 393              		.type	thread1, %function
 394              	thread1:
 395              	.LFB227:
 396              		.loc 1 77 0
ARM GAS  /tmp/ccb5ffhJ.s 			page 8


 397              		.cfi_startproc
 398              		@ args = 0, pretend = 0, frame = 0
 399              		@ frame_needed = 0, uses_anonymous_args = 0
 400              	.LVL25:
 401 0000 10B5     		push	{r4, lr}
 402              		.cfi_def_cfa_offset 8
 403              		.cfi_offset 4, -8
 404              		.cfi_offset 14, -4
 405              		.loc 1 77 0
 406 0002 0446     		mov	r4, r0
 407              		.loc 1 79 0
 408 0004 0348     		ldr	r0, .L16
 409              	.LVL26:
 410 0006 FFF7FEFF 		bl	chSemWait
 411              	.LVL27:
 412              		.loc 1 80 0
 413 000a 2078     		ldrb	r0, [r4]	@ zero_extendqisi2
 414 000c FFF7FEFF 		bl	test_emit_token
 415              	.LVL28:
 416              		.loc 1 82 0
 417 0010 0020     		movs	r0, #0
 418 0012 10BD     		pop	{r4, pc}
 419              	.LVL29:
 420              	.L17:
 421              		.align	2
 422              	.L16:
 423 0014 00000000 		.word	.LANCHOR0
 424              		.cfi_endproc
 425              	.LFE227:
 426              		.size	thread1, .-thread1
 427 0018 AFF30080 		.section	.text.sem1_setup,"ax",%progbits
 427      AFF30080 
 428              		.align	2
 429              		.p2align 4,,15
 430              		.thumb
 431              		.thumb_func
 432              		.type	sem1_setup, %function
 433              	sem1_setup:
 434              	.LFB226:
 435              		.loc 1 72 0
 436              		.cfi_startproc
 437              		@ args = 0, pretend = 0, frame = 0
 438              		@ frame_needed = 0, uses_anonymous_args = 0
 439              		@ link register save eliminated.
 440              		.loc 1 74 0
 441 0000 0148     		ldr	r0, .L19
 442 0002 0021     		movs	r1, #0
 443 0004 FFF7FEBF 		b	chSemObjectInit
 444              	.LVL30:
 445              	.L20:
 446              		.align	2
 447              	.L19:
 448 0008 00000000 		.word	.LANCHOR0
 449              		.cfi_endproc
 450              	.LFE226:
 451              		.size	sem1_setup, .-sem1_setup
 452 000c AFF30080 		.section	.text.sem2_setup,"ax",%progbits
ARM GAS  /tmp/ccb5ffhJ.s 			page 9


 453              		.align	2
 454              		.p2align 4,,15
 455              		.thumb
 456              		.thumb_func
 457              		.type	sem2_setup, %function
 458              	sem2_setup:
 459              	.LFB229:
 460              		.loc 1 129 0
 461              		.cfi_startproc
 462              		@ args = 0, pretend = 0, frame = 0
 463              		@ frame_needed = 0, uses_anonymous_args = 0
 464              		@ link register save eliminated.
 465              		.loc 1 131 0
 466 0000 0148     		ldr	r0, .L22
 467 0002 0021     		movs	r1, #0
 468 0004 FFF7FEBF 		b	chSemObjectInit
 469              	.LVL31:
 470              	.L23:
 471              		.align	2
 472              	.L22:
 473 0008 00000000 		.word	.LANCHOR0
 474              		.cfi_endproc
 475              	.LFE229:
 476              		.size	sem2_setup, .-sem2_setup
 477 000c AFF30080 		.section	.text.sem3_setup,"ax",%progbits
 478              		.align	2
 479              		.p2align 4,,15
 480              		.thumb
 481              		.thumb_func
 482              		.type	sem3_setup, %function
 483              	sem3_setup:
 484              	.LFB232:
 485              		.loc 1 204 0
 486              		.cfi_startproc
 487              		@ args = 0, pretend = 0, frame = 0
 488              		@ frame_needed = 0, uses_anonymous_args = 0
 489              		@ link register save eliminated.
 490              		.loc 1 206 0
 491 0000 0148     		ldr	r0, .L25
 492 0002 0021     		movs	r1, #0
 493 0004 FFF7FEBF 		b	chSemObjectInit
 494              	.LVL32:
 495              	.L26:
 496              		.align	2
 497              	.L25:
 498 0008 00000000 		.word	.LANCHOR0
 499              		.cfi_endproc
 500              	.LFE232:
 501              		.size	sem3_setup, .-sem3_setup
 502 000c AFF30080 		.section	.text.thread2,"ax",%progbits
 503              		.align	2
 504              		.p2align 4,,15
 505              		.thumb
 506              		.thumb_func
 507              		.type	thread2, %function
 508              	thread2:
 509              	.LFB230:
ARM GAS  /tmp/ccb5ffhJ.s 			page 10


 510              		.loc 1 134 0
 511              		.cfi_startproc
 512              		@ args = 0, pretend = 0, frame = 0
 513              		@ frame_needed = 0, uses_anonymous_args = 0
 514              	.LVL33:
 515 0000 08B5     		push	{r3, lr}
 516              		.cfi_def_cfa_offset 8
 517              		.cfi_offset 3, -8
 518              		.cfi_offset 14, -4
 519              		.loc 1 137 0
 520 0002 4FF4FA70 		mov	r0, #500
 521              	.LVL34:
 522 0006 FFF7FEFF 		bl	chThdSleep
 523              	.LVL35:
 524              	.LBB331:
 525              	.LBB332:
 526              	.LBB333:
 527              	.LBB334:
 528              		.loc 3 546 0
 529 000a 2023     		movs	r3, #32
 530              	@ 546 "../ChibiOS/os/ext/CMSIS/include/core_cmFunc.h" 1
 531 000c 83F31188 		MSR basepri, r3
 532              	@ 0 "" 2
 533              		.thumb
 534              	.LBE334:
 535              	.LBE333:
 536              	.LBE332:
 537              	.LBE331:
 538              		.loc 1 139 0
 539 0010 0448     		ldr	r0, .L29
 540 0012 FFF7FEFF 		bl	chSemSignalI
 541              	.LVL36:
 542              		.loc 1 140 0
 543 0016 FFF7FEFF 		bl	chSchRescheduleS
 544              	.LVL37:
 545              	.LBB335:
 546              	.LBB336:
 547              	.LBB337:
 548              	.LBB338:
 549              	.LBB339:
 550              		.loc 3 546 0
 551 001a 0020     		movs	r0, #0
 552              	@ 546 "../ChibiOS/os/ext/CMSIS/include/core_cmFunc.h" 1
 553 001c 80F31188 		MSR basepri, r0
 554              	@ 0 "" 2
 555              		.thumb
 556              	.LBE339:
 557              	.LBE338:
 558              	.LBE337:
 559              	.LBE336:
 560              	.LBE335:
 561              		.loc 1 143 0
 562 0020 08BD     		pop	{r3, pc}
 563              	.L30:
 564 0022 00BF     		.align	2
 565              	.L29:
 566 0024 00000000 		.word	.LANCHOR0
ARM GAS  /tmp/ccb5ffhJ.s 			page 11


 567              		.cfi_endproc
 568              	.LFE230:
 569              		.size	thread2, .-thread2
 570 0028 AFF30080 		.section	.text.sem2_execute,"ax",%progbits
 570      AFF30080 
 571              		.align	2
 572              		.p2align 4,,15
 573              		.thumb
 574              		.thumb_func
 575              		.type	sem2_execute, %function
 576              	sem2_execute:
 577              	.LFB231:
 578              		.loc 1 145 0
 579              		.cfi_startproc
 580              		@ args = 0, pretend = 0, frame = 0
 581              		@ frame_needed = 0, uses_anonymous_args = 0
 582 0000 70B5     		push	{r4, r5, r6, lr}
 583              		.cfi_def_cfa_offset 16
 584              		.cfi_offset 4, -16
 585              		.cfi_offset 5, -12
 586              		.cfi_offset 6, -8
 587              		.cfi_offset 14, -4
 588              		.loc 1 153 0
 589 0002 4E4C     		ldr	r4, .L39
 590              		.loc 1 145 0
 591 0004 82B0     		sub	sp, sp, #8
 592              		.cfi_def_cfa_offset 24
 593              		.loc 1 153 0
 594 0006 0021     		movs	r1, #0
 595 0008 2046     		mov	r0, r4
 596 000a FFF7FEFF 		bl	chSemWaitTimeout
 597              	.LVL38:
 598              		.loc 1 154 0
 599 000e A0F1FF31 		sub	r1, r0, #-1
 600 0012 0120     		movs	r0, #1
 601              	.LVL39:
 602 0014 B1FA81F1 		clz	r1, r1
 603              	.LVL40:
 604 0018 4909     		lsrs	r1, r1, #5
 605 001a FFF7FEFF 		bl	_test_assert
 606              	.LVL41:
 607 001e 08B1     		cbz	r0, .L38
 608              	.L31:
 609              		.loc 1 183 0
 610 0020 02B0     		add	sp, sp, #8
 611              		.cfi_remember_state
 612              		.cfi_def_cfa_offset 16
 613              		@ sp needed
 614 0022 70BD     		pop	{r4, r5, r6, pc}
 615              	.L38:
 616              		.cfi_restore_state
 617              	.LVL42:
 618              	.LBB369:
 619              	.LBB370:
 620              		.file 4 "../ChibiOS/os/rt/include/chschd.h"
 621              		.loc 4 587 0
 622 0024 2168     		ldr	r1, [r4]
ARM GAS  /tmp/ccb5ffhJ.s 			page 12


 623              	.LBE370:
 624              	.LBE369:
 625              		.loc 1 155 0
 626 0026 0220     		movs	r0, #2
 627 0028 091B     		subs	r1, r1, r4
 628 002a B1FA81F1 		clz	r1, r1
 629 002e 4909     		lsrs	r1, r1, #5
 630 0030 FFF7FEFF 		bl	_test_assert
 631              	.LVL43:
 632 0034 0028     		cmp	r0, #0
 633 0036 F3D1     		bne	.L31
 634              		.loc 1 156 0
 635 0038 A168     		ldr	r1, [r4, #8]
 636 003a B1FA81F1 		clz	r1, r1
 637 003e 0320     		movs	r0, #3
 638 0040 4909     		lsrs	r1, r1, #5
 639 0042 FFF7FEFF 		bl	_test_assert
 640              	.LVL44:
 641 0046 0028     		cmp	r0, #0
 642 0048 EAD1     		bne	.L31
 643              	.LBB371:
 644              	.LBB372:
 645              	.LBB373:
 646              	.LBB374:
 647              	.LBB375:
 648              	.LBB376:
 649              		.loc 2 179 0
 650 004a 3D4B     		ldr	r3, .L39+4
 651              	.LBE376:
 652              	.LBE375:
 653              	.LBE374:
 654              	.LBE373:
 655              		.loc 1 161 0
 656 004c 3D4A     		ldr	r2, .L39+8
 657              	.LBB378:
 658              	.LBB377:
 659              		.loc 2 192 0
 660 004e 9B69     		ldr	r3, [r3, #24]
 661              	.LBE377:
 662              	.LBE378:
 663              		.loc 1 161 0
 664 0050 1168     		ldr	r1, [r2]
 665 0052 9A68     		ldr	r2, [r3, #8]
 666 0054 3C4B     		ldr	r3, .L39+12
 667 0056 0090     		str	r0, [sp]
 668 0058 013A     		subs	r2, r2, #1
 669 005a 0846     		mov	r0, r1
 670 005c 4FF4E871 		mov	r1, #464
 671 0060 FFF7FEFF 		bl	chThdCreateStatic
 672              	.LVL45:
 673 0064 394B     		ldr	r3, .L39+16
 674              		.loc 1 163 0
 675 0066 41F28831 		movw	r1, #5000
 676              		.loc 1 161 0
 677 006a 1860     		str	r0, [r3]
 678              		.loc 1 163 0
 679 006c 2046     		mov	r0, r4
ARM GAS  /tmp/ccb5ffhJ.s 			page 13


 680 006e FFF7FEFF 		bl	chSemWaitTimeout
 681              	.LVL46:
 682 0072 0546     		mov	r5, r0
 683              	.LVL47:
 684              		.loc 1 164 0
 685 0074 FFF7FEFF 		bl	test_wait_threads
 686              	.LVL48:
 687              		.loc 1 165 0
 688 0078 B5FA85F1 		clz	r1, r5
 689 007c 0420     		movs	r0, #4
 690 007e 4909     		lsrs	r1, r1, #5
 691 0080 FFF7FEFF 		bl	_test_assert
 692              	.LVL49:
 693 0084 0028     		cmp	r0, #0
 694 0086 CBD1     		bne	.L31
 695              	.LVL50:
 696              	.LBB379:
 697              	.LBB380:
 698              		.loc 4 587 0
 699 0088 2168     		ldr	r1, [r4]
 700              	.LBE380:
 701              	.LBE379:
 702              		.loc 1 166 0
 703 008a 0520     		movs	r0, #5
 704 008c 091B     		subs	r1, r1, r4
 705 008e B1FA81F1 		clz	r1, r1
 706 0092 4909     		lsrs	r1, r1, #5
 707 0094 FFF7FEFF 		bl	_test_assert
 708              	.LVL51:
 709 0098 0028     		cmp	r0, #0
 710 009a C1D1     		bne	.L31
 711              		.loc 1 167 0
 712 009c A168     		ldr	r1, [r4, #8]
 713 009e B1FA81F1 		clz	r1, r1
 714 00a2 0620     		movs	r0, #6
 715 00a4 4909     		lsrs	r1, r1, #5
 716 00a6 FFF7FEFF 		bl	_test_assert
 717              	.LVL52:
 718 00aa 0546     		mov	r5, r0
 719              	.LVL53:
 720 00ac 0028     		cmp	r0, #0
 721 00ae B7D1     		bne	.L31
 722              		.loc 1 172 0
 723 00b0 FFF7FEFF 		bl	test_wait_tick
 724              	.LVL54:
 725              	.LBB381:
 726              	.LBB382:
 727              	.LBB383:
 728              	.LBB384:
 729              	.LBB385:
 730              	.LBB386:
 731              		.loc 3 546 0
 732 00b4 2023     		movs	r3, #32
 733              	@ 546 "../ChibiOS/os/ext/CMSIS/include/core_cmFunc.h" 1
 734 00b6 83F31188 		MSR basepri, r3
 735              	@ 0 "" 2
 736              		.thumb
ARM GAS  /tmp/ccb5ffhJ.s 			page 14


 737              	.LBE386:
 738              	.LBE385:
 739              	.LBE384:
 740              	.LBE383:
 741              	.LBB387:
 742              	.LBB388:
 743              	.LBB389:
 744              	.LBB390:
 745              		.file 5 "../ChibiOS/os/hal/ports/STM32/LLD/TIMv1/st_lld.h"
 746              		.loc 5 128 0
 747 00ba 4FF08043 		mov	r3, #1073741824
 748 00be 5E6A     		ldr	r6, [r3, #36]
 749              	.LVL55:
 750              	.LBE390:
 751              	.LBE389:
 752              	.LBE388:
 753              	.LBE387:
 754              	.LBB391:
 755              	.LBB392:
 756              	.LBB393:
 757              	.LBB394:
 758              	.LBB395:
 759              		.loc 3 546 0
 760              	@ 546 "../ChibiOS/os/ext/CMSIS/include/core_cmFunc.h" 1
 761 00c0 85F31188 		MSR basepri, r5
 762              	@ 0 "" 2
 763              	.LVL56:
 764              		.thumb
 765 00c4 4125     		movs	r5, #65
 766              	.LVL57:
 767              	.L35:
 768              	.LBE395:
 769              	.LBE394:
 770              	.LBE393:
 771              	.LBE392:
 772              	.LBE391:
 773              	.LBE382:
 774              	.LBE381:
 775              		.loc 1 175 0
 776 00c6 2846     		mov	r0, r5
 777 00c8 FFF7FEFF 		bl	test_emit_token
 778              	.LVL58:
 779              		.loc 1 176 0
 780 00cc 4FF4FA71 		mov	r1, #500
 781 00d0 1A48     		ldr	r0, .L39
 782 00d2 FFF7FEFF 		bl	chSemWaitTimeout
 783              	.LVL59:
 784              		.loc 1 177 0
 785 00d6 A0F1FF31 		sub	r1, r0, #-1
 786 00da 0720     		movs	r0, #7
 787              	.LVL60:
 788 00dc B1FA81F1 		clz	r1, r1
 789              	.LVL61:
 790 00e0 4909     		lsrs	r1, r1, #5
 791 00e2 FFF7FEFF 		bl	_test_assert
 792              	.LVL62:
 793 00e6 0028     		cmp	r0, #0
ARM GAS  /tmp/ccb5ffhJ.s 			page 15


 794 00e8 9AD1     		bne	.L31
 795              	.LBB396:
 796              	.LBB397:
 797              		.loc 4 587 0
 798 00ea 2168     		ldr	r1, [r4]
 799              	.LBE397:
 800              	.LBE396:
 801              		.loc 1 178 0
 802 00ec 0820     		movs	r0, #8
 803 00ee 091B     		subs	r1, r1, r4
 804 00f0 B1FA81F1 		clz	r1, r1
 805 00f4 4909     		lsrs	r1, r1, #5
 806 00f6 FFF7FEFF 		bl	_test_assert
 807              	.LVL63:
 808 00fa 0028     		cmp	r0, #0
 809 00fc 90D1     		bne	.L31
 810              		.loc 1 179 0
 811 00fe A168     		ldr	r1, [r4, #8]
 812 0100 B1FA81F1 		clz	r1, r1
 813 0104 0920     		movs	r0, #9
 814 0106 4909     		lsrs	r1, r1, #5
 815 0108 FFF7FEFF 		bl	_test_assert
 816              	.LVL64:
 817 010c 0135     		adds	r5, r5, #1
 818 010e EDB2     		uxtb	r5, r5
 819 0110 0028     		cmp	r0, #0
 820 0112 85D1     		bne	.L31
 821              		.loc 1 174 0
 822 0114 462D     		cmp	r5, #70
 823 0116 D6D1     		bne	.L35
 824              		.loc 1 181 0
 825 0118 0A20     		movs	r0, #10
 826 011a 0D49     		ldr	r1, .L39+20
 827 011c FFF7FEFF 		bl	_test_assert_sequence
 828              	.LVL65:
 829 0120 0028     		cmp	r0, #0
 830 0122 7FF47DAF 		bne	.L31
 831              		.loc 1 182 0
 832 0126 0B20     		movs	r0, #11
 833 0128 06F6C411 		addw	r1, r6, #2500
 834 012c 06F6D812 		addw	r2, r6, #2520
 835              	.LBE372:
 836              	.LBE371:
 837              		.loc 1 183 0
 838 0130 02B0     		add	sp, sp, #8
 839              		.cfi_def_cfa_offset 16
 840              		@ sp needed
 841 0132 BDE87040 		pop	{r4, r5, r6, lr}
 842              		.cfi_restore 14
 843              		.cfi_restore 6
 844              		.cfi_restore 5
 845              		.cfi_restore 4
 846              		.cfi_def_cfa_offset 0
 847              	.LVL66:
 848              	.LBB399:
 849              	.LBB398:
 850              		.loc 1 182 0
ARM GAS  /tmp/ccb5ffhJ.s 			page 16


 851 0136 FFF7FEBF 		b	_test_assert_time_window
 852              	.LVL67:
 853              	.L40:
 854 013a 00BF     		.align	2
 855              	.L39:
 856 013c 00000000 		.word	.LANCHOR0
 857 0140 00000000 		.word	ch
 858 0144 00000000 		.word	wa
 859 0148 00000000 		.word	thread2
 860 014c 00000000 		.word	threads
 861 0150 14000000 		.word	.LC5
 862              	.LBE398:
 863              	.LBE399:
 864              		.cfi_endproc
 865              	.LFE231:
 866              		.size	sem2_execute, .-sem2_execute
 867 0154 AFF30080 		.section	.text.sem3_execute,"ax",%progbits
 867      AFF30080 
 867      AFF30080 
 868              		.align	2
 869              		.p2align 4,,15
 870              		.thumb
 871              		.thumb_func
 872              		.type	sem3_execute, %function
 873              	sem3_execute:
 874              	.LFB234:
 875              		.loc 1 217 0
 876              		.cfi_startproc
 877              		@ args = 0, pretend = 0, frame = 0
 878              		@ frame_needed = 0, uses_anonymous_args = 0
 879 0000 10B5     		push	{r4, lr}
 880              		.cfi_def_cfa_offset 8
 881              		.cfi_offset 4, -8
 882              		.cfi_offset 14, -4
 883              	.LBB416:
 884              	.LBB417:
 885              	.LBB418:
 886              	.LBB419:
 887              		.loc 2 179 0
 888 0002 204B     		ldr	r3, .L47
 889              	.LBE419:
 890              	.LBE418:
 891              	.LBE417:
 892              	.LBE416:
 893              		.loc 1 219 0
 894 0004 204A     		ldr	r2, .L47+4
 895              	.LBB421:
 896              	.LBB420:
 897              		.loc 2 192 0
 898 0006 9B69     		ldr	r3, [r3, #24]
 899              	.LBE420:
 900              	.LBE421:
 901              		.loc 1 219 0
 902 0008 1068     		ldr	r0, [r2]
 903 000a 9A68     		ldr	r2, [r3, #8]
 904 000c 1F4B     		ldr	r3, .L47+8
 905              		.loc 1 220 0
ARM GAS  /tmp/ccb5ffhJ.s 			page 17


 906 000e 204C     		ldr	r4, .L47+12
 907              		.loc 1 217 0
 908 0010 82B0     		sub	sp, sp, #8
 909              		.cfi_def_cfa_offset 16
 910              		.loc 1 219 0
 911 0012 0021     		movs	r1, #0
 912 0014 0132     		adds	r2, r2, #1
 913 0016 0091     		str	r1, [sp]
 914 0018 4FF4E871 		mov	r1, #464
 915 001c FFF7FEFF 		bl	chThdCreateStatic
 916              	.LVL68:
 917 0020 1C4B     		ldr	r3, .L47+16
 918              		.loc 1 220 0
 919 0022 2146     		mov	r1, r4
 920              		.loc 1 219 0
 921 0024 1860     		str	r0, [r3]
 922              		.loc 1 220 0
 923 0026 2046     		mov	r0, r4
 924 0028 FFF7FEFF 		bl	chSemSignalWait
 925              	.LVL69:
 926              	.LBB422:
 927              	.LBB423:
 928              		.loc 4 587 0
 929 002c 2168     		ldr	r1, [r4]
 930              	.LBE423:
 931              	.LBE422:
 932              		.loc 1 221 0
 933 002e 0120     		movs	r0, #1
 934 0030 091B     		subs	r1, r1, r4
 935 0032 B1FA81F1 		clz	r1, r1
 936 0036 4909     		lsrs	r1, r1, #5
 937 0038 FFF7FEFF 		bl	_test_assert
 938              	.LVL70:
 939 003c 08B1     		cbz	r0, .L46
 940              	.L41:
 941              		.loc 1 227 0
 942 003e 02B0     		add	sp, sp, #8
 943              		.cfi_remember_state
 944              		.cfi_def_cfa_offset 8
 945              		@ sp needed
 946 0040 10BD     		pop	{r4, pc}
 947              	.L46:
 948              		.cfi_restore_state
 949              		.loc 1 222 0
 950 0042 A168     		ldr	r1, [r4, #8]
 951 0044 B1FA81F1 		clz	r1, r1
 952 0048 0220     		movs	r0, #2
 953 004a 4909     		lsrs	r1, r1, #5
 954 004c FFF7FEFF 		bl	_test_assert
 955              	.LVL71:
 956 0050 0028     		cmp	r0, #0
 957 0052 F4D1     		bne	.L41
 958              	.LBB424:
 959              	.LBB425:
 960              		.loc 1 224 0
 961 0054 2146     		mov	r1, r4
 962 0056 2046     		mov	r0, r4
ARM GAS  /tmp/ccb5ffhJ.s 			page 18


 963 0058 FFF7FEFF 		bl	chSemSignalWait
 964              	.LVL72:
 965              	.LBB426:
 966              	.LBB427:
 967              		.loc 4 587 0
 968 005c 2168     		ldr	r1, [r4]
 969              	.LBE427:
 970              	.LBE426:
 971              		.loc 1 225 0
 972 005e 0320     		movs	r0, #3
 973 0060 091B     		subs	r1, r1, r4
 974 0062 B1FA81F1 		clz	r1, r1
 975 0066 4909     		lsrs	r1, r1, #5
 976 0068 FFF7FEFF 		bl	_test_assert
 977              	.LVL73:
 978 006c 0028     		cmp	r0, #0
 979 006e E6D1     		bne	.L41
 980              		.loc 1 226 0
 981 0070 A168     		ldr	r1, [r4, #8]
 982 0072 B1FA81F1 		clz	r1, r1
 983 0076 0420     		movs	r0, #4
 984 0078 4909     		lsrs	r1, r1, #5
 985              	.LBE425:
 986              	.LBE424:
 987              		.loc 1 227 0
 988 007a 02B0     		add	sp, sp, #8
 989              		.cfi_def_cfa_offset 8
 990              		@ sp needed
 991 007c BDE81040 		pop	{r4, lr}
 992              		.cfi_restore 14
 993              		.cfi_restore 4
 994              		.cfi_def_cfa_offset 0
 995              	.LBB429:
 996              	.LBB428:
 997              		.loc 1 226 0
 998 0080 FFF7FEBF 		b	_test_assert
 999              	.LVL74:
 1000              	.L48:
 1001              		.align	2
 1002              	.L47:
 1003 0084 00000000 		.word	ch
 1004 0088 00000000 		.word	wa
 1005 008c 00000000 		.word	thread3
 1006 0090 00000000 		.word	.LANCHOR0
 1007 0094 00000000 		.word	threads
 1008              	.LBE428:
 1009              	.LBE429:
 1010              		.cfi_endproc
 1011              	.LFE234:
 1012              		.size	sem3_execute, .-sem3_execute
 1013 0098 AFF30080 		.section	.text.thread4,"ax",%progbits
 1013      AFF30080 
 1014              		.align	2
 1015              		.p2align 4,,15
 1016              		.thumb
 1017              		.thumb_func
 1018              		.type	thread4, %function
ARM GAS  /tmp/ccb5ffhJ.s 			page 19


 1019              	thread4:
 1020              	.LFB235:
 1021              		.loc 1 244 0
 1022              		.cfi_startproc
 1023              		@ args = 0, pretend = 0, frame = 0
 1024              		@ frame_needed = 0, uses_anonymous_args = 0
 1025              	.LVL75:
 1026 0000 08B5     		push	{r3, lr}
 1027              		.cfi_def_cfa_offset 8
 1028              		.cfi_offset 3, -8
 1029              		.cfi_offset 14, -4
 1030              	.LBB443:
 1031              	.LBB444:
 1032              	.LBB445:
 1033              	.LBB446:
 1034              	.LBB447:
 1035              	.LBB448:
 1036              		.loc 3 546 0
 1037 0002 2022     		movs	r2, #32
 1038              	@ 546 "../ChibiOS/os/ext/CMSIS/include/core_cmFunc.h" 1
 1039 0004 82F31188 		MSR basepri, r2
 1040              	@ 0 "" 2
 1041              	.LVL76:
 1042              		.thumb
 1043              	.LBE448:
 1044              	.LBE447:
 1045              	.LBE446:
 1046              	.LBE445:
 1047              	.LBB449:
 1048              	.LBB450:
 1049              		.file 6 "../ChibiOS/os/rt/include/chbsem.h"
 1050              		.loc 6 270 0
 1051 0008 8368     		ldr	r3, [r0, #8]
 1052 000a 002B     		cmp	r3, #0
 1053 000c 05DD     		ble	.L52
 1054              	.LBE450:
 1055              	.LBE449:
 1056              		.loc 6 286 0
 1057 000e FFF7FEFF 		bl	chSchRescheduleS
 1058              	.LVL77:
 1059              	.LBB452:
 1060              	.LBB453:
 1061              	.LBB454:
 1062              	.LBB455:
 1063              	.LBB456:
 1064              		.loc 3 546 0
 1065 0012 0020     		movs	r0, #0
 1066              	@ 546 "../ChibiOS/os/ext/CMSIS/include/core_cmFunc.h" 1
 1067 0014 80F31188 		MSR basepri, r0
 1068              	@ 0 "" 2
 1069              		.thumb
 1070              	.LBE456:
 1071              	.LBE455:
 1072              	.LBE454:
 1073              	.LBE453:
 1074              	.LBE452:
 1075              	.LBE444:
ARM GAS  /tmp/ccb5ffhJ.s 			page 20


 1076              	.LBE443:
 1077              		.loc 1 248 0
 1078 0018 08BD     		pop	{r3, pc}
 1079              	.LVL78:
 1080              	.L52:
 1081              	.LBB464:
 1082              	.LBB463:
 1083              	.LBB461:
 1084              	.LBB451:
 1085              		.loc 6 271 0
 1086 001a FFF7FEFF 		bl	chSemSignalI
 1087              	.LVL79:
 1088              	.LBE451:
 1089              	.LBE461:
 1090              		.loc 6 286 0
 1091 001e FFF7FEFF 		bl	chSchRescheduleS
 1092              	.LVL80:
 1093              	.LBB462:
 1094              	.LBB460:
 1095              	.LBB459:
 1096              	.LBB458:
 1097              	.LBB457:
 1098              		.loc 3 546 0
 1099 0022 0020     		movs	r0, #0
 1100              	@ 546 "../ChibiOS/os/ext/CMSIS/include/core_cmFunc.h" 1
 1101 0024 80F31188 		MSR basepri, r0
 1102              	@ 0 "" 2
 1103              		.thumb
 1104              	.LBE457:
 1105              	.LBE458:
 1106              	.LBE459:
 1107              	.LBE460:
 1108              	.LBE462:
 1109              	.LBE463:
 1110              	.LBE464:
 1111              		.loc 1 248 0
 1112 0028 08BD     		pop	{r3, pc}
 1113              		.cfi_endproc
 1114              	.LFE235:
 1115              		.size	thread4, .-thread4
 1116 002a 00BFAFF3 		.section	.text.sem4_execute,"ax",%progbits
 1116      0080
 1117              		.align	2
 1118              		.p2align 4,,15
 1119              		.thumb
 1120              		.thumb_func
 1121              		.type	sem4_execute, %function
 1122              	sem4_execute:
 1123              	.LFB236:
 1124              		.loc 1 250 0
 1125              		.cfi_startproc
 1126              		@ args = 0, pretend = 0, frame = 16
 1127              		@ frame_needed = 0, uses_anonymous_args = 0
 1128 0000 70B5     		push	{r4, r5, r6, lr}
 1129              		.cfi_def_cfa_offset 16
 1130              		.cfi_offset 4, -16
 1131              		.cfi_offset 5, -12
ARM GAS  /tmp/ccb5ffhJ.s 			page 21


 1132              		.cfi_offset 6, -8
 1133              		.cfi_offset 14, -4
 1134 0002 86B0     		sub	sp, sp, #24
 1135              		.cfi_def_cfa_offset 40
 1136              	.LVL81:
 1137              	.LBB593:
 1138              	.LBB594:
 1139              		.loc 6 126 0
 1140 0004 03A8     		add	r0, sp, #12
 1141              	.LVL82:
 1142 0006 0021     		movs	r1, #0
 1143 0008 FFF7FEFF 		bl	chSemObjectInit
 1144              	.LVL83:
 1145              	.LBE594:
 1146              	.LBE593:
 1147              	.LBB595:
 1148              	.LBB596:
 1149              		.loc 6 255 0
 1150 000c 03A8     		add	r0, sp, #12
 1151              	.LVL84:
 1152 000e 0021     		movs	r1, #0
 1153 0010 FFF7FEFF 		bl	chSemReset
 1154              	.LVL85:
 1155              	.LBE596:
 1156              	.LBE595:
 1157              	.LBB597:
 1158              	.LBB598:
 1159              	.LBB599:
 1160              	.LBB600:
 1161              		.loc 3 546 0
 1162 0014 2025     		movs	r5, #32
 1163              	@ 546 "../ChibiOS/os/ext/CMSIS/include/core_cmFunc.h" 1
 1164 0016 85F31188 		MSR basepri, r5
 1165              	@ 0 "" 2
 1166              	.LVL86:
 1167              		.thumb
 1168              	.LBE600:
 1169              	.LBE599:
 1170              	.LBE598:
 1171              	.LBE597:
 1172              	.LBB601:
 1173              	.LBB602:
 1174              		.loc 6 304 0
 1175 001a 0599     		ldr	r1, [sp, #20]
 1176              	.LBE602:
 1177              	.LBE601:
 1178              		.loc 1 256 0
 1179 001c 0029     		cmp	r1, #0
 1180 001e 4FF00100 		mov	r0, #1
 1181 0022 CCBF     		ite	gt
 1182 0024 0021     		movgt	r1, #0
 1183 0026 0121     		movle	r1, #1
 1184 0028 FFF7FEFF 		bl	_test_assert
 1185              	.LVL87:
 1186 002c 0446     		mov	r4, r0
 1187 002e 20B1     		cbz	r0, .L54
 1188              	.LVL88:
ARM GAS  /tmp/ccb5ffhJ.s 			page 22


 1189              	.LBB603:
 1190              	.LBB604:
 1191              	.LBB605:
 1192              	.LBB606:
 1193              	.LBB607:
 1194              		.loc 3 546 0
 1195 0030 0023     		movs	r3, #0
 1196              	@ 546 "../ChibiOS/os/ext/CMSIS/include/core_cmFunc.h" 1
 1197 0032 83F31188 		MSR basepri, r3
 1198              	@ 0 "" 2
 1199              	.LVL89:
 1200              		.thumb
 1201              	.L53:
 1202              	.LBE607:
 1203              	.LBE606:
 1204              	.LBE605:
 1205              	.LBE604:
 1206              	.LBE603:
 1207              		.loc 1 278 0
 1208 0036 06B0     		add	sp, sp, #24
 1209              		.cfi_remember_state
 1210              		.cfi_def_cfa_offset 16
 1211              		@ sp needed
 1212 0038 70BD     		pop	{r4, r5, r6, pc}
 1213              	.LVL90:
 1214              	.L54:
 1215              		.cfi_restore_state
 1216              	.LBB608:
 1217              	.LBB609:
 1218              	.LBB610:
 1219              	.LBB611:
 1220              	.LBB612:
 1221              		.loc 3 546 0
 1222              	@ 546 "../ChibiOS/os/ext/CMSIS/include/core_cmFunc.h" 1
 1223 003a 80F31188 		MSR basepri, r0
 1224              	@ 0 "" 2
 1225              		.thumb
 1226              	.LBE612:
 1227              	.LBE611:
 1228              	.LBE610:
 1229              	.LBE609:
 1230              	.LBE608:
 1231              	.LBB613:
 1232              	.LBB614:
 1233              	.LBB615:
 1234              	.LBB616:
 1235              		.loc 2 179 0
 1236 003e 414B     		ldr	r3, .L71
 1237              	.LBE616:
 1238              	.LBE615:
 1239              	.LBE614:
 1240              	.LBE613:
 1241              		.loc 1 259 0
 1242 0040 414A     		ldr	r2, .L71+4
 1243              	.LBB618:
 1244              	.LBB617:
 1245              		.loc 2 192 0
ARM GAS  /tmp/ccb5ffhJ.s 			page 23


 1246 0042 9B69     		ldr	r3, [r3, #24]
 1247              	.LBE617:
 1248              	.LBE618:
 1249              		.loc 1 259 0
 1250 0044 1068     		ldr	r0, [r2]
 1251 0046 9A68     		ldr	r2, [r3, #8]
 1252 0048 404B     		ldr	r3, .L71+8
 1253 004a 03A9     		add	r1, sp, #12
 1254              	.LVL91:
 1255 004c 0091     		str	r1, [sp]
 1256 004e 013A     		subs	r2, r2, #1
 1257 0050 4FF4E871 		mov	r1, #464
 1258              	.LVL92:
 1259 0054 FFF7FEFF 		bl	chThdCreateStatic
 1260              	.LVL93:
 1261 0058 3D4B     		ldr	r3, .L71+12
 1262 005a 1860     		str	r0, [r3]
 1263              	.LVL94:
 1264              	.LBB619:
 1265              	.LBB620:
 1266              		.loc 6 143 0
 1267 005c 03A8     		add	r0, sp, #12
 1268              	.LVL95:
 1269 005e FFF7FEFF 		bl	chSemWait
 1270              	.LVL96:
 1271              	.LBE620:
 1272              	.LBE619:
 1273              	.LBB621:
 1274              	.LBB622:
 1275              	.LBB623:
 1276              	.LBB624:
 1277              		.loc 3 546 0
 1278              	@ 546 "../ChibiOS/os/ext/CMSIS/include/core_cmFunc.h" 1
 1279 0062 85F31188 		MSR basepri, r5
 1280              	@ 0 "" 2
 1281              	.LVL97:
 1282              		.thumb
 1283              	.LBE624:
 1284              	.LBE623:
 1285              	.LBE622:
 1286              	.LBE621:
 1287              	.LBB625:
 1288              	.LBB626:
 1289              		.loc 6 304 0
 1290 0066 0599     		ldr	r1, [sp, #20]
 1291              	.LBE626:
 1292              	.LBE625:
 1293              		.loc 1 266 0
 1294 0068 0029     		cmp	r1, #0
 1295 006a CCBF     		ite	gt
 1296 006c 0021     		movgt	r1, #0
 1297 006e 0121     		movle	r1, #1
 1298 0070 0220     		movs	r0, #2
 1299 0072 FFF7FEFF 		bl	_test_assert
 1300              	.LVL98:
 1301 0076 18B1     		cbz	r0, .L67
 1302              	.L65:
ARM GAS  /tmp/ccb5ffhJ.s 			page 24


 1303              	.LVL99:
 1304              	.LBB627:
 1305              	.LBB628:
 1306              	.LBB629:
 1307              	.LBB630:
 1308              	.LBB631:
 1309              		.loc 3 546 0
 1310              	@ 546 "../ChibiOS/os/ext/CMSIS/include/core_cmFunc.h" 1
 1311 0078 84F31188 		MSR basepri, r4
 1312              	@ 0 "" 2
 1313              		.thumb
 1314              	.LBE631:
 1315              	.LBE630:
 1316              	.LBE629:
 1317              	.LBE628:
 1318              	.LBE627:
 1319              		.loc 1 278 0
 1320 007c 06B0     		add	sp, sp, #24
 1321              		.cfi_remember_state
 1322              		.cfi_def_cfa_offset 16
 1323              		@ sp needed
 1324 007e 70BD     		pop	{r4, r5, r6, pc}
 1325              	.LVL100:
 1326              	.L67:
 1327              		.cfi_restore_state
 1328              	.LBB632:
 1329              	.LBB633:
 1330              	.LBB634:
 1331              	.LBB635:
 1332              	.LBB636:
 1333              		.loc 3 546 0
 1334              	@ 546 "../ChibiOS/os/ext/CMSIS/include/core_cmFunc.h" 1
 1335 0080 80F31188 		MSR basepri, r0
 1336              	@ 0 "" 2
 1337              	.LVL101:
 1338              		.thumb
 1339              	.LBE636:
 1340              	.LBE635:
 1341              	.LBE634:
 1342              	.LBE633:
 1343              	.LBE632:
 1344              	.LBB637:
 1345              	.LBB638:
 1346              	.LBB639:
 1347              	.LBB640:
 1348              	.LBB641:
 1349              	.LBB642:
 1350              	@ 546 "../ChibiOS/os/ext/CMSIS/include/core_cmFunc.h" 1
 1351 0084 85F31188 		MSR basepri, r5
 1352              	@ 0 "" 2
 1353              	.LVL102:
 1354              		.thumb
 1355              	.LBE642:
 1356              	.LBE641:
 1357              	.LBE640:
 1358              	.LBE639:
 1359              	.LBB643:
ARM GAS  /tmp/ccb5ffhJ.s 			page 25


 1360              	.LBB644:
 1361              		.loc 6 270 0
 1362 0088 059B     		ldr	r3, [sp, #20]
 1363 008a 002B     		cmp	r3, #0
 1364 008c 24DD     		ble	.L68
 1365              	.L57:
 1366              	.LBE644:
 1367              	.LBE643:
 1368              		.loc 6 286 0
 1369 008e FFF7FEFF 		bl	chSchRescheduleS
 1370              	.LVL103:
 1371              	.LBB646:
 1372              	.LBB647:
 1373              	.LBB648:
 1374              	.LBB649:
 1375              	.LBB650:
 1376              		.loc 3 546 0
 1377 0092 0024     		movs	r4, #0
 1378              	@ 546 "../ChibiOS/os/ext/CMSIS/include/core_cmFunc.h" 1
 1379 0094 84F31188 		MSR basepri, r4
 1380              	@ 0 "" 2
 1381              	.LVL104:
 1382              		.thumb
 1383              	.LBE650:
 1384              	.LBE649:
 1385              	.LBE648:
 1386              	.LBE647:
 1387              	.LBE646:
 1388              	.LBE638:
 1389              	.LBE637:
 1390              	.LBB653:
 1391              	.LBB654:
 1392              	.LBB655:
 1393              	.LBB656:
 1394 0098 2026     		movs	r6, #32
 1395              	@ 546 "../ChibiOS/os/ext/CMSIS/include/core_cmFunc.h" 1
 1396 009a 86F31188 		MSR basepri, r6
 1397              	@ 0 "" 2
 1398              	.LVL105:
 1399              		.thumb
 1400              	.LBE656:
 1401              	.LBE655:
 1402              	.LBE654:
 1403              	.LBE653:
 1404              		.loc 1 271 0
 1405 009e 0599     		ldr	r1, [sp, #20]
 1406 00a0 A142     		cmp	r1, r4
 1407 00a2 4FF00300 		mov	r0, #3
 1408 00a6 D4BF     		ite	le
 1409 00a8 0021     		movle	r1, #0
 1410 00aa 0121     		movgt	r1, #1
 1411 00ac FFF7FEFF 		bl	_test_assert
 1412              	.LVL106:
 1413 00b0 0546     		mov	r5, r0
 1414 00b2 0028     		cmp	r0, #0
 1415 00b4 E0D1     		bne	.L65
 1416              	.LVL107:
ARM GAS  /tmp/ccb5ffhJ.s 			page 26


 1417              	.LBB657:
 1418              	.LBB658:
 1419              	.LBB659:
 1420              	.LBB660:
 1421              	.LBB661:
 1422              		.loc 3 546 0
 1423              	@ 546 "../ChibiOS/os/ext/CMSIS/include/core_cmFunc.h" 1
 1424 00b6 80F31188 		MSR basepri, r0
 1425              	@ 0 "" 2
 1426              	.LVL108:
 1427              		.thumb
 1428              	.LBE661:
 1429              	.LBE660:
 1430              	.LBE659:
 1431              	.LBE658:
 1432              	.LBE657:
 1433              	.LBB662:
 1434              	.LBB663:
 1435              	.LBB664:
 1436              	.LBB665:
 1437              	@ 546 "../ChibiOS/os/ext/CMSIS/include/core_cmFunc.h" 1
 1438 00ba 86F31188 		MSR basepri, r6
 1439              	@ 0 "" 2
 1440              	.LVL109:
 1441              		.thumb
 1442              	.LBE665:
 1443              	.LBE664:
 1444              	.LBE663:
 1445              	.LBE662:
 1446              		.loc 1 272 0
 1447 00be 0599     		ldr	r1, [sp, #20]
 1448 00c0 0420     		movs	r0, #4
 1449 00c2 A1F10101 		sub	r1, #1
 1450 00c6 B1FA81F1 		clz	r1, r1
 1451 00ca 4909     		lsrs	r1, r1, #5
 1452 00cc FFF7FEFF 		bl	_test_assert
 1453              	.LVL110:
 1454 00d0 30B1     		cbz	r0, .L69
 1455              	.L66:
 1456              	.LVL111:
 1457              	.LBB666:
 1458              	.LBB667:
 1459              	.LBB668:
 1460              	.LBB669:
 1461              	.LBB670:
 1462              		.loc 3 546 0
 1463              	@ 546 "../ChibiOS/os/ext/CMSIS/include/core_cmFunc.h" 1
 1464 00d2 85F31188 		MSR basepri, r5
 1465              	@ 0 "" 2
 1466              		.thumb
 1467 00d6 AEE7     		b	.L53
 1468              	.LVL112:
 1469              	.L68:
 1470              	.LBE670:
 1471              	.LBE669:
 1472              	.LBE668:
 1473              	.LBE667:
ARM GAS  /tmp/ccb5ffhJ.s 			page 27


 1474              	.LBE666:
 1475              	.LBB671:
 1476              	.LBB652:
 1477              	.LBB651:
 1478              	.LBB645:
 1479              		.loc 6 271 0
 1480 00d8 03A8     		add	r0, sp, #12
 1481              	.LVL113:
 1482 00da FFF7FEFF 		bl	chSemSignalI
 1483              	.LVL114:
 1484 00de D6E7     		b	.L57
 1485              	.LVL115:
 1486              	.L69:
 1487              	.LBE645:
 1488              	.LBE651:
 1489              	.LBE652:
 1490              	.LBE671:
 1491              	.LBB672:
 1492              	.LBB673:
 1493              	.LBB674:
 1494              	.LBB675:
 1495              	.LBB676:
 1496              		.loc 3 546 0
 1497              	@ 546 "../ChibiOS/os/ext/CMSIS/include/core_cmFunc.h" 1
 1498 00e0 80F31188 		MSR basepri, r0
 1499              	@ 0 "" 2
 1500              	.LVL116:
 1501              		.thumb
 1502              	.LBE676:
 1503              	.LBE675:
 1504              	.LBE674:
 1505              	.LBE673:
 1506              	.LBE672:
 1507              	.LBB677:
 1508              	.LBB678:
 1509              	.LBB679:
 1510              	.LBB680:
 1511              	.LBB681:
 1512              	.LBB682:
 1513              	@ 546 "../ChibiOS/os/ext/CMSIS/include/core_cmFunc.h" 1
 1514 00e4 86F31188 		MSR basepri, r6
 1515              	@ 0 "" 2
 1516              	.LVL117:
 1517              		.thumb
 1518              	.LBE682:
 1519              	.LBE681:
 1520              	.LBE680:
 1521              	.LBE679:
 1522              	.LBB683:
 1523              	.LBB684:
 1524              		.loc 6 270 0
 1525 00e8 059B     		ldr	r3, [sp, #20]
 1526 00ea 002B     		cmp	r3, #0
 1527 00ec 25DD     		ble	.L70
 1528              	.L60:
 1529              	.LBE684:
 1530              	.LBE683:
ARM GAS  /tmp/ccb5ffhJ.s 			page 28


 1531              		.loc 6 286 0
 1532 00ee FFF7FEFF 		bl	chSchRescheduleS
 1533              	.LVL118:
 1534              	.LBB686:
 1535              	.LBB687:
 1536              	.LBB688:
 1537              	.LBB689:
 1538              	.LBB690:
 1539              		.loc 3 546 0
 1540 00f2 0024     		movs	r4, #0
 1541              	@ 546 "../ChibiOS/os/ext/CMSIS/include/core_cmFunc.h" 1
 1542 00f4 84F31188 		MSR basepri, r4
 1543              	@ 0 "" 2
 1544              	.LVL119:
 1545              		.thumb
 1546              	.LBE690:
 1547              	.LBE689:
 1548              	.LBE688:
 1549              	.LBE687:
 1550              	.LBE686:
 1551              	.LBE678:
 1552              	.LBE677:
 1553              	.LBB693:
 1554              	.LBB694:
 1555              	.LBB695:
 1556              	.LBB696:
 1557 00f8 2026     		movs	r6, #32
 1558              	@ 546 "../ChibiOS/os/ext/CMSIS/include/core_cmFunc.h" 1
 1559 00fa 86F31188 		MSR basepri, r6
 1560              	@ 0 "" 2
 1561              	.LVL120:
 1562              		.thumb
 1563              	.LBE696:
 1564              	.LBE695:
 1565              	.LBE694:
 1566              	.LBE693:
 1567              		.loc 1 276 0
 1568 00fe 0599     		ldr	r1, [sp, #20]
 1569 0100 A142     		cmp	r1, r4
 1570 0102 4FF00300 		mov	r0, #3
 1571 0106 D4BF     		ite	le
 1572 0108 0021     		movle	r1, #0
 1573 010a 0121     		movgt	r1, #1
 1574 010c FFF7FEFF 		bl	_test_assert
 1575              	.LVL121:
 1576 0110 0546     		mov	r5, r0
 1577 0112 0028     		cmp	r0, #0
 1578 0114 B0D1     		bne	.L65
 1579              	.LVL122:
 1580              	.LBB697:
 1581              	.LBB698:
 1582              	.LBB699:
 1583              	.LBB700:
 1584              	.LBB701:
 1585              		.loc 3 546 0
 1586              	@ 546 "../ChibiOS/os/ext/CMSIS/include/core_cmFunc.h" 1
 1587 0116 80F31188 		MSR basepri, r0
ARM GAS  /tmp/ccb5ffhJ.s 			page 29


 1588              	@ 0 "" 2
 1589              	.LVL123:
 1590              		.thumb
 1591              	.LBE701:
 1592              	.LBE700:
 1593              	.LBE699:
 1594              	.LBE698:
 1595              	.LBE697:
 1596              	.LBB702:
 1597              	.LBB703:
 1598              	.LBB704:
 1599              	.LBB705:
 1600              	@ 546 "../ChibiOS/os/ext/CMSIS/include/core_cmFunc.h" 1
 1601 011a 86F31188 		MSR basepri, r6
 1602              	@ 0 "" 2
 1603              	.LVL124:
 1604              		.thumb
 1605              	.LBE705:
 1606              	.LBE704:
 1607              	.LBE703:
 1608              	.LBE702:
 1609              		.loc 1 277 0
 1610 011e 0599     		ldr	r1, [sp, #20]
 1611 0120 0520     		movs	r0, #5
 1612 0122 A1F10101 		sub	r1, #1
 1613 0126 B1FA81F1 		clz	r1, r1
 1614 012a 4909     		lsrs	r1, r1, #5
 1615 012c FFF7FEFF 		bl	_test_assert
 1616              	.LVL125:
 1617 0130 0028     		cmp	r0, #0
 1618 0132 CED1     		bne	.L66
 1619              	.LVL126:
 1620              	.LBB706:
 1621              	.LBB707:
 1622              	.LBB708:
 1623              	.LBB709:
 1624              	.LBB710:
 1625              		.loc 3 546 0
 1626              	@ 546 "../ChibiOS/os/ext/CMSIS/include/core_cmFunc.h" 1
 1627 0134 80F31188 		MSR basepri, r0
 1628              	@ 0 "" 2
 1629              		.thumb
 1630              	.LBE710:
 1631              	.LBE709:
 1632              	.LBE708:
 1633              	.LBE707:
 1634              	.LBE706:
 1635 0138 7DE7     		b	.L53
 1636              	.LVL127:
 1637              	.L70:
 1638              	.LBB711:
 1639              	.LBB692:
 1640              	.LBB691:
 1641              	.LBB685:
 1642              		.loc 6 271 0
 1643 013a 03A8     		add	r0, sp, #12
 1644              	.LVL128:
ARM GAS  /tmp/ccb5ffhJ.s 			page 30


 1645 013c FFF7FEFF 		bl	chSemSignalI
 1646              	.LVL129:
 1647 0140 D5E7     		b	.L60
 1648              	.L72:
 1649 0142 00BF     		.align	2
 1650              	.L71:
 1651 0144 00000000 		.word	ch
 1652 0148 00000000 		.word	wa
 1653 014c 00000000 		.word	thread4
 1654 0150 00000000 		.word	threads
 1655              	.LBE685:
 1656              	.LBE691:
 1657              	.LBE692:
 1658              	.LBE711:
 1659              		.cfi_endproc
 1660              	.LFE236:
 1661              		.size	sem4_execute, .-sem4_execute
 1662              		.global	patternsem
 1663              		.global	testsem4
 1664              		.global	testsem3
 1665              		.global	testsem2
 1666              		.global	testsem1
 1667 0154 AFF30080 		.section	.rodata.testsem1,"a",%progbits
 1667      AFF30080 
 1667      AFF30080 
 1668              		.align	2
 1669              		.type	testsem1, %object
 1670              		.size	testsem1, 16
 1671              	testsem1:
 1672 0000 74000000 		.word	.LC9
 1673 0004 00000000 		.word	sem1_setup
 1674 0008 00000000 		.word	0
 1675 000c 00000000 		.word	sem1_execute
 1676              		.section	.rodata.testsem2,"a",%progbits
 1677              		.align	2
 1678              		.type	testsem2, %object
 1679              		.size	testsem2, 16
 1680              	testsem2:
 1681 0000 60000000 		.word	.LC8
 1682 0004 00000000 		.word	sem2_setup
 1683 0008 00000000 		.word	0
 1684 000c 00000000 		.word	sem2_execute
 1685              		.section	.rodata.testsem3,"a",%progbits
 1686              		.align	2
 1687              		.type	testsem3, %object
 1688              		.size	testsem3, 16
 1689              	testsem3:
 1690 0000 40000000 		.word	.LC7
 1691 0004 00000000 		.word	sem3_setup
 1692 0008 00000000 		.word	0
 1693 000c 00000000 		.word	sem3_execute
 1694              		.section	.rodata.testsem4,"a",%progbits
 1695              		.align	2
 1696              		.type	testsem4, %object
 1697              		.size	testsem4, 16
 1698              	testsem4:
 1699 0000 1C000000 		.word	.LC6
ARM GAS  /tmp/ccb5ffhJ.s 			page 31


 1700 0004 00000000 		.word	0
 1701 0008 00000000 		.word	0
 1702 000c 00000000 		.word	sem4_execute
 1703              		.section	.data.sem1,"aw",%progbits
 1704              		.align	2
 1705              		.set	.LANCHOR0,. + 0
 1706              		.type	sem1, %object
 1707              		.size	sem1, 12
 1708              	sem1:
 1709 0000 00000000 		.word	sem1
 1710 0004 00000000 		.word	sem1
 1711 0008 00000000 		.word	0
 1712              		.section	.rodata.patternsem,"a",%progbits
 1713              		.align	2
 1714              		.type	patternsem, %object
 1715              		.size	patternsem, 20
 1716              	patternsem:
 1717 0000 00000000 		.word	testsem1
 1718 0004 00000000 		.word	testsem2
 1719 0008 00000000 		.word	testsem3
 1720 000c 00000000 		.word	testsem4
 1721 0010 00000000 		.word	0
 1722              		.section	.rodata.str1.4,"aMS",%progbits,1
 1723              		.align	2
 1724              	.LC0:
 1725 0000 4100     		.ascii	"A\000"
 1726 0002 0000     		.space	2
 1727              	.LC1:
 1728 0004 4200     		.ascii	"B\000"
 1729 0006 0000     		.space	2
 1730              	.LC2:
 1731 0008 4300     		.ascii	"C\000"
 1732 000a 0000     		.space	2
 1733              	.LC3:
 1734 000c 4400     		.ascii	"D\000"
 1735 000e 0000     		.space	2
 1736              	.LC4:
 1737 0010 4500     		.ascii	"E\000"
 1738 0012 0000     		.space	2
 1739              	.LC5:
 1740 0014 41424344 		.ascii	"ABCDE\000"
 1740      4500
 1741 001a 0000     		.space	2
 1742              	.LC6:
 1743 001c 42696E61 		.ascii	"Binary Semaphores, functionality\000"
 1743      72792053 
 1743      656D6170 
 1743      686F7265 
 1743      732C2066 
 1744 003d 000000   		.space	3
 1745              	.LC7:
 1746 0040 53656D61 		.ascii	"Semaphores, atomic signal-wait\000"
 1746      70686F72 
 1746      65732C20 
 1746      61746F6D 
 1746      69632073 
 1747 005f 00       		.space	1
ARM GAS  /tmp/ccb5ffhJ.s 			page 32


 1748              	.LC8:
 1749 0060 53656D61 		.ascii	"Semaphores, timeout\000"
 1749      70686F72 
 1749      65732C20 
 1749      74696D65 
 1749      6F757400 
 1750              	.LC9:
 1751 0074 53656D61 		.ascii	"Semaphores, enqueuing\000"
 1751      70686F72 
 1751      65732C20 
 1751      656E7175 
 1751      6575696E 
 1752 008a 0000     		.text
 1753              	.Letext0:
 1754              		.file 7 "/l/arm2/gcc-arm-none-eabi-4_9-2014q4/lib/gcc/arm-none-eabi/4.9.3/include/stddef.h"
 1755              		.file 8 "/l/arm2/gcc-arm-none-eabi-4_9-2014q4/arm-none-eabi/include/machine/_default_types.h"
 1756              		.file 9 "/l/arm2/gcc-arm-none-eabi-4_9-2014q4/arm-none-eabi/include/stdint.h"
 1757              		.file 10 "../ChibiOS/os/rt/ports/ARMCMx/compilers/GCC/chtypes.h"
 1758              		.file 11 "../ChibiOS/os/rt/include/chsystypes.h"
 1759              		.file 12 "../ChibiOS/os/rt/ports/ARMCMx/chcore.h"
 1760              		.file 13 "../ChibiOS/os/rt/ports/ARMCMx/chcore_v7m.h"
 1761              		.file 14 "../ChibiOS/os/hal/ports/STM32/LLD/TIMv1/stm32_tim.h"
 1762              		.file 15 "../ChibiOS/os/rt/include/chtm.h"
 1763              		.file 16 "../ChibiOS/os/rt/include/chmtx.h"
 1764              		.file 17 "../ChibiOS/os/rt/include/chsem.h"
 1765              		.file 18 "../ChibiOS/test/rt/test.h"
 1766              		.file 19 "../ChibiOS/os/rt/ports/ARMCMx/chcore_timer.h"
 1767              		.file 20 "../ChibiOS/os/rt/include/chsys.h"
 1768              		.file 21 "../ChibiOS/os/rt/include/chvt.h"
 1769              		.file 22 "../ChibiOS/os/ext/CMSIS/include/core_cm4.h"