ARM GAS  /tmp/ccJ7i5ea.s 			page 1


   1              		.syntax unified
   2              		.cpu cortex-m4
   3              		.eabi_attribute 27, 3
   4              		.eabi_attribute 28, 1
   5              		.fpu fpv4-sp-d16
   6              		.eabi_attribute 20, 1
   7              		.eabi_attribute 21, 1
   8              		.eabi_attribute 23, 3
   9              		.eabi_attribute 24, 1
  10              		.eabi_attribute 25, 1
  11              		.eabi_attribute 26, 1
  12              		.eabi_attribute 30, 2
  13              		.eabi_attribute 34, 1
  14              		.eabi_attribute 18, 4
  15              		.thumb
  16              		.file	"usb.c"
  17              		.text
  18              	.Ltext0:
  19              		.cfi_sections	.debug_frame
  20              		.section	.text.set_address,"ax",%progbits
  21              		.align	2
  22              		.p2align 4,,15
  23              		.thumb
  24              		.thumb_func
  25              		.type	set_address, %function
  26              	set_address:
  27              	.LFB255:
  28              		.file 1 "../ChibiOS/os/hal/src/usb.c"
  29              		.loc 1 59 0
  30              		.cfi_startproc
  31              		@ args = 0, pretend = 0, frame = 0
  32              		@ frame_needed = 0, uses_anonymous_args = 0
  33              	.LVL0:
  34 0000 10B5     		push	{r4, lr}
  35              		.cfi_def_cfa_offset 8
  36              		.cfi_offset 4, -8
  37              		.cfi_offset 14, -4
  38              		.loc 1 59 0
  39 0002 0446     		mov	r4, r0
  40              		.loc 1 61 0
  41 0004 90F87630 		ldrb	r3, [r0, #118]	@ zero_extendqisi2
  42 0008 80F87E30 		strb	r3, [r0, #126]
  43              		.loc 1 62 0
  44 000c FFF7FEFF 		bl	usb_lld_set_address
  45              	.LVL1:
  46              		.loc 1 63 0
  47 0010 6368     		ldr	r3, [r4, #4]
  48 0012 1B68     		ldr	r3, [r3]
  49 0014 13B1     		cbz	r3, .L2
  50              		.loc 1 63 0 is_stmt 0 discriminator 1
  51 0016 2046     		mov	r0, r4
  52 0018 0121     		movs	r1, #1
  53 001a 9847     		blx	r3
  54              	.LVL2:
  55              	.L2:
  56              		.loc 1 64 0 is_stmt 1
  57 001c 0323     		movs	r3, #3
ARM GAS  /tmp/ccJ7i5ea.s 			page 2


  58 001e 2370     		strb	r3, [r4]
  59 0020 10BD     		pop	{r4, pc}
  60              		.cfi_endproc
  61              	.LFE255:
  62              		.size	set_address, .-set_address
  63 0022 00BFAFF3 		.section	.text.usbInit,"ax",%progbits
  63      0080AFF3 
  63      0080AFF3 
  63      0080
  64              		.align	2
  65              		.p2align 4,,15
  66              		.global	usbInit
  67              		.thumb
  68              		.thumb_func
  69              		.type	usbInit, %function
  70              	usbInit:
  71              	.LFB257:
  72              		.loc 1 225 0
  73              		.cfi_startproc
  74              		@ args = 0, pretend = 0, frame = 0
  75              		@ frame_needed = 0, uses_anonymous_args = 0
  76              		@ link register save eliminated.
  77              		.loc 1 227 0
  78 0000 FFF7FEBF 		b	usb_lld_init
  79              	.LVL3:
  80              		.cfi_endproc
  81              	.LFE257:
  82              		.size	usbInit, .-usbInit
  83 0004 AFF30080 		.section	.text.usbObjectInit,"ax",%progbits
  83      AFF30080 
  83      AFF30080 
  84              		.align	2
  85              		.p2align 4,,15
  86              		.global	usbObjectInit
  87              		.thumb
  88              		.thumb_func
  89              		.type	usbObjectInit, %function
  90              	usbObjectInit:
  91              	.LFB258:
  92              		.loc 1 237 0
  93              		.cfi_startproc
  94              		@ args = 0, pretend = 0, frame = 0
  95              		@ frame_needed = 0, uses_anonymous_args = 0
  96              		@ link register save eliminated.
  97              	.LVL4:
  98              		.loc 1 240 0
  99 0000 0123     		movs	r3, #1
 100              		.loc 1 237 0
 101 0002 30B4     		push	{r4, r5}
 102              		.cfi_def_cfa_offset 8
 103              		.cfi_offset 4, -8
 104              		.cfi_offset 5, -4
 105              		.loc 1 241 0
 106 0004 0022     		movs	r2, #0
 107 0006 00F14405 		add	r5, r0, #68
 108              		.loc 1 240 0
 109 000a 0370     		strb	r3, [r0]
ARM GAS  /tmp/ccJ7i5ea.s 			page 3


 110              		.loc 1 241 0
 111 000c 2946     		mov	r1, r5
 112 000e 4260     		str	r2, [r0, #4]
 113              	.LVL5:
 114 0010 00F12803 		add	r3, r0, #40
 115              	.LVL6:
 116              	.L10:
 117              		.loc 1 243 0 discriminator 3
 118 0014 43F8042F 		str	r2, [r3, #4]!
 119              		.loc 1 242 0 discriminator 3
 120 0018 AB42     		cmp	r3, r5
 121              		.loc 1 243 0 discriminator 3
 122 001a 4FF00004 		mov	r4, #0
 123              		.loc 1 244 0 discriminator 3
 124 001e 41F8042F 		str	r2, [r1, #4]!
 125              		.loc 1 242 0 discriminator 3
 126 0022 F7D1     		bne	.L10
 127              		.loc 1 246 0
 128 0024 0481     		strh	r4, [r0, #8]	@ movhi
 129              		.loc 1 247 0
 130 0026 4481     		strh	r4, [r0, #10]	@ movhi
 131              		.loc 1 248 0
 132 0028 30BC     		pop	{r4, r5}
 133              		.cfi_restore 5
 134              		.cfi_restore 4
 135              		.cfi_def_cfa_offset 0
 136 002a 7047     		bx	lr
 137              		.cfi_endproc
 138              	.LFE258:
 139              		.size	usbObjectInit, .-usbObjectInit
 140 002c AFF30080 		.section	.text.usbStart,"ax",%progbits
 141              		.align	2
 142              		.p2align 4,,15
 143              		.global	usbStart
 144              		.thumb
 145              		.thumb_func
 146              		.type	usbStart, %function
 147              	usbStart:
 148              	.LFB259:
 149              		.loc 1 258 0
 150              		.cfi_startproc
 151              		@ args = 0, pretend = 0, frame = 0
 152              		@ frame_needed = 0, uses_anonymous_args = 0
 153              	.LVL7:
 154 0000 38B5     		push	{r3, r4, r5, lr}
 155              		.cfi_def_cfa_offset 16
 156              		.cfi_offset 3, -16
 157              		.cfi_offset 4, -12
 158              		.cfi_offset 5, -8
 159              		.cfi_offset 14, -4
 160              		.loc 1 258 0
 161 0002 0546     		mov	r5, r0
 162              	.LBB192:
 163              	.LBB193:
 164              	.LBB194:
 165              	.LBB195:
 166              	.LBB196:
ARM GAS  /tmp/ccJ7i5ea.s 			page 4


 167              		.file 2 "../ChibiOS/os/ext/CMSIS/include/core_cmFunc.h"
 168              		.loc 2 546 0
 169 0004 2023     		movs	r3, #32
 170              	@ 546 "../ChibiOS/os/ext/CMSIS/include/core_cmFunc.h" 1
 171 0006 83F31188 		MSR basepri, r3
 172              	@ 0 "" 2
 173              		.thumb
 174              	.LBE196:
 175              	.LBE195:
 176              	.LBE194:
 177              	.LBE193:
 178              	.LBE192:
 179              		.loc 1 268 0
 180 000a 0020     		movs	r0, #0
 181              	.LVL8:
 182              		.loc 1 266 0
 183 000c 6960     		str	r1, [r5, #4]
 184              	.LVL9:
 185 000e 05F10803 		add	r3, r5, #8
 186 0012 05F12802 		add	r2, r5, #40
 187              	.LVL10:
 188              	.L14:
 189              		.loc 1 268 0 discriminator 3
 190 0016 43F8040F 		str	r0, [r3, #4]!
 191              		.loc 1 267 0 discriminator 3
 192 001a 9342     		cmp	r3, r2
 193              		.loc 1 268 0 discriminator 3
 194 001c 4FF00004 		mov	r4, #0
 195              		.loc 1 267 0 discriminator 3
 196 0020 F9D1     		bne	.L14
 197              		.loc 1 269 0
 198 0022 2846     		mov	r0, r5
 199 0024 FFF7FEFF 		bl	usb_lld_start
 200              	.LVL11:
 201              		.loc 1 270 0
 202 0028 0223     		movs	r3, #2
 203 002a 2B70     		strb	r3, [r5]
 204              	.LVL12:
 205              	.LBB197:
 206              	.LBB198:
 207              	.LBB199:
 208              	.LBB200:
 209              	.LBB201:
 210              	.LBB202:
 211              		.loc 2 546 0
 212              	@ 546 "../ChibiOS/os/ext/CMSIS/include/core_cmFunc.h" 1
 213 002c 84F31188 		MSR basepri, r4
 214              	@ 0 "" 2
 215              		.thumb
 216 0030 38BD     		pop	{r3, r4, r5, pc}
 217              	.LBE202:
 218              	.LBE201:
 219              	.LBE200:
 220              	.LBE199:
 221              	.LBE198:
 222              	.LBE197:
 223              		.cfi_endproc
ARM GAS  /tmp/ccJ7i5ea.s 			page 5


 224              	.LFE259:
 225              		.size	usbStart, .-usbStart
 226 0032 00BFAFF3 		.section	.text.usbStop,"ax",%progbits
 226      0080AFF3 
 226      0080AFF3 
 226      0080
 227              		.align	2
 228              		.p2align 4,,15
 229              		.global	usbStop
 230              		.thumb
 231              		.thumb_func
 232              		.type	usbStop, %function
 233              	usbStop:
 234              	.LFB260:
 235              		.loc 1 281 0
 236              		.cfi_startproc
 237              		@ args = 0, pretend = 0, frame = 0
 238              		@ frame_needed = 0, uses_anonymous_args = 0
 239              	.LVL13:
 240 0000 10B5     		push	{r4, lr}
 241              		.cfi_def_cfa_offset 8
 242              		.cfi_offset 4, -8
 243              		.cfi_offset 14, -4
 244              	.LBB203:
 245              	.LBB204:
 246              	.LBB205:
 247              	.LBB206:
 248              	.LBB207:
 249              		.loc 2 546 0
 250 0002 2023     		movs	r3, #32
 251              	.LBE207:
 252              	.LBE206:
 253              	.LBE205:
 254              	.LBE204:
 255              	.LBE203:
 256              		.loc 1 281 0
 257 0004 0446     		mov	r4, r0
 258              	.LBB212:
 259              	.LBB211:
 260              	.LBB210:
 261              	.LBB209:
 262              	.LBB208:
 263              		.loc 2 546 0
 264              	@ 546 "../ChibiOS/os/ext/CMSIS/include/core_cmFunc.h" 1
 265 0006 83F31188 		MSR basepri, r3
 266              	@ 0 "" 2
 267              		.thumb
 268              	.LBE208:
 269              	.LBE209:
 270              	.LBE210:
 271              	.LBE211:
 272              	.LBE212:
 273              		.loc 1 289 0
 274 000a FFF7FEFF 		bl	usb_lld_stop
 275              	.LVL14:
 276              		.loc 1 290 0
 277 000e 0123     		movs	r3, #1
ARM GAS  /tmp/ccJ7i5ea.s 			page 6


 278 0010 2370     		strb	r3, [r4]
 279              	.LVL15:
 280              	.LBB213:
 281              	.LBB214:
 282              	.LBB215:
 283              	.LBB216:
 284              	.LBB217:
 285              	.LBB218:
 286              		.loc 2 546 0
 287 0012 0023     		movs	r3, #0
 288              	@ 546 "../ChibiOS/os/ext/CMSIS/include/core_cmFunc.h" 1
 289 0014 83F31188 		MSR basepri, r3
 290              	@ 0 "" 2
 291              		.thumb
 292 0018 10BD     		pop	{r4, pc}
 293              	.LBE218:
 294              	.LBE217:
 295              	.LBE216:
 296              	.LBE215:
 297              	.LBE214:
 298              	.LBE213:
 299              		.cfi_endproc
 300              	.LFE260:
 301              		.size	usbStop, .-usbStop
 302 001a 00BFAFF3 		.section	.text.usbInitEndpointI,"ax",%progbits
 302      0080
 303              		.align	2
 304              		.p2align 4,,15
 305              		.global	usbInitEndpointI
 306              		.thumb
 307              		.thumb_func
 308              		.type	usbInitEndpointI, %function
 309              	usbInitEndpointI:
 310              	.LFB261:
 311              		.loc 1 308 0
 312              		.cfi_startproc
 313              		@ args = 0, pretend = 0, frame = 0
 314              		@ frame_needed = 0, uses_anonymous_args = 0
 315              	.LVL16:
 316 0000 70B5     		push	{r4, r5, r6, lr}
 317              		.cfi_def_cfa_offset 16
 318              		.cfi_offset 4, -16
 319              		.cfi_offset 5, -12
 320              		.cfi_offset 6, -8
 321              		.cfi_offset 14, -4
 322              		.loc 1 308 0
 323 0002 0646     		mov	r6, r0
 324              		.loc 1 317 0
 325 0004 5069     		ldr	r0, [r2, #20]
 326              	.LVL17:
 327              		.loc 1 308 0
 328 0006 1446     		mov	r4, r2
 329 0008 0D46     		mov	r5, r1
 330              		.loc 1 317 0
 331 000a 18B1     		cbz	r0, .L20
 332              		.loc 1 318 0
 333 000c 0021     		movs	r1, #0
ARM GAS  /tmp/ccJ7i5ea.s 			page 7


 334              	.LVL18:
 335 000e 1022     		movs	r2, #16
 336              	.LVL19:
 337 0010 FFF7FEFF 		bl	memset
 338              	.LVL20:
 339              	.L20:
 340              		.loc 1 319 0
 341 0014 A069     		ldr	r0, [r4, #24]
 342 0016 18B1     		cbz	r0, .L21
 343              		.loc 1 320 0
 344 0018 0021     		movs	r1, #0
 345 001a 1422     		movs	r2, #20
 346 001c FFF7FEFF 		bl	memset
 347              	.LVL21:
 348              	.L21:
 349              		.loc 1 322 0
 350 0020 06EB8503 		add	r3, r6, r5, lsl #2
 351              		.loc 1 325 0
 352 0024 3046     		mov	r0, r6
 353              		.loc 1 322 0
 354 0026 DC60     		str	r4, [r3, #12]
 355              		.loc 1 325 0
 356 0028 2946     		mov	r1, r5
 357              		.loc 1 326 0
 358 002a BDE87040 		pop	{r4, r5, r6, lr}
 359              		.cfi_restore 14
 360              		.cfi_restore 6
 361              		.cfi_restore 5
 362              		.cfi_restore 4
 363              		.cfi_def_cfa_offset 0
 364              	.LVL22:
 365              		.loc 1 325 0
 366 002e FFF7FEBF 		b	usb_lld_init_endpoint
 367              	.LVL23:
 368              		.cfi_endproc
 369              	.LFE261:
 370              		.size	usbInitEndpointI, .-usbInitEndpointI
 371 0032 00BFAFF3 		.section	.text.usbDisableEndpointsI,"ax",%progbits
 371      0080AFF3 
 371      0080AFF3 
 371      0080
 372              		.align	2
 373              		.p2align 4,,15
 374              		.global	usbDisableEndpointsI
 375              		.thumb
 376              		.thumb_func
 377              		.type	usbDisableEndpointsI, %function
 378              	usbDisableEndpointsI:
 379              	.LFB262:
 380              		.loc 1 339 0
 381              		.cfi_startproc
 382              		@ args = 0, pretend = 0, frame = 0
 383              		@ frame_needed = 0, uses_anonymous_args = 0
 384              		@ link register save eliminated.
 385              	.LVL24:
 386              		.loc 1 346 0
 387 0000 0189     		ldrh	r1, [r0, #8]
ARM GAS  /tmp/ccJ7i5ea.s 			page 8


 388              		.loc 1 347 0
 389 0002 4289     		ldrh	r2, [r0, #10]
 390              		.loc 1 346 0
 391 0004 21F00101 		bic	r1, r1, #1
 392              		.loc 1 347 0
 393 0008 22F00102 		bic	r2, r2, #1
 394              		.loc 1 346 0
 395 000c 0181     		strh	r1, [r0, #8]	@ movhi
 396              		.loc 1 347 0
 397 000e 4281     		strh	r2, [r0, #10]	@ movhi
 398              	.LVL25:
 399 0010 00F10C03 		add	r3, r0, #12
 400 0014 00F12801 		add	r1, r0, #40
 401              		.loc 1 349 0
 402 0018 0022     		movs	r2, #0
 403              	.LVL26:
 404              	.L30:
 405              		.loc 1 349 0 is_stmt 0 discriminator 3
 406 001a 43F8042F 		str	r2, [r3, #4]!
 407              		.loc 1 348 0 is_stmt 1 discriminator 3
 408 001e 8B42     		cmp	r3, r1
 409 0020 FBD1     		bne	.L30
 410              		.loc 1 352 0
 411 0022 FFF7FEBF 		b	usb_lld_disable_endpoints
 412              	.LVL27:
 413              		.cfi_endproc
 414              	.LFE262:
 415              		.size	usbDisableEndpointsI, .-usbDisableEndpointsI
 416 0026 00BFAFF3 		.section	.text.usbPrepareReceive,"ax",%progbits
 416      0080AFF3 
 416      0080
 417              		.align	2
 418              		.p2align 4,,15
 419              		.global	usbPrepareReceive
 420              		.thumb
 421              		.thumb_func
 422              		.type	usbPrepareReceive, %function
 423              	usbPrepareReceive:
 424              	.LFB263:
 425              		.loc 1 367 0
 426              		.cfi_startproc
 427              		@ args = 0, pretend = 0, frame = 0
 428              		@ frame_needed = 0, uses_anonymous_args = 0
 429              		@ link register save eliminated.
 430              	.LVL28:
 431 0000 30B4     		push	{r4, r5}
 432              		.cfi_def_cfa_offset 8
 433              		.cfi_offset 4, -8
 434              		.cfi_offset 5, -4
 435              		.loc 1 368 0
 436 0002 00EB8104 		add	r4, r0, r1, lsl #2
 437              		.loc 1 370 0
 438 0006 0025     		movs	r5, #0
 439              		.loc 1 368 0
 440 0008 E468     		ldr	r4, [r4, #12]
 441 000a A469     		ldr	r4, [r4, #24]
 442              	.LVL29:
ARM GAS  /tmp/ccJ7i5ea.s 			page 9


 443              		.loc 1 371 0
 444 000c E260     		str	r2, [r4, #12]
 445              		.loc 1 372 0
 446 000e 6360     		str	r3, [r4, #4]
 447              		.loc 1 370 0
 448 0010 2570     		strb	r5, [r4]
 449              		.loc 1 373 0
 450 0012 A560     		str	r5, [r4, #8]
 451              		.loc 1 376 0
 452 0014 30BC     		pop	{r4, r5}
 453              		.cfi_restore 5
 454              		.cfi_restore 4
 455              		.cfi_def_cfa_offset 0
 456              	.LVL30:
 457              		.loc 1 375 0
 458 0016 FFF7FEBF 		b	usb_lld_prepare_receive
 459              	.LVL31:
 460              		.cfi_endproc
 461              	.LFE263:
 462              		.size	usbPrepareReceive, .-usbPrepareReceive
 463 001a 00BFAFF3 		.section	.text.usbPrepareTransmit,"ax",%progbits
 463      0080
 464              		.align	2
 465              		.p2align 4,,15
 466              		.global	usbPrepareTransmit
 467              		.thumb
 468              		.thumb_func
 469              		.type	usbPrepareTransmit, %function
 470              	usbPrepareTransmit:
 471              	.LFB264:
 472              		.loc 1 393 0
 473              		.cfi_startproc
 474              		@ args = 0, pretend = 0, frame = 0
 475              		@ frame_needed = 0, uses_anonymous_args = 0
 476              		@ link register save eliminated.
 477              	.LVL32:
 478 0000 30B4     		push	{r4, r5}
 479              		.cfi_def_cfa_offset 8
 480              		.cfi_offset 4, -8
 481              		.cfi_offset 5, -4
 482              		.loc 1 394 0
 483 0002 00EB8104 		add	r4, r0, r1, lsl #2
 484              		.loc 1 396 0
 485 0006 0025     		movs	r5, #0
 486              		.loc 1 394 0
 487 0008 E468     		ldr	r4, [r4, #12]
 488 000a 6469     		ldr	r4, [r4, #20]
 489              	.LVL33:
 490              		.loc 1 397 0
 491 000c E260     		str	r2, [r4, #12]
 492              		.loc 1 398 0
 493 000e 6360     		str	r3, [r4, #4]
 494              		.loc 1 396 0
 495 0010 2570     		strb	r5, [r4]
 496              		.loc 1 399 0
 497 0012 A560     		str	r5, [r4, #8]
 498              		.loc 1 402 0
ARM GAS  /tmp/ccJ7i5ea.s 			page 10


 499 0014 30BC     		pop	{r4, r5}
 500              		.cfi_restore 5
 501              		.cfi_restore 4
 502              		.cfi_def_cfa_offset 0
 503              	.LVL34:
 504              		.loc 1 401 0
 505 0016 FFF7FEBF 		b	usb_lld_prepare_transmit
 506              	.LVL35:
 507              		.cfi_endproc
 508              	.LFE264:
 509              		.size	usbPrepareTransmit, .-usbPrepareTransmit
 510 001a 00BFAFF3 		.section	.text.usbPrepareQueuedReceive,"ax",%progbits
 510      0080
 511              		.align	2
 512              		.p2align 4,,15
 513              		.global	usbPrepareQueuedReceive
 514              		.thumb
 515              		.thumb_func
 516              		.type	usbPrepareQueuedReceive, %function
 517              	usbPrepareQueuedReceive:
 518              	.LFB265:
 519              		.loc 1 422 0
 520              		.cfi_startproc
 521              		@ args = 0, pretend = 0, frame = 0
 522              		@ frame_needed = 0, uses_anonymous_args = 0
 523              		@ link register save eliminated.
 524              	.LVL36:
 525 0000 70B4     		push	{r4, r5, r6}
 526              		.cfi_def_cfa_offset 12
 527              		.cfi_offset 4, -12
 528              		.cfi_offset 5, -8
 529              		.cfi_offset 6, -4
 530              		.loc 1 423 0
 531 0002 00EB8104 		add	r4, r0, r1, lsl #2
 532              		.loc 1 425 0
 533 0006 0126     		movs	r6, #1
 534              		.loc 1 423 0
 535 0008 E468     		ldr	r4, [r4, #12]
 536 000a A469     		ldr	r4, [r4, #24]
 537              	.LVL37:
 538              		.loc 1 428 0
 539 000c 0025     		movs	r5, #0
 540              		.loc 1 426 0
 541 000e E260     		str	r2, [r4, #12]
 542              		.loc 1 427 0
 543 0010 6360     		str	r3, [r4, #4]
 544              		.loc 1 425 0
 545 0012 2670     		strb	r6, [r4]
 546              		.loc 1 428 0
 547 0014 A560     		str	r5, [r4, #8]
 548              		.loc 1 431 0
 549 0016 70BC     		pop	{r4, r5, r6}
 550              		.cfi_restore 6
 551              		.cfi_restore 5
 552              		.cfi_restore 4
 553              		.cfi_def_cfa_offset 0
 554              	.LVL38:
ARM GAS  /tmp/ccJ7i5ea.s 			page 11


 555              		.loc 1 430 0
 556 0018 FFF7FEBF 		b	usb_lld_prepare_receive
 557              	.LVL39:
 558              		.cfi_endproc
 559              	.LFE265:
 560              		.size	usbPrepareQueuedReceive, .-usbPrepareQueuedReceive
 561 001c AFF30080 		.section	.text.usbPrepareQueuedTransmit,"ax",%progbits
 562              		.align	2
 563              		.p2align 4,,15
 564              		.global	usbPrepareQueuedTransmit
 565              		.thumb
 566              		.thumb_func
 567              		.type	usbPrepareQueuedTransmit, %function
 568              	usbPrepareQueuedTransmit:
 569              	.LFB266:
 570              		.loc 1 448 0
 571              		.cfi_startproc
 572              		@ args = 0, pretend = 0, frame = 0
 573              		@ frame_needed = 0, uses_anonymous_args = 0
 574              		@ link register save eliminated.
 575              	.LVL40:
 576 0000 70B4     		push	{r4, r5, r6}
 577              		.cfi_def_cfa_offset 12
 578              		.cfi_offset 4, -12
 579              		.cfi_offset 5, -8
 580              		.cfi_offset 6, -4
 581              		.loc 1 449 0
 582 0002 00EB8104 		add	r4, r0, r1, lsl #2
 583              		.loc 1 451 0
 584 0006 0126     		movs	r6, #1
 585              		.loc 1 449 0
 586 0008 E468     		ldr	r4, [r4, #12]
 587 000a 6469     		ldr	r4, [r4, #20]
 588              	.LVL41:
 589              		.loc 1 454 0
 590 000c 0025     		movs	r5, #0
 591              		.loc 1 452 0
 592 000e E260     		str	r2, [r4, #12]
 593              		.loc 1 453 0
 594 0010 6360     		str	r3, [r4, #4]
 595              		.loc 1 451 0
 596 0012 2670     		strb	r6, [r4]
 597              		.loc 1 454 0
 598 0014 A560     		str	r5, [r4, #8]
 599              		.loc 1 457 0
 600 0016 70BC     		pop	{r4, r5, r6}
 601              		.cfi_restore 6
 602              		.cfi_restore 5
 603              		.cfi_restore 4
 604              		.cfi_def_cfa_offset 0
 605              	.LVL42:
 606              		.loc 1 456 0
 607 0018 FFF7FEBF 		b	usb_lld_prepare_transmit
 608              	.LVL43:
 609              		.cfi_endproc
 610              	.LFE266:
 611              		.size	usbPrepareQueuedTransmit, .-usbPrepareQueuedTransmit
ARM GAS  /tmp/ccJ7i5ea.s 			page 12


 612 001c AFF30080 		.section	.text.usbStartReceiveI,"ax",%progbits
 613              		.align	2
 614              		.p2align 4,,15
 615              		.global	usbStartReceiveI
 616              		.thumb
 617              		.thumb_func
 618              		.type	usbStartReceiveI, %function
 619              	usbStartReceiveI:
 620              	.LFB267:
 621              		.loc 1 473 0
 622              		.cfi_startproc
 623              		@ args = 0, pretend = 0, frame = 0
 624              		@ frame_needed = 0, uses_anonymous_args = 0
 625              	.LVL44:
 626 0000 70B5     		push	{r4, r5, r6, lr}
 627              		.cfi_def_cfa_offset 16
 628              		.cfi_offset 4, -16
 629              		.cfi_offset 5, -12
 630              		.cfi_offset 6, -8
 631              		.cfi_offset 14, -4
 632              		.loc 1 478 0
 633 0002 4589     		ldrh	r5, [r0, #10]
 634 0004 45FA01F3 		asr	r3, r5, r1
 635 0008 13F00104 		ands	r4, r3, #1
 636 000c 01D0     		beq	.L44
 637              		.loc 1 479 0
 638 000e 0120     		movs	r0, #1
 639              	.LVL45:
 640              		.loc 1 484 0
 641 0010 70BD     		pop	{r4, r5, r6, pc}
 642              	.LVL46:
 643              	.L44:
 644              		.loc 1 481 0
 645 0012 0123     		movs	r3, #1
 646 0014 8B40     		lsls	r3, r3, r1
 647 0016 1D43     		orrs	r5, r5, r3
 648 0018 4581     		strh	r5, [r0, #10]	@ movhi
 649              		.loc 1 482 0
 650 001a FFF7FEFF 		bl	usb_lld_start_out
 651              	.LVL47:
 652              		.loc 1 483 0
 653 001e 2046     		mov	r0, r4
 654 0020 70BD     		pop	{r4, r5, r6, pc}
 655              		.cfi_endproc
 656              	.LFE267:
 657              		.size	usbStartReceiveI, .-usbStartReceiveI
 658 0022 00BFAFF3 		.section	.text.usbStartTransmitI,"ax",%progbits
 658      0080AFF3 
 658      0080AFF3 
 658      0080
 659              		.align	2
 660              		.p2align 4,,15
 661              		.global	usbStartTransmitI
 662              		.thumb
 663              		.thumb_func
 664              		.type	usbStartTransmitI, %function
 665              	usbStartTransmitI:
ARM GAS  /tmp/ccJ7i5ea.s 			page 13


 666              	.LFB268:
 667              		.loc 1 500 0
 668              		.cfi_startproc
 669              		@ args = 0, pretend = 0, frame = 0
 670              		@ frame_needed = 0, uses_anonymous_args = 0
 671              	.LVL48:
 672 0000 70B5     		push	{r4, r5, r6, lr}
 673              		.cfi_def_cfa_offset 16
 674              		.cfi_offset 4, -16
 675              		.cfi_offset 5, -12
 676              		.cfi_offset 6, -8
 677              		.cfi_offset 14, -4
 678              		.loc 1 505 0
 679 0002 0589     		ldrh	r5, [r0, #8]
 680 0004 45FA01F3 		asr	r3, r5, r1
 681 0008 13F00104 		ands	r4, r3, #1
 682 000c 01D0     		beq	.L49
 683              		.loc 1 506 0
 684 000e 0120     		movs	r0, #1
 685              	.LVL49:
 686              		.loc 1 511 0
 687 0010 70BD     		pop	{r4, r5, r6, pc}
 688              	.LVL50:
 689              	.L49:
 690              		.loc 1 508 0
 691 0012 0123     		movs	r3, #1
 692 0014 8B40     		lsls	r3, r3, r1
 693 0016 1D43     		orrs	r5, r5, r3
 694 0018 0581     		strh	r5, [r0, #8]	@ movhi
 695              		.loc 1 509 0
 696 001a FFF7FEFF 		bl	usb_lld_start_in
 697              	.LVL51:
 698              		.loc 1 510 0
 699 001e 2046     		mov	r0, r4
 700 0020 70BD     		pop	{r4, r5, r6, pc}
 701              		.cfi_endproc
 702              	.LFE268:
 703              		.size	usbStartTransmitI, .-usbStartTransmitI
 704 0022 00BFAFF3 		.section	.text.usbStallReceiveI,"ax",%progbits
 704      0080AFF3 
 704      0080AFF3 
 704      0080
 705              		.align	2
 706              		.p2align 4,,15
 707              		.global	usbStallReceiveI
 708              		.thumb
 709              		.thumb_func
 710              		.type	usbStallReceiveI, %function
 711              	usbStallReceiveI:
 712              	.LFB269:
 713              		.loc 1 525 0
 714              		.cfi_startproc
 715              		@ args = 0, pretend = 0, frame = 0
 716              		@ frame_needed = 0, uses_anonymous_args = 0
 717              	.LVL52:
 718              		.loc 1 530 0
 719 0000 4389     		ldrh	r3, [r0, #10]
ARM GAS  /tmp/ccJ7i5ea.s 			page 14


 720 0002 0B41     		asrs	r3, r3, r1
 721              		.loc 1 525 0
 722 0004 10B5     		push	{r4, lr}
 723              		.cfi_def_cfa_offset 8
 724              		.cfi_offset 4, -8
 725              		.cfi_offset 14, -4
 726              		.loc 1 530 0
 727 0006 13F00104 		ands	r4, r3, #1
 728 000a 01D0     		beq	.L54
 729              		.loc 1 531 0
 730 000c 0120     		movs	r0, #1
 731              	.LVL53:
 732              		.loc 1 535 0
 733 000e 10BD     		pop	{r4, pc}
 734              	.LVL54:
 735              	.L54:
 736              		.loc 1 533 0
 737 0010 FFF7FEFF 		bl	usb_lld_stall_out
 738              	.LVL55:
 739              		.loc 1 534 0
 740 0014 2046     		mov	r0, r4
 741 0016 10BD     		pop	{r4, pc}
 742              		.cfi_endproc
 743              	.LFE269:
 744              		.size	usbStallReceiveI, .-usbStallReceiveI
 745 0018 AFF30080 		.section	.text.usbStallTransmitI,"ax",%progbits
 745      AFF30080 
 746              		.align	2
 747              		.p2align 4,,15
 748              		.global	usbStallTransmitI
 749              		.thumb
 750              		.thumb_func
 751              		.type	usbStallTransmitI, %function
 752              	usbStallTransmitI:
 753              	.LFB270:
 754              		.loc 1 549 0
 755              		.cfi_startproc
 756              		@ args = 0, pretend = 0, frame = 0
 757              		@ frame_needed = 0, uses_anonymous_args = 0
 758              	.LVL56:
 759              		.loc 1 554 0
 760 0000 0389     		ldrh	r3, [r0, #8]
 761 0002 0B41     		asrs	r3, r3, r1
 762              		.loc 1 549 0
 763 0004 10B5     		push	{r4, lr}
 764              		.cfi_def_cfa_offset 8
 765              		.cfi_offset 4, -8
 766              		.cfi_offset 14, -4
 767              		.loc 1 554 0
 768 0006 13F00104 		ands	r4, r3, #1
 769 000a 01D0     		beq	.L59
 770              		.loc 1 555 0
 771 000c 0120     		movs	r0, #1
 772              	.LVL57:
 773              		.loc 1 559 0
 774 000e 10BD     		pop	{r4, pc}
 775              	.LVL58:
ARM GAS  /tmp/ccJ7i5ea.s 			page 15


 776              	.L59:
 777              		.loc 1 557 0
 778 0010 FFF7FEFF 		bl	usb_lld_stall_in
 779              	.LVL59:
 780              		.loc 1 558 0
 781 0014 2046     		mov	r0, r4
 782 0016 10BD     		pop	{r4, pc}
 783              		.cfi_endproc
 784              	.LFE270:
 785              		.size	usbStallTransmitI, .-usbStallTransmitI
 786 0018 AFF30080 		.section	.text._usb_reset,"ax",%progbits
 786      AFF30080 
 787              		.align	2
 788              		.p2align 4,,15
 789              		.global	_usb_reset
 790              		.thumb
 791              		.thumb_func
 792              		.type	_usb_reset, %function
 793              	_usb_reset:
 794              	.LFB271:
 795              		.loc 1 570 0
 796              		.cfi_startproc
 797              		@ args = 0, pretend = 0, frame = 0
 798              		@ frame_needed = 0, uses_anonymous_args = 0
 799              		@ link register save eliminated.
 800              	.LVL60:
 801              		.loc 1 574 0
 802 0000 0022     		movs	r2, #0
 803              		.loc 1 573 0
 804 0002 0223     		movs	r3, #2
 805              		.loc 1 570 0
 806 0004 10B4     		push	{r4}
 807              		.cfi_def_cfa_offset 4
 808              		.cfi_offset 4, -4
 809              		.loc 1 573 0
 810 0006 0370     		strb	r3, [r0]
 811              		.loc 1 574 0
 812 0008 A0F87C20 		strh	r2, [r0, #124]	@ movhi
 813              		.loc 1 575 0
 814 000c 80F87E20 		strb	r2, [r0, #126]
 815              		.loc 1 576 0
 816 0010 80F87F20 		strb	r2, [r0, #127]
 817              		.loc 1 577 0
 818 0014 0281     		strh	r2, [r0, #8]	@ movhi
 819              		.loc 1 578 0
 820 0016 4281     		strh	r2, [r0, #10]	@ movhi
 821              	.LVL61:
 822 0018 00F10803 		add	r3, r0, #8
 823 001c 00F12804 		add	r4, r0, #40
 824              	.LVL62:
 825              	.L61:
 826              		.loc 1 582 0 discriminator 3
 827 0020 43F8042F 		str	r2, [r3, #4]!
 828              		.loc 1 581 0 discriminator 3
 829 0024 A342     		cmp	r3, r4
 830              		.loc 1 582 0 discriminator 3
 831 0026 4FF00001 		mov	r1, #0
ARM GAS  /tmp/ccJ7i5ea.s 			page 16


 832              		.loc 1 581 0 discriminator 3
 833 002a F9D1     		bne	.L61
 834              		.loc 1 585 0
 835 002c 80F86410 		strb	r1, [r0, #100]
 836              		.loc 1 589 0
 837 0030 5DF8044B 		ldr	r4, [sp], #4
 838              		.cfi_restore 4
 839              		.cfi_def_cfa_offset 0
 840              		.loc 1 588 0
 841 0034 FFF7FEBF 		b	usb_lld_reset
 842              	.LVL63:
 843              		.cfi_endproc
 844              	.LFE271:
 845              		.size	_usb_reset, .-_usb_reset
 846 0038 AFF30080 		.section	.text._usb_ep0setup,"ax",%progbits
 846      AFF30080 
 847              		.align	2
 848              		.p2align 4,,15
 849              		.global	_usb_ep0setup
 850              		.thumb
 851              		.thumb_func
 852              		.type	_usb_ep0setup, %function
 853              	_usb_ep0setup:
 854              	.LFB272:
 855              		.loc 1 601 0
 856              		.cfi_startproc
 857              		@ args = 0, pretend = 0, frame = 0
 858              		@ frame_needed = 0, uses_anonymous_args = 0
 859              	.LVL64:
 860 0000 F8B5     		push	{r3, r4, r5, r6, r7, lr}
 861              		.cfi_def_cfa_offset 24
 862              		.cfi_offset 3, -24
 863              		.cfi_offset 4, -20
 864              		.cfi_offset 5, -16
 865              		.cfi_offset 6, -12
 866              		.cfi_offset 7, -8
 867              		.cfi_offset 14, -4
 868              		.loc 1 604 0
 869 0002 0023     		movs	r3, #0
 870              		.loc 1 601 0
 871 0004 0446     		mov	r4, r0
 872              		.loc 1 604 0
 873 0006 80F86430 		strb	r3, [r0, #100]
 874              		.loc 1 605 0
 875 000a 00F17402 		add	r2, r0, #116
 876 000e FFF7FEFF 		bl	usb_lld_read_setup
 877              	.LVL65:
 878              		.loc 1 609 0
 879 0012 6368     		ldr	r3, [r4, #4]
 880 0014 9B68     		ldr	r3, [r3, #8]
 881 0016 63B3     		cbz	r3, .L69
 882              		.loc 1 610 0 discriminator 1
 883 0018 2046     		mov	r0, r4
 884 001a 9847     		blx	r3
 885              	.LVL66:
 886              		.loc 1 609 0 discriminator 1
 887 001c 48B3     		cbz	r0, .L69
ARM GAS  /tmp/ccJ7i5ea.s 			page 17


 888 001e E56E     		ldr	r5, [r4, #108]
 889 0020 94F87430 		ldrb	r3, [r4, #116]	@ zero_extendqisi2
 890              	.L106:
 891              		.loc 1 634 0
 892 0024 94F87B10 		ldrb	r1, [r4, #123]	@ zero_extendqisi2
 893 0028 94F87A20 		ldrb	r2, [r4, #122]	@ zero_extendqisi2
 894 002c 42EA0122 		orr	r2, r2, r1, lsl #8
 895              	.LVL67:
 896              		.loc 1 636 0
 897 0030 AA42     		cmp	r2, r5
 898              		.loc 1 637 0
 899 0032 3CBF     		itt	cc
 900 0034 E266     		strcc	r2, [r4, #108]
 901 0036 1546     		movcc	r5, r2
 902              		.loc 1 638 0
 903 0038 13F0800F 		tst	r3, #128
 904              	.LBB277:
 905              	.LBB278:
 906              		.loc 1 394 0
 907 003c E368     		ldr	r3, [r4, #12]
 908              	.LBE278:
 909              	.LBE277:
 910              		.loc 1 638 0
 911 003e 40F08C80 		bne	.L129
 912              		.loc 1 664 0
 913 0042 002D     		cmp	r5, #0
 914 0044 71D1     		bne	.L130
 915              	.LBB282:
 916              	.LBB283:
 917              		.loc 1 394 0
 918 0046 5B69     		ldr	r3, [r3, #20]
 919              	.LBE283:
 920              	.LBE282:
 921              		.loc 1 675 0
 922 0048 0522     		movs	r2, #5
 923              	.LVL68:
 924 004a 84F86420 		strb	r2, [r4, #100]
 925              	.LVL69:
 926              	.LBB285:
 927              	.LBB284:
 928              		.loc 1 401 0
 929 004e 2046     		mov	r0, r4
 930              		.loc 1 396 0
 931 0050 1D70     		strb	r5, [r3]
 932              	.LVL70:
 933              		.loc 1 397 0
 934 0052 DD60     		str	r5, [r3, #12]
 935              		.loc 1 398 0
 936 0054 5D60     		str	r5, [r3, #4]
 937              		.loc 1 399 0
 938 0056 9D60     		str	r5, [r3, #8]
 939              		.loc 1 401 0
 940 0058 2946     		mov	r1, r5
 941 005a FFF7FEFF 		bl	usb_lld_prepare_transmit
 942              	.LVL71:
 943              	.LBE284:
 944              	.LBE285:
ARM GAS  /tmp/ccJ7i5ea.s 			page 18


 945              	.LBB286:
 946              	.LBB287:
 947              	.LBB288:
 948              	.LBB289:
 949              	.LBB290:
 950              	.LBB291:
 951              		.loc 2 546 0
 952 005e 2023     		movs	r3, #32
 953              	@ 546 "../ChibiOS/os/ext/CMSIS/include/core_cmFunc.h" 1
 954 0060 83F31188 		MSR basepri, r3
 955              	@ 0 "" 2
 956              		.thumb
 957              	.LBE291:
 958              	.LBE290:
 959              	.LBE289:
 960              	.LBE288:
 961              	.LBE287:
 962              	.LBE286:
 963              		.loc 1 679 0
 964 0064 2046     		mov	r0, r4
 965 0066 2946     		mov	r1, r5
 966 0068 FFF7FEFF 		bl	usbStartTransmitI
 967              	.LVL72:
 968              	.LBB292:
 969              	.LBB293:
 970              	.LBB294:
 971              	.LBB295:
 972              	.LBB296:
 973              	.LBB297:
 974              		.loc 2 546 0
 975              	@ 546 "../ChibiOS/os/ext/CMSIS/include/core_cmFunc.h" 1
 976 006c 85F31188 		MSR basepri, r5
 977              	@ 0 "" 2
 978              		.thumb
 979 0070 F8BD     		pop	{r3, r4, r5, r6, r7, pc}
 980              	.LVL73:
 981              	.L69:
 982              	.LBE297:
 983              	.LBE296:
 984              	.LBE295:
 985              	.LBE294:
 986              	.LBE293:
 987              	.LBE292:
 988              		.loc 1 613 0
 989 0072 94F87430 		ldrb	r3, [r4, #116]	@ zero_extendqisi2
 990 0076 13F06007 		ands	r7, r3, #96
 991 007a 11D0     		beq	.L131
 992              	.L66:
 993              		.loc 1 618 0
 994 007c 2046     		mov	r0, r4
 995 007e 0021     		movs	r1, #0
 996 0080 FFF7FEFF 		bl	usb_lld_stall_in
 997              	.LVL74:
 998              		.loc 1 619 0
 999 0084 2046     		mov	r0, r4
 1000 0086 0021     		movs	r1, #0
 1001 0088 FFF7FEFF 		bl	usb_lld_stall_out
ARM GAS  /tmp/ccJ7i5ea.s 			page 19


 1002              	.LVL75:
 1003              		.loc 1 620 0
 1004 008c 6368     		ldr	r3, [r4, #4]
 1005 008e 1B68     		ldr	r3, [r3]
 1006 0090 13B1     		cbz	r3, .L100
 1007              		.loc 1 620 0 is_stmt 0 discriminator 1
 1008 0092 2046     		mov	r0, r4
 1009 0094 0521     		movs	r1, #5
 1010 0096 9847     		blx	r3
 1011              	.LVL76:
 1012              	.L100:
 1013              		.loc 1 621 0 is_stmt 1
 1014 0098 0623     		movs	r3, #6
 1015 009a 84F86430 		strb	r3, [r4, #100]
 1016              		.loc 1 622 0
 1017 009e F8BD     		pop	{r3, r4, r5, r6, r7, pc}
 1018              	.LVL77:
 1019              	.L131:
 1020              	.LBB298:
 1021              	.LBB299:
 1022              		.loc 1 85 0
 1023 00a0 94F87550 		ldrb	r5, [r4, #117]	@ zero_extendqisi2
 1024              		.loc 1 83 0
 1025 00a4 03F07F02 		and	r2, r3, #127
 1026              		.loc 1 84 0
 1027 00a8 42EA0526 		orr	r6, r2, r5, lsl #8
 1028              		.loc 1 83 0
 1029 00ac B6F5407F 		cmp	r6, #768
 1030 00b0 00F0F180 		beq	.L71
 1031 00b4 17DD     		ble	.L132
 1032 00b6 B6F5C06F 		cmp	r6, #1536
 1033 00ba 00F0D380 		beq	.L79
 1034 00be 7BDD     		ble	.L133
 1035 00c0 B6F5106F 		cmp	r6, #2304
 1036 00c4 00F08680 		beq	.L83
 1037 00c8 40F60242 		movw	r2, #3074
 1038 00cc 9642     		cmp	r6, r2
 1039 00ce 00F0C280 		beq	.L76
 1040 00d2 B6F5006F 		cmp	r6, #2048
 1041 00d6 D1D1     		bne	.L66
 1042              		.loc 1 132 0
 1043 00d8 04F17F02 		add	r2, r4, #127
 1044 00dc 0125     		movs	r5, #1
 1045 00de 2767     		str	r7, [r4, #112]
 1046 00e0 A266     		str	r2, [r4, #104]
 1047 00e2 E566     		str	r5, [r4, #108]
 1048 00e4 9EE7     		b	.L106
 1049              	.L132:
 1050              		.loc 1 83 0
 1051 00e6 022E     		cmp	r6, #2
 1052 00e8 00F0E580 		beq	.L73
 1053 00ec 40F3A880 		ble	.L134
 1054 00f0 B6F5807F 		cmp	r6, #256
 1055 00f4 00F08180 		beq	.L77
 1056 00f8 B6F5817F 		cmp	r6, #258
 1057 00fc BED1     		bne	.L66
 1058              		.loc 1 178 0
ARM GAS  /tmp/ccJ7i5ea.s 			page 20


 1059 00fe 94F87620 		ldrb	r2, [r4, #118]	@ zero_extendqisi2
 1060 0102 002A     		cmp	r2, #0
 1061 0104 BAD1     		bne	.L66
 1062              		.loc 1 181 0
 1063 0106 94F87820 		ldrb	r2, [r4, #120]	@ zero_extendqisi2
 1064 010a 12F00F01 		ands	r1, r2, #15
 1065 010e 07D0     		beq	.L98
 1066              		.loc 1 182 0
 1067 0110 1206     		lsls	r2, r2, #24
 1068              		.loc 1 183 0
 1069 0112 2046     		mov	r0, r4
 1070              		.loc 1 182 0
 1071 0114 00F1F580 		bmi	.L135
 1072              	.LVL78:
 1073              		.loc 1 185 0
 1074 0118 FFF7FEFF 		bl	usb_lld_clear_out
 1075              	.LVL79:
 1076 011c 94F87430 		ldrb	r3, [r4, #116]	@ zero_extendqisi2
 1077              	.L98:
 1078              		.loc 1 200 0
 1079 0120 0025     		movs	r5, #0
 1080 0122 A566     		str	r5, [r4, #104]
 1081 0124 E566     		str	r5, [r4, #108]
 1082 0126 2567     		str	r5, [r4, #112]
 1083 0128 7CE7     		b	.L106
 1084              	.LVL80:
 1085              	.L130:
 1086              	.LBE299:
 1087              	.LBE298:
 1088              	.LBB301:
 1089              	.LBB302:
 1090              		.loc 1 368 0
 1091 012a 9B69     		ldr	r3, [r3, #24]
 1092              	.LBE302:
 1093              	.LBE301:
 1094              		.loc 1 667 0
 1095 012c A26E     		ldr	r2, [r4, #104]
 1096              	.LVL81:
 1097              	.LBB305:
 1098              	.LBB303:
 1099              		.loc 1 370 0
 1100 012e 0026     		movs	r6, #0
 1101              	.LBE303:
 1102              	.LBE305:
 1103              		.loc 1 666 0
 1104 0130 0421     		movs	r1, #4
 1105              	.LVL82:
 1106 0132 84F86410 		strb	r1, [r4, #100]
 1107              	.LBB306:
 1108              	.LBB304:
 1109              		.loc 1 375 0
 1110 0136 2046     		mov	r0, r4
 1111              		.loc 1 371 0
 1112 0138 DA60     		str	r2, [r3, #12]
 1113              	.LVL83:
 1114              		.loc 1 372 0
 1115 013a 5D60     		str	r5, [r3, #4]
ARM GAS  /tmp/ccJ7i5ea.s 			page 21


 1116              		.loc 1 370 0
 1117 013c 1E70     		strb	r6, [r3]
 1118              		.loc 1 373 0
 1119 013e 9E60     		str	r6, [r3, #8]
 1120              		.loc 1 375 0
 1121 0140 3146     		mov	r1, r6
 1122 0142 FFF7FEFF 		bl	usb_lld_prepare_receive
 1123              	.LVL84:
 1124              	.LBE304:
 1125              	.LBE306:
 1126              	.LBB307:
 1127              	.LBB308:
 1128              	.LBB309:
 1129              	.LBB310:
 1130              	.LBB311:
 1131              	.LBB312:
 1132              		.loc 2 546 0
 1133 0146 2023     		movs	r3, #32
 1134              	@ 546 "../ChibiOS/os/ext/CMSIS/include/core_cmFunc.h" 1
 1135 0148 83F31188 		MSR basepri, r3
 1136              	@ 0 "" 2
 1137              		.thumb
 1138              	.LBE312:
 1139              	.LBE311:
 1140              	.LBE310:
 1141              	.LBE309:
 1142              	.LBE308:
 1143              	.LBE307:
 1144              		.loc 1 669 0
 1145 014c 2046     		mov	r0, r4
 1146 014e 3146     		mov	r1, r6
 1147 0150 FFF7FEFF 		bl	usbStartReceiveI
 1148              	.LVL85:
 1149              	.LBB313:
 1150              	.LBB314:
 1151              	.LBB315:
 1152              	.LBB316:
 1153              	.LBB317:
 1154              	.LBB318:
 1155              		.loc 2 546 0
 1156              	@ 546 "../ChibiOS/os/ext/CMSIS/include/core_cmFunc.h" 1
 1157 0154 86F31188 		MSR basepri, r6
 1158              	@ 0 "" 2
 1159              		.thumb
 1160 0158 F8BD     		pop	{r3, r4, r5, r6, r7, pc}
 1161              	.LVL86:
 1162              	.L129:
 1163              	.LBE318:
 1164              	.LBE317:
 1165              	.LBE316:
 1166              	.LBE315:
 1167              	.LBE314:
 1168              	.LBE313:
 1169              		.loc 1 640 0
 1170 015a BDB1     		cbz	r5, .L104
 1171              	.LBB319:
 1172              	.LBB279:
ARM GAS  /tmp/ccJ7i5ea.s 			page 22


 1173              		.loc 1 394 0
 1174 015c 5B69     		ldr	r3, [r3, #20]
 1175              	.LBE279:
 1176              	.LBE319:
 1177              		.loc 1 643 0
 1178 015e A26E     		ldr	r2, [r4, #104]
 1179              	.LVL87:
 1180              	.LBB320:
 1181              	.LBB280:
 1182              		.loc 1 396 0
 1183 0160 0026     		movs	r6, #0
 1184              	.LBE280:
 1185              	.LBE320:
 1186              		.loc 1 642 0
 1187 0162 0121     		movs	r1, #1
 1188              	.LVL88:
 1189 0164 84F86410 		strb	r1, [r4, #100]
 1190              	.LBB321:
 1191              	.LBB281:
 1192              		.loc 1 401 0
 1193 0168 2046     		mov	r0, r4
 1194              		.loc 1 397 0
 1195 016a DA60     		str	r2, [r3, #12]
 1196              	.LVL89:
 1197              		.loc 1 398 0
 1198 016c 5D60     		str	r5, [r3, #4]
 1199              		.loc 1 396 0
 1200 016e 1E70     		strb	r6, [r3]
 1201              		.loc 1 399 0
 1202 0170 9E60     		str	r6, [r3, #8]
 1203              		.loc 1 401 0
 1204 0172 3146     		mov	r1, r6
 1205 0174 FFF7FEFF 		bl	usb_lld_prepare_transmit
 1206              	.LVL90:
 1207              	.LBE281:
 1208              	.LBE321:
 1209              	.LBB322:
 1210              	.LBB323:
 1211              	.LBB324:
 1212              	.LBB325:
 1213              	.LBB326:
 1214              	.LBB327:
 1215              		.loc 2 546 0
 1216 0178 2023     		movs	r3, #32
 1217              	@ 546 "../ChibiOS/os/ext/CMSIS/include/core_cmFunc.h" 1
 1218 017a 83F31188 		MSR basepri, r3
 1219              	@ 0 "" 2
 1220              		.thumb
 1221              	.LBE327:
 1222              	.LBE326:
 1223              	.LBE325:
 1224              	.LBE324:
 1225              	.LBE323:
 1226              	.LBE322:
 1227              		.loc 1 645 0
 1228 017e 2046     		mov	r0, r4
 1229 0180 3146     		mov	r1, r6
ARM GAS  /tmp/ccJ7i5ea.s 			page 23


 1230 0182 FFF7FEFF 		bl	usbStartTransmitI
 1231              	.LVL91:
 1232              	.LBB328:
 1233              	.LBB329:
 1234              	.LBB330:
 1235              	.LBB331:
 1236              	.LBB332:
 1237              	.LBB333:
 1238              		.loc 2 546 0
 1239              	@ 546 "../ChibiOS/os/ext/CMSIS/include/core_cmFunc.h" 1
 1240 0186 86F31188 		MSR basepri, r6
 1241              	@ 0 "" 2
 1242              		.thumb
 1243 018a F8BD     		pop	{r3, r4, r5, r6, r7, pc}
 1244              	.LVL92:
 1245              	.L104:
 1246              	.LBE333:
 1247              	.LBE332:
 1248              	.LBE331:
 1249              	.LBE330:
 1250              	.LBE329:
 1251              	.LBE328:
 1252              	.LBB334:
 1253              	.LBB335:
 1254              		.loc 1 368 0
 1255 018c 9B69     		ldr	r3, [r3, #24]
 1256              	.LBE335:
 1257              	.LBE334:
 1258              		.loc 1 651 0
 1259 018e 0322     		movs	r2, #3
 1260              	.LVL93:
 1261 0190 84F86420 		strb	r2, [r4, #100]
 1262              	.LVL94:
 1263              	.LBB337:
 1264              	.LBB336:
 1265              		.loc 1 375 0
 1266 0194 2046     		mov	r0, r4
 1267              		.loc 1 370 0
 1268 0196 1D70     		strb	r5, [r3]
 1269              	.LVL95:
 1270              		.loc 1 371 0
 1271 0198 DD60     		str	r5, [r3, #12]
 1272              		.loc 1 372 0
 1273 019a 5D60     		str	r5, [r3, #4]
 1274              		.loc 1 373 0
 1275 019c 9D60     		str	r5, [r3, #8]
 1276              		.loc 1 375 0
 1277 019e 2946     		mov	r1, r5
 1278 01a0 FFF7FEFF 		bl	usb_lld_prepare_receive
 1279              	.LVL96:
 1280              	.LBE336:
 1281              	.LBE337:
 1282              	.LBB338:
 1283              	.LBB339:
 1284              	.LBB340:
 1285              	.LBB341:
 1286              	.LBB342:
ARM GAS  /tmp/ccJ7i5ea.s 			page 24


 1287              	.LBB343:
 1288              		.loc 2 546 0
 1289 01a4 2023     		movs	r3, #32
 1290              	@ 546 "../ChibiOS/os/ext/CMSIS/include/core_cmFunc.h" 1
 1291 01a6 83F31188 		MSR basepri, r3
 1292              	@ 0 "" 2
 1293              		.thumb
 1294              	.LBE343:
 1295              	.LBE342:
 1296              	.LBE341:
 1297              	.LBE340:
 1298              	.LBE339:
 1299              	.LBE338:
 1300              		.loc 1 655 0
 1301 01aa 2046     		mov	r0, r4
 1302 01ac 2946     		mov	r1, r5
 1303 01ae FFF7FEFF 		bl	usbStartReceiveI
 1304              	.LVL97:
 1305              	.LBB344:
 1306              	.LBB345:
 1307              	.LBB346:
 1308              	.LBB347:
 1309              	.LBB348:
 1310              	.LBB349:
 1311              		.loc 2 546 0
 1312              	@ 546 "../ChibiOS/os/ext/CMSIS/include/core_cmFunc.h" 1
 1313 01b2 85F31188 		MSR basepri, r5
 1314              	@ 0 "" 2
 1315              		.thumb
 1316 01b6 F8BD     		pop	{r3, r4, r5, r6, r7, pc}
 1317              	.LVL98:
 1318              	.L133:
 1319              	.LBE349:
 1320              	.LBE348:
 1321              	.LBE347:
 1322              	.LBE346:
 1323              	.LBE345:
 1324              	.LBE344:
 1325              	.LBB350:
 1326              	.LBB300:
 1327              		.loc 1 83 0
 1328 01b8 40F20232 		movw	r2, #770
 1329 01bc 9642     		cmp	r6, r2
 1330 01be 2CD0     		beq	.L81
 1331 01c0 B6F5A06F 		cmp	r6, #1280
 1332 01c4 7FF45AAF 		bne	.L66
 1333              		.loc 1 118 0
 1334 01c8 534A     		ldr	r2, .L139
 1335 01ca A766     		str	r7, [r4, #104]
 1336 01cc E766     		str	r7, [r4, #108]
 1337 01ce 3D46     		mov	r5, r7
 1338 01d0 2267     		str	r2, [r4, #112]
 1339 01d2 27E7     		b	.L106
 1340              	.L83:
 1341              		.loc 1 136 0
 1342 01d4 94F87620 		ldrb	r2, [r4, #118]	@ zero_extendqisi2
 1343 01d8 84F87F20 		strb	r2, [r4, #127]
ARM GAS  /tmp/ccJ7i5ea.s 			page 25


 1344              		.loc 1 137 0
 1345 01dc 002A     		cmp	r2, #0
 1346 01de 40F08180 		bne	.L88
 1347              		.loc 1 138 0
 1348 01e2 0322     		movs	r2, #3
 1349 01e4 2270     		strb	r2, [r4]
 1350              	.L89:
 1351              		.loc 1 141 0
 1352 01e6 6268     		ldr	r2, [r4, #4]
 1353 01e8 1268     		ldr	r2, [r2]
 1354 01ea 002A     		cmp	r2, #0
 1355 01ec 98D0     		beq	.L98
 1356 01ee 2046     		mov	r0, r4
 1357 01f0 0221     		movs	r1, #2
 1358 01f2 9047     		blx	r2
 1359              	.LVL99:
 1360 01f4 94F87430 		ldrb	r3, [r4, #116]	@ zero_extendqisi2
 1361 01f8 92E7     		b	.L98
 1362              	.L77:
 1363              		.loc 1 93 0
 1364 01fa 94F87620 		ldrb	r2, [r4, #118]	@ zero_extendqisi2
 1365 01fe 012A     		cmp	r2, #1
 1366 0200 7FF43CAF 		bne	.L66
 1367              		.loc 1 94 0
 1368 0204 B4F87C20 		ldrh	r2, [r4, #124]
 1369              		.loc 1 95 0
 1370 0208 A766     		str	r7, [r4, #104]
 1371              		.loc 1 94 0
 1372 020a 22F00202 		bic	r2, r2, #2
 1373              		.loc 1 95 0
 1374 020e E766     		str	r7, [r4, #108]
 1375 0210 2767     		str	r7, [r4, #112]
 1376 0212 3D46     		mov	r5, r7
 1377              		.loc 1 94 0
 1378 0214 A4F87C20 		strh	r2, [r4, #124]	@ movhi
 1379 0218 04E7     		b	.L106
 1380              	.L81:
 1381              		.loc 1 191 0
 1382 021a 94F87620 		ldrb	r2, [r4, #118]	@ zero_extendqisi2
 1383 021e 002A     		cmp	r2, #0
 1384 0220 7FF42CAF 		bne	.L66
 1385              		.loc 1 194 0
 1386 0224 94F87820 		ldrb	r2, [r4, #120]	@ zero_extendqisi2
 1387 0228 12F00F01 		ands	r1, r2, #15
 1388 022c 3FF478AF 		beq	.L98
 1389              		.loc 1 195 0
 1390 0230 1306     		lsls	r3, r2, #24
 1391              		.loc 1 196 0
 1392 0232 2046     		mov	r0, r4
 1393              		.loc 1 195 0
 1394 0234 6AD4     		bmi	.L136
 1395              	.LVL100:
 1396              		.loc 1 198 0
 1397 0236 FFF7FEFF 		bl	usb_lld_stall_out
 1398              	.LVL101:
 1399 023a 94F87430 		ldrb	r3, [r4, #116]	@ zero_extendqisi2
 1400 023e 6FE7     		b	.L98
ARM GAS  /tmp/ccJ7i5ea.s 			page 26


 1401              	.L134:
 1402              		.loc 1 83 0
 1403 0240 36B9     		cbnz	r6, .L137
 1404              		.loc 1 88 0
 1405 0242 04F17C02 		add	r2, r4, #124
 1406 0246 0225     		movs	r5, #2
 1407 0248 2667     		str	r6, [r4, #112]
 1408 024a A266     		str	r2, [r4, #104]
 1409 024c E566     		str	r5, [r4, #108]
 1410 024e E9E6     		b	.L106
 1411              	.L137:
 1412              		.loc 1 83 0
 1413 0250 012E     		cmp	r6, #1
 1414 0252 7FF413AF 		bne	.L66
 1415              	.L76:
 1416              		.loc 1 148 0
 1417 0256 314A     		ldr	r2, .L139+4
 1418 0258 A266     		str	r2, [r4, #104]
 1419 025a 0225     		movs	r5, #2
 1420 025c 0022     		movs	r2, #0
 1421 025e E566     		str	r5, [r4, #108]
 1422 0260 2267     		str	r2, [r4, #112]
 1423 0262 DFE6     		b	.L106
 1424              	.L79:
 1425              		.loc 1 123 0
 1426 0264 6268     		ldr	r2, [r4, #4]
 1427              		.loc 1 125 0
 1428 0266 94F87900 		ldrb	r0, [r4, #121]	@ zero_extendqisi2
 1429              		.loc 1 123 0
 1430 026a 94F87830 		ldrb	r3, [r4, #120]	@ zero_extendqisi2
 1431 026e 5568     		ldr	r5, [r2, #4]
 1432 0270 94F87710 		ldrb	r1, [r4, #119]	@ zero_extendqisi2
 1433 0274 94F87620 		ldrb	r2, [r4, #118]	@ zero_extendqisi2
 1434 0278 43EA0023 		orr	r3, r3, r0, lsl #8
 1435 027c 2046     		mov	r0, r4
 1436 027e A847     		blx	r5
 1437              	.LVL102:
 1438              		.loc 1 126 0
 1439 0280 0028     		cmp	r0, #0
 1440 0282 3FF4FBAE 		beq	.L66
 1441              		.loc 1 128 0
 1442 0286 4368     		ldr	r3, [r0, #4]
 1443 0288 0568     		ldr	r5, [r0]
 1444 028a E566     		str	r5, [r4, #108]
 1445 028c A366     		str	r3, [r4, #104]
 1446 028e 2767     		str	r7, [r4, #112]
 1447 0290 94F87430 		ldrb	r3, [r4, #116]	@ zero_extendqisi2
 1448 0294 C6E6     		b	.L106
 1449              	.LVL103:
 1450              	.L71:
 1451              		.loc 1 102 0
 1452 0296 94F87620 		ldrb	r2, [r4, #118]	@ zero_extendqisi2
 1453 029a 012A     		cmp	r2, #1
 1454 029c 7FF4EEAE 		bne	.L66
 1455              		.loc 1 103 0
 1456 02a0 B4F87C20 		ldrh	r2, [r4, #124]
 1457              		.loc 1 104 0
ARM GAS  /tmp/ccJ7i5ea.s 			page 27


 1458 02a4 A766     		str	r7, [r4, #104]
 1459              		.loc 1 103 0
 1460 02a6 42F00202 		orr	r2, r2, #2
 1461              		.loc 1 104 0
 1462 02aa E766     		str	r7, [r4, #108]
 1463 02ac 2767     		str	r7, [r4, #112]
 1464 02ae 3D46     		mov	r5, r7
 1465              		.loc 1 103 0
 1466 02b0 A4F87C20 		strh	r2, [r4, #124]	@ movhi
 1467 02b4 B6E6     		b	.L106
 1468              	.L73:
 1469              		.loc 1 152 0
 1470 02b6 94F87810 		ldrb	r1, [r4, #120]	@ zero_extendqisi2
 1471 02ba 11F0800F 		tst	r1, #128
 1472              		.loc 1 153 0
 1473 02be 2046     		mov	r0, r4
 1474 02c0 01F00F01 		and	r1, r1, #15
 1475              		.loc 1 152 0
 1476 02c4 11D1     		bne	.L138
 1477              	.LVL104:
 1478              		.loc 1 165 0
 1479 02c6 FFF7FEFF 		bl	usb_lld_get_status_out
 1480              	.LVL105:
 1481 02ca 0128     		cmp	r0, #1
 1482 02cc 11D0     		beq	.L94
 1483              	.L127:
 1484 02ce 0228     		cmp	r0, #2
 1485 02d0 7FF4D4AE 		bne	.L66
 1486              		.loc 1 170 0
 1487 02d4 124B     		ldr	r3, .L139+8
 1488 02d6 A366     		str	r3, [r4, #104]
 1489 02d8 E066     		str	r0, [r4, #108]
 1490 02da 2767     		str	r7, [r4, #112]
 1491 02dc 0546     		mov	r5, r0
 1492 02de 94F87430 		ldrb	r3, [r4, #116]	@ zero_extendqisi2
 1493 02e2 9FE6     		b	.L106
 1494              	.L88:
 1495              		.loc 1 140 0
 1496 02e4 0422     		movs	r2, #4
 1497 02e6 2270     		strb	r2, [r4]
 1498 02e8 7DE7     		b	.L89
 1499              	.LVL106:
 1500              	.L138:
 1501              		.loc 1 153 0
 1502 02ea FFF7FEFF 		bl	usb_lld_get_status_in
 1503              	.LVL107:
 1504 02ee 0128     		cmp	r0, #1
 1505 02f0 EDD1     		bne	.L127
 1506              	.L94:
 1507              		.loc 1 167 0
 1508 02f2 0C4B     		ldr	r3, .L139+12
 1509 02f4 A366     		str	r3, [r4, #104]
 1510 02f6 E666     		str	r6, [r4, #108]
 1511 02f8 2767     		str	r7, [r4, #112]
 1512 02fa 3546     		mov	r5, r6
 1513 02fc 94F87430 		ldrb	r3, [r4, #116]	@ zero_extendqisi2
 1514 0300 90E6     		b	.L106
ARM GAS  /tmp/ccJ7i5ea.s 			page 28


 1515              	.LVL108:
 1516              	.L135:
 1517              		.loc 1 183 0
 1518 0302 FFF7FEFF 		bl	usb_lld_clear_in
 1519              	.LVL109:
 1520 0306 94F87430 		ldrb	r3, [r4, #116]	@ zero_extendqisi2
 1521 030a 09E7     		b	.L98
 1522              	.LVL110:
 1523              	.L136:
 1524              		.loc 1 196 0
 1525 030c FFF7FEFF 		bl	usb_lld_stall_in
 1526              	.LVL111:
 1527 0310 94F87430 		ldrb	r3, [r4, #116]	@ zero_extendqisi2
 1528 0314 04E7     		b	.L98
 1529              	.L140:
 1530 0316 00BF     		.align	2
 1531              	.L139:
 1532 0318 00000000 		.word	set_address
 1533 031c 00000000 		.word	.LANCHOR0
 1534 0320 00000000 		.word	.LANCHOR2
 1535 0324 00000000 		.word	.LANCHOR1
 1536              	.LBE300:
 1537              	.LBE350:
 1538              		.cfi_endproc
 1539              	.LFE272:
 1540              		.size	_usb_ep0setup, .-_usb_ep0setup
 1541 0328 AFF30080 		.section	.text._usb_ep0in,"ax",%progbits
 1541      AFF30080 
 1542              		.align	2
 1543              		.p2align 4,,15
 1544              		.global	_usb_ep0in
 1545              		.thumb
 1546              		.thumb_func
 1547              		.type	_usb_ep0in, %function
 1548              	_usb_ep0in:
 1549              	.LFB273:
 1550              		.loc 1 698 0
 1551              		.cfi_startproc
 1552              		@ args = 0, pretend = 0, frame = 0
 1553              		@ frame_needed = 0, uses_anonymous_args = 0
 1554              	.LVL112:
 1555 0000 38B5     		push	{r3, r4, r5, lr}
 1556              		.cfi_def_cfa_offset 16
 1557              		.cfi_offset 3, -16
 1558              		.cfi_offset 4, -12
 1559              		.cfi_offset 5, -8
 1560              		.cfi_offset 14, -4
 1561              		.loc 1 702 0
 1562 0002 90F86430 		ldrb	r3, [r0, #100]	@ zero_extendqisi2
 1563 0006 022B     		cmp	r3, #2
 1564              		.loc 1 698 0
 1565 0008 0446     		mov	r4, r0
 1566              		.loc 1 702 0
 1567 000a 42D0     		beq	.L143
 1568 000c 052B     		cmp	r3, #5
 1569 000e 39D0     		beq	.L144
 1570 0010 012B     		cmp	r3, #1
ARM GAS  /tmp/ccJ7i5ea.s 			page 29


 1571 0012 10D0     		beq	.L159
 1572              		.loc 1 741 0
 1573 0014 0021     		movs	r1, #0
 1574              	.LVL113:
 1575 0016 FFF7FEFF 		bl	usb_lld_stall_in
 1576              	.LVL114:
 1577              		.loc 1 742 0
 1578 001a 2046     		mov	r0, r4
 1579 001c 0021     		movs	r1, #0
 1580 001e FFF7FEFF 		bl	usb_lld_stall_out
 1581              	.LVL115:
 1582              		.loc 1 743 0
 1583 0022 6368     		ldr	r3, [r4, #4]
 1584 0024 1B68     		ldr	r3, [r3]
 1585 0026 13B1     		cbz	r3, .L150
 1586              		.loc 1 743 0 is_stmt 0 discriminator 1
 1587 0028 2046     		mov	r0, r4
 1588 002a 0521     		movs	r1, #5
 1589 002c 9847     		blx	r3
 1590              	.LVL116:
 1591              	.L150:
 1592              		.loc 1 744 0 is_stmt 1
 1593 002e 0623     		movs	r3, #6
 1594 0030 84F86430 		strb	r3, [r4, #100]
 1595 0034 38BD     		pop	{r3, r4, r5, pc}
 1596              	.LVL117:
 1597              	.L159:
 1598              		.loc 1 704 0
 1599 0036 90F87B20 		ldrb	r2, [r0, #123]	@ zero_extendqisi2
 1600 003a 90F87A30 		ldrb	r3, [r0, #122]	@ zero_extendqisi2
 1601              		.loc 1 708 0
 1602 003e C16E     		ldr	r1, [r0, #108]
 1603              	.LVL118:
 1604              		.loc 1 704 0
 1605 0040 43EA0223 		orr	r3, r3, r2, lsl #8
 1606              		.loc 1 708 0
 1607 0044 8B42     		cmp	r3, r1
 1608 0046 C368     		ldr	r3, [r0, #12]
 1609 0048 05D9     		bls	.L147
 1610              		.loc 1 708 0 is_stmt 0 discriminator 1
 1611 004a 1D8A     		ldrh	r5, [r3, #16]
 1612 004c B1FBF5F2 		udiv	r2, r1, r5
 1613 0050 05FB1215 		mls	r5, r5, r2, r1
 1614 0054 FDB1     		cbz	r5, .L160
 1615              	.LVL119:
 1616              	.L147:
 1617              	.LBB351:
 1618              	.LBB352:
 1619              		.loc 1 368 0 is_stmt 1
 1620 0056 9B69     		ldr	r3, [r3, #24]
 1621              		.loc 1 370 0
 1622 0058 0025     		movs	r5, #0
 1623              	.LBE352:
 1624              	.LBE351:
 1625              		.loc 1 719 0
 1626 005a 0322     		movs	r2, #3
 1627 005c 84F86420 		strb	r2, [r4, #100]
ARM GAS  /tmp/ccJ7i5ea.s 			page 30


 1628              	.LVL120:
 1629              	.LBB354:
 1630              	.LBB353:
 1631              		.loc 1 375 0
 1632 0060 2946     		mov	r1, r5
 1633              		.loc 1 370 0
 1634 0062 1D70     		strb	r5, [r3]
 1635              		.loc 1 371 0
 1636 0064 DD60     		str	r5, [r3, #12]
 1637              		.loc 1 372 0
 1638 0066 5D60     		str	r5, [r3, #4]
 1639              		.loc 1 373 0
 1640 0068 9D60     		str	r5, [r3, #8]
 1641              		.loc 1 375 0
 1642 006a 2046     		mov	r0, r4
 1643              	.LVL121:
 1644 006c FFF7FEFF 		bl	usb_lld_prepare_receive
 1645              	.LVL122:
 1646              	.LBE353:
 1647              	.LBE354:
 1648              	.LBB355:
 1649              	.LBB356:
 1650              	.LBB357:
 1651              	.LBB358:
 1652              	.LBB359:
 1653              	.LBB360:
 1654              		.loc 2 546 0
 1655 0070 2023     		movs	r3, #32
 1656              	@ 546 "../ChibiOS/os/ext/CMSIS/include/core_cmFunc.h" 1
 1657 0072 83F31188 		MSR basepri, r3
 1658              	@ 0 "" 2
 1659              		.thumb
 1660              	.LBE360:
 1661              	.LBE359:
 1662              	.LBE358:
 1663              	.LBE357:
 1664              	.LBE356:
 1665              	.LBE355:
 1666              		.loc 1 723 0
 1667 0076 2046     		mov	r0, r4
 1668 0078 2946     		mov	r1, r5
 1669 007a FFF7FEFF 		bl	usbStartReceiveI
 1670              	.LVL123:
 1671              	.LBB361:
 1672              	.LBB362:
 1673              	.LBB363:
 1674              	.LBB364:
 1675              	.LBB365:
 1676              	.LBB366:
 1677              		.loc 2 546 0
 1678              	@ 546 "../ChibiOS/os/ext/CMSIS/include/core_cmFunc.h" 1
 1679 007e 85F31188 		MSR basepri, r5
 1680              	@ 0 "" 2
 1681              		.thumb
 1682 0082 38BD     		pop	{r3, r4, r5, pc}
 1683              	.LVL124:
 1684              	.L144:
ARM GAS  /tmp/ccJ7i5ea.s 			page 31


 1685              	.LBE366:
 1686              	.LBE365:
 1687              	.LBE364:
 1688              	.LBE363:
 1689              	.LBE362:
 1690              	.LBE361:
 1691              		.loc 1 731 0
 1692 0084 036F     		ldr	r3, [r0, #112]
 1693 0086 03B1     		cbz	r3, .L149
 1694              		.loc 1 732 0
 1695 0088 9847     		blx	r3
 1696              	.LVL125:
 1697              	.L149:
 1698              		.loc 1 733 0
 1699 008a 0023     		movs	r3, #0
 1700 008c 84F86430 		strb	r3, [r4, #100]
 1701              		.loc 1 734 0
 1702 0090 38BD     		pop	{r3, r4, r5, pc}
 1703              	.LVL126:
 1704              	.L143:
 1705 0092 C368     		ldr	r3, [r0, #12]
 1706 0094 DFE7     		b	.L147
 1707              	.LVL127:
 1708              	.L160:
 1709              	.LBB367:
 1710              	.LBB368:
 1711              		.loc 1 394 0
 1712 0096 5B69     		ldr	r3, [r3, #20]
 1713              	.LVL128:
 1714              		.loc 1 401 0
 1715 0098 2946     		mov	r1, r5
 1716              		.loc 1 396 0
 1717 009a 1D70     		strb	r5, [r3]
 1718              	.LVL129:
 1719              		.loc 1 397 0
 1720 009c DD60     		str	r5, [r3, #12]
 1721              		.loc 1 398 0
 1722 009e 5D60     		str	r5, [r3, #4]
 1723              		.loc 1 399 0
 1724 00a0 9D60     		str	r5, [r3, #8]
 1725              		.loc 1 401 0
 1726 00a2 FFF7FEFF 		bl	usb_lld_prepare_transmit
 1727              	.LVL130:
 1728              	.LBE368:
 1729              	.LBE367:
 1730              	.LBB369:
 1731              	.LBB370:
 1732              	.LBB371:
 1733              	.LBB372:
 1734              	.LBB373:
 1735              	.LBB374:
 1736              		.loc 2 546 0
 1737 00a6 2023     		movs	r3, #32
 1738              	@ 546 "../ChibiOS/os/ext/CMSIS/include/core_cmFunc.h" 1
 1739 00a8 83F31188 		MSR basepri, r3
 1740              	@ 0 "" 2
 1741              		.thumb
ARM GAS  /tmp/ccJ7i5ea.s 			page 32


 1742              	.LBE374:
 1743              	.LBE373:
 1744              	.LBE372:
 1745              	.LBE371:
 1746              	.LBE370:
 1747              	.LBE369:
 1748              		.loc 1 711 0
 1749 00ac 2046     		mov	r0, r4
 1750 00ae 2946     		mov	r1, r5
 1751 00b0 FFF7FEFF 		bl	usbStartTransmitI
 1752              	.LVL131:
 1753              	.LBB375:
 1754              	.LBB376:
 1755              	.LBB377:
 1756              	.LBB378:
 1757              	.LBB379:
 1758              	.LBB380:
 1759              		.loc 2 546 0
 1760              	@ 546 "../ChibiOS/os/ext/CMSIS/include/core_cmFunc.h" 1
 1761 00b4 85F31188 		MSR basepri, r5
 1762              	@ 0 "" 2
 1763              		.thumb
 1764              	.LBE380:
 1765              	.LBE379:
 1766              	.LBE378:
 1767              	.LBE377:
 1768              	.LBE376:
 1769              	.LBE375:
 1770              		.loc 1 713 0
 1771 00b8 0223     		movs	r3, #2
 1772 00ba 84F86430 		strb	r3, [r4, #100]
 1773              		.loc 1 714 0
 1774 00be 38BD     		pop	{r3, r4, r5, pc}
 1775              		.cfi_endproc
 1776              	.LFE273:
 1777              		.size	_usb_ep0in, .-_usb_ep0in
 1778              		.section	.text._usb_ep0out,"ax",%progbits
 1779              		.align	2
 1780              		.p2align 4,,15
 1781              		.global	_usb_ep0out
 1782              		.thumb
 1783              		.thumb_func
 1784              		.type	_usb_ep0out, %function
 1785              	_usb_ep0out:
 1786              	.LFB274:
 1787              		.loc 1 757 0
 1788              		.cfi_startproc
 1789              		@ args = 0, pretend = 0, frame = 0
 1790              		@ frame_needed = 0, uses_anonymous_args = 0
 1791              	.LVL132:
 1792 0000 38B5     		push	{r3, r4, r5, lr}
 1793              		.cfi_def_cfa_offset 16
 1794              		.cfi_offset 3, -16
 1795              		.cfi_offset 4, -12
 1796              		.cfi_offset 5, -8
 1797              		.cfi_offset 14, -4
 1798              		.loc 1 760 0
ARM GAS  /tmp/ccJ7i5ea.s 			page 33


 1799 0002 90F86430 		ldrb	r3, [r0, #100]	@ zero_extendqisi2
 1800 0006 032B     		cmp	r3, #3
 1801              		.loc 1 757 0
 1802 0008 0446     		mov	r4, r0
 1803              		.loc 1 760 0
 1804 000a 2AD0     		beq	.L163
 1805 000c 042B     		cmp	r3, #4
 1806 000e 11D0     		beq	.L175
 1807              	.L162:
 1808              		.loc 1 790 0
 1809 0010 2046     		mov	r0, r4
 1810              	.LVL133:
 1811 0012 0021     		movs	r1, #0
 1812              	.LVL134:
 1813 0014 FFF7FEFF 		bl	usb_lld_stall_in
 1814              	.LVL135:
 1815              		.loc 1 791 0
 1816 0018 2046     		mov	r0, r4
 1817 001a 0021     		movs	r1, #0
 1818 001c FFF7FEFF 		bl	usb_lld_stall_out
 1819              	.LVL136:
 1820              		.loc 1 792 0
 1821 0020 6368     		ldr	r3, [r4, #4]
 1822 0022 1B68     		ldr	r3, [r3]
 1823 0024 13B1     		cbz	r3, .L167
 1824              		.loc 1 792 0 is_stmt 0 discriminator 1
 1825 0026 2046     		mov	r0, r4
 1826 0028 0521     		movs	r1, #5
 1827 002a 9847     		blx	r3
 1828              	.LVL137:
 1829              	.L167:
 1830              		.loc 1 793 0 is_stmt 1
 1831 002c 0623     		movs	r3, #6
 1832 002e 84F86430 		strb	r3, [r4, #100]
 1833 0032 38BD     		pop	{r3, r4, r5, pc}
 1834              	.LVL138:
 1835              	.L175:
 1836              	.LBB381:
 1837              	.LBB382:
 1838              		.loc 1 394 0
 1839 0034 C368     		ldr	r3, [r0, #12]
 1840 0036 5B69     		ldr	r3, [r3, #20]
 1841              		.loc 1 396 0
 1842 0038 0025     		movs	r5, #0
 1843              	.LBE382:
 1844              	.LBE381:
 1845              		.loc 1 763 0
 1846 003a 0522     		movs	r2, #5
 1847 003c 80F86420 		strb	r2, [r0, #100]
 1848              	.LVL139:
 1849              	.LBB384:
 1850              	.LBB383:
 1851              		.loc 1 401 0
 1852 0040 2946     		mov	r1, r5
 1853              	.LVL140:
 1854              		.loc 1 396 0
 1855 0042 1D70     		strb	r5, [r3]
ARM GAS  /tmp/ccJ7i5ea.s 			page 34


 1856              		.loc 1 397 0
 1857 0044 DD60     		str	r5, [r3, #12]
 1858              		.loc 1 398 0
 1859 0046 5D60     		str	r5, [r3, #4]
 1860              		.loc 1 399 0
 1861 0048 9D60     		str	r5, [r3, #8]
 1862              		.loc 1 401 0
 1863 004a FFF7FEFF 		bl	usb_lld_prepare_transmit
 1864              	.LVL141:
 1865              	.LBE383:
 1866              	.LBE384:
 1867              	.LBB385:
 1868              	.LBB386:
 1869              	.LBB387:
 1870              	.LBB388:
 1871              	.LBB389:
 1872              	.LBB390:
 1873              		.loc 2 546 0
 1874 004e 2023     		movs	r3, #32
 1875              	@ 546 "../ChibiOS/os/ext/CMSIS/include/core_cmFunc.h" 1
 1876 0050 83F31188 		MSR basepri, r3
 1877              	@ 0 "" 2
 1878              		.thumb
 1879              	.LBE390:
 1880              	.LBE389:
 1881              	.LBE388:
 1882              	.LBE387:
 1883              	.LBE386:
 1884              	.LBE385:
 1885              		.loc 1 767 0
 1886 0054 2046     		mov	r0, r4
 1887 0056 2946     		mov	r1, r5
 1888 0058 FFF7FEFF 		bl	usbStartTransmitI
 1889              	.LVL142:
 1890              	.LBB391:
 1891              	.LBB392:
 1892              	.LBB393:
 1893              	.LBB394:
 1894              	.LBB395:
 1895              	.LBB396:
 1896              		.loc 2 546 0
 1897              	@ 546 "../ChibiOS/os/ext/CMSIS/include/core_cmFunc.h" 1
 1898 005c 85F31188 		MSR basepri, r5
 1899              	@ 0 "" 2
 1900              		.thumb
 1901 0060 38BD     		pop	{r3, r4, r5, pc}
 1902              	.LVL143:
 1903              	.L163:
 1904              	.LBE396:
 1905              	.LBE395:
 1906              	.LBE394:
 1907              	.LBE393:
 1908              	.LBE392:
 1909              	.LBE391:
 1910              		.loc 1 777 0
 1911 0062 C368     		ldr	r3, [r0, #12]
 1912 0064 9B69     		ldr	r3, [r3, #24]
ARM GAS  /tmp/ccJ7i5ea.s 			page 35


 1913 0066 9B68     		ldr	r3, [r3, #8]
 1914 0068 002B     		cmp	r3, #0
 1915 006a D1D1     		bne	.L162
 1916              		.loc 1 780 0
 1917 006c 036F     		ldr	r3, [r0, #112]
 1918 006e 03B1     		cbz	r3, .L166
 1919              		.loc 1 781 0
 1920 0070 9847     		blx	r3
 1921              	.LVL144:
 1922              	.L166:
 1923              		.loc 1 782 0
 1924 0072 0023     		movs	r3, #0
 1925 0074 84F86430 		strb	r3, [r4, #100]
 1926              		.loc 1 783 0
 1927 0078 38BD     		pop	{r3, r4, r5, pc}
 1928              		.cfi_endproc
 1929              	.LFE274:
 1930              		.size	_usb_ep0out, .-_usb_ep0out
 1931 007a 00BFAFF3 		.section	.rodata.zero_status,"a",%progbits
 1931      0080
 1932              		.align	2
 1933              		.set	.LANCHOR0,. + 0
 1934              		.type	zero_status, %object
 1935              		.size	zero_status, 2
 1936              	zero_status:
 1937 0000 0000     		.space	2
 1938 0002 0000     		.section	.rodata.active_status,"a",%progbits
 1939              		.align	2
 1940              		.set	.LANCHOR2,. + 0
 1941              		.type	active_status, %object
 1942              		.size	active_status, 2
 1943              	active_status:
 1944 0000 0000     		.space	2
 1945 0002 0000     		.section	.rodata.halted_status,"a",%progbits
 1946              		.align	2
 1947              		.set	.LANCHOR1,. + 0
 1948              		.type	halted_status, %object
 1949              		.size	halted_status, 2
 1950              	halted_status:
 1951 0000 01       		.byte	1
 1952 0001 00       		.byte	0
 1953 0002 0000     		.text
 1954              	.Letext0:
 1955              		.file 3 "/l/arm2/gcc-arm-none-eabi-4_9-2014q4/lib/gcc/arm-none-eabi/4.9.3/include/stddef.h"
 1956              		.file 4 "/l/arm2/gcc-arm-none-eabi-4_9-2014q4/arm-none-eabi/include/machine/_default_types.h"
 1957              		.file 5 "/l/arm2/gcc-arm-none-eabi-4_9-2014q4/arm-none-eabi/include/stdint.h"
 1958              		.file 6 "../ChibiOS/os/rt/ports/ARMCMx/compilers/GCC/chtypes.h"
 1959              		.file 7 "../ChibiOS/os/rt/include/chsystypes.h"
 1960              		.file 8 "../ChibiOS/os/rt/include/chschd.h"
 1961              		.file 9 "../ChibiOS/os/rt/ports/ARMCMx/chcore.h"
 1962              		.file 10 "../ChibiOS/os/rt/ports/ARMCMx/chcore_v7m.h"
 1963              		.file 11 "../ChibiOS/os/rt/include/chtm.h"
 1964              		.file 12 "../ChibiOS/os/rt/include/chmtx.h"
 1965              		.file 13 "../ChibiOS/os/rt/include/chqueues.h"
 1966              		.file 14 "../ChibiOS/os/hal/include/usb.h"
 1967              		.file 15 "../ChibiOS/os/hal/ports/STM32/LLD/USBv1/usb_lld.h"
 1968              		.file 16 "../ChibiOS/os/rt/include/chsys.h"
ARM GAS  /tmp/ccJ7i5ea.s 			page 36


 1969              		.file 17 "../ChibiOS/os/hal/osal/rt/osal.h"
 1970              		.file 18 "../ChibiOS/os/ext/CMSIS/include/core_cm4.h"