ARM GAS  /tmp/cc2W4Spe.s 			page 1


   1              		.syntax unified
   2              		.cpu cortex-m4
   3              		.eabi_attribute 27, 3
   4              		.eabi_attribute 28, 1
   5              		.fpu fpv4-sp-d16
   6              		.eabi_attribute 20, 1
   7              		.eabi_attribute 21, 1
   8              		.eabi_attribute 23, 3
   9              		.eabi_attribute 24, 1
  10              		.eabi_attribute 25, 1
  11              		.eabi_attribute 26, 1
  12              		.eabi_attribute 30, 2
  13              		.eabi_attribute 34, 1
  14              		.eabi_attribute 18, 4
  15              		.thumb
  16              		.file	"usb_lld.c"
  17              		.text
  18              	.Ltext0:
  19              		.cfi_sections	.debug_frame
  20              		.section	.text.usb_packet_write_from_queue,"ax",%progbits
  21              		.align	2
  22              		.p2align 4,,15
  23              		.thumb
  24              		.thumb_func
  25              		.type	usb_packet_write_from_queue, %function
  26              	usb_packet_write_from_queue:
  27              	.LFB260:
  28              		.file 1 "../ChibiOS/os/hal/ports/STM32/LLD/USBv1/usb_lld.c"
  29              		.loc 1 223 0
  30              		.cfi_startproc
  31              		@ args = 0, pretend = 0, frame = 0
  32              		@ frame_needed = 0, uses_anonymous_args = 0
  33              	.LVL0:
  34 0000 2DE9F041 		push	{r4, r5, r6, r7, r8, lr}
  35              		.cfi_def_cfa_offset 24
  36              		.cfi_offset 4, -24
  37              		.cfi_offset 5, -20
  38              		.cfi_offset 6, -16
  39              		.cfi_offset 7, -12
  40              		.cfi_offset 8, -8
  41              		.cfi_offset 14, -4
  42              		.loc 1 223 0
  43 0004 9046     		mov	r8, r2
  44              		.loc 1 226 0
  45 0006 0268     		ldr	r2, [r0]
  46              	.LVL1:
  47              		.loc 1 228 0
  48 0008 C0F80480 		str	r8, [r0, #4]
  49              		.loc 1 226 0
  50 000c 02F10052 		add	r2, r2, #536870912
  51 0010 02F54052 		add	r2, r2, #12288
  52              		.loc 1 230 0
  53 0014 5FEA580E 		lsrs	lr, r8, #1
  54              		.loc 1 223 0
  55 0018 0C46     		mov	r4, r1
  56              		.loc 1 226 0
  57 001a 4FEA4202 		lsl	r2, r2, #1
ARM GAS  /tmp/cc2W4Spe.s 			page 2


  58              	.LVL2:
  59              		.loc 1 230 0
  60 001e 18D0     		beq	.L2
  61 0020 0F69     		ldr	r7, [r1, #16]
  62 0022 1646     		mov	r6, r2
  63 0024 7046     		mov	r0, lr
  64              	.LVL3:
  65              	.L5:
  66              	.LBB94:
  67              		.loc 1 233 0
  68 0026 A169     		ldr	r1, [r4, #24]
  69 0028 4B1C     		adds	r3, r1, #1
  70              		.loc 1 234 0
  71 002a 9F42     		cmp	r7, r3
  72              		.loc 1 233 0
  73 002c A361     		str	r3, [r4, #24]
  74              		.loc 1 235 0
  75 002e 98BF     		it	ls
  76 0030 E368     		ldrls	r3, [r4, #12]
  77              		.loc 1 233 0
  78 0032 0978     		ldrb	r1, [r1]	@ zero_extendqisi2
  79              	.LVL4:
  80              		.loc 1 236 0
  81 0034 5D1C     		adds	r5, r3, #1
  82 0036 A561     		str	r5, [r4, #24]
  83 0038 1B78     		ldrb	r3, [r3]	@ zero_extendqisi2
  84              		.loc 1 237 0
  85 003a AF42     		cmp	r7, r5
  86              		.loc 1 236 0
  87 003c 41EA0323 		orr	r3, r1, r3, lsl #8
  88              	.LVL5:
  89              		.loc 1 238 0
  90 0040 9CBF     		itt	ls
  91 0042 E168     		ldrls	r1, [r4, #12]
  92 0044 A161     		strls	r1, [r4, #24]
  93              	.LBE94:
  94              		.loc 1 230 0
  95 0046 0138     		subs	r0, r0, #1
  96              	.LVL6:
  97              	.LBB95:
  98              		.loc 1 239 0
  99 0048 46F8043B 		str	r3, [r6], #4
 100              	.LVL7:
 101              	.LBE95:
 102              		.loc 1 230 0
 103 004c EBD1     		bne	.L5
 104 004e 02EB8E02 		add	r2, r2, lr, lsl #2
 105              	.LVL8:
 106              	.L2:
 107              		.loc 1 244 0
 108 0052 18F0010F 		tst	r8, #1
 109 0056 0AD0     		beq	.L7
 110              		.loc 1 245 0
 111 0058 A169     		ldr	r1, [r4, #24]
 112              		.loc 1 246 0
 113 005a 2069     		ldr	r0, [r4, #16]
 114              		.loc 1 245 0
ARM GAS  /tmp/cc2W4Spe.s 			page 3


 115 005c 4B1C     		adds	r3, r1, #1
 116 005e A361     		str	r3, [r4, #24]
 117              		.loc 1 246 0
 118 0060 8342     		cmp	r3, r0
 119              		.loc 1 245 0
 120 0062 0978     		ldrb	r1, [r1]	@ zero_extendqisi2
 121              		.loc 1 247 0
 122 0064 28BF     		it	cs
 123 0066 E368     		ldrcs	r3, [r4, #12]
 124              		.loc 1 245 0
 125 0068 1160     		str	r1, [r2]	@ unaligned
 126              		.loc 1 247 0
 127 006a 28BF     		it	cs
 128 006c A361     		strcs	r3, [r4, #24]
 129              	.L7:
 130              	.LBB96:
 131              	.LBB97:
 132              		.file 2 "../ChibiOS/os/hal/osal/rt/osal.h"
 133              		.loc 2 476 0
 134 006e FFF7FEFF 		bl	chSysGetStatusAndLockX
 135              	.LVL9:
 136              	.LBE97:
 137              	.LBE96:
 138              		.loc 1 253 0
 139 0072 A268     		ldr	r2, [r4, #8]
 140 0074 4244     		add	r2, r2, r8
 141              	.LBB99:
 142              	.LBB98:
 143              		.loc 2 476 0
 144 0076 0546     		mov	r5, r0
 145              	.LBE98:
 146              	.LBE99:
 147              		.loc 1 253 0
 148 0078 A260     		str	r2, [r4, #8]
 149              	.LVL10:
 150              	.LBB100:
 151              	.LBB101:
 152              		.loc 2 742 0
 153 007a 2046     		mov	r0, r4
 154 007c 0021     		movs	r1, #0
 155 007e FFF7FEFF 		bl	chThdDequeueAllI
 156              	.LVL11:
 157              	.LBE101:
 158              	.LBE100:
 159              	.LBB102:
 160              	.LBB103:
 161              		.loc 2 490 0
 162 0082 2846     		mov	r0, r5
 163              	.LBE103:
 164              	.LBE102:
 165              		.loc 1 257 0
 166 0084 BDE8F041 		pop	{r4, r5, r6, r7, r8, lr}
 167              		.cfi_restore 14
 168              		.cfi_restore 8
 169              		.cfi_restore 7
 170              		.cfi_restore 6
 171              		.cfi_restore 5
ARM GAS  /tmp/cc2W4Spe.s 			page 4


 172              		.cfi_restore 4
 173              		.cfi_def_cfa_offset 0
 174              	.LVL12:
 175              	.LBB105:
 176              	.LBB104:
 177              		.loc 2 490 0
 178 0088 FFF7FEBF 		b	chSysRestoreStatusX
 179              	.LVL13:
 180              	.LBE104:
 181              	.LBE105:
 182              		.cfi_endproc
 183              	.LFE260:
 184              		.size	usb_packet_write_from_queue, .-usb_packet_write_from_queue
 185 008c AFF30080 		.section	.text.Vector168,"ax",%progbits
 186              		.align	2
 187              		.p2align 4,,15
 188              		.global	Vector168
 189              		.thumb
 190              		.thumb_func
 191              		.type	Vector168, %function
 192              	Vector168:
 193              	.LFB261:
 194              		.loc 1 270 0
 195              		.cfi_startproc
 196              		@ args = 0, pretend = 0, frame = 0
 197              		@ frame_needed = 0, uses_anonymous_args = 0
 198              		@ link register save eliminated.
 199              		.loc 1 274 0
 200 0000 FFF7FEBF 		b	_port_irq_epilogue
 201              	.LVL14:
 202              		.cfi_endproc
 203              	.LFE261:
 204              		.size	Vector168, .-Vector168
 205 0004 AFF30080 		.section	.text.Vector16C,"ax",%progbits
 205      AFF30080 
 205      AFF30080 
 206              		.align	2
 207              		.p2align 4,,15
 208              		.global	Vector16C
 209              		.thumb
 210              		.thumb_func
 211              		.type	Vector16C, %function
 212              	Vector16C:
 213              	.LFB262:
 214              		.loc 1 283 0
 215              		.cfi_startproc
 216              		@ args = 0, pretend = 0, frame = 16
 217              		@ frame_needed = 0, uses_anonymous_args = 0
 218              	.LVL15:
 219 0000 2DE9F04F 		push	{r4, r5, r6, r7, r8, r9, r10, fp, lr}
 220              		.cfi_def_cfa_offset 36
 221              		.cfi_offset 4, -36
 222              		.cfi_offset 5, -32
 223              		.cfi_offset 6, -28
 224              		.cfi_offset 7, -24
 225              		.cfi_offset 8, -20
 226              		.cfi_offset 9, -16
ARM GAS  /tmp/cc2W4Spe.s 			page 5


 227              		.cfi_offset 10, -12
 228              		.cfi_offset 11, -8
 229              		.cfi_offset 14, -4
 230              		.loc 1 289 0
 231 0004 BC4B     		ldr	r3, .L96
 232 0006 5C6C     		ldr	r4, [r3, #68]
 233              	.LVL16:
 234              		.loc 1 292 0
 235 0008 6305     		lsls	r3, r4, #21
 236              		.loc 1 283 0
 237 000a 85B0     		sub	sp, sp, #20
 238              		.cfi_def_cfa_offset 56
 239              		.loc 1 292 0
 240 000c 00F19581 		bmi	.L91
 241              	.L17:
 242              		.loc 1 299 0
 243 0010 2705     		lsls	r7, r4, #20
 244 0012 11D5     		bpl	.L19
 245              		.loc 1 301 0
 246 0014 DFF8E4B2 		ldr	fp, .L96+4
 247              		.loc 1 300 0
 248 0018 B74A     		ldr	r2, .L96
 249              		.loc 1 301 0
 250 001a DBF80410 		ldr	r1, [fp, #4]
 251              		.loc 1 300 0
 252 001e 136C     		ldr	r3, [r2, #64]
 253              		.loc 1 301 0
 254 0020 0D68     		ldr	r5, [r1]
 255              		.loc 1 300 0
 256 0022 43F00803 		orr	r3, r3, #8
 257 0026 1364     		str	r3, [r2, #64]
 258              		.loc 1 301 0
 259 0028 15B1     		cbz	r5, .L20
 260              		.loc 1 301 0 is_stmt 0 discriminator 1
 261 002a 5846     		mov	r0, fp
 262 002c 0321     		movs	r1, #3
 263 002e A847     		blx	r5
 264              	.LVL17:
 265              	.L20:
 266              		.loc 1 305 0 is_stmt 1
 267 0030 B14B     		ldr	r3, .L96
 268 0032 6FF40062 		mvn	r2, #2048
 269 0036 5A64     		str	r2, [r3, #68]
 270              	.L19:
 271              		.loc 1 309 0
 272 0038 E604     		lsls	r6, r4, #19
 273 003a 08D5     		bpl	.L21
 274              	.LBB145:
 275              		.loc 1 310 0
 276 003c AE4B     		ldr	r3, .L96
 277 003e 9A6C     		ldr	r2, [r3, #72]
 278              	.LVL18:
 279              		.loc 1 311 0
 280 0040 1504     		lsls	r5, r2, #16
 281 0042 40F16A81 		bpl	.L92
 282              	.LVL19:
 283              	.L23:
ARM GAS  /tmp/cc2W4Spe.s 			page 6


 284              		.loc 1 322 0
 285 0046 AC4B     		ldr	r3, .L96
 286 0048 6FF48052 		mvn	r2, #4096
 287 004c 5A64     		str	r2, [r3, #68]
 288              	.L21:
 289              	.LBE145:
 290              		.loc 1 326 0
 291 004e A005     		lsls	r0, r4, #22
 292 0050 0BD5     		bpl	.L25
 293              		.loc 1 327 0
 294 0052 DFF8A8B2 		ldr	fp, .L96+4
 295 0056 DBF80430 		ldr	r3, [fp, #4]
 296 005a DB68     		ldr	r3, [r3, #12]
 297 005c 0BB1     		cbz	r3, .L26
 298              		.loc 1 327 0 is_stmt 0 discriminator 1
 299 005e 5846     		mov	r0, fp
 300 0060 9847     		blx	r3
 301              	.LVL20:
 302              	.L26:
 303              		.loc 1 328 0 is_stmt 1
 304 0062 A54B     		ldr	r3, .L96
 305 0064 6FF40072 		mvn	r2, #512
 306 0068 5A64     		str	r2, [r3, #68]
 307              	.L25:
 308              		.loc 1 332 0
 309 006a 2104     		lsls	r1, r4, #16
 310 006c 40F1D080 		bpl	.L51
 311 0070 DFF888B2 		ldr	fp, .L96+4
 312              	.LBB146:
 313              	.LBB147:
 314              		.loc 1 343 0
 315 0074 DFF880A2 		ldr	r10, .L96
 316              	.L50:
 317              	.LBE147:
 318              		.loc 1 335 0
 319 0078 04F00F04 		and	r4, r4, #15
 320              	.LVL21:
 321 007c 4FEA8408 		lsl	r8, r4, #2
 322 0080 08F18045 		add	r5, r8, #1073741824
 323 0084 05F5B845 		add	r5, r5, #23552
 324              		.loc 1 336 0
 325 0088 A61C     		adds	r6, r4, #2
 326              		.loc 1 335 0
 327 008a D5F80090 		ldr	r9, [r5]
 328              	.LVL22:
 329              		.loc 1 336 0
 330 008e 0BEB8603 		add	r3, fp, r6, lsl #2
 331              		.loc 1 338 0
 332 0092 19F0800F 		tst	r9, #128
 333              		.loc 1 336 0
 334 0096 5F68     		ldr	r7, [r3, #4]
 335              	.LVL23:
 336              		.loc 1 338 0
 337 0098 63D0     		beq	.L28
 338              	.LBB170:
 339              		.loc 1 341 0
 340 009a 2B68     		ldr	r3, [r5]
ARM GAS  /tmp/cc2W4Spe.s 			page 7


 341              		.loc 1 344 0
 342 009c D7F814E0 		ldr	lr, [r7, #20]
 343              		.loc 1 341 0
 344 00a0 23F47843 		bic	r3, r3, #63488
 345 00a4 23F0F003 		bic	r3, r3, #240
 346 00a8 43F40043 		orr	r3, r3, #32768
 347 00ac 2B60     		str	r3, [r5]
 348              		.loc 1 343 0
 349 00ae DAF85030 		ldr	r3, [r10, #80]
 350              		.loc 1 344 0
 351 00b2 DEF80810 		ldr	r1, [lr, #8]
 352              		.loc 1 345 0
 353 00b6 DEF80420 		ldr	r2, [lr, #4]
 354 00ba 03F10053 		add	r3, r3, #536870912
 355 00be 03F54053 		add	r3, r3, #12288
 356              		.loc 1 343 0
 357 00c2 E000     		lsls	r0, r4, #3
 358 00c4 0344     		add	r3, r3, r0
 359 00c6 5B00     		lsls	r3, r3, #1
 360 00c8 5B68     		ldr	r3, [r3, #4]
 361              	.LVL24:
 362              		.loc 1 344 0
 363 00ca 1944     		add	r1, r1, r3
 364              	.LVL25:
 365 00cc CEF80810 		str	r1, [lr, #8]
 366              		.loc 1 346 0
 367 00d0 511A     		subs	r1, r2, r1
 368              	.LVL26:
 369 00d2 00F0BA80 		beq	.L29
 370              		.loc 1 348 0
 371 00d6 3A8A     		ldrh	r2, [r7, #16]
 372              		.loc 1 351 0
 373 00d8 9EF800C0 		ldrb	ip, [lr]	@ zero_extendqisi2
 374 00dc 8A42     		cmp	r2, r1
 375 00de 28BF     		it	cs
 376 00e0 0A46     		movcs	r2, r1
 377              	.LVL27:
 378 00e2 BCF1000F 		cmp	ip, #0
 379 00e6 40F00B81 		bne	.L93
 380              		.loc 1 356 0
 381 00ea DEF80C10 		ldr	r1, [lr, #12]
 382 00ee 01EB030C 		add	ip, r1, r3
 383 00f2 CEF80CC0 		str	ip, [lr, #12]
 384              		.loc 1 357 0
 385 00f6 DAF85030 		ldr	r3, [r10, #80]
 386              	.LVL28:
 387 00fa 03F10053 		add	r3, r3, #536870912
 388 00fe 03F54053 		add	r3, r3, #12288
 389 0102 1844     		add	r0, r0, r3
 390 0104 4000     		lsls	r0, r0, #1
 391              	.LVL29:
 392              	.LBB148:
 393              	.LBB149:
 394              		.loc 1 202 0
 395 0106 511C     		adds	r1, r2, #1
 396              		.loc 1 199 0
 397 0108 0368     		ldr	r3, [r0]
ARM GAS  /tmp/cc2W4Spe.s 			page 8


 398              		.loc 1 201 0
 399 010a D0F804E0 		ldr	lr, [r0, #4]
 400 010e 4260     		str	r2, [r0, #4]
 401              		.loc 1 199 0
 402 0110 03F10052 		add	r2, r3, #536870912
 403              	.LVL30:
 404 0114 02F54052 		add	r2, r2, #12288
 405              		.loc 1 203 0
 406 0118 4B08     		lsrs	r3, r1, #1
 407              		.loc 1 199 0
 408 011a 4FEA4202 		lsl	r2, r2, #1
 409              	.LVL31:
 410              		.loc 1 203 0
 411 011e 08D0     		beq	.L31
 412 0120 ACF1020C 		sub	ip, ip, #2
 413              	.LVL32:
 414 0124 043A     		subs	r2, r2, #4
 415              	.LVL33:
 416              	.L33:
 417              		.loc 1 206 0
 418 0126 3CF8021F 		ldrh	r1, [ip, #2]!
 419              	.LVL34:
 420 012a 42F8041F 		str	r1, [r2, #4]!
 421              	.LVL35:
 422              		.loc 1 203 0
 423 012e 013B     		subs	r3, r3, #1
 424              	.LVL36:
 425 0130 F9D1     		bne	.L33
 426              	.LVL37:
 427              	.L31:
 428              	.LBE149:
 429              	.LBE148:
 430              	.LBB150:
 431              	.LBB151:
 432              	.LBB152:
 433              	.LBB153:
 434              	.LBB154:
 435              	.LBB155:
 436              		.file 3 "../ChibiOS/os/ext/CMSIS/include/core_cmFunc.h"
 437              		.loc 3 546 0
 438 0132 2023     		movs	r3, #32
 439              	@ 546 "../ChibiOS/os/ext/CMSIS/include/core_cmFunc.h" 1
 440 0134 83F31188 		MSR basepri, r3
 441              	@ 0 "" 2
 442              	.LVL38:
 443              		.thumb
 444 0138 08F18048 		add	r8, r8, #1073741824
 445 013c 08F5B848 		add	r8, r8, #23552
 446              	.LBE155:
 447              	.LBE154:
 448              	.LBE153:
 449              	.LBE152:
 450              	.LBE151:
 451              	.LBE150:
 452              	.LBB156:
 453              	.LBB157:
 454              	.LBB158:
ARM GAS  /tmp/cc2W4Spe.s 			page 9


 455              	.LBB159:
 456              	.LBB160:
 457              	.LBB161:
 458 0140 0022     		movs	r2, #0
 459              	.LBE161:
 460              	.LBE160:
 461              	.LBE159:
 462              	.LBE158:
 463              	.LBE157:
 464              	.LBE156:
 465              	.LBB167:
 466              	.LBB168:
 467              		.loc 1 753 0
 468 0142 D8F80030 		ldr	r3, [r8]
 469 0146 23F4F043 		bic	r3, r3, #30720
 470 014a 23F04003 		bic	r3, r3, #64
 471 014e 83F03003 		eor	r3, r3, #48
 472 0152 43F40043 		orr	r3, r3, #32768
 473 0156 43F08003 		orr	r3, r3, #128
 474 015a C8F80030 		str	r3, [r8]
 475              	.LVL39:
 476              	.LBE168:
 477              	.LBE167:
 478              	.LBB169:
 479              	.LBB166:
 480              	.LBB165:
 481              	.LBB164:
 482              	.LBB163:
 483              	.LBB162:
 484              		.loc 3 546 0
 485              	@ 546 "../ChibiOS/os/ext/CMSIS/include/core_cmFunc.h" 1
 486 015e 82F31188 		MSR basepri, r2
 487              	@ 0 "" 2
 488              	.LVL40:
 489              		.thumb
 490              	.L28:
 491              	.LBE162:
 492              	.LBE163:
 493              	.LBE164:
 494              	.LBE165:
 495              	.LBE166:
 496              	.LBE169:
 497              	.LBE170:
 498              		.loc 1 370 0
 499 0162 19F4004F 		tst	r9, #32768
 500 0166 4ED0     		beq	.L35
 501              		.loc 1 371 0
 502 0168 2B68     		ldr	r3, [r5]
 503 016a 23F47843 		bic	r3, r3, #63488
 504 016e 23F0F003 		bic	r3, r3, #240
 505 0172 43F08003 		orr	r3, r3, #128
 506              		.loc 1 373 0
 507 0176 19F4006F 		tst	r9, #2048
 508              		.loc 1 371 0
 509 017a 2B60     		str	r3, [r5]
 510              		.loc 1 373 0
 511 017c 5DD1     		bne	.L94
ARM GAS  /tmp/cc2W4Spe.s 			page 10


 512              	.LBB171:
 513              		.loc 1 379 0
 514 017e DAF85030 		ldr	r3, [r10, #80]
 515              		.loc 1 383 0
 516 0182 B969     		ldr	r1, [r7, #24]
 517 0184 03F10053 		add	r3, r3, #536870912
 518 0188 03F54053 		add	r3, r3, #12288
 519              		.loc 1 379 0
 520 018c 03EBC403 		add	r3, r3, r4, lsl #3
 521 0190 5B00     		lsls	r3, r3, #1
 522              	.LVL41:
 523              		.loc 1 383 0
 524 0192 0A78     		ldrb	r2, [r1]	@ zero_extendqisi2
 525              		.loc 1 380 0
 526 0194 D868     		ldr	r0, [r3, #12]
 527 0196 0190     		str	r0, [sp, #4]
 528 0198 C0F30908 		ubfx	r8, r0, #0, #10
 529              	.LVL42:
 530              		.loc 1 383 0
 531 019c 002A     		cmp	r2, #0
 532 019e 60D1     		bne	.L95
 533              	.LBB172:
 534              	.LBB173:
 535              		.loc 1 130 0
 536 01a0 9A68     		ldr	r2, [r3, #8]
 537              	.LBE173:
 538              	.LBE172:
 539              		.loc 1 388 0
 540 01a2 C868     		ldr	r0, [r1, #12]
 541              	.LVL43:
 542              	.LBB175:
 543              	.LBB174:
 544              		.loc 1 130 0
 545 01a4 02F10052 		add	r2, r2, #536870912
 546              		.loc 1 132 0
 547 01a8 08F10103 		add	r3, r8, #1
 548              	.LVL44:
 549              		.loc 1 130 0
 550 01ac 02F54052 		add	r2, r2, #12288
 551              		.loc 1 133 0
 552 01b0 5B08     		lsrs	r3, r3, #1
 553              		.loc 1 130 0
 554 01b2 4FEA4202 		lsl	r2, r2, #1
 555              	.LVL45:
 556              		.loc 1 133 0
 557 01b6 09D0     		beq	.L46
 558 01b8 8E46     		mov	lr, r1
 559              	.L47:
 560              	.LVL46:
 561              		.loc 1 136 0
 562 01ba 52F8041B 		ldr	r1, [r2], #4
 563              	.LVL47:
 564 01be 20F8021B 		strh	r1, [r0], #2	@ movhi
 565              	.LVL48:
 566              		.loc 1 133 0
 567 01c2 013B     		subs	r3, r3, #1
 568              	.LVL49:
ARM GAS  /tmp/cc2W4Spe.s 			page 11


 569 01c4 F9D1     		bne	.L47
 570 01c6 DEF80C00 		ldr	r0, [lr, #12]
 571              	.LVL50:
 572 01ca 7146     		mov	r1, lr
 573              	.LVL51:
 574              	.L46:
 575              	.LBE174:
 576              	.LBE175:
 577              		.loc 1 391 0
 578 01cc 4044     		add	r0, r0, r8
 579 01ce C860     		str	r0, [r1, #12]
 580              	.LVL52:
 581              	.L45:
 582              		.loc 1 396 0
 583 01d0 088A     		ldrh	r0, [r1, #16]
 584              		.loc 1 400 0
 585 01d2 7F8A     		ldrh	r7, [r7, #18]
 586              	.LVL53:
 587              		.loc 1 394 0
 588 01d4 8A68     		ldr	r2, [r1, #8]
 589              		.loc 1 395 0
 590 01d6 4B68     		ldr	r3, [r1, #4]
 591              		.loc 1 396 0
 592 01d8 0138     		subs	r0, r0, #1
 593 01da 80B2     		uxth	r0, r0
 594              		.loc 1 394 0
 595 01dc 4244     		add	r2, r2, r8
 596              		.loc 1 395 0
 597 01de C8EB0303 		rsb	r3, r8, r3
 598              		.loc 1 400 0
 599 01e2 B845     		cmp	r8, r7
 600              		.loc 1 396 0
 601 01e4 0882     		strh	r0, [r1, #16]	@ movhi
 602              		.loc 1 394 0
 603 01e6 8A60     		str	r2, [r1, #8]
 604              		.loc 1 395 0
 605 01e8 4B60     		str	r3, [r1, #4]
 606              		.loc 1 400 0
 607 01ea 16D3     		bcc	.L48
 608              		.loc 1 400 0 is_stmt 0 discriminator 1
 609 01ec A8B1     		cbz	r0, .L48
 610              		.loc 1 406 0 is_stmt 1
 611 01ee 2B68     		ldr	r3, [r5]
 612 01f0 23F49043 		bic	r3, r3, #18432
 613 01f4 23F07003 		bic	r3, r3, #112
 614 01f8 83F44053 		eor	r3, r3, #12288
 615 01fc 43F40043 		orr	r3, r3, #32768
 616 0200 43F08003 		orr	r3, r3, #128
 617 0204 2B60     		str	r3, [r5]
 618              	.LVL54:
 619              	.L35:
 620              	.LBE171:
 621              		.loc 1 410 0
 622 0206 DAF84440 		ldr	r4, [r10, #68]
 623              	.LVL55:
 624              	.LBE146:
 625              		.loc 1 332 0
ARM GAS  /tmp/cc2W4Spe.s 			page 12


 626 020a 2304     		lsls	r3, r4, #16
 627 020c 3FF534AF 		bmi	.L50
 628              	.L51:
 629              		.loc 1 414 0
 630 0210 05B0     		add	sp, sp, #20
 631              		.cfi_remember_state
 632              		.cfi_def_cfa_offset 36
 633              		@ sp needed
 634 0212 BDE8F04F 		pop	{r4, r5, r6, r7, r8, r9, r10, fp, lr}
 635              		.cfi_restore 14
 636              		.cfi_restore 11
 637              		.cfi_restore 10
 638              		.cfi_restore 9
 639              		.cfi_restore 8
 640              		.cfi_restore 7
 641              		.cfi_restore 6
 642              		.cfi_restore 5
 643              		.cfi_restore 4
 644              		.cfi_def_cfa_offset 0
 645              	.LVL56:
 646              		.loc 1 413 0
 647 0216 FFF7FEBF 		b	_port_irq_epilogue
 648              	.LVL57:
 649              	.L48:
 650              		.cfi_restore_state
 651              	.LBB199:
 652              	.LBB195:
 653              		.loc 1 402 0
 654 021a 0BEB8606 		add	r6, fp, r6, lsl #2
 655 021e BBF80A30 		ldrh	r3, [fp, #10]
 656 0222 7268     		ldr	r2, [r6, #4]
 657 0224 3548     		ldr	r0, .L96+4
 658 0226 D268     		ldr	r2, [r2, #12]
 659 0228 0121     		movs	r1, #1
 660 022a A140     		lsls	r1, r1, r4
 661 022c 23EA0103 		bic	r3, r3, r1
 662 0230 ABF80A30 		strh	r3, [fp, #10]	@ movhi
 663 0234 2146     		mov	r1, r4
 664 0236 9047     		blx	r2
 665              	.LVL58:
 666 0238 E5E7     		b	.L35
 667              	.LVL59:
 668              	.L94:
 669              	.LBE195:
 670              		.loc 1 376 0
 671 023a 0BEB8606 		add	r6, fp, r6, lsl #2
 672 023e 2146     		mov	r1, r4
 673 0240 7368     		ldr	r3, [r6, #4]
 674 0242 2E48     		ldr	r0, .L96+4
 675 0244 5B68     		ldr	r3, [r3, #4]
 676 0246 9847     		blx	r3
 677              	.LVL60:
 678 0248 DDE7     		b	.L35
 679              	.LVL61:
 680              	.L29:
 681              	.LBB196:
 682              		.loc 1 367 0
ARM GAS  /tmp/cc2W4Spe.s 			page 13


 683 024a 2C4B     		ldr	r3, .L96+4
 684              	.LVL62:
 685 024c 2B48     		ldr	r0, .L96+4
 686 024e 1B89     		ldrh	r3, [r3, #8]
 687 0250 BA68     		ldr	r2, [r7, #8]
 688 0252 0121     		movs	r1, #1
 689              	.LVL63:
 690 0254 A140     		lsls	r1, r1, r4
 691 0256 23EA0103 		bic	r3, r3, r1
 692 025a 0381     		strh	r3, [r0, #8]	@ movhi
 693 025c 2146     		mov	r1, r4
 694 025e 9047     		blx	r2
 695              	.LVL64:
 696 0260 7FE7     		b	.L28
 697              	.LVL65:
 698              	.L95:
 699              	.LBE196:
 700              	.LBB197:
 701              	.LBB176:
 702              	.LBB177:
 703              		.loc 1 155 0
 704 0262 9B68     		ldr	r3, [r3, #8]
 705              	.LVL66:
 706              	.LBE177:
 707              	.LBE176:
 708              		.loc 1 384 0
 709 0264 C868     		ldr	r0, [r1, #12]
 710              	.LVL67:
 711              	.LBB194:
 712              	.LBB193:
 713              		.loc 1 155 0
 714 0266 03F10053 		add	r3, r3, #536870912
 715 026a 03F54053 		add	r3, r3, #12288
 716 026e 5B00     		lsls	r3, r3, #1
 717              		.loc 1 158 0
 718 0270 5FEA5802 		lsrs	r2, r8, #1
 719              		.loc 1 155 0
 720 0274 0293     		str	r3, [sp, #8]
 721              	.LVL68:
 722              		.loc 1 158 0
 723 0276 0392     		str	r2, [sp, #12]
 724 0278 21D0     		beq	.L38
 725 027a 1146     		mov	r1, r2
 726 027c 9E46     		mov	lr, r3
 727              	.LVL69:
 728              	.L41:
 729              	.LBB178:
 730              		.loc 1 162 0
 731 027e 4369     		ldr	r3, [r0, #20]
 732              		.loc 1 161 0
 733 0280 5EF8042B 		ldr	r2, [lr], #4
 734              	.LVL70:
 735              		.loc 1 162 0
 736 0284 03F10109 		add	r9, r3, #1
 737 0288 C0F81490 		str	r9, [r0, #20]
 738 028c 1A70     		strb	r2, [r3]
 739              		.loc 1 163 0
ARM GAS  /tmp/cc2W4Spe.s 			page 14


 740 028e 0369     		ldr	r3, [r0, #16]
 741              		.loc 1 165 0
 742 0290 4FEA122C 		lsr	ip, r2, #8
 743              		.loc 1 163 0
 744 0294 4269     		ldr	r2, [r0, #20]
 745              	.LVL71:
 746 0296 9A42     		cmp	r2, r3
 747              		.loc 1 164 0
 748 0298 28BF     		it	cs
 749 029a C268     		ldrcs	r2, [r0, #12]
 750              		.loc 1 165 0
 751 029c 531C     		adds	r3, r2, #1
 752 029e 4361     		str	r3, [r0, #20]
 753 02a0 82F800C0 		strb	ip, [r2]
 754              		.loc 1 166 0
 755 02a4 0369     		ldr	r3, [r0, #16]
 756 02a6 4269     		ldr	r2, [r0, #20]
 757 02a8 9A42     		cmp	r2, r3
 758              		.loc 1 167 0
 759 02aa 24BF     		itt	cs
 760 02ac C368     		ldrcs	r3, [r0, #12]
 761 02ae 4361     		strcs	r3, [r0, #20]
 762              	.LBE178:
 763              		.loc 1 158 0
 764 02b0 0139     		subs	r1, r1, #1
 765              	.LVL72:
 766 02b2 E4D1     		bne	.L41
 767 02b4 029B     		ldr	r3, [sp, #8]
 768 02b6 039A     		ldr	r2, [sp, #12]
 769 02b8 03EB8203 		add	r3, r3, r2, lsl #2
 770 02bc 0293     		str	r3, [sp, #8]
 771              	.LVL73:
 772              	.L38:
 773              		.loc 1 171 0
 774 02be 019B     		ldr	r3, [sp, #4]
 775 02c0 DA07     		lsls	r2, r3, #31
 776 02c2 0BD5     		bpl	.L43
 777              		.loc 1 172 0
 778 02c4 4369     		ldr	r3, [r0, #20]
 779 02c6 029A     		ldr	r2, [sp, #8]
 780 02c8 591C     		adds	r1, r3, #1
 781 02ca 1268     		ldr	r2, [r2]	@ unaligned
 782 02cc 4161     		str	r1, [r0, #20]
 783 02ce 1A70     		strb	r2, [r3]
 784              		.loc 1 173 0
 785 02d0 0369     		ldr	r3, [r0, #16]
 786 02d2 4269     		ldr	r2, [r0, #20]
 787 02d4 9A42     		cmp	r2, r3
 788              		.loc 1 174 0
 789 02d6 24BF     		itt	cs
 790 02d8 C368     		ldrcs	r3, [r0, #12]
 791 02da 4361     		strcs	r3, [r0, #20]
 792              	.L43:
 793              	.LVL74:
 794              	.LBB179:
 795              	.LBB180:
 796              	.LBB181:
ARM GAS  /tmp/cc2W4Spe.s 			page 15


 797              	.LBB182:
 798              	.LBB183:
 799              	.LBB184:
 800              		.loc 3 546 0
 801 02dc 2023     		movs	r3, #32
 802              	@ 546 "../ChibiOS/os/ext/CMSIS/include/core_cmFunc.h" 1
 803 02de 83F31188 		MSR basepri, r3
 804              	@ 0 "" 2
 805              		.thumb
 806              	.LBE184:
 807              	.LBE183:
 808              	.LBE182:
 809              	.LBE181:
 810              	.LBE180:
 811              	.LBE179:
 812              		.loc 1 180 0
 813 02e2 8368     		ldr	r3, [r0, #8]
 814 02e4 4344     		add	r3, r3, r8
 815 02e6 8360     		str	r3, [r0, #8]
 816              	.LVL75:
 817              	.LBB185:
 818              	.LBB186:
 819              		.loc 2 742 0
 820 02e8 0021     		movs	r1, #0
 821 02ea FFF7FEFF 		bl	chThdDequeueAllI
 822              	.LVL76:
 823              	.LBE186:
 824              	.LBE185:
 825              	.LBB187:
 826              	.LBB188:
 827              	.LBB189:
 828              	.LBB190:
 829              	.LBB191:
 830              	.LBB192:
 831              		.loc 3 546 0
 832 02ee 0023     		movs	r3, #0
 833              	@ 546 "../ChibiOS/os/ext/CMSIS/include/core_cmFunc.h" 1
 834 02f0 83F31188 		MSR basepri, r3
 835              	@ 0 "" 2
 836              		.thumb
 837 02f4 B969     		ldr	r1, [r7, #24]
 838 02f6 6BE7     		b	.L45
 839              	.L97:
 840              		.align	2
 841              	.L96:
 842 02f8 005C0040 		.word	1073765376
 843 02fc 00000000 		.word	.LANCHOR0
 844              	.LVL77:
 845              	.L93:
 846              	.LBE192:
 847              	.LBE191:
 848              	.LBE190:
 849              	.LBE189:
 850              	.LBE188:
 851              	.LBE187:
 852              	.LBE193:
 853              	.LBE194:
ARM GAS  /tmp/cc2W4Spe.s 			page 16


 854              	.LBE197:
 855              	.LBB198:
 856              		.loc 1 352 0
 857 0300 DAF85030 		ldr	r3, [r10, #80]
 858              	.LVL78:
 859 0304 DEF80C10 		ldr	r1, [lr, #12]
 860 0308 03F10053 		add	r3, r3, #536870912
 861 030c 03F54053 		add	r3, r3, #12288
 862 0310 1844     		add	r0, r0, r3
 863 0312 4000     		lsls	r0, r0, #1
 864 0314 FFF7FEFF 		bl	usb_packet_write_from_queue
 865              	.LVL79:
 866 0318 0BE7     		b	.L31
 867              	.LVL80:
 868              	.L92:
 869              	.LBE198:
 870              	.LBE199:
 871              	.LBB200:
 872              		.loc 1 313 0
 873 031a DFF844B0 		ldr	fp, .L98+4
 874              		.loc 1 312 0
 875 031e 1A6C     		ldr	r2, [r3, #64]
 876              	.LVL81:
 877              		.loc 1 313 0
 878 0320 DBF80410 		ldr	r1, [fp, #4]
 879 0324 0D68     		ldr	r5, [r1]
 880              		.loc 1 312 0
 881 0326 22F00802 		bic	r2, r2, #8
 882 032a 1A64     		str	r2, [r3, #64]
 883              		.loc 1 313 0
 884 032c 002D     		cmp	r5, #0
 885 032e 3FF48AAE 		beq	.L23
 886              		.loc 1 313 0 is_stmt 0 discriminator 1
 887 0332 5846     		mov	r0, fp
 888 0334 0421     		movs	r1, #4
 889 0336 A847     		blx	r5
 890              	.LVL82:
 891 0338 85E6     		b	.L23
 892              	.L91:
 893              	.LBE200:
 894              		.loc 1 293 0 is_stmt 1
 895 033a DFF824B0 		ldr	fp, .L98+4
 896 033e 5846     		mov	r0, fp
 897 0340 FFF7FEFF 		bl	_usb_reset
 898              	.LVL83:
 899              		.loc 1 294 0
 900 0344 DBF80430 		ldr	r3, [fp, #4]
 901 0348 1B68     		ldr	r3, [r3]
 902 034a 13B1     		cbz	r3, .L18
 903              		.loc 1 294 0 is_stmt 0 discriminator 1
 904 034c 5846     		mov	r0, fp
 905 034e 0021     		movs	r1, #0
 906 0350 9847     		blx	r3
 907              	.LVL84:
 908              	.L18:
 909              		.loc 1 295 0 is_stmt 1
 910 0352 024B     		ldr	r3, .L98
ARM GAS  /tmp/cc2W4Spe.s 			page 17


 911 0354 6FF48062 		mvn	r2, #1024
 912 0358 5A64     		str	r2, [r3, #68]
 913 035a 59E6     		b	.L17
 914              	.L99:
 915              		.align	2
 916              	.L98:
 917 035c 005C0040 		.word	1073765376
 918 0360 00000000 		.word	.LANCHOR0
 919              		.cfi_endproc
 920              	.LFE262:
 921              		.size	Vector16C, .-Vector16C
 922 0364 AFF30080 		.section	.text.usb_lld_init,"ax",%progbits
 922      AFF30080 
 922      AFF30080 
 923              		.align	2
 924              		.p2align 4,,15
 925              		.global	usb_lld_init
 926              		.thumb
 927              		.thumb_func
 928              		.type	usb_lld_init, %function
 929              	usb_lld_init:
 930              	.LFB263:
 931              		.loc 1 426 0
 932              		.cfi_startproc
 933              		@ args = 0, pretend = 0, frame = 0
 934              		@ frame_needed = 0, uses_anonymous_args = 0
 935              		@ link register save eliminated.
 936              		.loc 1 429 0
 937 0000 0148     		ldr	r0, .L101
 938 0002 FFF7FEBF 		b	usbObjectInit
 939              	.LVL85:
 940              	.L102:
 941 0006 00BF     		.align	2
 942              	.L101:
 943 0008 00000000 		.word	.LANCHOR0
 944              		.cfi_endproc
 945              	.LFE263:
 946              		.size	usb_lld_init, .-usb_lld_init
 947 000c AFF30080 		.section	.text.usb_lld_start,"ax",%progbits
 948              		.align	2
 949              		.p2align 4,,15
 950              		.global	usb_lld_start
 951              		.thumb
 952              		.thumb_func
 953              		.type	usb_lld_start, %function
 954              	usb_lld_start:
 955              	.LFB264:
 956              		.loc 1 439 0
 957              		.cfi_startproc
 958              		@ args = 0, pretend = 0, frame = 0
 959              		@ frame_needed = 0, uses_anonymous_args = 0
 960              	.LVL86:
 961 0000 38B5     		push	{r3, r4, r5, lr}
 962              		.cfi_def_cfa_offset 16
 963              		.cfi_offset 3, -16
 964              		.cfi_offset 4, -12
 965              		.cfi_offset 5, -8
ARM GAS  /tmp/cc2W4Spe.s 			page 18


 966              		.cfi_offset 14, -4
 967              		.loc 1 441 0
 968 0002 0378     		ldrb	r3, [r0]	@ zero_extendqisi2
 969 0004 012B     		cmp	r3, #1
 970 0006 00D0     		beq	.L107
 971 0008 38BD     		pop	{r3, r4, r5, pc}
 972              	.L107:
 973              		.loc 1 444 0
 974 000a 0D4A     		ldr	r2, .L109
 975 000c 9042     		cmp	r0, r2
 976 000e 0446     		mov	r4, r0
 977 0010 04D0     		beq	.L108
 978              	.LVL87:
 979              	.L105:
 980              		.loc 1 460 0
 981 0012 2046     		mov	r0, r4
 982              		.loc 1 463 0
 983 0014 BDE83840 		pop	{r3, r4, r5, lr}
 984              		.cfi_remember_state
 985              		.cfi_restore 14
 986              		.cfi_restore 5
 987              		.cfi_restore 4
 988              		.cfi_restore 3
 989              		.cfi_def_cfa_offset 0
 990              	.LVL88:
 991              		.loc 1 460 0
 992 0018 FFF7FEBF 		b	_usb_reset
 993              	.LVL89:
 994              	.L108:
 995              		.cfi_restore_state
 996              		.loc 1 446 0
 997 001c 0949     		ldr	r1, .L109+4
 998              		.loc 1 448 0
 999 001e 0A4D     		ldr	r5, .L109+8
 1000              		.loc 1 446 0
 1001 0020 CA69     		ldr	r2, [r1, #28]
 1002 0022 42F40002 		orr	r2, r2, #8388608
 1003 0026 CA61     		str	r2, [r1, #28]
 1004              		.loc 1 452 0
 1005 0028 4A20     		movs	r0, #74
 1006              	.LVL90:
 1007              		.loc 1 448 0
 1008 002a 2B64     		str	r3, [r5, #64]
 1009              		.loc 1 452 0
 1010 002c 0D21     		movs	r1, #13
 1011 002e FFF7FEFF 		bl	nvicEnableVector
 1012              	.LVL91:
 1013              		.loc 1 454 0
 1014 0032 4B20     		movs	r0, #75
 1015 0034 0E21     		movs	r1, #14
 1016 0036 FFF7FEFF 		bl	nvicEnableVector
 1017              	.LVL92:
 1018              		.loc 1 456 0
 1019 003a 0023     		movs	r3, #0
 1020 003c 2B64     		str	r3, [r5, #64]
 1021 003e E8E7     		b	.L105
 1022              	.L110:
ARM GAS  /tmp/cc2W4Spe.s 			page 19


 1023              		.align	2
 1024              	.L109:
 1025 0040 00000000 		.word	.LANCHOR0
 1026 0044 00100240 		.word	1073876992
 1027 0048 005C0040 		.word	1073765376
 1028              		.cfi_endproc
 1029              	.LFE264:
 1030              		.size	usb_lld_start, .-usb_lld_start
 1031 004c AFF30080 		.section	.text.usb_lld_stop,"ax",%progbits
 1032              		.align	2
 1033              		.p2align 4,,15
 1034              		.global	usb_lld_stop
 1035              		.thumb
 1036              		.thumb_func
 1037              		.type	usb_lld_stop, %function
 1038              	usb_lld_stop:
 1039              	.LFB265:
 1040              		.loc 1 472 0
 1041              		.cfi_startproc
 1042              		@ args = 0, pretend = 0, frame = 0
 1043              		@ frame_needed = 0, uses_anonymous_args = 0
 1044              	.LVL93:
 1045 0000 08B5     		push	{r3, lr}
 1046              		.cfi_def_cfa_offset 8
 1047              		.cfi_offset 3, -8
 1048              		.cfi_offset 14, -4
 1049              		.loc 1 475 0
 1050 0002 0378     		ldrb	r3, [r0]	@ zero_extendqisi2
 1051 0004 012B     		cmp	r3, #1
 1052 0006 00D0     		beq	.L114
 1053              	.LVL94:
 1054              	.L111:
 1055 0008 08BD     		pop	{r3, pc}
 1056              	.LVL95:
 1057              	.L114:
 1058              		.loc 1 477 0
 1059 000a 094B     		ldr	r3, .L115
 1060 000c 9842     		cmp	r0, r3
 1061 000e FBD1     		bne	.L111
 1062              		.loc 1 479 0
 1063 0010 4A20     		movs	r0, #74
 1064              	.LVL96:
 1065 0012 FFF7FEFF 		bl	nvicDisableVector
 1066              	.LVL97:
 1067              		.loc 1 481 0
 1068 0016 4B20     		movs	r0, #75
 1069 0018 FFF7FEFF 		bl	nvicDisableVector
 1070              	.LVL98:
 1071              		.loc 1 482 0
 1072 001c 054B     		ldr	r3, .L115+4
 1073              		.loc 1 483 0
 1074 001e 064A     		ldr	r2, .L115+8
 1075              		.loc 1 482 0
 1076 0020 0321     		movs	r1, #3
 1077 0022 1964     		str	r1, [r3, #64]
 1078              		.loc 1 483 0
 1079 0024 D369     		ldr	r3, [r2, #28]
ARM GAS  /tmp/cc2W4Spe.s 			page 20


 1080 0026 23F40003 		bic	r3, r3, #8388608
 1081 002a D361     		str	r3, [r2, #28]
 1082 002c ECE7     		b	.L111
 1083              	.L116:
 1084 002e 00BF     		.align	2
 1085              	.L115:
 1086 0030 00000000 		.word	.LANCHOR0
 1087 0034 005C0040 		.word	1073765376
 1088 0038 00100240 		.word	1073876992
 1089              		.cfi_endproc
 1090              	.LFE265:
 1091              		.size	usb_lld_stop, .-usb_lld_stop
 1092 003c AFF30080 		.section	.text.usb_lld_set_address,"ax",%progbits
 1093              		.align	2
 1094              		.p2align 4,,15
 1095              		.global	usb_lld_set_address
 1096              		.thumb
 1097              		.thumb_func
 1098              		.type	usb_lld_set_address, %function
 1099              	usb_lld_set_address:
 1100              	.LFB267:
 1101              		.loc 1 526 0
 1102              		.cfi_startproc
 1103              		@ args = 0, pretend = 0, frame = 0
 1104              		@ frame_needed = 0, uses_anonymous_args = 0
 1105              		@ link register save eliminated.
 1106              	.LVL99:
 1107              		.loc 1 528 0
 1108 0000 90F87E30 		ldrb	r3, [r0, #126]	@ zero_extendqisi2
 1109 0004 024A     		ldr	r2, .L118
 1110 0006 43F08003 		orr	r3, r3, #128
 1111 000a D364     		str	r3, [r2, #76]
 1112 000c 7047     		bx	lr
 1113              	.L119:
 1114 000e 00BF     		.align	2
 1115              	.L118:
 1116 0010 005C0040 		.word	1073765376
 1117              		.cfi_endproc
 1118              	.LFE267:
 1119              		.size	usb_lld_set_address, .-usb_lld_set_address
 1120 0014 AFF30080 		.section	.text.usb_lld_init_endpoint,"ax",%progbits
 1120      AFF30080 
 1120      AFF30080 
 1121              		.align	2
 1122              		.p2align 4,,15
 1123              		.global	usb_lld_init_endpoint
 1124              		.thumb
 1125              		.thumb_func
 1126              		.type	usb_lld_init_endpoint, %function
 1127              	usb_lld_init_endpoint:
 1128              	.LFB268:
 1129              		.loc 1 539 0
 1130              		.cfi_startproc
 1131              		@ args = 0, pretend = 0, frame = 0
 1132              		@ frame_needed = 0, uses_anonymous_args = 0
 1133              		@ link register save eliminated.
 1134              	.LVL100:
ARM GAS  /tmp/cc2W4Spe.s 			page 21


 1135              		.loc 1 542 0
 1136 0000 00EB8103 		add	r3, r0, r1, lsl #2
 1137              		.loc 1 539 0
 1138 0004 F0B4     		push	{r4, r5, r6, r7}
 1139              		.cfi_def_cfa_offset 16
 1140              		.cfi_offset 4, -16
 1141              		.cfi_offset 5, -12
 1142              		.cfi_offset 6, -8
 1143              		.cfi_offset 7, -4
 1144              		.loc 1 542 0
 1145 0006 DB68     		ldr	r3, [r3, #12]
 1146              	.LVL101:
 1147              		.loc 1 545 0
 1148 0008 1A68     		ldr	r2, [r3]
 1149 000a 02F00302 		and	r2, r2, #3
 1150 000e 013A     		subs	r2, r2, #1
 1151 0010 022A     		cmp	r2, #2
 1152 0012 9CBF     		itt	ls
 1153 0014 2E4C     		ldrls	r4, .L135
 1154 0016 34F81260 		ldrhls	r6, [r4, r2, lsl #1]
 1155              		.loc 1 560 0
 1156 001a 9A68     		ldr	r2, [r3, #8]
 1157              		.loc 1 545 0
 1158 001c 88BF     		it	hi
 1159 001e 4FF40076 		movhi	r6, #512
 1160              	.LVL102:
 1161              		.loc 1 560 0
 1162 0022 0AB1     		cbz	r2, .L122
 1163              		.loc 1 561 0
 1164 0024 46F02006 		orr	r6, r6, #32
 1165              	.LVL103:
 1166              	.L122:
 1167              		.loc 1 564 0
 1168 0028 DA68     		ldr	r2, [r3, #12]
 1169 002a 0AB1     		cbz	r2, .L123
 1170              		.loc 1 565 0
 1171 002c 46F40056 		orr	r6, r6, #8192
 1172              	.LVL104:
 1173              	.L123:
 1174              		.loc 1 568 0
 1175 0030 46EA0104 		orr	r4, r6, r1
 1176 0034 24F47844 		bic	r4, r4, #63488
 1177 0038 8A00     		lsls	r2, r1, #2
 1178 003a 24F0F004 		bic	r4, r4, #240
 1179 003e 02F18042 		add	r2, r2, #1073741824
 1180 0042 02F5B842 		add	r2, r2, #23552
 1181 0046 44F40044 		orr	r4, r4, #32768
 1182 004a 44F08004 		orr	r4, r4, #128
 1183 004e 1460     		str	r4, [r2]
 1184              		.loc 1 569 0
 1185 0050 1468     		ldr	r4, [r2]
 1186              		.loc 1 572 0
 1187 0052 5D8A     		ldrh	r5, [r3, #18]
 1188              		.loc 1 569 0
 1189 0054 47F67007 		movw	r7, #30832
 1190 0058 3740     		ands	r7, r7, r6
 1191 005a 7C40     		eors	r4, r4, r7
ARM GAS  /tmp/cc2W4Spe.s 			page 22


 1192 005c 44F40044 		orr	r4, r4, #32768
 1193 0060 44F08004 		orr	r4, r4, #128
 1194              		.loc 1 572 0
 1195 0064 3E2D     		cmp	r5, #62
 1196              		.loc 1 569 0
 1197 0066 1460     		str	r4, [r2]
 1198              		.loc 1 573 0
 1199 0068 05F1FF34 		add	r4, r5, #-1
 1200              		.loc 1 572 0
 1201 006c 26D8     		bhi	.L134
 1202              		.loc 1 576 0
 1203 006e 44F00104 		orr	r4, r4, #1
 1204 0072 0134     		adds	r4, r4, #1
 1205 0074 04EBD474 		add	r4, r4, r4, lsr #31
 1206 0078 6402     		lsls	r4, r4, #9
 1207 007a 04F47C44 		and	r4, r4, #64512
 1208              	.LVL105:
 1209              	.L125:
 1210              		.loc 1 577 0
 1211 007e 154A     		ldr	r2, .L135+4
 1212              		.loc 1 580 0
 1213 0080 1E8A     		ldrh	r6, [r3, #16]
 1214              	.LVL106:
 1215              		.loc 1 577 0
 1216 0082 126D     		ldr	r2, [r2, #80]
 1217 0084 02F10053 		add	r3, r2, #536870912
 1218              	.LVL107:
 1219 0088 03F54053 		add	r3, r3, #12288
 1220 008c 03EBC101 		add	r1, r3, r1, lsl #3
 1221              	.LVL108:
 1222 0090 4900     		lsls	r1, r1, #1
 1223              	.LVL109:
 1224              		.loc 1 578 0
 1225 0092 0023     		movs	r3, #0
 1226 0094 4A68     		ldr	r2, [r1, #4]
 1227 0096 4B60     		str	r3, [r1, #4]
 1228              		.loc 1 579 0
 1229 0098 CB68     		ldr	r3, [r1, #12]
 1230 009a CC60     		str	r4, [r1, #12]
 1231              	.LVL110:
 1232              	.LBB201:
 1233              	.LBB202:
 1234              		.loc 1 112 0
 1235 009c D0F88020 		ldr	r2, [r0, #128]
 1236              	.LVL111:
 1237              		.loc 1 113 0
 1238 00a0 9319     		adds	r3, r2, r6
 1239 00a2 C0F88030 		str	r3, [r0, #128]
 1240              	.LBE202:
 1241              	.LBE201:
 1242              		.loc 1 580 0
 1243 00a6 0B68     		ldr	r3, [r1]
 1244 00a8 0A60     		str	r2, [r1]
 1245              	.LVL112:
 1246              	.LBB203:
 1247              	.LBB204:
 1248              		.loc 1 112 0
ARM GAS  /tmp/cc2W4Spe.s 			page 23


 1249 00aa D0F88030 		ldr	r3, [r0, #128]
 1250              	.LVL113:
 1251              		.loc 1 113 0
 1252 00ae 1D44     		add	r5, r5, r3
 1253              	.LVL114:
 1254 00b0 C0F88050 		str	r5, [r0, #128]
 1255              	.LBE204:
 1256              	.LBE203:
 1257              		.loc 1 581 0
 1258 00b4 8A68     		ldr	r2, [r1, #8]
 1259              	.LVL115:
 1260 00b6 8B60     		str	r3, [r1, #8]
 1261              		.loc 1 582 0
 1262 00b8 F0BC     		pop	{r4, r5, r6, r7}
 1263              		.cfi_remember_state
 1264              		.cfi_restore 7
 1265              		.cfi_restore 6
 1266              		.cfi_restore 5
 1267              		.cfi_restore 4
 1268              		.cfi_def_cfa_offset 0
 1269              	.LVL116:
 1270 00ba 7047     		bx	lr
 1271              	.LVL117:
 1272              	.L134:
 1273              		.cfi_restore_state
 1274              		.loc 1 573 0
 1275 00bc 44F01F04 		orr	r4, r4, #31
 1276 00c0 0134     		adds	r4, r4, #1
 1277 00c2 6411     		asrs	r4, r4, #5
 1278 00c4 6FEAC464 		mvn	r4, r4, lsl #27
 1279 00c8 6FEA5444 		mvn	r4, r4, lsr #17
 1280 00cc A4B2     		uxth	r4, r4
 1281              	.LVL118:
 1282 00ce D6E7     		b	.L125
 1283              	.L136:
 1284              		.align	2
 1285              	.L135:
 1286 00d0 00000000 		.word	.LANCHOR1
 1287 00d4 005C0040 		.word	1073765376
 1288              		.cfi_endproc
 1289              	.LFE268:
 1290              		.size	usb_lld_init_endpoint, .-usb_lld_init_endpoint
 1291 00d8 AFF30080 		.section	.text.usb_lld_reset,"ax",%progbits
 1291      AFF30080 
 1292              		.align	2
 1293              		.p2align 4,,15
 1294              		.global	usb_lld_reset
 1295              		.thumb
 1296              		.thumb_func
 1297              		.type	usb_lld_reset, %function
 1298              	usb_lld_reset:
 1299              	.LFB266:
 1300              		.loc 1 496 0
 1301              		.cfi_startproc
 1302              		@ args = 0, pretend = 0, frame = 0
 1303              		@ frame_needed = 0, uses_anonymous_args = 0
 1304              	.LVL119:
ARM GAS  /tmp/cc2W4Spe.s 			page 24


 1305              		.loc 1 507 0
 1306 0000 4168     		ldr	r1, [r0, #4]
 1307              		.loc 1 500 0
 1308 0002 0E4B     		ldr	r3, .L141
 1309              		.loc 1 507 0
 1310 0004 C968     		ldr	r1, [r1, #12]
 1311              		.loc 1 496 0
 1312 0006 F0B5     		push	{r4, r5, r6, r7, lr}
 1313              		.cfi_def_cfa_offset 20
 1314              		.cfi_offset 4, -20
 1315              		.cfi_offset 5, -16
 1316              		.cfi_offset 6, -12
 1317              		.cfi_offset 7, -8
 1318              		.cfi_offset 14, -4
 1319              		.loc 1 507 0
 1320 0008 0029     		cmp	r1, #0
 1321              		.loc 1 500 0
 1322 000a 4FF00004 		mov	r4, #0
 1323              		.loc 1 515 0
 1324 000e 0C4D     		ldr	r5, .L141+4
 1325              		.loc 1 500 0
 1326 0010 1C65     		str	r4, [r3, #80]
 1327              		.loc 1 508 0
 1328 0012 0CBF     		ite	eq
 1329 0014 4FF41C47 		moveq	r7, #39936
 1330 0018 4FF41E47 		movne	r7, #40448
 1331              		.loc 1 502 0
 1332 001c 4FF0800E 		mov	lr, #128
 1333              	.LBB205:
 1334              	.LBB206:
 1335              		.loc 1 100 0
 1336 0020 4026     		movs	r6, #64
 1337              	.LBE206:
 1338              	.LBE205:
 1339              		.loc 1 501 0
 1340 0022 5C64     		str	r4, [r3, #68]
 1341              		.loc 1 516 0
 1342 0024 2146     		mov	r1, r4
 1343              		.loc 1 502 0
 1344 0026 C3F84CE0 		str	lr, [r3, #76]
 1345              	.LVL120:
 1346              		.loc 1 509 0
 1347 002a 1F64     		str	r7, [r3, #64]
 1348              	.LVL121:
 1349              	.LBB208:
 1350              	.LBB207:
 1351              		.loc 1 100 0
 1352 002c C0F88060 		str	r6, [r0, #128]
 1353              	.LBE207:
 1354              	.LBE208:
 1355              		.loc 1 515 0
 1356 0030 C560     		str	r5, [r0, #12]
 1357              		.loc 1 517 0
 1358 0032 BDE8F040 		pop	{r4, r5, r6, r7, lr}
 1359              		.cfi_restore 14
 1360              		.cfi_restore 7
 1361              		.cfi_restore 6
ARM GAS  /tmp/cc2W4Spe.s 			page 25


 1362              		.cfi_restore 5
 1363              		.cfi_restore 4
 1364              		.cfi_def_cfa_offset 0
 1365              	.LVL122:
 1366              		.loc 1 516 0
 1367 0036 FFF7FEBF 		b	usb_lld_init_endpoint
 1368              	.LVL123:
 1369              	.L142:
 1370 003a 00BF     		.align	2
 1371              	.L141:
 1372 003c 005C0040 		.word	1073765376
 1373 0040 00000000 		.word	.LANCHOR2
 1374              		.cfi_endproc
 1375              	.LFE266:
 1376              		.size	usb_lld_reset, .-usb_lld_reset
 1377 0044 AFF30080 		.section	.text.usb_lld_disable_endpoints,"ax",%progbits
 1377      AFF30080 
 1377      AFF30080 
 1378              		.align	2
 1379              		.p2align 4,,15
 1380              		.global	usb_lld_disable_endpoints
 1381              		.thumb
 1382              		.thumb_func
 1383              		.type	usb_lld_disable_endpoints, %function
 1384              	usb_lld_disable_endpoints:
 1385              	.LFB269:
 1386              		.loc 1 591 0
 1387              		.cfi_startproc
 1388              		@ args = 0, pretend = 0, frame = 0
 1389              		@ frame_needed = 0, uses_anonymous_args = 0
 1390              		@ link register save eliminated.
 1391              	.LVL124:
 1392              	.LBB209:
 1393              	.LBB210:
 1394              		.loc 1 100 0
 1395 0000 4023     		movs	r3, #64
 1396 0002 C0F88030 		str	r3, [r0, #128]
 1397              	.LVL125:
 1398              	.LBE210:
 1399              	.LBE209:
 1400              		.loc 1 598 0
 1401 0006 0121     		movs	r1, #1
 1402              		.loc 1 599 0
 1403 0008 48F28000 		movw	r0, #32896
 1404              	.LVL126:
 1405              	.L144:
 1406 000c 8B00     		lsls	r3, r1, #2
 1407 000e 03F18043 		add	r3, r3, #1073741824
 1408 0012 03F5B843 		add	r3, r3, #23552
 1409              		.loc 1 598 0 discriminator 3
 1410 0016 0131     		adds	r1, r1, #1
 1411              	.LVL127:
 1412              		.loc 1 599 0 discriminator 3
 1413 0018 1A68     		ldr	r2, [r3]
 1414 001a 42F40042 		orr	r2, r2, #32768
 1415 001e 42F08002 		orr	r2, r2, #128
 1416              		.loc 1 598 0 discriminator 3
ARM GAS  /tmp/cc2W4Spe.s 			page 26


 1417 0022 0829     		cmp	r1, #8
 1418              		.loc 1 599 0 discriminator 3
 1419 0024 1A60     		str	r2, [r3]
 1420              		.loc 1 600 0 discriminator 3
 1421 0026 1860     		str	r0, [r3]
 1422              		.loc 1 598 0 discriminator 3
 1423 0028 F0D1     		bne	.L144
 1424              		.loc 1 602 0
 1425 002a 7047     		bx	lr
 1426              		.cfi_endproc
 1427              	.LFE269:
 1428              		.size	usb_lld_disable_endpoints, .-usb_lld_disable_endpoints
 1429 002c AFF30080 		.section	.text.usb_lld_get_status_out,"ax",%progbits
 1430              		.align	2
 1431              		.p2align 4,,15
 1432              		.global	usb_lld_get_status_out
 1433              		.thumb
 1434              		.thumb_func
 1435              		.type	usb_lld_get_status_out, %function
 1436              	usb_lld_get_status_out:
 1437              	.LFB270:
 1438              		.loc 1 616 0
 1439              		.cfi_startproc
 1440              		@ args = 0, pretend = 0, frame = 0
 1441              		@ frame_needed = 0, uses_anonymous_args = 0
 1442              		@ link register save eliminated.
 1443              	.LVL128:
 1444              		.loc 1 619 0
 1445 0000 054B     		ldr	r3, .L151
 1446 0002 53F82100 		ldr	r0, [r3, r1, lsl #2]
 1447              	.LVL129:
 1448 0006 10F44050 		ands	r0, r0, #12288
 1449 000a 04D0     		beq	.L148
 1450 000c B0F5805F 		cmp	r0, #4096
 1451              		.loc 1 625 0
 1452 0010 0CBF     		ite	eq
 1453 0012 0120     		moveq	r0, #1
 1454 0014 0220     		movne	r0, #2
 1455              	.L148:
 1456              		.loc 1 627 0
 1457 0016 7047     		bx	lr
 1458              	.L152:
 1459              		.align	2
 1460              	.L151:
 1461 0018 005C0040 		.word	1073765376
 1462              		.cfi_endproc
 1463              	.LFE270:
 1464              		.size	usb_lld_get_status_out, .-usb_lld_get_status_out
 1465 001c AFF30080 		.section	.text.usb_lld_get_status_in,"ax",%progbits
 1466              		.align	2
 1467              		.p2align 4,,15
 1468              		.global	usb_lld_get_status_in
 1469              		.thumb
 1470              		.thumb_func
 1471              		.type	usb_lld_get_status_in, %function
 1472              	usb_lld_get_status_in:
 1473              	.LFB271:
ARM GAS  /tmp/cc2W4Spe.s 			page 27


 1474              		.loc 1 641 0
 1475              		.cfi_startproc
 1476              		@ args = 0, pretend = 0, frame = 0
 1477              		@ frame_needed = 0, uses_anonymous_args = 0
 1478              		@ link register save eliminated.
 1479              	.LVL130:
 1480              		.loc 1 644 0
 1481 0000 054B     		ldr	r3, .L158
 1482 0002 53F82100 		ldr	r0, [r3, r1, lsl #2]
 1483              	.LVL131:
 1484 0006 10F03000 		ands	r0, r0, #48
 1485 000a 03D0     		beq	.L155
 1486 000c 1028     		cmp	r0, #16
 1487              		.loc 1 650 0
 1488 000e 0CBF     		ite	eq
 1489 0010 0120     		moveq	r0, #1
 1490 0012 0220     		movne	r0, #2
 1491              	.L155:
 1492              		.loc 1 652 0
 1493 0014 7047     		bx	lr
 1494              	.L159:
 1495 0016 00BF     		.align	2
 1496              	.L158:
 1497 0018 005C0040 		.word	1073765376
 1498              		.cfi_endproc
 1499              	.LFE271:
 1500              		.size	usb_lld_get_status_in, .-usb_lld_get_status_in
 1501 001c AFF30080 		.section	.text.usb_lld_read_setup,"ax",%progbits
 1502              		.align	2
 1503              		.p2align 4,,15
 1504              		.global	usb_lld_read_setup
 1505              		.thumb
 1506              		.thumb_func
 1507              		.type	usb_lld_read_setup, %function
 1508              	usb_lld_read_setup:
 1509              	.LFB272:
 1510              		.loc 1 668 0
 1511              		.cfi_startproc
 1512              		@ args = 0, pretend = 0, frame = 0
 1513              		@ frame_needed = 0, uses_anonymous_args = 0
 1514              		@ link register save eliminated.
 1515              	.LVL132:
 1516              		.loc 1 674 0
 1517 0000 0B4B     		ldr	r3, .L163
 1518 0002 1B6D     		ldr	r3, [r3, #80]
 1519 0004 03F10053 		add	r3, r3, #536870912
 1520 0008 03F54053 		add	r3, r3, #12288
 1521 000c 03EBC101 		add	r1, r3, r1, lsl #3
 1522              	.LVL133:
 1523 0010 4900     		lsls	r1, r1, #1
 1524              	.LVL134:
 1525 0012 02F10800 		add	r0, r2, #8
 1526              	.LVL135:
 1527              		.loc 1 675 0
 1528 0016 8B68     		ldr	r3, [r1, #8]
 1529 0018 03F10053 		add	r3, r3, #536870912
 1530 001c 03F54053 		add	r3, r3, #12288
ARM GAS  /tmp/cc2W4Spe.s 			page 28


 1531 0020 5B00     		lsls	r3, r3, #1
 1532              	.LVL136:
 1533              	.L161:
 1534              		.loc 1 677 0 discriminator 3
 1535 0022 53F8041B 		ldr	r1, [r3], #4
 1536              	.LVL137:
 1537 0026 22F8021B 		strh	r1, [r2], #2	@ movhi
 1538              	.LVL138:
 1539              		.loc 1 676 0 discriminator 3
 1540 002a 8242     		cmp	r2, r0
 1541 002c F9D1     		bne	.L161
 1542              		.loc 1 680 0
 1543 002e 7047     		bx	lr
 1544              	.L164:
 1545              		.align	2
 1546              	.L163:
 1547 0030 005C0040 		.word	1073765376
 1548              		.cfi_endproc
 1549              	.LFE272:
 1550              		.size	usb_lld_read_setup, .-usb_lld_read_setup
 1551 0034 AFF30080 		.section	.text.usb_lld_prepare_receive,"ax",%progbits
 1551      AFF30080 
 1551      AFF30080 
 1552              		.align	2
 1553              		.p2align 4,,15
 1554              		.global	usb_lld_prepare_receive
 1555              		.thumb
 1556              		.thumb_func
 1557              		.type	usb_lld_prepare_receive, %function
 1558              	usb_lld_prepare_receive:
 1559              	.LFB273:
 1560              		.loc 1 690 0
 1561              		.cfi_startproc
 1562              		@ args = 0, pretend = 0, frame = 0
 1563              		@ frame_needed = 0, uses_anonymous_args = 0
 1564              		@ link register save eliminated.
 1565              	.LVL139:
 1566              		.loc 1 691 0
 1567 0000 00EB8101 		add	r1, r0, r1, lsl #2
 1568              	.LVL140:
 1569 0004 C968     		ldr	r1, [r1, #12]
 1570 0006 8A69     		ldr	r2, [r1, #24]
 1571              	.LVL141:
 1572              		.loc 1 694 0
 1573 0008 5368     		ldr	r3, [r2, #4]
 1574 000a 33B1     		cbz	r3, .L168
 1575              		.loc 1 697 0
 1576 000c 498A     		ldrh	r1, [r1, #18]
 1577 000e 013B     		subs	r3, r3, #1
 1578 0010 0B44     		add	r3, r3, r1
 1579 0012 B3FBF1F3 		udiv	r3, r3, r1
 1580 0016 1382     		strh	r3, [r2, #16]	@ movhi
 1581 0018 7047     		bx	lr
 1582              	.L168:
 1583              		.loc 1 695 0
 1584 001a 0123     		movs	r3, #1
 1585 001c 1382     		strh	r3, [r2, #16]	@ movhi
ARM GAS  /tmp/cc2W4Spe.s 			page 29


 1586 001e 7047     		bx	lr
 1587              		.cfi_endproc
 1588              	.LFE273:
 1589              		.size	usb_lld_prepare_receive, .-usb_lld_prepare_receive
 1590              		.section	.text.usb_lld_prepare_transmit,"ax",%progbits
 1591              		.align	2
 1592              		.p2align 4,,15
 1593              		.global	usb_lld_prepare_transmit
 1594              		.thumb
 1595              		.thumb_func
 1596              		.type	usb_lld_prepare_transmit, %function
 1597              	usb_lld_prepare_transmit:
 1598              	.LFB274:
 1599              		.loc 1 709 0
 1600              		.cfi_startproc
 1601              		@ args = 0, pretend = 0, frame = 0
 1602              		@ frame_needed = 0, uses_anonymous_args = 0
 1603              		@ link register save eliminated.
 1604              	.LVL142:
 1605              		.loc 1 711 0
 1606 0000 00EB8100 		add	r0, r0, r1, lsl #2
 1607              	.LVL143:
 1608              		.loc 1 709 0
 1609 0004 30B4     		push	{r4, r5}
 1610              		.cfi_def_cfa_offset 8
 1611              		.cfi_offset 4, -8
 1612              		.cfi_offset 5, -4
 1613              		.loc 1 711 0
 1614 0006 C268     		ldr	r2, [r0, #12]
 1615 0008 5369     		ldr	r3, [r2, #20]
 1616              	.LVL144:
 1617              		.loc 1 715 0
 1618 000a 108A     		ldrh	r0, [r2, #16]
 1619              		.loc 1 714 0
 1620 000c 5A68     		ldr	r2, [r3, #4]
 1621              	.LVL145:
 1622              		.loc 1 709 0
 1623 000e 0D46     		mov	r5, r1
 1624              		.loc 1 718 0
 1625 0010 1978     		ldrb	r1, [r3]	@ zero_extendqisi2
 1626              	.LVL146:
 1627 0012 8242     		cmp	r2, r0
 1628 0014 28BF     		it	cs
 1629 0016 0246     		movcs	r2, r0
 1630              	.LVL147:
 1631 0018 F9B9     		cbnz	r1, .L177
 1632              		.loc 1 722 0
 1633 001a 1649     		ldr	r1, .L178
 1634 001c DC68     		ldr	r4, [r3, #12]
 1635 001e 086D     		ldr	r0, [r1, #80]
 1636 0020 00F10050 		add	r0, r0, #536870912
 1637 0024 00F54050 		add	r0, r0, #12288
 1638 0028 00EBC500 		add	r0, r0, r5, lsl #3
 1639 002c 4000     		lsls	r0, r0, #1
 1640              	.LVL148:
 1641              	.LBB211:
 1642              	.LBB212:
ARM GAS  /tmp/cc2W4Spe.s 			page 30


 1643              		.loc 1 202 0
 1644 002e 531C     		adds	r3, r2, #1
 1645              	.LVL149:
 1646              		.loc 1 199 0
 1647 0030 0168     		ldr	r1, [r0]
 1648              		.loc 1 201 0
 1649 0032 4568     		ldr	r5, [r0, #4]
 1650              	.LVL150:
 1651 0034 4260     		str	r2, [r0, #4]
 1652              		.loc 1 199 0
 1653 0036 01F10052 		add	r2, r1, #536870912
 1654              	.LVL151:
 1655 003a 02F54052 		add	r2, r2, #12288
 1656              		.loc 1 203 0
 1657 003e 5B08     		lsrs	r3, r3, #1
 1658              		.loc 1 199 0
 1659 0040 4FEA4202 		lsl	r2, r2, #1
 1660              	.LVL152:
 1661              		.loc 1 203 0
 1662 0044 07D0     		beq	.L169
 1663 0046 A11E     		subs	r1, r4, #2
 1664 0048 043A     		subs	r2, r2, #4
 1665              	.LVL153:
 1666              	.L173:
 1667              		.loc 1 206 0
 1668 004a 31F8020F 		ldrh	r0, [r1, #2]!
 1669              	.LVL154:
 1670 004e 42F8040F 		str	r0, [r2, #4]!
 1671              	.LVL155:
 1672              		.loc 1 203 0
 1673 0052 013B     		subs	r3, r3, #1
 1674              	.LVL156:
 1675 0054 F9D1     		bne	.L173
 1676              	.LVL157:
 1677              	.L169:
 1678              	.LBE212:
 1679              	.LBE211:
 1680              		.loc 1 724 0
 1681 0056 30BC     		pop	{r4, r5}
 1682              		.cfi_remember_state
 1683              		.cfi_restore 5
 1684              		.cfi_restore 4
 1685              		.cfi_def_cfa_offset 0
 1686 0058 7047     		bx	lr
 1687              	.LVL158:
 1688              	.L177:
 1689              		.cfi_restore_state
 1690              		.loc 1 719 0
 1691 005a 0648     		ldr	r0, .L178
 1692 005c D968     		ldr	r1, [r3, #12]
 1693 005e 006D     		ldr	r0, [r0, #80]
 1694 0060 00F10050 		add	r0, r0, #536870912
 1695 0064 00F54050 		add	r0, r0, #12288
 1696 0068 00EBC500 		add	r0, r0, r5, lsl #3
 1697 006c 4000     		lsls	r0, r0, #1
 1698              		.loc 1 724 0
 1699 006e 30BC     		pop	{r4, r5}
ARM GAS  /tmp/cc2W4Spe.s 			page 31


 1700              		.cfi_restore 5
 1701              		.cfi_restore 4
 1702              		.cfi_def_cfa_offset 0
 1703              		.loc 1 719 0
 1704 0070 FFF7FEBF 		b	usb_packet_write_from_queue
 1705              	.LVL159:
 1706              	.L179:
 1707              		.align	2
 1708              	.L178:
 1709 0074 005C0040 		.word	1073765376
 1710              		.cfi_endproc
 1711              	.LFE274:
 1712              		.size	usb_lld_prepare_transmit, .-usb_lld_prepare_transmit
 1713 0078 AFF30080 		.section	.text.usb_lld_start_out,"ax",%progbits
 1713      AFF30080 
 1714              		.align	2
 1715              		.p2align 4,,15
 1716              		.global	usb_lld_start_out
 1717              		.thumb
 1718              		.thumb_func
 1719              		.type	usb_lld_start_out, %function
 1720              	usb_lld_start_out:
 1721              	.LFB275:
 1722              		.loc 1 734 0
 1723              		.cfi_startproc
 1724              		@ args = 0, pretend = 0, frame = 0
 1725              		@ frame_needed = 0, uses_anonymous_args = 0
 1726              		@ link register save eliminated.
 1727              	.LVL160:
 1728 0000 8900     		lsls	r1, r1, #2
 1729              	.LVL161:
 1730 0002 01F18041 		add	r1, r1, #1073741824
 1731 0006 01F5B841 		add	r1, r1, #23552
 1732              		.loc 1 738 0
 1733 000a 0B68     		ldr	r3, [r1]
 1734 000c 23F49043 		bic	r3, r3, #18432
 1735 0010 23F07003 		bic	r3, r3, #112
 1736 0014 83F44053 		eor	r3, r3, #12288
 1737 0018 43F40043 		orr	r3, r3, #32768
 1738 001c 43F08003 		orr	r3, r3, #128
 1739 0020 0B60     		str	r3, [r1]
 1740 0022 7047     		bx	lr
 1741              		.cfi_endproc
 1742              	.LFE275:
 1743              		.size	usb_lld_start_out, .-usb_lld_start_out
 1744 0024 AFF30080 		.section	.text.usb_lld_start_in,"ax",%progbits
 1744      AFF30080 
 1744      AFF30080 
 1745              		.align	2
 1746              		.p2align 4,,15
 1747              		.global	usb_lld_start_in
 1748              		.thumb
 1749              		.thumb_func
 1750              		.type	usb_lld_start_in, %function
 1751              	usb_lld_start_in:
 1752              	.LFB276:
 1753              		.loc 1 749 0
ARM GAS  /tmp/cc2W4Spe.s 			page 32


 1754              		.cfi_startproc
 1755              		@ args = 0, pretend = 0, frame = 0
 1756              		@ frame_needed = 0, uses_anonymous_args = 0
 1757              		@ link register save eliminated.
 1758              	.LVL162:
 1759 0000 8900     		lsls	r1, r1, #2
 1760              	.LVL163:
 1761 0002 01F18041 		add	r1, r1, #1073741824
 1762 0006 01F5B841 		add	r1, r1, #23552
 1763              		.loc 1 753 0
 1764 000a 0B68     		ldr	r3, [r1]
 1765 000c 23F4F043 		bic	r3, r3, #30720
 1766 0010 23F04003 		bic	r3, r3, #64
 1767 0014 83F03003 		eor	r3, r3, #48
 1768 0018 43F40043 		orr	r3, r3, #32768
 1769 001c 43F08003 		orr	r3, r3, #128
 1770 0020 0B60     		str	r3, [r1]
 1771 0022 7047     		bx	lr
 1772              		.cfi_endproc
 1773              	.LFE276:
 1774              		.size	usb_lld_start_in, .-usb_lld_start_in
 1775 0024 AFF30080 		.section	.text.usb_lld_stall_out,"ax",%progbits
 1775      AFF30080 
 1775      AFF30080 
 1776              		.align	2
 1777              		.p2align 4,,15
 1778              		.global	usb_lld_stall_out
 1779              		.thumb
 1780              		.thumb_func
 1781              		.type	usb_lld_stall_out, %function
 1782              	usb_lld_stall_out:
 1783              	.LFB277:
 1784              		.loc 1 764 0
 1785              		.cfi_startproc
 1786              		@ args = 0, pretend = 0, frame = 0
 1787              		@ frame_needed = 0, uses_anonymous_args = 0
 1788              		@ link register save eliminated.
 1789              	.LVL164:
 1790 0000 8900     		lsls	r1, r1, #2
 1791              	.LVL165:
 1792 0002 01F18041 		add	r1, r1, #1073741824
 1793 0006 01F5B841 		add	r1, r1, #23552
 1794              		.loc 1 768 0
 1795 000a 0B68     		ldr	r3, [r1]
 1796 000c 23F49043 		bic	r3, r3, #18432
 1797 0010 23F07003 		bic	r3, r3, #112
 1798 0014 83F48053 		eor	r3, r3, #4096
 1799 0018 43F40043 		orr	r3, r3, #32768
 1800 001c 43F08003 		orr	r3, r3, #128
 1801 0020 0B60     		str	r3, [r1]
 1802 0022 7047     		bx	lr
 1803              		.cfi_endproc
 1804              	.LFE277:
 1805              		.size	usb_lld_stall_out, .-usb_lld_stall_out
 1806 0024 AFF30080 		.section	.text.usb_lld_stall_in,"ax",%progbits
 1806      AFF30080 
 1806      AFF30080 
ARM GAS  /tmp/cc2W4Spe.s 			page 33


 1807              		.align	2
 1808              		.p2align 4,,15
 1809              		.global	usb_lld_stall_in
 1810              		.thumb
 1811              		.thumb_func
 1812              		.type	usb_lld_stall_in, %function
 1813              	usb_lld_stall_in:
 1814              	.LFB278:
 1815              		.loc 1 779 0
 1816              		.cfi_startproc
 1817              		@ args = 0, pretend = 0, frame = 0
 1818              		@ frame_needed = 0, uses_anonymous_args = 0
 1819              		@ link register save eliminated.
 1820              	.LVL166:
 1821 0000 8900     		lsls	r1, r1, #2
 1822              	.LVL167:
 1823 0002 01F18041 		add	r1, r1, #1073741824
 1824 0006 01F5B841 		add	r1, r1, #23552
 1825              		.loc 1 783 0
 1826 000a 0B68     		ldr	r3, [r1]
 1827 000c 23F4F043 		bic	r3, r3, #30720
 1828 0010 23F04003 		bic	r3, r3, #64
 1829 0014 83F01003 		eor	r3, r3, #16
 1830 0018 43F40043 		orr	r3, r3, #32768
 1831 001c 43F08003 		orr	r3, r3, #128
 1832 0020 0B60     		str	r3, [r1]
 1833 0022 7047     		bx	lr
 1834              		.cfi_endproc
 1835              	.LFE278:
 1836              		.size	usb_lld_stall_in, .-usb_lld_stall_in
 1837 0024 AFF30080 		.section	.text.usb_lld_clear_out,"ax",%progbits
 1837      AFF30080 
 1837      AFF30080 
 1838              		.align	2
 1839              		.p2align 4,,15
 1840              		.global	usb_lld_clear_out
 1841              		.thumb
 1842              		.thumb_func
 1843              		.type	usb_lld_clear_out, %function
 1844              	usb_lld_clear_out:
 1845              	.LFB279:
 1846              		.loc 1 794 0
 1847              		.cfi_startproc
 1848              		@ args = 0, pretend = 0, frame = 0
 1849              		@ frame_needed = 0, uses_anonymous_args = 0
 1850              		@ link register save eliminated.
 1851              	.LVL168:
 1852 0000 8900     		lsls	r1, r1, #2
 1853              	.LVL169:
 1854 0002 01F18041 		add	r1, r1, #1073741824
 1855 0006 01F5B841 		add	r1, r1, #23552
 1856              		.loc 1 800 0
 1857 000a 0B68     		ldr	r3, [r1]
 1858 000c 03F44053 		and	r3, r3, #12288
 1859 0010 B3F5405F 		cmp	r3, #12288
 1860 0014 09D0     		beq	.L184
 1861              		.loc 1 801 0
ARM GAS  /tmp/cc2W4Spe.s 			page 34


 1862 0016 0B68     		ldr	r3, [r1]
 1863 0018 23F4F043 		bic	r3, r3, #30720
 1864 001c 23F04003 		bic	r3, r3, #64
 1865 0020 43F42043 		orr	r3, r3, #40960
 1866 0024 43F08003 		orr	r3, r3, #128
 1867 0028 0B60     		str	r3, [r1]
 1868              	.L184:
 1869 002a 7047     		bx	lr
 1870              		.cfi_endproc
 1871              	.LFE279:
 1872              		.size	usb_lld_clear_out, .-usb_lld_clear_out
 1873 002c AFF30080 		.section	.text.usb_lld_clear_in,"ax",%progbits
 1874              		.align	2
 1875              		.p2align 4,,15
 1876              		.global	usb_lld_clear_in
 1877              		.thumb
 1878              		.thumb_func
 1879              		.type	usb_lld_clear_in, %function
 1880              	usb_lld_clear_in:
 1881              	.LFB280:
 1882              		.loc 1 812 0
 1883              		.cfi_startproc
 1884              		@ args = 0, pretend = 0, frame = 0
 1885              		@ frame_needed = 0, uses_anonymous_args = 0
 1886              		@ link register save eliminated.
 1887              	.LVL170:
 1888 0000 8900     		lsls	r1, r1, #2
 1889              	.LVL171:
 1890 0002 01F18041 		add	r1, r1, #1073741824
 1891 0006 01F5B841 		add	r1, r1, #23552
 1892              		.loc 1 818 0
 1893 000a 0B68     		ldr	r3, [r1]
 1894 000c 03F03003 		and	r3, r3, #48
 1895 0010 302B     		cmp	r3, #48
 1896 0012 0BD0     		beq	.L189
 1897              		.loc 1 819 0
 1898 0014 0B68     		ldr	r3, [r1]
 1899 0016 23F4F043 		bic	r3, r3, #30720
 1900 001a 23F04003 		bic	r3, r3, #64
 1901 001e 83F02003 		eor	r3, r3, #32
 1902 0022 43F40043 		orr	r3, r3, #32768
 1903 0026 43F08003 		orr	r3, r3, #128
 1904 002a 0B60     		str	r3, [r1]
 1905              	.L189:
 1906 002c 7047     		bx	lr
 1907              		.cfi_endproc
 1908              	.LFE280:
 1909              		.size	usb_lld_clear_in, .-usb_lld_clear_in
 1910              		.global	USBD1
 1911 002e 00BF     		.section	.bss.USBD1,"aw",%nobits
 1912              		.align	2
 1913              		.set	.LANCHOR0,. + 0
 1914              		.type	USBD1, %object
 1915              		.size	USBD1, 132
 1916              	USBD1:
 1917 0000 00000000 		.space	132
 1917      00000000 
ARM GAS  /tmp/cc2W4Spe.s 			page 35


 1917      00000000 
 1917      00000000 
 1917      00000000 
 1918              		.section	.rodata.ep0config,"a",%progbits
 1919              		.align	2
 1920              		.set	.LANCHOR2,. + 0
 1921              		.type	ep0config, %object
 1922              		.size	ep0config, 36
 1923              	ep0config:
 1924 0000 00000000 		.word	0
 1925 0004 00000000 		.word	_usb_ep0setup
 1926 0008 00000000 		.word	_usb_ep0in
 1927 000c 00000000 		.word	_usb_ep0out
 1928 0010 4000     		.short	64
 1929 0012 4000     		.short	64
 1930 0014 00000000 		.word	ep0_state
 1931 0018 00000000 		.word	ep0_state
 1932 001c 0100     		.short	1
 1933 001e 0000     		.space	2
 1934 0020 00000000 		.word	ep0setup_buffer
 1935              		.section	.bss.ep0_state,"aw",%nobits
 1936              		.align	2
 1937              		.type	ep0_state, %object
 1938              		.size	ep0_state, 20
 1939              	ep0_state:
 1940 0000 00000000 		.space	20
 1940      00000000 
 1940      00000000 
 1940      00000000 
 1940      00000000 
 1941              		.section	.bss.ep0setup_buffer,"aw",%nobits
 1942              		.align	2
 1943              		.type	ep0setup_buffer, %object
 1944              		.size	ep0setup_buffer, 8
 1945              	ep0setup_buffer:
 1946 0000 00000000 		.space	8
 1946      00000000 
 1947              		.section	.rodata.CSWTCH.32,"a",%progbits
 1948              		.align	2
 1949              		.set	.LANCHOR1,. + 0
 1950              		.type	CSWTCH.32, %object
 1951              		.size	CSWTCH.32, 6
 1952              	CSWTCH.32:
 1953 0000 0004     		.short	1024
 1954 0002 0000     		.short	0
 1955 0004 0006     		.short	1536
 1956 0006 0000     		.text
 1957              	.Letext0:
 1958              		.file 4 "/l/arm2/gcc-arm-none-eabi-4_9-2014q4/lib/gcc/arm-none-eabi/4.9.3/include/stddef.h"
 1959              		.file 5 "/l/arm2/gcc-arm-none-eabi-4_9-2014q4/arm-none-eabi/include/machine/_default_types.h"
 1960              		.file 6 "/l/arm2/gcc-arm-none-eabi-4_9-2014q4/arm-none-eabi/include/stdint.h"
 1961              		.file 7 "../ChibiOS/os/rt/ports/ARMCMx/compilers/GCC/chtypes.h"
 1962              		.file 8 "../ChibiOS/os/rt/include/chsystypes.h"
 1963              		.file 9 "../ChibiOS/os/rt/include/chschd.h"
 1964              		.file 10 "../ChibiOS/os/ext/CMSIS/ST/stm32f303xc.h"
 1965              		.file 11 "../ChibiOS/os/rt/ports/ARMCMx/chcore.h"
 1966              		.file 12 "../ChibiOS/os/rt/ports/ARMCMx/chcore_v7m.h"
ARM GAS  /tmp/cc2W4Spe.s 			page 36


 1967              		.file 13 "../ChibiOS/os/rt/include/chtm.h"
 1968              		.file 14 "../ChibiOS/os/rt/include/chmtx.h"
 1969              		.file 15 "../ChibiOS/os/rt/include/chqueues.h"
 1970              		.file 16 "../ChibiOS/os/hal/include/usb.h"
 1971              		.file 17 "../ChibiOS/os/hal/ports/STM32/LLD/USBv1/usb_lld.h"
 1972              		.file 18 "../ChibiOS/os/hal/ports/STM32/LLD/USBv1/stm32_usb.h"
 1973              		.file 19 "../ChibiOS/os/rt/include/chsys.h"
 1974              		.file 20 "../ChibiOS/os/ext/CMSIS/include/core_cm4.h"
 1975              		.file 21 "../ChibiOS/os/rt/include/chthreads.h"
 1976              		.file 22 "../ChibiOS/os/hal/ports/common/ARMCMx/nvic.h"